
build/Debug/kernel.bin:     file format elf32-i386


Disassembly of section .text:

00100000 <deregister_tm_clones-0x30>:
  100000:	02 b0 ad 1b 07 00    	add    0x71bad(%eax),%dh
  100006:	00 00                	add    %al,(%eax)
  100008:	f7                   	(bad)  
  100009:	4f                   	dec    %edi
  10000a:	52                   	push   %edx
  10000b:	e4 00                	in     $0x0,%al
	...
  100021:	00 00                	add    %al,(%eax)
  100023:	00 80 07 00 00 38    	add    %al,0x38000007(%eax)
  100029:	04 00                	add    $0x0,%al
  10002b:	00 20                	add    %ah,(%eax)
  10002d:	00 00                	add    %al,(%eax)
	...

00100030 <deregister_tm_clones>:
  100030:	b8 7f d5 8e 00       	mov    $0x8ed57f,%eax
  100035:	2d 7c d5 8e 00       	sub    $0x8ed57c,%eax
  10003a:	83 f8 06             	cmp    $0x6,%eax
  10003d:	76 1a                	jbe    100059 <deregister_tm_clones+0x29>
  10003f:	b8 00 00 00 00       	mov    $0x0,%eax
  100044:	85 c0                	test   %eax,%eax
  100046:	74 11                	je     100059 <deregister_tm_clones+0x29>
  100048:	55                   	push   %ebp
  100049:	89 e5                	mov    %esp,%ebp
  10004b:	83 ec 14             	sub    $0x14,%esp
  10004e:	68 7c d5 8e 00       	push   $0x8ed57c
  100053:	ff d0                	call   *%eax
  100055:	83 c4 10             	add    $0x10,%esp
  100058:	c9                   	leave  
  100059:	f3 c3                	repz ret 
  10005b:	90                   	nop
  10005c:	8d 74 26 00          	lea    0x0(%esi,%eiz,1),%esi

00100060 <register_tm_clones>:
  100060:	b8 7c d5 8e 00       	mov    $0x8ed57c,%eax
  100065:	2d 7c d5 8e 00       	sub    $0x8ed57c,%eax
  10006a:	c1 f8 02             	sar    $0x2,%eax
  10006d:	89 c2                	mov    %eax,%edx
  10006f:	c1 ea 1f             	shr    $0x1f,%edx
  100072:	01 d0                	add    %edx,%eax
  100074:	d1 f8                	sar    %eax
  100076:	74 1b                	je     100093 <register_tm_clones+0x33>
  100078:	ba 00 00 00 00       	mov    $0x0,%edx
  10007d:	85 d2                	test   %edx,%edx
  10007f:	74 12                	je     100093 <register_tm_clones+0x33>
  100081:	55                   	push   %ebp
  100082:	89 e5                	mov    %esp,%ebp
  100084:	83 ec 10             	sub    $0x10,%esp
  100087:	50                   	push   %eax
  100088:	68 7c d5 8e 00       	push   $0x8ed57c
  10008d:	ff d2                	call   *%edx
  10008f:	83 c4 10             	add    $0x10,%esp
  100092:	c9                   	leave  
  100093:	f3 c3                	repz ret 
  100095:	8d 74 26 00          	lea    0x0(%esi,%eiz,1),%esi
  100099:	8d bc 27 00 00 00 00 	lea    0x0(%edi,%eiz,1),%edi

001000a0 <__do_global_dtors_aux>:
  1000a0:	80 3d d0 2c 0e 02 00 	cmpb   $0x0,0x20e2cd0
  1000a7:	75 68                	jne    100111 <__do_global_dtors_aux+0x71>
  1000a9:	55                   	push   %ebp
  1000aa:	89 e5                	mov    %esp,%ebp
  1000ac:	53                   	push   %ebx
  1000ad:	bb 74 d5 8e 00       	mov    $0x8ed574,%ebx
  1000b2:	81 eb 70 d5 8e 00    	sub    $0x8ed570,%ebx
  1000b8:	83 ec 04             	sub    $0x4,%esp
  1000bb:	a1 d4 2c 0e 02       	mov    0x20e2cd4,%eax
  1000c0:	c1 fb 02             	sar    $0x2,%ebx
  1000c3:	83 eb 01             	sub    $0x1,%ebx
  1000c6:	39 d8                	cmp    %ebx,%eax
  1000c8:	73 1e                	jae    1000e8 <__do_global_dtors_aux+0x48>
  1000ca:	8d b6 00 00 00 00    	lea    0x0(%esi),%esi
  1000d0:	83 c0 01             	add    $0x1,%eax
  1000d3:	a3 d4 2c 0e 02       	mov    %eax,0x20e2cd4
  1000d8:	ff 14 85 70 d5 8e 00 	call   *0x8ed570(,%eax,4)
  1000df:	a1 d4 2c 0e 02       	mov    0x20e2cd4,%eax
  1000e4:	39 d8                	cmp    %ebx,%eax
  1000e6:	72 e8                	jb     1000d0 <__do_global_dtors_aux+0x30>
  1000e8:	e8 43 ff ff ff       	call   100030 <deregister_tm_clones>
  1000ed:	b8 00 00 00 00       	mov    $0x0,%eax
  1000f2:	85 c0                	test   %eax,%eax
  1000f4:	74 10                	je     100106 <__do_global_dtors_aux+0x66>
  1000f6:	83 ec 0c             	sub    $0xc,%esp
  1000f9:	68 00 30 10 00       	push   $0x103000
  1000fe:	e8 fd fe ef ff       	call   0 <ALIGN-0x1>
  100103:	83 c4 10             	add    $0x10,%esp
  100106:	c6 05 d0 2c 0e 02 01 	movb   $0x1,0x20e2cd0
  10010d:	8b 5d fc             	mov    -0x4(%ebp),%ebx
  100110:	c9                   	leave  
  100111:	f3 c3                	repz ret 
  100113:	8d b6 00 00 00 00    	lea    0x0(%esi),%esi
  100119:	8d bc 27 00 00 00 00 	lea    0x0(%edi,%eiz,1),%edi

00100120 <frame_dummy>:
  100120:	55                   	push   %ebp
  100121:	b8 00 00 00 00       	mov    $0x0,%eax
  100126:	89 e5                	mov    %esp,%ebp
  100128:	83 ec 08             	sub    $0x8,%esp
  10012b:	85 c0                	test   %eax,%eax
  10012d:	74 15                	je     100144 <frame_dummy+0x24>
  10012f:	83 ec 08             	sub    $0x8,%esp
  100132:	68 d8 2c 0e 02       	push   $0x20e2cd8
  100137:	68 00 30 10 00       	push   $0x103000
  10013c:	e8 bf fe ef ff       	call   0 <ALIGN-0x1>
  100141:	83 c4 10             	add    $0x10,%esp
  100144:	b8 78 d5 8e 00       	mov    $0x8ed578,%eax
  100149:	8b 10                	mov    (%eax),%edx
  10014b:	85 d2                	test   %edx,%edx
  10014d:	75 11                	jne    100160 <frame_dummy+0x40>
  10014f:	c9                   	leave  
  100150:	e9 0b ff ff ff       	jmp    100060 <register_tm_clones>
  100155:	8d 74 26 00          	lea    0x0(%esi,%eiz,1),%esi
  100159:	8d bc 27 00 00 00 00 	lea    0x0(%edi,%eiz,1),%edi
  100160:	ba 00 00 00 00       	mov    $0x0,%edx
  100165:	85 d2                	test   %edx,%edx
  100167:	74 e6                	je     10014f <frame_dummy+0x2f>
  100169:	83 ec 0c             	sub    $0xc,%esp
  10016c:	50                   	push   %eax
  10016d:	ff d2                	call   *%edx
  10016f:	83 c4 10             	add    $0x10,%esp
  100172:	eb db                	jmp    10014f <frame_dummy+0x2f>
  100174:	66 90                	xchg   %ax,%ax
  100176:	66 90                	xchg   %ax,%ax
  100178:	66 90                	xchg   %ax,%ax
  10017a:	66 90                	xchg   %ax,%ax
  10017c:	66 90                	xchg   %ax,%ax
  10017e:	66 90                	xchg   %ax,%ax

00100180 <outb>:
  100180:	55                   	push   %ebp
  100181:	89 e5                	mov    %esp,%ebp
  100183:	50                   	push   %eax
  100184:	0f b7 45 08          	movzwl 0x8(%ebp),%eax
  100188:	66 89 c1             	mov    %ax,%cx
  10018b:	8a 55 0c             	mov    0xc(%ebp),%dl
  10018e:	66 89 4d fe          	mov    %cx,-0x2(%ebp)
  100192:	88 55 fd             	mov    %dl,-0x3(%ebp)
  100195:	66 8b 55 fe          	mov    -0x2(%ebp),%dx
  100199:	8a 45 fd             	mov    -0x3(%ebp),%al
  10019c:	ee                   	out    %al,(%dx)
  10019d:	83 c4 04             	add    $0x4,%esp
  1001a0:	5d                   	pop    %ebp
  1001a1:	c3                   	ret    
  1001a2:	8d b4 26 00 00 00 00 	lea    0x0(%esi,%eiz,1),%esi
  1001a9:	8d bc 27 00 00 00 00 	lea    0x0(%edi,%eiz,1),%edi

001001b0 <inb>:
  1001b0:	55                   	push   %ebp
  1001b1:	89 e5                	mov    %esp,%ebp
  1001b3:	50                   	push   %eax
  1001b4:	0f b7 45 08          	movzwl 0x8(%ebp),%eax
  1001b8:	66 89 c1             	mov    %ax,%cx
  1001bb:	66 89 4d fe          	mov    %cx,-0x2(%ebp)
  1001bf:	66 8b 55 fe          	mov    -0x2(%ebp),%dx
  1001c3:	ec                   	in     (%dx),%al
  1001c4:	88 45 fd             	mov    %al,-0x3(%ebp)
  1001c7:	0f b6 45 fd          	movzbl -0x3(%ebp),%eax
  1001cb:	83 c4 04             	add    $0x4,%esp
  1001ce:	5d                   	pop    %ebp
  1001cf:	c3                   	ret    

001001d0 <memcpy>:
  1001d0:	55                   	push   %ebp
  1001d1:	89 e5                	mov    %esp,%ebp
  1001d3:	83 ec 18             	sub    $0x18,%esp
  1001d6:	8b 45 10             	mov    0x10(%ebp),%eax
  1001d9:	8b 4d 0c             	mov    0xc(%ebp),%ecx
  1001dc:	8b 55 08             	mov    0x8(%ebp),%edx
  1001df:	89 55 fc             	mov    %edx,-0x4(%ebp)
  1001e2:	89 4d f8             	mov    %ecx,-0x8(%ebp)
  1001e5:	89 45 f4             	mov    %eax,-0xc(%ebp)
  1001e8:	8b 45 fc             	mov    -0x4(%ebp),%eax
  1001eb:	89 45 f0             	mov    %eax,-0x10(%ebp)
  1001ee:	8b 45 f8             	mov    -0x8(%ebp),%eax
  1001f1:	89 45 ec             	mov    %eax,-0x14(%ebp)
  1001f4:	c7 45 e8 00 00 00 00 	movl   $0x0,-0x18(%ebp)
  1001fb:	8b 45 e8             	mov    -0x18(%ebp),%eax
  1001fe:	3b 45 f4             	cmp    -0xc(%ebp),%eax
  100201:	73 1d                	jae    100220 <memcpy+0x50>
  100203:	8b 45 e8             	mov    -0x18(%ebp),%eax
  100206:	8b 4d ec             	mov    -0x14(%ebp),%ecx
  100209:	8a 14 01             	mov    (%ecx,%eax,1),%dl
  10020c:	8b 45 e8             	mov    -0x18(%ebp),%eax
  10020f:	8b 4d f0             	mov    -0x10(%ebp),%ecx
  100212:	88 14 01             	mov    %dl,(%ecx,%eax,1)
  100215:	8b 45 e8             	mov    -0x18(%ebp),%eax
  100218:	83 c0 01             	add    $0x1,%eax
  10021b:	89 45 e8             	mov    %eax,-0x18(%ebp)
  10021e:	eb db                	jmp    1001fb <memcpy+0x2b>
  100220:	8b 45 fc             	mov    -0x4(%ebp),%eax
  100223:	83 c4 18             	add    $0x18,%esp
  100226:	5d                   	pop    %ebp
  100227:	c3                   	ret    
  100228:	90                   	nop
  100229:	8d b4 26 00 00 00 00 	lea    0x0(%esi,%eiz,1),%esi

00100230 <memset>:
  100230:	55                   	push   %ebp
  100231:	89 e5                	mov    %esp,%ebp
  100233:	83 ec 14             	sub    $0x14,%esp
  100236:	8b 45 10             	mov    0x10(%ebp),%eax
  100239:	8b 4d 0c             	mov    0xc(%ebp),%ecx
  10023c:	8b 55 08             	mov    0x8(%ebp),%edx
  10023f:	89 55 fc             	mov    %edx,-0x4(%ebp)
  100242:	89 4d f8             	mov    %ecx,-0x8(%ebp)
  100245:	89 45 f4             	mov    %eax,-0xc(%ebp)
  100248:	8b 45 fc             	mov    -0x4(%ebp),%eax
  10024b:	89 45 f0             	mov    %eax,-0x10(%ebp)
  10024e:	c7 45 ec 00 00 00 00 	movl   $0x0,-0x14(%ebp)
  100255:	8b 45 ec             	mov    -0x14(%ebp),%eax
  100258:	3b 45 f4             	cmp    -0xc(%ebp),%eax
  10025b:	73 19                	jae    100276 <memset+0x46>
  10025d:	8b 45 f8             	mov    -0x8(%ebp),%eax
  100260:	88 c1                	mov    %al,%cl
  100262:	8b 45 ec             	mov    -0x14(%ebp),%eax
  100265:	8b 55 f0             	mov    -0x10(%ebp),%edx
  100268:	88 0c 02             	mov    %cl,(%edx,%eax,1)
  10026b:	8b 45 ec             	mov    -0x14(%ebp),%eax
  10026e:	83 c0 01             	add    $0x1,%eax
  100271:	89 45 ec             	mov    %eax,-0x14(%ebp)
  100274:	eb df                	jmp    100255 <memset+0x25>
  100276:	8b 45 fc             	mov    -0x4(%ebp),%eax
  100279:	83 c4 14             	add    $0x14,%esp
  10027c:	5d                   	pop    %ebp
  10027d:	c3                   	ret    
  10027e:	66 90                	xchg   %ax,%ax

00100280 <strrev>:
  100280:	55                   	push   %ebp
  100281:	89 e5                	mov    %esp,%ebp
  100283:	83 ec 14             	sub    $0x14,%esp
  100286:	8b 45 08             	mov    0x8(%ebp),%eax
  100289:	89 45 fc             	mov    %eax,-0x4(%ebp)
  10028c:	83 7d fc 00          	cmpl   $0x0,-0x4(%ebp)
  100290:	74 08                	je     10029a <strrev+0x1a>
  100292:	8b 45 fc             	mov    -0x4(%ebp),%eax
  100295:	80 38 00             	cmpb   $0x0,(%eax)
  100298:	75 02                	jne    10029c <strrev+0x1c>
  10029a:	eb 52                	jmp    1002ee <strrev+0x6e>
  10029c:	8b 45 fc             	mov    -0x4(%ebp),%eax
  10029f:	8b 4d fc             	mov    -0x4(%ebp),%ecx
  1002a2:	89 0c 24             	mov    %ecx,(%esp)
  1002a5:	89 45 f0             	mov    %eax,-0x10(%ebp)
  1002a8:	e8 53 00 00 00       	call   100300 <strlen>
  1002ad:	8b 4d f0             	mov    -0x10(%ebp),%ecx
  1002b0:	01 c1                	add    %eax,%ecx
  1002b2:	83 c1 ff             	add    $0xffffffff,%ecx
  1002b5:	89 4d f4             	mov    %ecx,-0xc(%ebp)
  1002b8:	8b 45 f4             	mov    -0xc(%ebp),%eax
  1002bb:	3b 45 fc             	cmp    -0x4(%ebp),%eax
  1002be:	76 2e                	jbe    1002ee <strrev+0x6e>
  1002c0:	8b 45 fc             	mov    -0x4(%ebp),%eax
  1002c3:	8a 08                	mov    (%eax),%cl
  1002c5:	88 4d fb             	mov    %cl,-0x5(%ebp)
  1002c8:	8b 45 f4             	mov    -0xc(%ebp),%eax
  1002cb:	8a 08                	mov    (%eax),%cl
  1002cd:	8b 45 fc             	mov    -0x4(%ebp),%eax
  1002d0:	88 08                	mov    %cl,(%eax)
  1002d2:	8a 4d fb             	mov    -0x5(%ebp),%cl
  1002d5:	8b 45 f4             	mov    -0xc(%ebp),%eax
  1002d8:	88 08                	mov    %cl,(%eax)
  1002da:	8b 45 fc             	mov    -0x4(%ebp),%eax
  1002dd:	83 c0 01             	add    $0x1,%eax
  1002e0:	89 45 fc             	mov    %eax,-0x4(%ebp)
  1002e3:	8b 45 f4             	mov    -0xc(%ebp),%eax
  1002e6:	83 c0 ff             	add    $0xffffffff,%eax
  1002e9:	89 45 f4             	mov    %eax,-0xc(%ebp)
  1002ec:	eb ca                	jmp    1002b8 <strrev+0x38>
  1002ee:	83 c4 14             	add    $0x14,%esp
  1002f1:	5d                   	pop    %ebp
  1002f2:	c3                   	ret    
  1002f3:	8d b6 00 00 00 00    	lea    0x0(%esi),%esi
  1002f9:	8d bc 27 00 00 00 00 	lea    0x0(%edi,%eiz,1),%edi

00100300 <strlen>:
  100300:	55                   	push   %ebp
  100301:	89 e5                	mov    %esp,%ebp
  100303:	83 ec 08             	sub    $0x8,%esp
  100306:	8b 45 08             	mov    0x8(%ebp),%eax
  100309:	89 45 fc             	mov    %eax,-0x4(%ebp)
  10030c:	c7 45 f8 00 00 00 00 	movl   $0x0,-0x8(%ebp)
  100313:	8b 45 f8             	mov    -0x8(%ebp),%eax
  100316:	8b 4d fc             	mov    -0x4(%ebp),%ecx
  100319:	0f be 04 01          	movsbl (%ecx,%eax,1),%eax
  10031d:	83 f8 00             	cmp    $0x0,%eax
  100320:	74 0b                	je     10032d <strlen+0x2d>
  100322:	8b 45 f8             	mov    -0x8(%ebp),%eax
  100325:	83 c0 01             	add    $0x1,%eax
  100328:	89 45 f8             	mov    %eax,-0x8(%ebp)
  10032b:	eb e6                	jmp    100313 <strlen+0x13>
  10032d:	8b 45 f8             	mov    -0x8(%ebp),%eax
  100330:	83 c4 08             	add    $0x8,%esp
  100333:	5d                   	pop    %ebp
  100334:	c3                   	ret    
  100335:	66 90                	xchg   %ax,%ax
  100337:	66 90                	xchg   %ax,%ax
  100339:	66 90                	xchg   %ax,%ax
  10033b:	66 90                	xchg   %ax,%ax
  10033d:	66 90                	xchg   %ax,%ax
  10033f:	90                   	nop

00100340 <Graphics_Initialize>:
  100340:	55                   	push   %ebp
  100341:	89 e5                	mov    %esp,%ebp
  100343:	57                   	push   %edi
  100344:	56                   	push   %esi
  100345:	83 ec 20             	sub    $0x20,%esp
  100348:	a1 14 70 0d 01       	mov    0x10d7014,%eax
  10034d:	8b 40 60             	mov    0x60(%eax),%eax
  100350:	c1 e8 02             	shr    $0x2,%eax
  100353:	a3 24 70 0d 01       	mov    %eax,0x10d7024
  100358:	a1 14 70 0d 01       	mov    0x10d7014,%eax
  10035d:	8b 40 64             	mov    0x64(%eax),%eax
  100360:	a3 30 70 0d 01       	mov    %eax,0x10d7030
  100365:	a1 14 70 0d 01       	mov    0x10d7014,%eax
  10036a:	8b 40 68             	mov    0x68(%eax),%eax
  10036d:	a3 2c 70 0d 01       	mov    %eax,0x10d702c
  100372:	a1 14 70 0d 01       	mov    0x10d7014,%eax
  100377:	8a 48 6c             	mov    0x6c(%eax),%cl
  10037a:	88 0d 18 70 0d 01    	mov    %cl,0x10d7018
  100380:	a1 30 70 0d 01       	mov    0x10d7030,%eax
  100385:	ba cd cc cc cc       	mov    $0xcccccccd,%edx
  10038a:	89 55 f4             	mov    %edx,-0xc(%ebp)
  10038d:	f7 e2                	mul    %edx
  10038f:	c1 ea 03             	shr    $0x3,%edx
  100392:	89 15 f0 2c 0e 02    	mov    %edx,0x20e2cf0
  100398:	a1 2c 70 0d 01       	mov    0x10d702c,%eax
  10039d:	8b 55 f4             	mov    -0xc(%ebp),%edx
  1003a0:	f7 e2                	mul    %edx
  1003a2:	c1 ea 04             	shr    $0x4,%edx
  1003a5:	89 15 f4 2c 0e 02    	mov    %edx,0x20e2cf4
  1003ab:	a1 24 70 0d 01       	mov    0x10d7024,%eax
  1003b0:	8b 15 2c 70 0d 01    	mov    0x10d702c,%edx
  1003b6:	0f af c2             	imul   %edx,%eax
  1003b9:	c1 e0 02             	shl    $0x2,%eax
  1003bc:	a3 20 70 0d 01       	mov    %eax,0x10d7020
  1003c1:	a1 14 70 0d 01       	mov    0x10d7014,%eax
  1003c6:	8b 40 58             	mov    0x58(%eax),%eax
  1003c9:	a3 1c 70 0d 01       	mov    %eax,0x10d701c
  1003ce:	a1 20 70 0d 01       	mov    0x10d7020,%eax
  1003d3:	89 04 24             	mov    %eax,(%esp)
  1003d6:	e8 a5 07 00 00       	call   100b80 <Bootstrap_malloc>
  1003db:	ba 01 00 00 00       	mov    $0x1,%edx
  1003e0:	a3 08 e0 8e 00       	mov    %eax,0x8ee008
  1003e5:	a1 08 e0 8e 00       	mov    0x8ee008,%eax
  1003ea:	a3 0c 70 0d 01       	mov    %eax,0x10d700c
  1003ef:	a1 1c 70 0d 01       	mov    0x10d701c,%eax
  1003f4:	8b 35 20 70 0d 01    	mov    0x10d7020,%esi
  1003fa:	89 04 24             	mov    %eax,(%esp)
  1003fd:	c7 44 24 04 01 00 00 	movl   $0x1,0x4(%esp)
  100404:	00 
  100405:	89 74 24 08          	mov    %esi,0x8(%esp)
  100409:	89 55 f0             	mov    %edx,-0x10(%ebp)
  10040c:	e8 1f fe ff ff       	call   100230 <memset>
  100411:	ba 01 00 00 00       	mov    $0x1,%edx
  100416:	8b 35 08 e0 8e 00    	mov    0x8ee008,%esi
  10041c:	8b 3d 20 70 0d 01    	mov    0x10d7020,%edi
  100422:	89 34 24             	mov    %esi,(%esp)
  100425:	c7 44 24 04 01 00 00 	movl   $0x1,0x4(%esp)
  10042c:	00 
  10042d:	89 7c 24 08          	mov    %edi,0x8(%esp)
  100431:	89 45 ec             	mov    %eax,-0x14(%ebp)
  100434:	89 55 e8             	mov    %edx,-0x18(%ebp)
  100437:	e8 f4 fd ff ff       	call   100230 <memset>
  10043c:	89 45 e4             	mov    %eax,-0x1c(%ebp)
  10043f:	83 c4 20             	add    $0x20,%esp
  100442:	5e                   	pop    %esi
  100443:	5f                   	pop    %edi
  100444:	5d                   	pop    %ebp
  100445:	c3                   	ret    
  100446:	8d 76 00             	lea    0x0(%esi),%esi
  100449:	8d bc 27 00 00 00 00 	lea    0x0(%edi,%eiz,1),%edi

00100450 <Graphics_SwapBuffer>:
  100450:	55                   	push   %ebp
  100451:	89 e5                	mov    %esp,%ebp
  100453:	83 ec 10             	sub    $0x10,%esp
  100456:	a1 1c 70 0d 01       	mov    0x10d701c,%eax
  10045b:	8b 0d 08 e0 8e 00    	mov    0x8ee008,%ecx
  100461:	8b 15 20 70 0d 01    	mov    0x10d7020,%edx
  100467:	89 04 24             	mov    %eax,(%esp)
  10046a:	89 4c 24 04          	mov    %ecx,0x4(%esp)
  10046e:	89 54 24 08          	mov    %edx,0x8(%esp)
  100472:	e8 59 fd ff ff       	call   1001d0 <memcpy>
  100477:	89 45 fc             	mov    %eax,-0x4(%ebp)
  10047a:	83 c4 10             	add    $0x10,%esp
  10047d:	5d                   	pop    %ebp
  10047e:	c3                   	ret    
  10047f:	90                   	nop

00100480 <Graphics_Clear>:
  100480:	55                   	push   %ebp
  100481:	89 e5                	mov    %esp,%ebp
  100483:	83 ec 14             	sub    $0x14,%esp
  100486:	b8 01 00 00 00       	mov    $0x1,%eax
  10048b:	8b 0d 08 e0 8e 00    	mov    0x8ee008,%ecx
  100491:	8b 15 20 70 0d 01    	mov    0x10d7020,%edx
  100497:	89 0c 24             	mov    %ecx,(%esp)
  10049a:	c7 44 24 04 01 00 00 	movl   $0x1,0x4(%esp)
  1004a1:	00 
  1004a2:	89 54 24 08          	mov    %edx,0x8(%esp)
  1004a6:	89 45 fc             	mov    %eax,-0x4(%ebp)
  1004a9:	e8 82 fd ff ff       	call   100230 <memset>
  1004ae:	89 45 f8             	mov    %eax,-0x8(%ebp)
  1004b1:	83 c4 14             	add    $0x14,%esp
  1004b4:	5d                   	pop    %ebp
  1004b5:	c3                   	ret    
  1004b6:	8d 76 00             	lea    0x0(%esi),%esi
  1004b9:	8d bc 27 00 00 00 00 	lea    0x0(%edi,%eiz,1),%edi

001004c0 <Graphics_WriteStr>:
  1004c0:	55                   	push   %ebp
  1004c1:	89 e5                	mov    %esp,%ebp
  1004c3:	57                   	push   %edi
  1004c4:	56                   	push   %esi
  1004c5:	83 ec 1c             	sub    $0x1c,%esp
  1004c8:	8b 45 10             	mov    0x10(%ebp),%eax
  1004cb:	8b 4d 0c             	mov    0xc(%ebp),%ecx
  1004ce:	8b 55 08             	mov    0x8(%ebp),%edx
  1004d1:	89 55 f4             	mov    %edx,-0xc(%ebp)
  1004d4:	89 4d f0             	mov    %ecx,-0x10(%ebp)
  1004d7:	89 45 ec             	mov    %eax,-0x14(%ebp)
  1004da:	c7 45 e8 00 00 00 00 	movl   $0x0,-0x18(%ebp)
  1004e1:	8b 45 e8             	mov    -0x18(%ebp),%eax
  1004e4:	8b 4d f4             	mov    -0xc(%ebp),%ecx
  1004e7:	0f be 04 01          	movsbl (%ecx,%eax,1),%eax
  1004eb:	83 f8 00             	cmp    $0x0,%eax
  1004ee:	0f 84 b3 00 00 00    	je     1005a7 <Graphics_WriteStr+0xe7>
  1004f4:	c7 45 e4 00 00 00 00 	movl   $0x0,-0x1c(%ebp)
  1004fb:	83 7d e4 08          	cmpl   $0x8,-0x1c(%ebp)
  1004ff:	0f 8d 8b 00 00 00    	jge    100590 <Graphics_WriteStr+0xd0>
  100505:	8b 45 ec             	mov    -0x14(%ebp),%eax
  100508:	89 45 e0             	mov    %eax,-0x20(%ebp)
  10050b:	8b 45 e0             	mov    -0x20(%ebp),%eax
  10050e:	8b 4d ec             	mov    -0x14(%ebp),%ecx
  100511:	83 c1 0d             	add    $0xd,%ecx
  100514:	39 c8                	cmp    %ecx,%eax
  100516:	7d 68                	jge    100580 <Graphics_WriteStr+0xc0>
  100518:	b8 08 00 00 00       	mov    $0x8,%eax
  10051d:	8d 0d 04 d0 8e 00    	lea    0x8ed004,%ecx
  100523:	ba 0d 00 00 00       	mov    $0xd,%edx
  100528:	8b 75 e0             	mov    -0x20(%ebp),%esi
  10052b:	2b 75 ec             	sub    -0x14(%ebp),%esi
  10052e:	29 f2                	sub    %esi,%edx
  100530:	8b 75 e8             	mov    -0x18(%ebp),%esi
  100533:	8b 7d f4             	mov    -0xc(%ebp),%edi
  100536:	0f be 34 37          	movsbl (%edi,%esi,1),%esi
  10053a:	83 ee 20             	sub    $0x20,%esi
  10053d:	6b f6 0d             	imul   $0xd,%esi,%esi
  100540:	01 f1                	add    %esi,%ecx
  100542:	0f b6 0c 11          	movzbl (%ecx,%edx,1),%ecx
  100546:	8b 55 e4             	mov    -0x1c(%ebp),%edx
  100549:	89 4d dc             	mov    %ecx,-0x24(%ebp)
  10054c:	89 d1                	mov    %edx,%ecx
  10054e:	8b 55 dc             	mov    -0x24(%ebp),%edx
  100551:	d3 fa                	sar    %cl,%edx
  100553:	83 e2 01             	and    $0x1,%edx
  100556:	6b d2 ff             	imul   $0xffffffff,%edx,%edx
  100559:	8b 75 f0             	mov    -0x10(%ebp),%esi
  10055c:	2b 45 e4             	sub    -0x1c(%ebp),%eax
  10055f:	01 c6                	add    %eax,%esi
  100561:	8b 45 e0             	mov    -0x20(%ebp),%eax
  100564:	0f af 05 24 70 0d 01 	imul   0x10d7024,%eax
  10056b:	01 c6                	add    %eax,%esi
  10056d:	a1 0c 70 0d 01       	mov    0x10d700c,%eax
  100572:	89 14 b0             	mov    %edx,(%eax,%esi,4)
  100575:	8b 45 e0             	mov    -0x20(%ebp),%eax
  100578:	83 c0 01             	add    $0x1,%eax
  10057b:	89 45 e0             	mov    %eax,-0x20(%ebp)
  10057e:	eb 8b                	jmp    10050b <Graphics_WriteStr+0x4b>
  100580:	eb 00                	jmp    100582 <Graphics_WriteStr+0xc2>
  100582:	8b 45 e4             	mov    -0x1c(%ebp),%eax
  100585:	83 c0 01             	add    $0x1,%eax
  100588:	89 45 e4             	mov    %eax,-0x1c(%ebp)
  10058b:	e9 6b ff ff ff       	jmp    1004fb <Graphics_WriteStr+0x3b>
  100590:	8b 45 f0             	mov    -0x10(%ebp),%eax
  100593:	83 c0 10             	add    $0x10,%eax
  100596:	89 45 f0             	mov    %eax,-0x10(%ebp)
  100599:	8b 45 e8             	mov    -0x18(%ebp),%eax
  10059c:	83 c0 01             	add    $0x1,%eax
  10059f:	89 45 e8             	mov    %eax,-0x18(%ebp)
  1005a2:	e9 3a ff ff ff       	jmp    1004e1 <Graphics_WriteStr+0x21>
  1005a7:	83 c4 1c             	add    $0x1c,%esp
  1005aa:	5e                   	pop    %esi
  1005ab:	5f                   	pop    %edi
  1005ac:	5d                   	pop    %ebp
  1005ad:	c3                   	ret    
  1005ae:	66 90                	xchg   %ax,%ax

001005b0 <Graphics_WriteUInt32>:
  1005b0:	55                   	push   %ebp
  1005b1:	89 e5                	mov    %esp,%ebp
  1005b3:	57                   	push   %edi
  1005b4:	56                   	push   %esi
  1005b5:	83 ec 6c             	sub    $0x6c,%esp
  1005b8:	8b 45 14             	mov    0x14(%ebp),%eax
  1005bb:	8b 4d 10             	mov    0x10(%ebp),%ecx
  1005be:	8b 55 0c             	mov    0xc(%ebp),%edx
  1005c1:	8b 75 08             	mov    0x8(%ebp),%esi
  1005c4:	8d 3d 70 31 10 00    	lea    0x103170,%edi
  1005ca:	89 75 f4             	mov    %esi,-0xc(%ebp)
  1005cd:	89 55 f0             	mov    %edx,-0x10(%ebp)
  1005d0:	89 4d ec             	mov    %ecx,-0x14(%ebp)
  1005d3:	89 45 e8             	mov    %eax,-0x18(%ebp)
  1005d6:	89 7d b0             	mov    %edi,-0x50(%ebp)
  1005d9:	83 7d f0 10          	cmpl   $0x10,-0x10(%ebp)
  1005dd:	75 49                	jne    100628 <Graphics_WriteUInt32+0x78>
  1005df:	c7 45 ac 00 00 00 00 	movl   $0x0,-0x54(%ebp)
  1005e6:	83 7d ac 08          	cmpl   $0x8,-0x54(%ebp)
  1005ea:	7d 33                	jge    10061f <Graphics_WriteUInt32+0x6f>
  1005ec:	b8 07 00 00 00       	mov    $0x7,%eax
  1005f1:	8b 4d f4             	mov    -0xc(%ebp),%ecx
  1005f4:	8b 55 ac             	mov    -0x54(%ebp),%edx
  1005f7:	c1 e2 02             	shl    $0x2,%edx
  1005fa:	89 4d a0             	mov    %ecx,-0x60(%ebp)
  1005fd:	89 d1                	mov    %edx,%ecx
  1005ff:	8b 55 a0             	mov    -0x60(%ebp),%edx
  100602:	d3 ea                	shr    %cl,%edx
  100604:	83 e2 0f             	and    $0xf,%edx
  100607:	8b 75 b0             	mov    -0x50(%ebp),%esi
  10060a:	8a 0c 16             	mov    (%esi,%edx,1),%cl
  10060d:	2b 45 ac             	sub    -0x54(%ebp),%eax
  100610:	88 4c 05 b6          	mov    %cl,-0x4a(%ebp,%eax,1)
  100614:	8b 45 ac             	mov    -0x54(%ebp),%eax
  100617:	83 c0 01             	add    $0x1,%eax
  10061a:	89 45 ac             	mov    %eax,-0x54(%ebp)
  10061d:	eb c7                	jmp    1005e6 <Graphics_WriteUInt32+0x36>
  10061f:	c6 45 be 00          	movb   $0x0,-0x42(%ebp)
  100623:	e9 a9 00 00 00       	jmp    1006d1 <Graphics_WriteUInt32+0x121>
  100628:	83 7d f0 02          	cmpl   $0x2,-0x10(%ebp)
  10062c:	75 43                	jne    100671 <Graphics_WriteUInt32+0xc1>
  10062e:	c7 45 a8 00 00 00 00 	movl   $0x0,-0x58(%ebp)
  100635:	83 7d a8 20          	cmpl   $0x20,-0x58(%ebp)
  100639:	7d 30                	jge    10066b <Graphics_WriteUInt32+0xbb>
  10063b:	b8 1f 00 00 00       	mov    $0x1f,%eax
  100640:	8b 4d f4             	mov    -0xc(%ebp),%ecx
  100643:	8b 55 a8             	mov    -0x58(%ebp),%edx
  100646:	89 4d 9c             	mov    %ecx,-0x64(%ebp)
  100649:	89 d1                	mov    %edx,%ecx
  10064b:	8b 55 9c             	mov    -0x64(%ebp),%edx
  10064e:	d3 ea                	shr    %cl,%edx
  100650:	83 e2 01             	and    $0x1,%edx
  100653:	8b 75 b0             	mov    -0x50(%ebp),%esi
  100656:	8a 0c 16             	mov    (%esi,%edx,1),%cl
  100659:	2b 45 a8             	sub    -0x58(%ebp),%eax
  10065c:	88 4c 05 b6          	mov    %cl,-0x4a(%ebp,%eax,1)
  100660:	8b 45 a8             	mov    -0x58(%ebp),%eax
  100663:	83 c0 01             	add    $0x1,%eax
  100666:	89 45 a8             	mov    %eax,-0x58(%ebp)
  100669:	eb ca                	jmp    100635 <Graphics_WriteUInt32+0x85>
  10066b:	c6 45 d6 00          	movb   $0x0,-0x2a(%ebp)
  10066f:	eb 5e                	jmp    1006cf <Graphics_WriteUInt32+0x11f>
  100671:	83 7d f0 10          	cmpl   $0x10,-0x10(%ebp)
  100675:	7d 54                	jge    1006cb <Graphics_WriteUInt32+0x11b>
  100677:	c7 45 a4 00 00 00 00 	movl   $0x0,-0x5c(%ebp)
  10067e:	8b 45 f4             	mov    -0xc(%ebp),%eax
  100681:	31 d2                	xor    %edx,%edx
  100683:	f7 75 f0             	divl   -0x10(%ebp)
  100686:	8b 45 b0             	mov    -0x50(%ebp),%eax
  100689:	8a 0c 10             	mov    (%eax,%edx,1),%cl
  10068c:	8b 45 a4             	mov    -0x5c(%ebp),%eax
  10068f:	89 c2                	mov    %eax,%edx
  100691:	83 c2 01             	add    $0x1,%edx
  100694:	89 55 a4             	mov    %edx,-0x5c(%ebp)
  100697:	88 4c 05 b6          	mov    %cl,-0x4a(%ebp,%eax,1)
  10069b:	8b 45 f0             	mov    -0x10(%ebp),%eax
  10069e:	8b 55 f4             	mov    -0xc(%ebp),%edx
  1006a1:	89 45 98             	mov    %eax,-0x68(%ebp)
  1006a4:	89 d0                	mov    %edx,%eax
  1006a6:	31 d2                	xor    %edx,%edx
  1006a8:	8b 75 98             	mov    -0x68(%ebp),%esi
  1006ab:	f7 f6                	div    %esi
  1006ad:	89 45 f4             	mov    %eax,-0xc(%ebp)
  1006b0:	83 7d f4 00          	cmpl   $0x0,-0xc(%ebp)
  1006b4:	75 c8                	jne    10067e <Graphics_WriteUInt32+0xce>
  1006b6:	8d 45 b6             	lea    -0x4a(%ebp),%eax
  1006b9:	8b 4d a4             	mov    -0x5c(%ebp),%ecx
  1006bc:	c6 44 0d b6 00       	movb   $0x0,-0x4a(%ebp,%ecx,1)
  1006c1:	89 04 24             	mov    %eax,(%esp)
  1006c4:	e8 b7 fb ff ff       	call   100280 <strrev>
  1006c9:	eb 02                	jmp    1006cd <Graphics_WriteUInt32+0x11d>
  1006cb:	eb 1d                	jmp    1006ea <Graphics_WriteUInt32+0x13a>
  1006cd:	eb 00                	jmp    1006cf <Graphics_WriteUInt32+0x11f>
  1006cf:	eb 00                	jmp    1006d1 <Graphics_WriteUInt32+0x121>
  1006d1:	8d 45 b6             	lea    -0x4a(%ebp),%eax
  1006d4:	8b 4d ec             	mov    -0x14(%ebp),%ecx
  1006d7:	8b 55 e8             	mov    -0x18(%ebp),%edx
  1006da:	89 04 24             	mov    %eax,(%esp)
  1006dd:	89 4c 24 04          	mov    %ecx,0x4(%esp)
  1006e1:	89 54 24 08          	mov    %edx,0x8(%esp)
  1006e5:	e8 d6 fd ff ff       	call   1004c0 <Graphics_WriteStr>
  1006ea:	83 c4 6c             	add    $0x6c,%esp
  1006ed:	5e                   	pop    %esi
  1006ee:	5f                   	pop    %edi
  1006ef:	5d                   	pop    %ebp
  1006f0:	c3                   	ret    
  1006f1:	eb 0d                	jmp    100700 <Graphics_WriteUInt64>
  1006f3:	90                   	nop
  1006f4:	90                   	nop
  1006f5:	90                   	nop
  1006f6:	90                   	nop
  1006f7:	90                   	nop
  1006f8:	90                   	nop
  1006f9:	90                   	nop
  1006fa:	90                   	nop
  1006fb:	90                   	nop
  1006fc:	90                   	nop
  1006fd:	90                   	nop
  1006fe:	90                   	nop
  1006ff:	90                   	nop

00100700 <Graphics_WriteUInt64>:
  100700:	55                   	push   %ebp
  100701:	89 e5                	mov    %esp,%ebp
  100703:	53                   	push   %ebx
  100704:	57                   	push   %edi
  100705:	56                   	push   %esi
  100706:	83 e4 f8             	and    $0xfffffff8,%esp
  100709:	81 ec 80 00 00 00    	sub    $0x80,%esp
  10070f:	8b 45 0c             	mov    0xc(%ebp),%eax
  100712:	8b 4d 08             	mov    0x8(%ebp),%ecx
  100715:	8b 55 18             	mov    0x18(%ebp),%edx
  100718:	8b 75 14             	mov    0x14(%ebp),%esi
  10071b:	8b 7d 10             	mov    0x10(%ebp),%edi
  10071e:	8d 1d 70 31 10 00    	lea    0x103170,%ebx
  100724:	89 4c 24 70          	mov    %ecx,0x70(%esp)
  100728:	89 44 24 74          	mov    %eax,0x74(%esp)
  10072c:	89 7c 24 6c          	mov    %edi,0x6c(%esp)
  100730:	89 74 24 68          	mov    %esi,0x68(%esp)
  100734:	89 54 24 64          	mov    %edx,0x64(%esp)
  100738:	89 5c 24 2c          	mov    %ebx,0x2c(%esp)
  10073c:	83 7c 24 6c 10       	cmpl   $0x10,0x6c(%esp)
  100741:	75 66                	jne    1007a9 <Graphics_WriteUInt64+0xa9>
  100743:	c7 44 24 28 00 00 00 	movl   $0x0,0x28(%esp)
  10074a:	00 
  10074b:	83 7c 24 28 10       	cmpl   $0x10,0x28(%esp)
  100750:	7d 4d                	jge    10079f <Graphics_WriteUInt64+0x9f>
  100752:	b8 0f 00 00 00       	mov    $0xf,%eax
  100757:	8b 4c 24 70          	mov    0x70(%esp),%ecx
  10075b:	8b 54 24 74          	mov    0x74(%esp),%edx
  10075f:	8a 5c 24 28          	mov    0x28(%esp),%bl
  100763:	c0 e3 02             	shl    $0x2,%bl
  100766:	89 4c 24 1c          	mov    %ecx,0x1c(%esp)
  10076a:	88 d9                	mov    %bl,%cl
  10076c:	8b 74 24 1c          	mov    0x1c(%esp),%esi
  100770:	0f ad d6             	shrd   %cl,%edx,%esi
  100773:	88 d9                	mov    %bl,%cl
  100775:	80 e1 1c             	and    $0x1c,%cl
  100778:	d3 ea                	shr    %cl,%edx
  10077a:	f6 c3 20             	test   $0x20,%bl
  10077d:	0f 45 f2             	cmovne %edx,%esi
  100780:	83 e6 0f             	and    $0xf,%esi
  100783:	8b 54 24 2c          	mov    0x2c(%esp),%edx
  100787:	8a 0c 32             	mov    (%edx,%esi,1),%cl
  10078a:	2b 44 24 28          	sub    0x28(%esp),%eax
  10078e:	88 4c 04 32          	mov    %cl,0x32(%esp,%eax,1)
  100792:	8b 44 24 28          	mov    0x28(%esp),%eax
  100796:	83 c0 01             	add    $0x1,%eax
  100799:	89 44 24 28          	mov    %eax,0x28(%esp)
  10079d:	eb ac                	jmp    10074b <Graphics_WriteUInt64+0x4b>
  10079f:	c6 44 24 42 00       	movb   $0x0,0x42(%esp)
  1007a4:	e9 0f 01 00 00       	jmp    1008b8 <Graphics_WriteUInt64+0x1b8>
  1007a9:	83 7c 24 6c 02       	cmpl   $0x2,0x6c(%esp)
  1007ae:	75 62                	jne    100812 <Graphics_WriteUInt64+0x112>
  1007b0:	c7 44 24 24 00 00 00 	movl   $0x0,0x24(%esp)
  1007b7:	00 
  1007b8:	83 7c 24 24 40       	cmpl   $0x40,0x24(%esp)
  1007bd:	7d 49                	jge    100808 <Graphics_WriteUInt64+0x108>
  1007bf:	b8 3f 00 00 00       	mov    $0x3f,%eax
  1007c4:	8b 4c 24 70          	mov    0x70(%esp),%ecx
  1007c8:	8b 54 24 74          	mov    0x74(%esp),%edx
  1007cc:	8a 5c 24 24          	mov    0x24(%esp),%bl
  1007d0:	89 4c 24 18          	mov    %ecx,0x18(%esp)
  1007d4:	88 d9                	mov    %bl,%cl
  1007d6:	89 d6                	mov    %edx,%esi
  1007d8:	d3 ee                	shr    %cl,%esi
  1007da:	88 d9                	mov    %bl,%cl
  1007dc:	8b 7c 24 18          	mov    0x18(%esp),%edi
  1007e0:	0f ad d7             	shrd   %cl,%edx,%edi
  1007e3:	f6 c3 20             	test   $0x20,%bl
  1007e6:	0f 45 fe             	cmovne %esi,%edi
  1007e9:	83 e7 01             	and    $0x1,%edi
  1007ec:	8b 54 24 2c          	mov    0x2c(%esp),%edx
  1007f0:	8a 0c 3a             	mov    (%edx,%edi,1),%cl
  1007f3:	2b 44 24 24          	sub    0x24(%esp),%eax
  1007f7:	88 4c 04 32          	mov    %cl,0x32(%esp,%eax,1)
  1007fb:	8b 44 24 24          	mov    0x24(%esp),%eax
  1007ff:	83 c0 01             	add    $0x1,%eax
  100802:	89 44 24 24          	mov    %eax,0x24(%esp)
  100806:	eb b0                	jmp    1007b8 <Graphics_WriteUInt64+0xb8>
  100808:	c6 44 24 72 00       	movb   $0x0,0x72(%esp)
  10080d:	e9 a4 00 00 00       	jmp    1008b6 <Graphics_WriteUInt64+0x1b6>
  100812:	83 7c 24 6c 10       	cmpl   $0x10,0x6c(%esp)
  100817:	0f 8f 95 00 00 00    	jg     1008b2 <Graphics_WriteUInt64+0x1b2>
  10081d:	c7 44 24 20 00 00 00 	movl   $0x0,0x20(%esp)
  100824:	00 
  100825:	8b 44 24 70          	mov    0x70(%esp),%eax
  100829:	8b 4c 24 74          	mov    0x74(%esp),%ecx
  10082d:	8b 54 24 6c          	mov    0x6c(%esp),%edx
  100831:	89 d6                	mov    %edx,%esi
  100833:	c1 fe 1f             	sar    $0x1f,%esi
  100836:	89 e7                	mov    %esp,%edi
  100838:	89 77 0c             	mov    %esi,0xc(%edi)
  10083b:	89 57 08             	mov    %edx,0x8(%edi)
  10083e:	89 4f 04             	mov    %ecx,0x4(%edi)
  100841:	89 07                	mov    %eax,(%edi)
  100843:	e8 28 26 00 00       	call   102e70 <__umoddi3>
  100848:	8b 4c 24 2c          	mov    0x2c(%esp),%ecx
  10084c:	8a 1c 01             	mov    (%ecx,%eax,1),%bl
  10084f:	8b 44 24 20          	mov    0x20(%esp),%eax
  100853:	89 c1                	mov    %eax,%ecx
  100855:	41                   	inc    %ecx
  100856:	89 4c 24 20          	mov    %ecx,0x20(%esp)
  10085a:	88 5c 04 32          	mov    %bl,0x32(%esp,%eax,1)
  10085e:	8b 44 24 6c          	mov    0x6c(%esp),%eax
  100862:	89 c1                	mov    %eax,%ecx
  100864:	c1 f9 1f             	sar    $0x1f,%ecx
  100867:	8b 54 24 70          	mov    0x70(%esp),%edx
  10086b:	8b 74 24 74          	mov    0x74(%esp),%esi
  10086f:	89 e7                	mov    %esp,%edi
  100871:	89 47 08             	mov    %eax,0x8(%edi)
  100874:	89 77 04             	mov    %esi,0x4(%edi)
  100877:	89 17                	mov    %edx,(%edi)
  100879:	89 4f 0c             	mov    %ecx,0xc(%edi)
  10087c:	e8 af 24 00 00       	call   102d30 <__udivdi3>
  100881:	89 54 24 74          	mov    %edx,0x74(%esp)
  100885:	89 44 24 70          	mov    %eax,0x70(%esp)
  100889:	8b 44 24 70          	mov    0x70(%esp),%eax
  10088d:	8b 4c 24 74          	mov    0x74(%esp),%ecx
  100891:	09 c8                	or     %ecx,%eax
  100893:	89 44 24 14          	mov    %eax,0x14(%esp)
  100897:	75 8c                	jne    100825 <Graphics_WriteUInt64+0x125>
  100899:	eb 00                	jmp    10089b <Graphics_WriteUInt64+0x19b>
  10089b:	8d 44 24 32          	lea    0x32(%esp),%eax
  10089f:	8b 4c 24 20          	mov    0x20(%esp),%ecx
  1008a3:	c6 44 0c 32 00       	movb   $0x0,0x32(%esp,%ecx,1)
  1008a8:	89 04 24             	mov    %eax,(%esp)
  1008ab:	e8 d0 f9 ff ff       	call   100280 <strrev>
  1008b0:	eb 02                	jmp    1008b4 <Graphics_WriteUInt64+0x1b4>
  1008b2:	eb 20                	jmp    1008d4 <Graphics_WriteUInt64+0x1d4>
  1008b4:	eb 00                	jmp    1008b6 <Graphics_WriteUInt64+0x1b6>
  1008b6:	eb 00                	jmp    1008b8 <Graphics_WriteUInt64+0x1b8>
  1008b8:	8d 44 24 32          	lea    0x32(%esp),%eax
  1008bc:	8b 4c 24 68          	mov    0x68(%esp),%ecx
  1008c0:	8b 54 24 64          	mov    0x64(%esp),%edx
  1008c4:	89 04 24             	mov    %eax,(%esp)
  1008c7:	89 4c 24 04          	mov    %ecx,0x4(%esp)
  1008cb:	89 54 24 08          	mov    %edx,0x8(%esp)
  1008cf:	e8 ec fb ff ff       	call   1004c0 <Graphics_WriteStr>
  1008d4:	8d 65 f4             	lea    -0xc(%ebp),%esp
  1008d7:	5e                   	pop    %esi
  1008d8:	5f                   	pop    %edi
  1008d9:	5b                   	pop    %ebx
  1008da:	5d                   	pop    %ebp
  1008db:	c3                   	ret    
  1008dc:	8d 74 26 00          	lea    0x0(%esi,%eiz,1),%esi

001008e0 <Graphics_WriteFloat>:
  1008e0:	55                   	push   %ebp
  1008e1:	89 e5                	mov    %esp,%ebp
  1008e3:	53                   	push   %ebx
  1008e4:	56                   	push   %esi
  1008e5:	83 e4 f8             	and    $0xfffffff8,%esp
  1008e8:	81 ec 78 01 00 00    	sub    $0x178,%esp
  1008ee:	8b 45 14             	mov    0x14(%ebp),%eax
  1008f1:	8b 4d 10             	mov    0x10(%ebp),%ecx
  1008f4:	8b 55 0c             	mov    0xc(%ebp),%edx
  1008f7:	f3 0f 10 45 08       	movss  0x8(%ebp),%xmm0
  1008fc:	f3 0f 11 84 24 74 01 	movss  %xmm0,0x174(%esp)
  100903:	00 00 
  100905:	89 94 24 70 01 00 00 	mov    %edx,0x170(%esp)
  10090c:	89 8c 24 6c 01 00 00 	mov    %ecx,0x16c(%esp)
  100913:	89 84 24 68 01 00 00 	mov    %eax,0x168(%esp)
  10091a:	c6 44 24 66 00       	movb   $0x0,0x66(%esp)
  10091f:	66 c7 44 24 64 38 39 	movw   $0x3938,0x64(%esp)
  100926:	c7 44 24 60 34 35 36 	movl   $0x37363534,0x60(%esp)
  10092d:	37 
  10092e:	c7 44 24 5c 30 31 32 	movl   $0x33323130,0x5c(%esp)
  100935:	33 
  100936:	f3 0f 10 84 24 74 01 	movss  0x174(%esp),%xmm0
  10093d:	00 00 
  10093f:	f3 0f 11 44 24 38    	movss  %xmm0,0x38(%esp)
  100945:	d9 44 24 38          	flds   0x38(%esp)
  100949:	d9 7c 24 1e          	fnstcw 0x1e(%esp)
  10094d:	66 8b 74 24 1e       	mov    0x1e(%esp),%si
  100952:	66 c7 44 24 1e 7f 0c 	movw   $0xc7f,0x1e(%esp)
  100959:	d9 6c 24 1e          	fldcw  0x1e(%esp)
  10095d:	66 89 74 24 1e       	mov    %si,0x1e(%esp)
  100962:	df 7c 24 30          	fistpll 0x30(%esp)
  100966:	d9 6c 24 1e          	fldcw  0x1e(%esp)
  10096a:	8b 44 24 30          	mov    0x30(%esp),%eax
  10096e:	8b 4c 24 34          	mov    0x34(%esp),%ecx
  100972:	89 4c 24 54          	mov    %ecx,0x54(%esp)
  100976:	89 44 24 50          	mov    %eax,0x50(%esp)
  10097a:	f3 0f 10 84 24 74 01 	movss  0x174(%esp),%xmm0
  100981:	00 00 
  100983:	8b 84 24 70 01 00 00 	mov    0x170(%esp),%eax
  10098a:	f2 0f 10 0d 68 31 10 	movsd  0x103168,%xmm1
  100991:	00 
  100992:	0f 28 d1             	movaps %xmm1,%xmm2
  100995:	66 0f 6e d8          	movd   %eax,%xmm3
  100999:	66 0f eb da          	por    %xmm2,%xmm3
  10099d:	f2 0f 5c d9          	subsd  %xmm1,%xmm3
  1009a1:	f2 0f 5a cb          	cvtsd2ss %xmm3,%xmm1
  1009a5:	f3 0f 59 c1          	mulss  %xmm1,%xmm0
  1009a9:	df 6c 24 50          	fildll 0x50(%esp)
  1009ad:	d9 5c 24 40          	fstps  0x40(%esp)
  1009b1:	f3 0f 10 4c 24 40    	movss  0x40(%esp),%xmm1
  1009b7:	f3 0f 5c c1          	subss  %xmm1,%xmm0
  1009bb:	f3 0f 11 44 24 28    	movss  %xmm0,0x28(%esp)
  1009c1:	d9 44 24 28          	flds   0x28(%esp)
  1009c5:	d9 7c 24 1c          	fnstcw 0x1c(%esp)
  1009c9:	66 8b 74 24 1c       	mov    0x1c(%esp),%si
  1009ce:	66 c7 44 24 1c 7f 0c 	movw   $0xc7f,0x1c(%esp)
  1009d5:	d9 6c 24 1c          	fldcw  0x1c(%esp)
  1009d9:	66 89 74 24 1c       	mov    %si,0x1c(%esp)
  1009de:	df 7c 24 20          	fistpll 0x20(%esp)
  1009e2:	d9 6c 24 1c          	fldcw  0x1c(%esp)
  1009e6:	8b 44 24 20          	mov    0x20(%esp),%eax
  1009ea:	8b 4c 24 24          	mov    0x24(%esp),%ecx
  1009ee:	89 4c 24 4c          	mov    %ecx,0x4c(%esp)
  1009f2:	89 44 24 48          	mov    %eax,0x48(%esp)
  1009f6:	c7 44 24 44 00 00 00 	movl   $0x0,0x44(%esp)
  1009fd:	00 
  1009fe:	8b 44 24 50          	mov    0x50(%esp),%eax
  100a02:	8b 4c 24 54          	mov    0x54(%esp),%ecx
  100a06:	89 e2                	mov    %esp,%edx
  100a08:	89 4a 04             	mov    %ecx,0x4(%edx)
  100a0b:	89 02                	mov    %eax,(%edx)
  100a0d:	c7 42 0c 00 00 00 00 	movl   $0x0,0xc(%edx)
  100a14:	c7 42 08 0a 00 00 00 	movl   $0xa,0x8(%edx)
  100a1b:	e8 e0 20 00 00       	call   102b00 <__moddi3>
  100a20:	8a 5c 04 5c          	mov    0x5c(%esp,%eax,1),%bl
  100a24:	8b 44 24 44          	mov    0x44(%esp),%eax
  100a28:	89 c1                	mov    %eax,%ecx
  100a2a:	41                   	inc    %ecx
  100a2b:	89 4c 24 44          	mov    %ecx,0x44(%esp)
  100a2f:	88 5c 04 68          	mov    %bl,0x68(%esp,%eax,1)
  100a33:	8b 44 24 50          	mov    0x50(%esp),%eax
  100a37:	8b 4c 24 54          	mov    0x54(%esp),%ecx
  100a3b:	89 e2                	mov    %esp,%edx
  100a3d:	89 4a 04             	mov    %ecx,0x4(%edx)
  100a40:	89 02                	mov    %eax,(%edx)
  100a42:	c7 42 0c 00 00 00 00 	movl   $0x0,0xc(%edx)
  100a49:	c7 42 08 0a 00 00 00 	movl   $0xa,0x8(%edx)
  100a50:	e8 cb 1e 00 00       	call   102920 <__divdi3>
  100a55:	89 54 24 54          	mov    %edx,0x54(%esp)
  100a59:	89 44 24 50          	mov    %eax,0x50(%esp)
  100a5d:	8b 44 24 50          	mov    0x50(%esp),%eax
  100a61:	8b 4c 24 54          	mov    0x54(%esp),%ecx
  100a65:	09 c8                	or     %ecx,%eax
  100a67:	89 44 24 18          	mov    %eax,0x18(%esp)
  100a6b:	75 91                	jne    1009fe <Graphics_WriteFloat+0x11e>
  100a6d:	eb 00                	jmp    100a6f <Graphics_WriteFloat+0x18f>
  100a6f:	8d 44 24 68          	lea    0x68(%esp),%eax
  100a73:	8b 4c 24 44          	mov    0x44(%esp),%ecx
  100a77:	c6 44 0c 68 00       	movb   $0x0,0x68(%esp,%ecx,1)
  100a7c:	89 04 24             	mov    %eax,(%esp)
  100a7f:	e8 fc f7 ff ff       	call   100280 <strrev>
  100a84:	8b 44 24 44          	mov    0x44(%esp),%eax
  100a88:	89 c1                	mov    %eax,%ecx
  100a8a:	83 c1 01             	add    $0x1,%ecx
  100a8d:	89 4c 24 44          	mov    %ecx,0x44(%esp)
  100a91:	c6 44 04 68 2e       	movb   $0x2e,0x68(%esp,%eax,1)
  100a96:	8b 44 24 48          	mov    0x48(%esp),%eax
  100a9a:	8b 4c 24 4c          	mov    0x4c(%esp),%ecx
  100a9e:	89 e2                	mov    %esp,%edx
  100aa0:	89 4a 04             	mov    %ecx,0x4(%edx)
  100aa3:	89 02                	mov    %eax,(%edx)
  100aa5:	c7 42 0c 00 00 00 00 	movl   $0x0,0xc(%edx)
  100aac:	c7 42 08 0a 00 00 00 	movl   $0xa,0x8(%edx)
  100ab3:	e8 48 20 00 00       	call   102b00 <__moddi3>
  100ab8:	8a 5c 04 5c          	mov    0x5c(%esp,%eax,1),%bl
  100abc:	8b 44 24 44          	mov    0x44(%esp),%eax
  100ac0:	89 c1                	mov    %eax,%ecx
  100ac2:	41                   	inc    %ecx
  100ac3:	89 4c 24 44          	mov    %ecx,0x44(%esp)
  100ac7:	88 5c 04 68          	mov    %bl,0x68(%esp,%eax,1)
  100acb:	8b 44 24 48          	mov    0x48(%esp),%eax
  100acf:	8b 4c 24 4c          	mov    0x4c(%esp),%ecx
  100ad3:	89 e2                	mov    %esp,%edx
  100ad5:	89 4a 04             	mov    %ecx,0x4(%edx)
  100ad8:	89 02                	mov    %eax,(%edx)
  100ada:	c7 42 0c 00 00 00 00 	movl   $0x0,0xc(%edx)
  100ae1:	c7 42 08 0a 00 00 00 	movl   $0xa,0x8(%edx)
  100ae8:	e8 33 1e 00 00       	call   102920 <__divdi3>
  100aed:	89 54 24 4c          	mov    %edx,0x4c(%esp)
  100af1:	89 44 24 48          	mov    %eax,0x48(%esp)
  100af5:	8b 44 24 48          	mov    0x48(%esp),%eax
  100af9:	8b 4c 24 4c          	mov    0x4c(%esp),%ecx
  100afd:	09 c8                	or     %ecx,%eax
  100aff:	89 44 24 14          	mov    %eax,0x14(%esp)
  100b03:	75 91                	jne    100a96 <Graphics_WriteFloat+0x1b6>
  100b05:	eb 00                	jmp    100b07 <Graphics_WriteFloat+0x227>
  100b07:	8d 44 24 68          	lea    0x68(%esp),%eax
  100b0b:	8b 4c 24 44          	mov    0x44(%esp),%ecx
  100b0f:	c6 44 0c 68 00       	movb   $0x0,0x68(%esp,%ecx,1)
  100b14:	8b 8c 24 6c 01 00 00 	mov    0x16c(%esp),%ecx
  100b1b:	8b 94 24 68 01 00 00 	mov    0x168(%esp),%edx
  100b22:	89 04 24             	mov    %eax,(%esp)
  100b25:	89 4c 24 04          	mov    %ecx,0x4(%esp)
  100b29:	89 54 24 08          	mov    %edx,0x8(%esp)
  100b2d:	e8 8e f9 ff ff       	call   1004c0 <Graphics_WriteStr>
  100b32:	8d 65 f8             	lea    -0x8(%ebp),%esp
  100b35:	5e                   	pop    %esi
  100b36:	5b                   	pop    %ebx
  100b37:	5d                   	pop    %ebp
  100b38:	c3                   	ret    
  100b39:	8d b4 26 00 00 00 00 	lea    0x0(%esi,%eiz,1),%esi

00100b40 <Graphics_SetPixel>:
  100b40:	55                   	push   %ebp
  100b41:	89 e5                	mov    %esp,%ebp
  100b43:	83 ec 0c             	sub    $0xc,%esp
  100b46:	8b 45 10             	mov    0x10(%ebp),%eax
  100b49:	8b 4d 0c             	mov    0xc(%ebp),%ecx
  100b4c:	8b 55 08             	mov    0x8(%ebp),%edx
  100b4f:	89 55 fc             	mov    %edx,-0x4(%ebp)
  100b52:	89 4d f8             	mov    %ecx,-0x8(%ebp)
  100b55:	89 45 f4             	mov    %eax,-0xc(%ebp)
  100b58:	8b 45 f4             	mov    -0xc(%ebp),%eax
  100b5b:	8b 4d fc             	mov    -0x4(%ebp),%ecx
  100b5e:	8b 55 f8             	mov    -0x8(%ebp),%edx
  100b61:	0f af 15 24 70 0d 01 	imul   0x10d7024,%edx
  100b68:	01 d1                	add    %edx,%ecx
  100b6a:	8b 15 0c 70 0d 01    	mov    0x10d700c,%edx
  100b70:	89 04 8a             	mov    %eax,(%edx,%ecx,4)
  100b73:	83 c4 0c             	add    $0xc,%esp
  100b76:	5d                   	pop    %ebp
  100b77:	c3                   	ret    
  100b78:	66 90                	xchg   %ax,%ax
  100b7a:	66 90                	xchg   %ax,%ax
  100b7c:	66 90                	xchg   %ax,%ax
  100b7e:	66 90                	xchg   %ax,%ax

00100b80 <Bootstrap_malloc>:
  100b80:	55                   	push   %ebp
  100b81:	89 e5                	mov    %esp,%ebp
  100b83:	83 ec 0c             	sub    $0xc,%esp
  100b86:	8b 45 08             	mov    0x8(%ebp),%eax
  100b89:	8d 0d 34 70 0d 01    	lea    0x10d7034,%ecx
  100b8f:	89 45 f8             	mov    %eax,-0x8(%ebp)
  100b92:	03 0d f8 2c 0e 02    	add    0x20e2cf8,%ecx
  100b98:	89 4d f4             	mov    %ecx,-0xc(%ebp)
  100b9b:	8b 45 f8             	mov    -0x8(%ebp),%eax
  100b9e:	8b 4d f8             	mov    -0x8(%ebp),%ecx
  100ba1:	83 e1 03             	and    $0x3,%ecx
  100ba4:	01 c8                	add    %ecx,%eax
  100ba6:	8b 0d f8 2c 0e 02    	mov    0x20e2cf8,%ecx
  100bac:	01 c1                	add    %eax,%ecx
  100bae:	89 0d f8 2c 0e 02    	mov    %ecx,0x20e2cf8
  100bb4:	81 3d f8 2c 0e 02 00 	cmpl   $0x1000000,0x20e2cf8
  100bbb:	00 00 01 
  100bbe:	72 09                	jb     100bc9 <Bootstrap_malloc+0x49>
  100bc0:	c7 45 fc 00 00 00 00 	movl   $0x0,-0x4(%ebp)
  100bc7:	eb 06                	jmp    100bcf <Bootstrap_malloc+0x4f>
  100bc9:	8b 45 f4             	mov    -0xc(%ebp),%eax
  100bcc:	89 45 fc             	mov    %eax,-0x4(%ebp)
  100bcf:	8b 45 fc             	mov    -0x4(%ebp),%eax
  100bd2:	83 c4 0c             	add    $0xc,%esp
  100bd5:	5d                   	pop    %ebp
  100bd6:	c3                   	ret    
  100bd7:	66 90                	xchg   %ax,%ax
  100bd9:	66 90                	xchg   %ax,%ax
  100bdb:	66 90                	xchg   %ax,%ax
  100bdd:	66 90                	xchg   %ax,%ax
  100bdf:	90                   	nop

00100be0 <MemMan_Initialize>:
  100be0:	55                   	push   %ebp
  100be1:	89 e5                	mov    %esp,%ebp
  100be3:	53                   	push   %ebx
  100be4:	57                   	push   %edi
  100be5:	56                   	push   %esi
  100be6:	83 ec 38             	sub    $0x38,%esp
  100be9:	c7 05 6c 70 0d 02 00 	movl   $0x0,0x20d706c
  100bf0:	00 00 00 
  100bf3:	c7 05 68 70 0d 02 00 	movl   $0x0,0x20d7068
  100bfa:	00 00 00 
  100bfd:	a1 04 e0 8e 00       	mov    0x8ee004,%eax
  100c02:	89 45 f0             	mov    %eax,-0x10(%ebp)
  100c05:	8b 45 f0             	mov    -0x10(%ebp),%eax
  100c08:	8b 0d 04 e0 8e 00    	mov    0x8ee004,%ecx
  100c0e:	6b 15 10 70 0d 01 18 	imul   $0x18,0x10d7010,%edx
  100c15:	01 d1                	add    %edx,%ecx
  100c17:	39 c8                	cmp    %ecx,%eax
  100c19:	73 3e                	jae    100c59 <MemMan_Initialize+0x79>
  100c1b:	8b 45 f0             	mov    -0x10(%ebp),%eax
  100c1e:	83 78 14 01          	cmpl   $0x1,0x14(%eax)
  100c22:	75 25                	jne    100c49 <MemMan_Initialize+0x69>
  100c24:	8b 45 f0             	mov    -0x10(%ebp),%eax
  100c27:	8b 48 0c             	mov    0xc(%eax),%ecx
  100c2a:	8b 40 10             	mov    0x10(%eax),%eax
  100c2d:	8b 15 6c 70 0d 02    	mov    0x20d706c,%edx
  100c33:	8b 35 68 70 0d 02    	mov    0x20d7068,%esi
  100c39:	01 ce                	add    %ecx,%esi
  100c3b:	11 c2                	adc    %eax,%edx
  100c3d:	89 35 68 70 0d 02    	mov    %esi,0x20d7068
  100c43:	89 15 6c 70 0d 02    	mov    %edx,0x20d706c
  100c49:	8b 45 f0             	mov    -0x10(%ebp),%eax
  100c4c:	8b 4d f0             	mov    -0x10(%ebp),%ecx
  100c4f:	03 01                	add    (%ecx),%eax
  100c51:	83 c0 04             	add    $0x4,%eax
  100c54:	89 45 f0             	mov    %eax,-0x10(%ebp)
  100c57:	eb ac                	jmp    100c05 <MemMan_Initialize+0x25>
  100c59:	a1 68 70 0d 02       	mov    0x20d7068,%eax
  100c5e:	8b 0d 6c 70 0d 02    	mov    0x20d706c,%ecx
  100c64:	89 ca                	mov    %ecx,%edx
  100c66:	0f a4 c2 14          	shld   $0x14,%eax,%edx
  100c6a:	c1 e9 0c             	shr    $0xc,%ecx
  100c6d:	89 0d 44 70 0d 02    	mov    %ecx,0x20d7044
  100c73:	89 15 40 70 0d 02    	mov    %edx,0x20d7040
  100c79:	89 0d 5c 70 0d 02    	mov    %ecx,0x20d705c
  100c7f:	89 15 58 70 0d 02    	mov    %edx,0x20d7058
  100c85:	89 0d 4c 70 0d 02    	mov    %ecx,0x20d704c
  100c8b:	89 15 48 70 0d 02    	mov    %edx,0x20d7048
  100c91:	c7 05 7c 70 0d 02 00 	movl   $0x0,0x20d707c
  100c98:	00 00 00 
  100c9b:	c7 05 78 70 0d 02 00 	movl   $0x0,0x20d7078
  100ca2:	00 00 00 
  100ca5:	a1 68 70 0d 02       	mov    0x20d7068,%eax
  100caa:	8b 0d 6c 70 0d 02    	mov    0x20d706c,%ecx
  100cb0:	0f a4 c1 0c          	shld   $0xc,%eax,%ecx
  100cb4:	89 0d 80 70 0d 02    	mov    %ecx,0x20d7080
  100cba:	a1 80 70 0d 02       	mov    0x20d7080,%eax
  100cbf:	c1 e0 03             	shl    $0x3,%eax
  100cc2:	a3 70 70 0d 02       	mov    %eax,0x20d7070
  100cc7:	fb                   	sti    
  100cc8:	a1 70 70 0d 02       	mov    0x20d7070,%eax
  100ccd:	c1 e0 05             	shl    $0x5,%eax
  100cd0:	a3 50 70 0d 02       	mov    %eax,0x20d7050
  100cd5:	fa                   	cli    
  100cd6:	a1 80 70 0d 02       	mov    0x20d7080,%eax
  100cdb:	c1 e0 00             	shl    $0x0,%eax
  100cde:	89 04 24             	mov    %eax,(%esp)
  100ce1:	e8 9a fe ff ff       	call   100b80 <Bootstrap_malloc>
  100ce6:	a3 38 70 0d 02       	mov    %eax,0x20d7038
  100ceb:	a1 70 70 0d 02       	mov    0x20d7070,%eax
  100cf0:	c1 e0 02             	shl    $0x2,%eax
  100cf3:	89 04 24             	mov    %eax,(%esp)
  100cf6:	e8 85 fe ff ff       	call   100b80 <Bootstrap_malloc>
  100cfb:	a3 60 70 0d 02       	mov    %eax,0x20d7060
  100d00:	a1 50 70 0d 02       	mov    0x20d7050,%eax
  100d05:	c1 e0 02             	shl    $0x2,%eax
  100d08:	89 04 24             	mov    %eax,(%esp)
  100d0b:	e8 70 fe ff ff       	call   100b80 <Bootstrap_malloc>
  100d10:	a3 74 70 0d 02       	mov    %eax,0x20d7074
  100d15:	83 3d 38 70 0d 02 00 	cmpl   $0x0,0x20d7038
  100d1c:	0f 94 c3             	sete   %bl
  100d1f:	80 e3 01             	and    $0x1,%bl
  100d22:	0f b6 c3             	movzbl %bl,%eax
  100d25:	83 3d 60 70 0d 02 00 	cmpl   $0x0,0x20d7060
  100d2c:	0f 94 c3             	sete   %bl
  100d2f:	80 e3 01             	and    $0x1,%bl
  100d32:	0f b6 cb             	movzbl %bl,%ecx
  100d35:	09 c8                	or     %ecx,%eax
  100d37:	83 3d 74 70 0d 02 00 	cmpl   $0x0,0x20d7074
  100d3e:	0f 94 c3             	sete   %bl
  100d41:	80 e3 01             	and    $0x1,%bl
  100d44:	0f b6 cb             	movzbl %bl,%ecx
  100d47:	09 c8                	or     %ecx,%eax
  100d49:	83 f8 00             	cmp    $0x0,%eax
  100d4c:	74 02                	je     100d50 <MemMan_Initialize+0x170>
  100d4e:	cd 09                	int    $0x9
  100d50:	b8 00 00 00 00       	mov    $0x0,%eax
  100d55:	8b 0d 38 70 0d 02    	mov    0x20d7038,%ecx
  100d5b:	8b 15 80 70 0d 02    	mov    0x20d7080,%edx
  100d61:	c1 e2 00             	shl    $0x0,%edx
  100d64:	89 0c 24             	mov    %ecx,(%esp)
  100d67:	c7 44 24 04 00 00 00 	movl   $0x0,0x4(%esp)
  100d6e:	00 
  100d6f:	89 54 24 08          	mov    %edx,0x8(%esp)
  100d73:	89 45 e0             	mov    %eax,-0x20(%ebp)
  100d76:	e8 b5 f4 ff ff       	call   100230 <memset>
  100d7b:	b9 00 00 00 00       	mov    $0x0,%ecx
  100d80:	8b 15 60 70 0d 02    	mov    0x20d7060,%edx
  100d86:	8b 35 70 70 0d 02    	mov    0x20d7070,%esi
  100d8c:	c1 e6 02             	shl    $0x2,%esi
  100d8f:	89 14 24             	mov    %edx,(%esp)
  100d92:	c7 44 24 04 00 00 00 	movl   $0x0,0x4(%esp)
  100d99:	00 
  100d9a:	89 74 24 08          	mov    %esi,0x8(%esp)
  100d9e:	89 45 dc             	mov    %eax,-0x24(%ebp)
  100da1:	89 4d d8             	mov    %ecx,-0x28(%ebp)
  100da4:	e8 87 f4 ff ff       	call   100230 <memset>
  100da9:	b9 00 00 00 00       	mov    $0x0,%ecx
  100dae:	8b 15 74 70 0d 02    	mov    0x20d7074,%edx
  100db4:	8b 35 50 70 0d 02    	mov    0x20d7050,%esi
  100dba:	c1 e6 02             	shl    $0x2,%esi
  100dbd:	89 14 24             	mov    %edx,(%esp)
  100dc0:	c7 44 24 04 00 00 00 	movl   $0x0,0x4(%esp)
  100dc7:	00 
  100dc8:	89 74 24 08          	mov    %esi,0x8(%esp)
  100dcc:	89 45 d4             	mov    %eax,-0x2c(%ebp)
  100dcf:	89 4d d0             	mov    %ecx,-0x30(%ebp)
  100dd2:	e8 59 f4 ff ff       	call   100230 <memset>
  100dd7:	8b 0d 14 70 0d 01    	mov    0x10d7014,%ecx
  100ddd:	83 c1 1c             	add    $0x1c,%ecx
  100de0:	89 4d ec             	mov    %ecx,-0x14(%ebp)
  100de3:	8b 4d ec             	mov    -0x14(%ebp),%ecx
  100de6:	8b 49 08             	mov    0x8(%ecx),%ecx
  100de9:	89 4d e8             	mov    %ecx,-0x18(%ebp)
  100dec:	c7 45 e4 00 00 00 00 	movl   $0x0,-0x1c(%ebp)
  100df3:	89 45 cc             	mov    %eax,-0x34(%ebp)
  100df6:	8b 45 e4             	mov    -0x1c(%ebp),%eax
  100df9:	8b 4d ec             	mov    -0x14(%ebp),%ecx
  100dfc:	3b 01                	cmp    (%ecx),%eax
  100dfe:	73 3c                	jae    100e3c <MemMan_Initialize+0x25c>
  100e00:	8b 45 e8             	mov    -0x18(%ebp),%eax
  100e03:	83 78 14 00          	cmpl   $0x0,0x14(%eax)
  100e07:	74 1f                	je     100e28 <MemMan_Initialize+0x248>
  100e09:	8b 45 e8             	mov    -0x18(%ebp),%eax
  100e0c:	31 c9                	xor    %ecx,%ecx
  100e0e:	89 ca                	mov    %ecx,%edx
  100e10:	8b 70 0c             	mov    0xc(%eax),%esi
  100e13:	8b 40 14             	mov    0x14(%eax),%eax
  100e16:	89 e7                	mov    %esp,%edi
  100e18:	89 4f 0c             	mov    %ecx,0xc(%edi)
  100e1b:	89 47 08             	mov    %eax,0x8(%edi)
  100e1e:	89 57 04             	mov    %edx,0x4(%edi)
  100e21:	89 37                	mov    %esi,(%edi)
  100e23:	e8 28 00 00 00       	call   100e50 <MemMan_MarkUsed>
  100e28:	8b 45 e8             	mov    -0x18(%ebp),%eax
  100e2b:	83 c0 28             	add    $0x28,%eax
  100e2e:	89 45 e8             	mov    %eax,-0x18(%ebp)
  100e31:	8b 45 e4             	mov    -0x1c(%ebp),%eax
  100e34:	83 c0 01             	add    $0x1,%eax
  100e37:	89 45 e4             	mov    %eax,-0x1c(%ebp)
  100e3a:	eb ba                	jmp    100df6 <MemMan_Initialize+0x216>
  100e3c:	83 c4 38             	add    $0x38,%esp
  100e3f:	5e                   	pop    %esi
  100e40:	5f                   	pop    %edi
  100e41:	5b                   	pop    %ebx
  100e42:	5d                   	pop    %ebp
  100e43:	c3                   	ret    
  100e44:	8d b6 00 00 00 00    	lea    0x0(%esi),%esi
  100e4a:	8d bf 00 00 00 00    	lea    0x0(%edi),%edi

00100e50 <MemMan_MarkUsed>:
  100e50:	55                   	push   %ebp
  100e51:	89 e5                	mov    %esp,%ebp
  100e53:	57                   	push   %edi
  100e54:	56                   	push   %esi
  100e55:	83 e4 f8             	and    $0xfffffff8,%esp
  100e58:	83 ec 20             	sub    $0x20,%esp
  100e5b:	8b 45 14             	mov    0x14(%ebp),%eax
  100e5e:	8b 4d 10             	mov    0x10(%ebp),%ecx
  100e61:	8b 55 0c             	mov    0xc(%ebp),%edx
  100e64:	8b 75 08             	mov    0x8(%ebp),%esi
  100e67:	89 74 24 18          	mov    %esi,0x18(%esp)
  100e6b:	89 54 24 1c          	mov    %edx,0x1c(%esp)
  100e6f:	89 44 24 14          	mov    %eax,0x14(%esp)
  100e73:	89 4c 24 10          	mov    %ecx,0x10(%esp)
  100e77:	8b 54 24 18          	mov    0x18(%esp),%edx
  100e7b:	8b 74 24 1c          	mov    0x1c(%esp),%esi
  100e7f:	89 e7                	mov    %esp,%edi
  100e81:	89 47 0c             	mov    %eax,0xc(%edi)
  100e84:	89 4f 08             	mov    %ecx,0x8(%edi)
  100e87:	89 77 04             	mov    %esi,0x4(%edi)
  100e8a:	89 17                	mov    %edx,(%edi)
  100e8c:	e8 5f 00 00 00       	call   100ef0 <MemMan_MarkKB4Used>
  100e91:	8d 65 f8             	lea    -0x8(%ebp),%esp
  100e94:	5e                   	pop    %esi
  100e95:	5f                   	pop    %edi
  100e96:	5d                   	pop    %ebp
  100e97:	c3                   	ret    
  100e98:	90                   	nop
  100e99:	8d b4 26 00 00 00 00 	lea    0x0(%esi,%eiz,1),%esi

00100ea0 <MemMan_CalculateBitmapIndex>:
  100ea0:	55                   	push   %ebp
  100ea1:	89 e5                	mov    %esp,%ebp
  100ea3:	56                   	push   %esi
  100ea4:	83 e4 f8             	and    $0xfffffff8,%esp
  100ea7:	83 ec 28             	sub    $0x28,%esp
  100eaa:	8b 45 0c             	mov    0xc(%ebp),%eax
  100ead:	8b 4d 08             	mov    0x8(%ebp),%ecx
  100eb0:	8b 55 10             	mov    0x10(%ebp),%edx
  100eb3:	89 4c 24 18          	mov    %ecx,0x18(%esp)
  100eb7:	89 44 24 1c          	mov    %eax,0x1c(%esp)
  100ebb:	89 54 24 14          	mov    %edx,0x14(%esp)
  100ebf:	8b 44 24 18          	mov    0x18(%esp),%eax
  100ec3:	8b 4c 24 1c          	mov    0x1c(%esp),%ecx
  100ec7:	89 e6                	mov    %esp,%esi
  100ec9:	89 56 08             	mov    %edx,0x8(%esi)
  100ecc:	89 4e 04             	mov    %ecx,0x4(%esi)
  100ecf:	89 06                	mov    %eax,(%esi)
  100ed1:	c7 46 0c 00 00 00 00 	movl   $0x0,0xc(%esi)
  100ed8:	e8 53 1e 00 00       	call   102d30 <__udivdi3>
  100edd:	89 54 24 1c          	mov    %edx,0x1c(%esp)
  100ee1:	89 44 24 18          	mov    %eax,0x18(%esp)
  100ee5:	8d 65 fc             	lea    -0x4(%ebp),%esp
  100ee8:	5e                   	pop    %esi
  100ee9:	5d                   	pop    %ebp
  100eea:	c3                   	ret    
  100eeb:	90                   	nop
  100eec:	8d 74 26 00          	lea    0x0(%esi,%eiz,1),%esi

00100ef0 <MemMan_MarkKB4Used>:
  100ef0:	55                   	push   %ebp
  100ef1:	89 e5                	mov    %esp,%ebp
  100ef3:	53                   	push   %ebx
  100ef4:	56                   	push   %esi
  100ef5:	83 e4 f8             	and    $0xfffffff8,%esp
  100ef8:	83 ec 50             	sub    $0x50,%esp
  100efb:	8b 45 14             	mov    0x14(%ebp),%eax
  100efe:	8b 4d 10             	mov    0x10(%ebp),%ecx
  100f01:	8b 55 0c             	mov    0xc(%ebp),%edx
  100f04:	8b 75 08             	mov    0x8(%ebp),%esi
  100f07:	89 74 24 48          	mov    %esi,0x48(%esp)
  100f0b:	89 54 24 4c          	mov    %edx,0x4c(%esp)
  100f0f:	89 44 24 44          	mov    %eax,0x44(%esp)
  100f13:	89 4c 24 40          	mov    %ecx,0x40(%esp)
  100f17:	8b 44 24 48          	mov    0x48(%esp),%eax
  100f1b:	8b 4c 24 4c          	mov    0x4c(%esp),%ecx
  100f1f:	25 00 f0 ff ff       	and    $0xfffff000,%eax
  100f24:	89 4c 24 3c          	mov    %ecx,0x3c(%esp)
  100f28:	89 44 24 38          	mov    %eax,0x38(%esp)
  100f2c:	8b 54 24 48          	mov    0x48(%esp),%edx
  100f30:	8b 74 24 4c          	mov    0x4c(%esp),%esi
  100f34:	29 c2                	sub    %eax,%edx
  100f36:	19 ce                	sbb    %ecx,%esi
  100f38:	8b 44 24 40          	mov    0x40(%esp),%eax
  100f3c:	8b 4c 24 44          	mov    0x44(%esp),%ecx
  100f40:	01 d0                	add    %edx,%eax
  100f42:	11 f1                	adc    %esi,%ecx
  100f44:	89 44 24 40          	mov    %eax,0x40(%esp)
  100f48:	89 4c 24 44          	mov    %ecx,0x44(%esp)
  100f4c:	c7 44 24 34 00 00 00 	movl   $0x0,0x34(%esp)
  100f53:	00 
  100f54:	c7 44 24 30 00 00 00 	movl   $0x0,0x30(%esp)
  100f5b:	00 
  100f5c:	8b 44 24 30          	mov    0x30(%esp),%eax
  100f60:	8b 4c 24 34          	mov    0x34(%esp),%ecx
  100f64:	0f a4 c1 0c          	shld   $0xc,%eax,%ecx
  100f68:	c1 e0 0c             	shl    $0xc,%eax
  100f6b:	8b 54 24 40          	mov    0x40(%esp),%edx
  100f6f:	8b 74 24 44          	mov    0x44(%esp),%esi
  100f73:	29 d0                	sub    %edx,%eax
  100f75:	0f 93 c3             	setae  %bl
  100f78:	29 f1                	sub    %esi,%ecx
  100f7a:	0f 93 c7             	setae  %bh
  100f7d:	88 7c 24 1f          	mov    %bh,0x1f(%esp)
  100f81:	89 4c 24 18          	mov    %ecx,0x18(%esp)
  100f85:	89 44 24 14          	mov    %eax,0x14(%esp)
  100f89:	88 5c 24 13          	mov    %bl,0x13(%esp)
  100f8d:	74 08                	je     100f97 <MemMan_MarkKB4Used+0xa7>
  100f8f:	8a 44 24 1f          	mov    0x1f(%esp),%al
  100f93:	88 44 24 13          	mov    %al,0x13(%esp)
  100f97:	8a 44 24 13          	mov    0x13(%esp),%al
  100f9b:	84 c0                	test   %al,%al
  100f9d:	0f 85 92 00 00 00    	jne    101035 <MemMan_MarkKB4Used+0x145>
  100fa3:	eb 00                	jmp    100fa5 <MemMan_MarkKB4Used+0xb5>
  100fa5:	8b 44 24 38          	mov    0x38(%esp),%eax
  100fa9:	8b 4c 24 3c          	mov    0x3c(%esp),%ecx
  100fad:	89 e2                	mov    %esp,%edx
  100faf:	89 4a 04             	mov    %ecx,0x4(%edx)
  100fb2:	89 02                	mov    %eax,(%edx)
  100fb4:	c7 42 08 00 10 00 00 	movl   $0x1000,0x8(%edx)
  100fbb:	e8 e0 fe ff ff       	call   100ea0 <MemMan_CalculateBitmapIndex>
  100fc0:	89 54 24 2c          	mov    %edx,0x2c(%esp)
  100fc4:	89 44 24 28          	mov    %eax,0x28(%esp)
  100fc8:	0f a4 c2 1b          	shld   $0x1b,%eax,%edx
  100fcc:	89 54 24 24          	mov    %edx,0x24(%esp)
  100fd0:	8b 44 24 28          	mov    0x28(%esp),%eax
  100fd4:	83 e0 1f             	and    $0x1f,%eax
  100fd7:	89 44 24 20          	mov    %eax,0x20(%esp)
  100fdb:	8b 44 24 24          	mov    0x24(%esp),%eax
  100fdf:	8b 0d 74 70 0d 02    	mov    0x20d7074,%ecx
  100fe5:	8b 14 81             	mov    (%ecx,%eax,4),%edx
  100fe8:	8a 5c 24 20          	mov    0x20(%esp),%bl
  100fec:	be 01 00 00 00       	mov    $0x1,%esi
  100ff1:	89 4c 24 0c          	mov    %ecx,0xc(%esp)
  100ff5:	88 d9                	mov    %bl,%cl
  100ff7:	d3 e6                	shl    %cl,%esi
  100ff9:	09 f2                	or     %esi,%edx
  100ffb:	8b 74 24 0c          	mov    0xc(%esp),%esi
  100fff:	89 14 86             	mov    %edx,(%esi,%eax,4)
  101002:	8b 44 24 48          	mov    0x48(%esp),%eax
  101006:	8b 54 24 4c          	mov    0x4c(%esp),%edx
  10100a:	05 00 10 00 00       	add    $0x1000,%eax
  10100f:	83 d2 00             	adc    $0x0,%edx
  101012:	89 44 24 48          	mov    %eax,0x48(%esp)
  101016:	89 54 24 4c          	mov    %edx,0x4c(%esp)
  10101a:	8b 44 24 30          	mov    0x30(%esp),%eax
  10101e:	8b 4c 24 34          	mov    0x34(%esp),%ecx
  101022:	83 c0 01             	add    $0x1,%eax
  101025:	83 d1 00             	adc    $0x0,%ecx
  101028:	89 44 24 30          	mov    %eax,0x30(%esp)
  10102c:	89 4c 24 34          	mov    %ecx,0x34(%esp)
  101030:	e9 27 ff ff ff       	jmp    100f5c <MemMan_MarkKB4Used+0x6c>
  101035:	8d 65 f8             	lea    -0x8(%ebp),%esp
  101038:	5e                   	pop    %esi
  101039:	5b                   	pop    %ebx
  10103a:	5d                   	pop    %ebp
  10103b:	c3                   	ret    
  10103c:	8d 74 26 00          	lea    0x0(%esi,%eiz,1),%esi

00101040 <MemMan_Alloc>:
  101040:	55                   	push   %ebp
  101041:	89 e5                	mov    %esp,%ebp
  101043:	53                   	push   %ebx
  101044:	57                   	push   %edi
  101045:	56                   	push   %esi
  101046:	83 e4 f8             	and    $0xfffffff8,%esp
  101049:	81 ec 88 00 00 00    	sub    $0x88,%esp
  10104f:	8b 45 0c             	mov    0xc(%ebp),%eax
  101052:	8b 4d 08             	mov    0x8(%ebp),%ecx
  101055:	89 4c 24 78          	mov    %ecx,0x78(%esp)
  101059:	89 44 24 7c          	mov    %eax,0x7c(%esp)
  10105d:	89 c2                	mov    %eax,%edx
  10105f:	0f a4 ca 14          	shld   $0x14,%ecx,%edx
  101063:	c1 e8 0c             	shr    $0xc,%eax
  101066:	89 44 24 74          	mov    %eax,0x74(%esp)
  10106a:	89 54 24 70          	mov    %edx,0x70(%esp)
  10106e:	0f a4 d0 0c          	shld   $0xc,%edx,%eax
  101072:	c1 e2 0c             	shl    $0xc,%edx
  101075:	8b 4c 24 78          	mov    0x78(%esp),%ecx
  101079:	8b 74 24 7c          	mov    0x7c(%esp),%esi
  10107d:	29 ca                	sub    %ecx,%edx
  10107f:	0f 93 c3             	setae  %bl
  101082:	29 f0                	sub    %esi,%eax
  101084:	0f 93 c7             	setae  %bh
  101087:	88 7c 24 53          	mov    %bh,0x53(%esp)
  10108b:	89 44 24 4c          	mov    %eax,0x4c(%esp)
  10108f:	89 54 24 48          	mov    %edx,0x48(%esp)
  101093:	88 5c 24 47          	mov    %bl,0x47(%esp)
  101097:	74 08                	je     1010a1 <MemMan_Alloc+0x61>
  101099:	8a 44 24 53          	mov    0x53(%esp),%al
  10109d:	88 44 24 47          	mov    %al,0x47(%esp)
  1010a1:	8a 44 24 47          	mov    0x47(%esp),%al
  1010a5:	84 c0                	test   %al,%al
  1010a7:	75 18                	jne    1010c1 <MemMan_Alloc+0x81>
  1010a9:	eb 00                	jmp    1010ab <MemMan_Alloc+0x6b>
  1010ab:	8b 44 24 70          	mov    0x70(%esp),%eax
  1010af:	8b 4c 24 74          	mov    0x74(%esp),%ecx
  1010b3:	83 c0 01             	add    $0x1,%eax
  1010b6:	83 d1 00             	adc    $0x0,%ecx
  1010b9:	89 44 24 70          	mov    %eax,0x70(%esp)
  1010bd:	89 4c 24 74          	mov    %ecx,0x74(%esp)
  1010c1:	c7 44 24 6c 00 00 00 	movl   $0x0,0x6c(%esp)
  1010c8:	00 
  1010c9:	f2 0f 10 05 78 70 0d 	movsd  0x20d7078,%xmm0
  1010d0:	02 
  1010d1:	f2 0f 11 44 24 60    	movsd  %xmm0,0x60(%esp)
  1010d7:	8b 44 24 60          	mov    0x60(%esp),%eax
  1010db:	8b 4c 24 64          	mov    0x64(%esp),%ecx
  1010df:	8b 15 50 70 0d 02    	mov    0x20d7050,%edx
  1010e5:	29 d0                	sub    %edx,%eax
  1010e7:	0f 93 c3             	setae  %bl
  1010ea:	85 c9                	test   %ecx,%ecx
  1010ec:	b7 01                	mov    $0x1,%bh
  1010ee:	89 44 24 40          	mov    %eax,0x40(%esp)
  1010f2:	88 7c 24 3f          	mov    %bh,0x3f(%esp)
  1010f6:	88 5c 24 3e          	mov    %bl,0x3e(%esp)
  1010fa:	74 08                	je     101104 <MemMan_Alloc+0xc4>
  1010fc:	8a 44 24 3f          	mov    0x3f(%esp),%al
  101100:	88 44 24 3e          	mov    %al,0x3e(%esp)
  101104:	8a 44 24 3e          	mov    0x3e(%esp),%al
  101108:	84 c0                	test   %al,%al
  10110a:	0f 85 ad 02 00 00    	jne    1013bd <MemMan_Alloc+0x37d>
  101110:	eb 00                	jmp    101112 <MemMan_Alloc+0xd2>
  101112:	8b 44 24 70          	mov    0x70(%esp),%eax
  101116:	8b 4c 24 74          	mov    0x74(%esp),%ecx
  10111a:	83 f0 01             	xor    $0x1,%eax
  10111d:	09 c8                	or     %ecx,%eax
  10111f:	89 44 24 38          	mov    %eax,0x38(%esp)
  101123:	0f 85 8d 00 00 00    	jne    1011b6 <MemMan_Alloc+0x176>
  101129:	eb 00                	jmp    10112b <MemMan_Alloc+0xeb>
  10112b:	8b 44 24 60          	mov    0x60(%esp),%eax
  10112f:	8b 0d 74 70 0d 02    	mov    0x20d7074,%ecx
  101135:	83 3c 81 ff          	cmpl   $0xffffffff,(%ecx,%eax,4)
  101139:	73 76                	jae    1011b1 <MemMan_Alloc+0x171>
  10113b:	eb 00                	jmp    10113d <MemMan_Alloc+0xfd>
  10113d:	83 7c 24 6c 20       	cmpl   $0x20,0x6c(%esp)
  101142:	7d 40                	jge    101184 <MemMan_Alloc+0x144>
  101144:	b8 01 00 00 00       	mov    $0x1,%eax
  101149:	8b 4c 24 60          	mov    0x60(%esp),%ecx
  10114d:	8b 15 74 70 0d 02    	mov    0x20d7074,%edx
  101153:	8b 0c 8a             	mov    (%edx,%ecx,4),%ecx
  101156:	8b 54 24 6c          	mov    0x6c(%esp),%edx
  10115a:	89 4c 24 34          	mov    %ecx,0x34(%esp)
  10115e:	89 d1                	mov    %edx,%ecx
  101160:	d3 e0                	shl    %cl,%eax
  101162:	8b 54 24 34          	mov    0x34(%esp),%edx
  101166:	21 c2                	and    %eax,%edx
  101168:	8b 4c 24 6c          	mov    0x6c(%esp),%ecx
  10116c:	d3 ea                	shr    %cl,%edx
  10116e:	83 fa 00             	cmp    $0x0,%edx
  101171:	75 02                	jne    101175 <MemMan_Alloc+0x135>
  101173:	eb 0f                	jmp    101184 <MemMan_Alloc+0x144>
  101175:	eb 00                	jmp    101177 <MemMan_Alloc+0x137>
  101177:	8b 44 24 6c          	mov    0x6c(%esp),%eax
  10117b:	83 c0 01             	add    $0x1,%eax
  10117e:	89 44 24 6c          	mov    %eax,0x6c(%esp)
  101182:	eb b9                	jmp    10113d <MemMan_Alloc+0xfd>
  101184:	8b 44 24 60          	mov    0x60(%esp),%eax
  101188:	8b 0d 74 70 0d 02    	mov    0x20d7074,%ecx
  10118e:	8b 0c 81             	mov    (%ecx,%eax,4),%ecx
  101191:	8a 54 24 6c          	mov    0x6c(%esp),%dl
  101195:	be 01 00 00 00       	mov    $0x1,%esi
  10119a:	89 4c 24 30          	mov    %ecx,0x30(%esp)
  10119e:	88 d1                	mov    %dl,%cl
  1011a0:	d3 e6                	shl    %cl,%esi
  1011a2:	8b 7c 24 30          	mov    0x30(%esp),%edi
  1011a6:	09 f7                	or     %esi,%edi
  1011a8:	8b 35 74 70 0d 02    	mov    0x20d7074,%esi
  1011ae:	89 3c 86             	mov    %edi,(%esi,%eax,4)
  1011b1:	e9 ea 01 00 00       	jmp    1013a0 <MemMan_Alloc+0x360>
  1011b6:	8b 44 24 70          	mov    0x70(%esp),%eax
  1011ba:	8b 4c 24 74          	mov    0x74(%esp),%ecx
  1011be:	83 e8 20             	sub    $0x20,%eax
  1011c1:	0f 97 c2             	seta   %dl
  1011c4:	85 c9                	test   %ecx,%ecx
  1011c6:	0f 95 c6             	setne  %dh
  1011c9:	88 74 24 2f          	mov    %dh,0x2f(%esp)
  1011cd:	89 44 24 28          	mov    %eax,0x28(%esp)
  1011d1:	88 54 24 27          	mov    %dl,0x27(%esp)
  1011d5:	74 08                	je     1011df <MemMan_Alloc+0x19f>
  1011d7:	8a 44 24 2f          	mov    0x2f(%esp),%al
  1011db:	88 44 24 27          	mov    %al,0x27(%esp)
  1011df:	8a 44 24 27          	mov    0x27(%esp),%al
  1011e3:	84 c0                	test   %al,%al
  1011e5:	0f 85 b1 01 00 00    	jne    10139c <MemMan_Alloc+0x35c>
  1011eb:	eb 00                	jmp    1011ed <MemMan_Alloc+0x1ad>
  1011ed:	8b 44 24 60          	mov    0x60(%esp),%eax
  1011f1:	8b 0d 74 70 0d 02    	mov    0x20d7074,%ecx
  1011f7:	83 3c 81 00          	cmpl   $0x0,(%ecx,%eax,4)
  1011fb:	75 63                	jne    101260 <MemMan_Alloc+0x220>
  1011fd:	eb 00                	jmp    1011ff <MemMan_Alloc+0x1bf>
  1011ff:	8b 44 24 78          	mov    0x78(%esp),%eax
  101203:	8b 4c 24 7c          	mov    0x7c(%esp),%ecx
  101207:	09 c8                	or     %ecx,%eax
  101209:	89 44 24 20          	mov    %eax,0x20(%esp)
  10120d:	74 4c                	je     10125b <MemMan_Alloc+0x21b>
  10120f:	eb 00                	jmp    101211 <MemMan_Alloc+0x1d1>
  101211:	8b 44 24 60          	mov    0x60(%esp),%eax
  101215:	8b 0d 74 70 0d 02    	mov    0x20d7074,%ecx
  10121b:	8b 14 81             	mov    (%ecx,%eax,4),%edx
  10121e:	8a 5c 24 6c          	mov    0x6c(%esp),%bl
  101222:	be 01 00 00 00       	mov    $0x1,%esi
  101227:	89 4c 24 1c          	mov    %ecx,0x1c(%esp)
  10122b:	88 d9                	mov    %bl,%cl
  10122d:	d3 e6                	shl    %cl,%esi
  10122f:	09 f2                	or     %esi,%edx
  101231:	8b 74 24 1c          	mov    0x1c(%esp),%esi
  101235:	89 14 86             	mov    %edx,(%esi,%eax,4)
  101238:	8b 44 24 6c          	mov    0x6c(%esp),%eax
  10123c:	40                   	inc    %eax
  10123d:	89 44 24 6c          	mov    %eax,0x6c(%esp)
  101241:	8b 44 24 78          	mov    0x78(%esp),%eax
  101245:	8b 54 24 7c          	mov    0x7c(%esp),%edx
  101249:	05 00 f0 ff ff       	add    $0xfffff000,%eax
  10124e:	83 d2 ff             	adc    $0xffffffff,%edx
  101251:	89 44 24 78          	mov    %eax,0x78(%esp)
  101255:	89 54 24 7c          	mov    %edx,0x7c(%esp)
  101259:	eb a4                	jmp    1011ff <MemMan_Alloc+0x1bf>
  10125b:	e9 3a 01 00 00       	jmp    10139a <MemMan_Alloc+0x35a>
  101260:	8b 44 24 60          	mov    0x60(%esp),%eax
  101264:	8b 0d 74 70 0d 02    	mov    0x20d7074,%ecx
  10126a:	83 3c 81 ff          	cmpl   $0xffffffff,(%ecx,%eax,4)
  10126e:	0f 84 24 01 00 00    	je     101398 <MemMan_Alloc+0x358>
  101274:	c7 44 24 5c 00 00 00 	movl   $0x0,0x5c(%esp)
  10127b:	00 
  10127c:	c7 44 24 58 00 00 00 	movl   $0x0,0x58(%esp)
  101283:	00 
  101284:	83 7c 24 58 20       	cmpl   $0x20,0x58(%esp)
  101289:	7d 77                	jge    101302 <MemMan_Alloc+0x2c2>
  10128b:	8b 44 24 60          	mov    0x60(%esp),%eax
  10128f:	8b 0d 74 70 0d 02    	mov    0x20d7074,%ecx
  101295:	8b 04 81             	mov    (%ecx,%eax,4),%eax
  101298:	8b 4c 24 58          	mov    0x58(%esp),%ecx
  10129c:	d3 e8                	shr    %cl,%eax
  10129e:	83 e0 01             	and    $0x1,%eax
  1012a1:	83 f8 00             	cmp    $0x0,%eax
  1012a4:	75 0d                	jne    1012b3 <MemMan_Alloc+0x273>
  1012a6:	8b 44 24 5c          	mov    0x5c(%esp),%eax
  1012aa:	83 c0 01             	add    $0x1,%eax
  1012ad:	89 44 24 5c          	mov    %eax,0x5c(%esp)
  1012b1:	eb 40                	jmp    1012f3 <MemMan_Alloc+0x2b3>
  1012b3:	8b 44 24 5c          	mov    0x5c(%esp),%eax
  1012b7:	8b 4c 24 70          	mov    0x70(%esp),%ecx
  1012bb:	8b 54 24 74          	mov    0x74(%esp),%edx
  1012bf:	29 c8                	sub    %ecx,%eax
  1012c1:	0f 93 c3             	setae  %bl
  1012c4:	85 d2                	test   %edx,%edx
  1012c6:	0f 94 c7             	sete   %bh
  1012c9:	88 7c 24 1b          	mov    %bh,0x1b(%esp)
  1012cd:	89 44 24 14          	mov    %eax,0x14(%esp)
  1012d1:	88 5c 24 13          	mov    %bl,0x13(%esp)
  1012d5:	74 08                	je     1012df <MemMan_Alloc+0x29f>
  1012d7:	8a 44 24 1b          	mov    0x1b(%esp),%al
  1012db:	88 44 24 13          	mov    %al,0x13(%esp)
  1012df:	8a 44 24 13          	mov    0x13(%esp),%al
  1012e3:	84 c0                	test   %al,%al
  1012e5:	75 0a                	jne    1012f1 <MemMan_Alloc+0x2b1>
  1012e7:	eb 00                	jmp    1012e9 <MemMan_Alloc+0x2a9>
  1012e9:	c7 44 24 5c 00 00 00 	movl   $0x0,0x5c(%esp)
  1012f0:	00 
  1012f1:	eb 00                	jmp    1012f3 <MemMan_Alloc+0x2b3>
  1012f3:	eb 00                	jmp    1012f5 <MemMan_Alloc+0x2b5>
  1012f5:	8b 44 24 58          	mov    0x58(%esp),%eax
  1012f9:	83 c0 01             	add    $0x1,%eax
  1012fc:	89 44 24 58          	mov    %eax,0x58(%esp)
  101300:	eb 82                	jmp    101284 <MemMan_Alloc+0x244>
  101302:	8b 44 24 5c          	mov    0x5c(%esp),%eax
  101306:	8b 4c 24 70          	mov    0x70(%esp),%ecx
  10130a:	8b 54 24 74          	mov    0x74(%esp),%edx
  10130e:	29 c8                	sub    %ecx,%eax
  101310:	0f 92 c3             	setb   %bl
  101313:	85 d2                	test   %edx,%edx
  101315:	0f 95 c7             	setne  %bh
  101318:	88 7c 24 12          	mov    %bh,0x12(%esp)
  10131c:	89 44 24 0c          	mov    %eax,0xc(%esp)
  101320:	88 5c 24 0b          	mov    %bl,0xb(%esp)
  101324:	74 08                	je     10132e <MemMan_Alloc+0x2ee>
  101326:	8a 44 24 12          	mov    0x12(%esp),%al
  10132a:	88 44 24 0b          	mov    %al,0xb(%esp)
  10132e:	8a 44 24 0b          	mov    0xb(%esp),%al
  101332:	84 c0                	test   %al,%al
  101334:	75 60                	jne    101396 <MemMan_Alloc+0x356>
  101336:	eb 00                	jmp    101338 <MemMan_Alloc+0x2f8>
  101338:	eb 00                	jmp    10133a <MemMan_Alloc+0x2fa>
  10133a:	8b 44 24 78          	mov    0x78(%esp),%eax
  10133e:	8b 4c 24 7c          	mov    0x7c(%esp),%ecx
  101342:	09 c8                	or     %ecx,%eax
  101344:	89 44 24 04          	mov    %eax,0x4(%esp)
  101348:	74 4a                	je     101394 <MemMan_Alloc+0x354>
  10134a:	eb 00                	jmp    10134c <MemMan_Alloc+0x30c>
  10134c:	8b 44 24 60          	mov    0x60(%esp),%eax
  101350:	8b 0d 74 70 0d 02    	mov    0x20d7074,%ecx
  101356:	8b 14 81             	mov    (%ecx,%eax,4),%edx
  101359:	8a 5c 24 6c          	mov    0x6c(%esp),%bl
  10135d:	be 01 00 00 00       	mov    $0x1,%esi
  101362:	89 0c 24             	mov    %ecx,(%esp)
  101365:	88 d9                	mov    %bl,%cl
  101367:	d3 e6                	shl    %cl,%esi
  101369:	09 f2                	or     %esi,%edx
  10136b:	8b 34 24             	mov    (%esp),%esi
  10136e:	89 14 86             	mov    %edx,(%esi,%eax,4)
  101371:	8b 44 24 6c          	mov    0x6c(%esp),%eax
  101375:	40                   	inc    %eax
  101376:	89 44 24 6c          	mov    %eax,0x6c(%esp)
  10137a:	8b 44 24 78          	mov    0x78(%esp),%eax
  10137e:	8b 54 24 7c          	mov    0x7c(%esp),%edx
  101382:	05 00 f0 ff ff       	add    $0xfffff000,%eax
  101387:	83 d2 ff             	adc    $0xffffffff,%edx
  10138a:	89 44 24 78          	mov    %eax,0x78(%esp)
  10138e:	89 54 24 7c          	mov    %edx,0x7c(%esp)
  101392:	eb a6                	jmp    10133a <MemMan_Alloc+0x2fa>
  101394:	eb 00                	jmp    101396 <MemMan_Alloc+0x356>
  101396:	eb 00                	jmp    101398 <MemMan_Alloc+0x358>
  101398:	eb 00                	jmp    10139a <MemMan_Alloc+0x35a>
  10139a:	eb 02                	jmp    10139e <MemMan_Alloc+0x35e>
  10139c:	cd 15                	int    $0x15
  10139e:	eb 00                	jmp    1013a0 <MemMan_Alloc+0x360>
  1013a0:	eb 00                	jmp    1013a2 <MemMan_Alloc+0x362>
  1013a2:	8b 44 24 60          	mov    0x60(%esp),%eax
  1013a6:	8b 4c 24 64          	mov    0x64(%esp),%ecx
  1013aa:	83 c0 01             	add    $0x1,%eax
  1013ad:	83 d1 00             	adc    $0x0,%ecx
  1013b0:	89 44 24 60          	mov    %eax,0x60(%esp)
  1013b4:	89 4c 24 64          	mov    %ecx,0x64(%esp)
  1013b8:	e9 1a fd ff ff       	jmp    1010d7 <MemMan_Alloc+0x97>
  1013bd:	8b 44 24 60          	mov    0x60(%esp),%eax
  1013c1:	c1 e0 05             	shl    $0x5,%eax
  1013c4:	8b 4c 24 6c          	mov    0x6c(%esp),%ecx
  1013c8:	01 c8                	add    %ecx,%eax
  1013ca:	c1 e0 0c             	shl    $0xc,%eax
  1013cd:	89 44 24 54          	mov    %eax,0x54(%esp)
  1013d1:	8b 44 24 60          	mov    0x60(%esp),%eax
  1013d5:	8b 0d 74 70 0d 02    	mov    0x20d7074,%ecx
  1013db:	83 3c 81 ff          	cmpl   $0xffffffff,(%ecx,%eax,4)
  1013df:	75 38                	jne    101419 <MemMan_Alloc+0x3d9>
  1013e1:	eb 00                	jmp    1013e3 <MemMan_Alloc+0x3a3>
  1013e3:	8b 44 24 60          	mov    0x60(%esp),%eax
  1013e7:	8b 0d 74 70 0d 02    	mov    0x20d7074,%ecx
  1013ed:	83 3c 81 ff          	cmpl   $0xffffffff,(%ecx,%eax,4)
  1013f1:	75 18                	jne    10140b <MemMan_Alloc+0x3cb>
  1013f3:	8b 44 24 60          	mov    0x60(%esp),%eax
  1013f7:	8b 4c 24 64          	mov    0x64(%esp),%ecx
  1013fb:	83 c0 01             	add    $0x1,%eax
  1013fe:	83 d1 00             	adc    $0x0,%ecx
  101401:	89 44 24 60          	mov    %eax,0x60(%esp)
  101405:	89 4c 24 64          	mov    %ecx,0x64(%esp)
  101409:	eb d8                	jmp    1013e3 <MemMan_Alloc+0x3a3>
  10140b:	f2 0f 10 44 24 60    	movsd  0x60(%esp),%xmm0
  101411:	f2 0f 11 05 78 70 0d 	movsd  %xmm0,0x20d7078
  101418:	02 
  101419:	8b 44 24 54          	mov    0x54(%esp),%eax
  10141d:	8d 65 f4             	lea    -0xc(%ebp),%esp
  101420:	5e                   	pop    %esi
  101421:	5f                   	pop    %edi
  101422:	5b                   	pop    %ebx
  101423:	5d                   	pop    %ebp
  101424:	c3                   	ret    

00101425 <_start>:
  101425:	bc 08 6d 0e 02       	mov    $0x20e6d08,%esp
  10142a:	50                   	push   %eax
  10142b:	53                   	push   %ebx
  10142c:	e8 4f 01 00 00       	call   101580 <setup_kernel_core>
  101431:	e8 af 1b 00 00       	call   102fe5 <_init>
  101436:	e8 45 04 00 00       	call   101880 <kernel_main>
  10143b:	fa                   	cli    
  10143c:	f4                   	hlt    
  10143d:	eb fe                	jmp    10143d <_start+0x18>
  10143f:	90                   	nop

00101440 <timerHandler>:
  101440:	55                   	push   %ebp
  101441:	89 e5                	mov    %esp,%ebp
  101443:	56                   	push   %esi
  101444:	83 e4 f8             	and    $0xfffffff8,%esp
  101447:	83 ec 28             	sub    $0x28,%esp
  10144a:	8b 45 08             	mov    0x8(%ebp),%eax
  10144d:	89 44 24 20          	mov    %eax,0x20(%esp)
  101451:	a1 00 2d 0e 02       	mov    0x20e2d00,%eax
  101456:	40                   	inc    %eax
  101457:	a3 00 2d 0e 02       	mov    %eax,0x20e2d00
  10145c:	e8 1f f0 ff ff       	call   100480 <Graphics_Clear>
  101461:	89 e0                	mov    %esp,%eax
  101463:	c7 40 04 00 00 00 00 	movl   $0x0,0x4(%eax)
  10146a:	c7 00 00 10 00 00    	movl   $0x1000,(%eax)
  101470:	e8 cb fb ff ff       	call   101040 <MemMan_Alloc>
  101475:	89 44 24 18          	mov    %eax,0x18(%esp)
  101479:	c7 44 24 1c 00 00 00 	movl   $0x0,0x1c(%esp)
  101480:	00 
  101481:	c7 05 04 2d 0e 02 00 	movl   $0x0,0x20e2d04
  101488:	00 00 00 
  10148b:	c7 05 94 70 0d 02 00 	movl   $0x0,0x20d7094
  101492:	00 00 00 
  101495:	81 3d 94 70 0d 02 38 	cmpl   $0x438,0x20d7094
  10149c:	04 00 00 
  10149f:	7d 6d                	jge    10150e <timerHandler+0xce>
  1014a1:	c7 05 88 70 0d 02 00 	movl   $0x0,0x20d7088
  1014a8:	00 00 00 
  1014ab:	81 3d 88 70 0d 02 80 	cmpl   $0x780,0x20d7088
  1014b2:	07 00 00 
  1014b5:	7d 46                	jge    1014fd <timerHandler+0xbd>
  1014b7:	a1 88 70 0d 02       	mov    0x20d7088,%eax
  1014bc:	8b 0d 94 70 0d 02    	mov    0x20d7094,%ecx
  1014c2:	8b 15 04 2d 0e 02    	mov    0x20e2d04,%edx
  1014c8:	8b 35 84 70 0d 02    	mov    0x20d7084,%esi
  1014ce:	8b 14 16             	mov    (%esi,%edx,1),%edx
  1014d1:	89 04 24             	mov    %eax,(%esp)
  1014d4:	89 4c 24 04          	mov    %ecx,0x4(%esp)
  1014d8:	89 54 24 08          	mov    %edx,0x8(%esp)
  1014dc:	e8 5f f6 ff ff       	call   100b40 <Graphics_SetPixel>
  1014e1:	a1 04 2d 0e 02       	mov    0x20e2d04,%eax
  1014e6:	83 c0 04             	add    $0x4,%eax
  1014e9:	a3 04 2d 0e 02       	mov    %eax,0x20e2d04
  1014ee:	a1 88 70 0d 02       	mov    0x20d7088,%eax
  1014f3:	83 c0 01             	add    $0x1,%eax
  1014f6:	a3 88 70 0d 02       	mov    %eax,0x20d7088
  1014fb:	eb ae                	jmp    1014ab <timerHandler+0x6b>
  1014fd:	eb 00                	jmp    1014ff <timerHandler+0xbf>
  1014ff:	a1 94 70 0d 02       	mov    0x20d7094,%eax
  101504:	83 c0 01             	add    $0x1,%eax
  101507:	a3 94 70 0d 02       	mov    %eax,0x20d7094
  10150c:	eb 87                	jmp    101495 <timerHandler+0x55>
  10150e:	a1 70 70 0d 02       	mov    0x20d7070,%eax
  101513:	c1 e0 05             	shl    $0x5,%eax
  101516:	89 e1                	mov    %esp,%ecx
  101518:	89 01                	mov    %eax,(%ecx)
  10151a:	c7 41 10 00 00 00 00 	movl   $0x0,0x10(%ecx)
  101521:	c7 41 0c 00 00 00 00 	movl   $0x0,0xc(%ecx)
  101528:	c7 41 08 10 00 00 00 	movl   $0x10,0x8(%ecx)
  10152f:	c7 41 04 00 00 00 00 	movl   $0x0,0x4(%ecx)
  101536:	e8 c5 f1 ff ff       	call   100700 <Graphics_WriteUInt64>
  10153b:	a1 6c 70 0d 02       	mov    0x20d706c,%eax
  101540:	8b 0d 68 70 0d 02    	mov    0x20d7068,%ecx
  101546:	89 e2                	mov    %esp,%edx
  101548:	89 42 04             	mov    %eax,0x4(%edx)
  10154b:	89 0a                	mov    %ecx,(%edx)
  10154d:	c7 42 10 14 00 00 00 	movl   $0x14,0x10(%edx)
  101554:	c7 42 0c 00 00 00 00 	movl   $0x0,0xc(%edx)
  10155b:	c7 42 08 10 00 00 00 	movl   $0x10,0x8(%edx)
  101562:	e8 99 f1 ff ff       	call   100700 <Graphics_WriteUInt64>
  101567:	e8 e4 ee ff ff       	call   100450 <Graphics_SwapBuffer>
  10156c:	8d 65 fc             	lea    -0x4(%ebp),%esp
  10156f:	5e                   	pop    %esi
  101570:	5d                   	pop    %ebp
  101571:	c3                   	ret    
  101572:	8d b4 26 00 00 00 00 	lea    0x0(%esi,%eiz,1),%esi
  101579:	8d bc 27 00 00 00 00 	lea    0x0(%edi,%eiz,1),%edi

00101580 <setup_kernel_core>:
  101580:	55                   	push   %ebp
  101581:	89 e5                	mov    %esp,%ebp
  101583:	83 ec 60             	sub    $0x60,%esp
  101586:	8b 45 0c             	mov    0xc(%ebp),%eax
  101589:	8b 4d 08             	mov    0x8(%ebp),%ecx
  10158c:	89 4d fc             	mov    %ecx,-0x4(%ebp)
  10158f:	89 45 f8             	mov    %eax,-0x8(%ebp)
  101592:	e8 f9 02 00 00       	call   101890 <GDT_Initialize>
  101597:	e8 a4 05 00 00       	call   101b40 <IDT_Initialize>
  10159c:	e8 7f 09 00 00       	call   101f20 <PIC_Initialize>
  1015a1:	e8 ca 11 00 00       	call   102770 <InterruptManager_Initialize>
  1015a6:	b8 20 00 00 00       	mov    $0x20,%eax
  1015ab:	b9 1e 00 00 00       	mov    $0x1e,%ecx
  1015b0:	8d 15 40 14 10 00    	lea    0x101440,%edx
  1015b6:	c7 04 24 20 00 00 00 	movl   $0x20,(%esp)
  1015bd:	c7 44 24 04 1e 00 00 	movl   $0x1e,0x4(%esp)
  1015c4:	00 
  1015c5:	89 54 24 08          	mov    %edx,0x8(%esp)
  1015c9:	89 45 f0             	mov    %eax,-0x10(%ebp)
  1015cc:	89 4d ec             	mov    %ecx,-0x14(%ebp)
  1015cf:	e8 cc 12 00 00       	call   1028a0 <InterruptManager_RegisterHandler>
  1015d4:	e8 a7 0f 00 00       	call   102580 <FPU_Initialize>
  1015d9:	b8 14 00 00 00       	mov    $0x14,%eax
  1015de:	c7 04 24 14 00 00 00 	movl   $0x14,(%esp)
  1015e5:	89 45 e8             	mov    %eax,-0x18(%ebp)
  1015e8:	e8 93 f5 ff ff       	call   100b80 <Bootstrap_malloc>
  1015ed:	b9 14 00 00 00       	mov    $0x14,%ecx
  1015f2:	a3 28 70 0d 01       	mov    %eax,0x10d7028
  1015f7:	a1 28 70 0d 01       	mov    0x10d7028,%eax
  1015fc:	8b 55 fc             	mov    -0x4(%ebp),%edx
  1015ff:	8b 52 48             	mov    0x48(%edx),%edx
  101602:	89 04 24             	mov    %eax,(%esp)
  101605:	89 54 24 04          	mov    %edx,0x4(%esp)
  101609:	c7 44 24 08 14 00 00 	movl   $0x14,0x8(%esp)
  101610:	00 
  101611:	89 4d e4             	mov    %ecx,-0x1c(%ebp)
  101614:	e8 b7 eb ff ff       	call   1001d0 <memcpy>
  101619:	b9 32 00 00 00       	mov    $0x32,%ecx
  10161e:	c7 04 24 32 00 00 00 	movl   $0x32,(%esp)
  101625:	89 45 e0             	mov    %eax,-0x20(%ebp)
  101628:	89 4d dc             	mov    %ecx,-0x24(%ebp)
  10162b:	e8 50 f5 ff ff       	call   100b80 <Bootstrap_malloc>
  101630:	b9 32 00 00 00       	mov    $0x32,%ecx
  101635:	a3 00 e0 8e 00       	mov    %eax,0x8ee000
  10163a:	a1 00 e0 8e 00       	mov    0x8ee000,%eax
  10163f:	8b 55 fc             	mov    -0x4(%ebp),%edx
  101642:	8b 52 4c             	mov    0x4c(%edx),%edx
  101645:	89 04 24             	mov    %eax,(%esp)
  101648:	89 54 24 04          	mov    %edx,0x4(%esp)
  10164c:	c7 44 24 08 32 00 00 	movl   $0x32,0x8(%esp)
  101653:	00 
  101654:	89 4d d8             	mov    %ecx,-0x28(%ebp)
  101657:	e8 74 eb ff ff       	call   1001d0 <memcpy>
  10165c:	b9 78 00 00 00       	mov    $0x78,%ecx
  101661:	c7 04 24 78 00 00 00 	movl   $0x78,(%esp)
  101668:	89 45 d4             	mov    %eax,-0x2c(%ebp)
  10166b:	89 4d d0             	mov    %ecx,-0x30(%ebp)
  10166e:	e8 0d f5 ff ff       	call   100b80 <Bootstrap_malloc>
  101673:	b9 78 00 00 00       	mov    $0x78,%ecx
  101678:	a3 14 70 0d 01       	mov    %eax,0x10d7014
  10167d:	a1 14 70 0d 01       	mov    0x10d7014,%eax
  101682:	8b 55 fc             	mov    -0x4(%ebp),%edx
  101685:	89 04 24             	mov    %eax,(%esp)
  101688:	89 54 24 04          	mov    %edx,0x4(%esp)
  10168c:	c7 44 24 08 78 00 00 	movl   $0x78,0x8(%esp)
  101693:	00 
  101694:	89 4d cc             	mov    %ecx,-0x34(%ebp)
  101697:	e8 34 eb ff ff       	call   1001d0 <memcpy>
  10169c:	8b 4d fc             	mov    -0x4(%ebp),%ecx
  10169f:	8b 49 2c             	mov    0x2c(%ecx),%ecx
  1016a2:	89 0d 10 70 0d 01    	mov    %ecx,0x10d7010
  1016a8:	8b 0d 10 70 0d 01    	mov    0x10d7010,%ecx
  1016ae:	89 0c 24             	mov    %ecx,(%esp)
  1016b1:	89 45 c8             	mov    %eax,-0x38(%ebp)
  1016b4:	e8 c7 f4 ff ff       	call   100b80 <Bootstrap_malloc>
  1016b9:	a3 04 e0 8e 00       	mov    %eax,0x8ee004
  1016be:	a1 04 e0 8e 00       	mov    0x8ee004,%eax
  1016c3:	8b 4d fc             	mov    -0x4(%ebp),%ecx
  1016c6:	8b 49 30             	mov    0x30(%ecx),%ecx
  1016c9:	8b 15 10 70 0d 01    	mov    0x10d7010,%edx
  1016cf:	89 04 24             	mov    %eax,(%esp)
  1016d2:	89 4c 24 04          	mov    %ecx,0x4(%esp)
  1016d6:	89 54 24 08          	mov    %edx,0x8(%esp)
  1016da:	e8 f1 ea ff ff       	call   1001d0 <memcpy>
  1016df:	0f 09                	wbinvd 
  1016e1:	89 45 c4             	mov    %eax,-0x3c(%ebp)
  1016e4:	e8 f7 f4 ff ff       	call   100be0 <MemMan_Initialize>
  1016e9:	e8 52 ec ff ff       	call   100340 <Graphics_Initialize>
  1016ee:	b8 00 90 7e 00       	mov    $0x7e9000,%eax
  1016f3:	c7 04 24 00 90 7e 00 	movl   $0x7e9000,(%esp)
  1016fa:	89 45 c0             	mov    %eax,-0x40(%ebp)
  1016fd:	e8 7e f4 ff ff       	call   100b80 <Bootstrap_malloc>
  101702:	a3 84 70 0d 02       	mov    %eax,0x20d7084
  101707:	c7 05 94 70 0d 02 00 	movl   $0x0,0x20d7094
  10170e:	00 00 00 
  101711:	a1 94 70 0d 02       	mov    0x20d7094,%eax
  101716:	3b 05 dc d4 8e 00    	cmp    0x8ed4dc,%eax
  10171c:	0f 83 16 01 00 00    	jae    101838 <setup_kernel_core+0x2b8>
  101722:	c7 05 88 70 0d 02 00 	movl   $0x0,0x20d7088
  101729:	00 00 00 
  10172c:	a1 88 70 0d 02       	mov    0x20d7088,%eax
  101731:	3b 05 e0 d4 8e 00    	cmp    0x8ed4e0,%eax
  101737:	0f 83 e7 00 00 00    	jae    101824 <setup_kernel_core+0x2a4>
  10173d:	a1 e4 d4 8e 00       	mov    0x8ed4e4,%eax
  101742:	0f be 00             	movsbl (%eax),%eax
  101745:	83 e8 21             	sub    $0x21,%eax
  101748:	c1 e0 02             	shl    $0x2,%eax
  10174b:	8b 0d e4 d4 8e 00    	mov    0x8ed4e4,%ecx
  101751:	0f be 49 01          	movsbl 0x1(%ecx),%ecx
  101755:	83 e9 21             	sub    $0x21,%ecx
  101758:	c1 f9 04             	sar    $0x4,%ecx
  10175b:	09 c8                	or     %ecx,%eax
  10175d:	88 c2                	mov    %al,%dl
  10175f:	88 55 f6             	mov    %dl,-0xa(%ebp)
  101762:	a1 e4 d4 8e 00       	mov    0x8ed4e4,%eax
  101767:	0f be 40 01          	movsbl 0x1(%eax),%eax
  10176b:	83 e8 21             	sub    $0x21,%eax
  10176e:	83 e0 0f             	and    $0xf,%eax
  101771:	c1 e0 04             	shl    $0x4,%eax
  101774:	8b 0d e4 d4 8e 00    	mov    0x8ed4e4,%ecx
  10177a:	0f be 49 02          	movsbl 0x2(%ecx),%ecx
  10177e:	83 e9 21             	sub    $0x21,%ecx
  101781:	c1 f9 02             	sar    $0x2,%ecx
  101784:	09 c8                	or     %ecx,%eax
  101786:	88 c2                	mov    %al,%dl
  101788:	88 55 f5             	mov    %dl,-0xb(%ebp)
  10178b:	a1 e4 d4 8e 00       	mov    0x8ed4e4,%eax
  101790:	0f be 40 02          	movsbl 0x2(%eax),%eax
  101794:	83 e8 21             	sub    $0x21,%eax
  101797:	83 e0 03             	and    $0x3,%eax
  10179a:	c1 e0 06             	shl    $0x6,%eax
  10179d:	8b 0d e4 d4 8e 00    	mov    0x8ed4e4,%ecx
  1017a3:	0f be 49 03          	movsbl 0x3(%ecx),%ecx
  1017a7:	83 e9 21             	sub    $0x21,%ecx
  1017aa:	09 c8                	or     %ecx,%eax
  1017ac:	88 c2                	mov    %al,%dl
  1017ae:	88 55 f4             	mov    %dl,-0xc(%ebp)
  1017b1:	a1 e4 d4 8e 00       	mov    0x8ed4e4,%eax
  1017b6:	83 c0 04             	add    $0x4,%eax
  1017b9:	a3 e4 d4 8e 00       	mov    %eax,0x8ed4e4
  1017be:	8a 55 f4             	mov    -0xc(%ebp),%dl
  1017c1:	a1 04 2d 0e 02       	mov    0x20e2d04,%eax
  1017c6:	8b 0d 84 70 0d 02    	mov    0x20d7084,%ecx
  1017cc:	88 14 01             	mov    %dl,(%ecx,%eax,1)
  1017cf:	8a 55 f5             	mov    -0xb(%ebp),%dl
  1017d2:	a1 04 2d 0e 02       	mov    0x20e2d04,%eax
  1017d7:	8b 0d 84 70 0d 02    	mov    0x20d7084,%ecx
  1017dd:	88 54 01 01          	mov    %dl,0x1(%ecx,%eax,1)
  1017e1:	8a 55 f6             	mov    -0xa(%ebp),%dl
  1017e4:	a1 04 2d 0e 02       	mov    0x20e2d04,%eax
  1017e9:	8b 0d 84 70 0d 02    	mov    0x20d7084,%ecx
  1017ef:	88 54 01 02          	mov    %dl,0x2(%ecx,%eax,1)
  1017f3:	8a 55 f7             	mov    -0x9(%ebp),%dl
  1017f6:	a1 04 2d 0e 02       	mov    0x20e2d04,%eax
  1017fb:	8b 0d 84 70 0d 02    	mov    0x20d7084,%ecx
  101801:	88 54 01 03          	mov    %dl,0x3(%ecx,%eax,1)
  101805:	a1 04 2d 0e 02       	mov    0x20e2d04,%eax
  10180a:	83 c0 04             	add    $0x4,%eax
  10180d:	a3 04 2d 0e 02       	mov    %eax,0x20e2d04
  101812:	a1 88 70 0d 02       	mov    0x20d7088,%eax
  101817:	83 c0 01             	add    $0x1,%eax
  10181a:	a3 88 70 0d 02       	mov    %eax,0x20d7088
  10181f:	e9 08 ff ff ff       	jmp    10172c <setup_kernel_core+0x1ac>
  101824:	eb 00                	jmp    101826 <setup_kernel_core+0x2a6>
  101826:	a1 94 70 0d 02       	mov    0x20d7094,%eax
  10182b:	83 c0 01             	add    $0x1,%eax
  10182e:	a3 94 70 0d 02       	mov    %eax,0x20d7094
  101833:	e9 d9 fe ff ff       	jmp    101711 <setup_kernel_core+0x191>
  101838:	fb                   	sti    
  101839:	b8 00 00 00 00       	mov    $0x0,%eax
  10183e:	b9 03 00 00 00       	mov    $0x3,%ecx
  101843:	ba 3c 00 00 00       	mov    $0x3c,%edx
  101848:	c7 04 24 00 00 00 00 	movl   $0x0,(%esp)
  10184f:	c7 44 24 04 03 00 00 	movl   $0x3,0x4(%esp)
  101856:	00 
  101857:	c7 44 24 08 03 00 00 	movl   $0x3,0x8(%esp)
  10185e:	00 
  10185f:	c7 44 24 0c 00 00 00 	movl   $0x0,0xc(%esp)
  101866:	00 
  101867:	c7 44 24 10 3c 00 00 	movl   $0x3c,0x10(%esp)
  10186e:	00 
  10186f:	89 45 bc             	mov    %eax,-0x44(%ebp)
  101872:	89 4d b8             	mov    %ecx,-0x48(%ebp)
  101875:	89 55 b4             	mov    %edx,-0x4c(%ebp)
  101878:	e8 e3 0b 00 00       	call   102460 <PIT_SetFrequency>
  10187d:	eb fe                	jmp    10187d <setup_kernel_core+0x2fd>
  10187f:	90                   	nop

00101880 <kernel_main>:
  101880:	55                   	push   %ebp
  101881:	89 e5                	mov    %esp,%ebp
  101883:	5d                   	pop    %ebp
  101884:	c3                   	ret    
  101885:	66 90                	xchg   %ax,%ax
  101887:	66 90                	xchg   %ax,%ax
  101889:	66 90                	xchg   %ax,%ax
  10188b:	66 90                	xchg   %ax,%ax
  10188d:	66 90                	xchg   %ax,%ax
  10188f:	90                   	nop

00101890 <GDT_Initialize>:
  101890:	55                   	push   %ebp
  101891:	89 e5                	mov    %esp,%ebp
  101893:	57                   	push   %edi
  101894:	56                   	push   %esi
  101895:	83 ec 68             	sub    $0x68,%esp
  101898:	fa                   	cli    
  101899:	b8 00 00 00 00       	mov    $0x0,%eax
  10189e:	8d 0d 9e 70 0d 02    	lea    0x20d709e,%ecx
  1018a4:	66 c7 05 98 70 0d 02 	movw   $0x27,0x20d7098
  1018ab:	27 00 
  1018ad:	89 0d 9a 70 0d 02    	mov    %ecx,0x20d709a
  1018b3:	c7 04 24 00 00 00 00 	movl   $0x0,(%esp)
  1018ba:	c7 44 24 04 00 00 00 	movl   $0x0,0x4(%esp)
  1018c1:	00 
  1018c2:	c7 44 24 08 00 00 00 	movl   $0x0,0x8(%esp)
  1018c9:	00 
  1018ca:	c7 44 24 0c 00 00 00 	movl   $0x0,0xc(%esp)
  1018d1:	00 
  1018d2:	c7 44 24 10 00 00 00 	movl   $0x0,0x10(%esp)
  1018d9:	00 
  1018da:	89 45 f4             	mov    %eax,-0xc(%ebp)
  1018dd:	e8 7e 01 00 00       	call   101a60 <GDT_SetEntry>
  1018e2:	b8 01 00 00 00       	mov    $0x1,%eax
  1018e7:	b9 00 00 00 00       	mov    $0x0,%ecx
  1018ec:	ba ff ff ff ff       	mov    $0xffffffff,%edx
  1018f1:	be 9a 00 00 00       	mov    $0x9a,%esi
  1018f6:	bf cf 00 00 00       	mov    $0xcf,%edi
  1018fb:	c7 04 24 01 00 00 00 	movl   $0x1,(%esp)
  101902:	c7 44 24 04 00 00 00 	movl   $0x0,0x4(%esp)
  101909:	00 
  10190a:	c7 44 24 08 ff ff ff 	movl   $0xffffffff,0x8(%esp)
  101911:	ff 
  101912:	c7 44 24 0c 9a 00 00 	movl   $0x9a,0xc(%esp)
  101919:	00 
  10191a:	c7 44 24 10 cf 00 00 	movl   $0xcf,0x10(%esp)
  101921:	00 
  101922:	89 45 f0             	mov    %eax,-0x10(%ebp)
  101925:	89 4d ec             	mov    %ecx,-0x14(%ebp)
  101928:	89 55 e8             	mov    %edx,-0x18(%ebp)
  10192b:	89 75 e4             	mov    %esi,-0x1c(%ebp)
  10192e:	89 7d e0             	mov    %edi,-0x20(%ebp)
  101931:	e8 2a 01 00 00       	call   101a60 <GDT_SetEntry>
  101936:	b8 02 00 00 00       	mov    $0x2,%eax
  10193b:	b9 00 00 00 00       	mov    $0x0,%ecx
  101940:	ba ff ff ff ff       	mov    $0xffffffff,%edx
  101945:	be 92 00 00 00       	mov    $0x92,%esi
  10194a:	bf cf 00 00 00       	mov    $0xcf,%edi
  10194f:	c7 04 24 02 00 00 00 	movl   $0x2,(%esp)
  101956:	c7 44 24 04 00 00 00 	movl   $0x0,0x4(%esp)
  10195d:	00 
  10195e:	c7 44 24 08 ff ff ff 	movl   $0xffffffff,0x8(%esp)
  101965:	ff 
  101966:	c7 44 24 0c 92 00 00 	movl   $0x92,0xc(%esp)
  10196d:	00 
  10196e:	c7 44 24 10 cf 00 00 	movl   $0xcf,0x10(%esp)
  101975:	00 
  101976:	89 45 dc             	mov    %eax,-0x24(%ebp)
  101979:	89 4d d8             	mov    %ecx,-0x28(%ebp)
  10197c:	89 55 d4             	mov    %edx,-0x2c(%ebp)
  10197f:	89 75 d0             	mov    %esi,-0x30(%ebp)
  101982:	89 7d cc             	mov    %edi,-0x34(%ebp)
  101985:	e8 d6 00 00 00       	call   101a60 <GDT_SetEntry>
  10198a:	b8 03 00 00 00       	mov    $0x3,%eax
  10198f:	b9 00 00 00 00       	mov    $0x0,%ecx
  101994:	ba ff ff ff ff       	mov    $0xffffffff,%edx
  101999:	be fa 00 00 00       	mov    $0xfa,%esi
  10199e:	bf cf 00 00 00       	mov    $0xcf,%edi
  1019a3:	c7 04 24 03 00 00 00 	movl   $0x3,(%esp)
  1019aa:	c7 44 24 04 00 00 00 	movl   $0x0,0x4(%esp)
  1019b1:	00 
  1019b2:	c7 44 24 08 ff ff ff 	movl   $0xffffffff,0x8(%esp)
  1019b9:	ff 
  1019ba:	c7 44 24 0c fa 00 00 	movl   $0xfa,0xc(%esp)
  1019c1:	00 
  1019c2:	c7 44 24 10 cf 00 00 	movl   $0xcf,0x10(%esp)
  1019c9:	00 
  1019ca:	89 45 c8             	mov    %eax,-0x38(%ebp)
  1019cd:	89 4d c4             	mov    %ecx,-0x3c(%ebp)
  1019d0:	89 55 c0             	mov    %edx,-0x40(%ebp)
  1019d3:	89 75 bc             	mov    %esi,-0x44(%ebp)
  1019d6:	89 7d b8             	mov    %edi,-0x48(%ebp)
  1019d9:	e8 82 00 00 00       	call   101a60 <GDT_SetEntry>
  1019de:	b8 04 00 00 00       	mov    $0x4,%eax
  1019e3:	b9 00 00 00 00       	mov    $0x0,%ecx
  1019e8:	ba ff ff ff ff       	mov    $0xffffffff,%edx
  1019ed:	be f2 00 00 00       	mov    $0xf2,%esi
  1019f2:	bf cf 00 00 00       	mov    $0xcf,%edi
  1019f7:	c7 04 24 04 00 00 00 	movl   $0x4,(%esp)
  1019fe:	c7 44 24 04 00 00 00 	movl   $0x0,0x4(%esp)
  101a05:	00 
  101a06:	c7 44 24 08 ff ff ff 	movl   $0xffffffff,0x8(%esp)
  101a0d:	ff 
  101a0e:	c7 44 24 0c f2 00 00 	movl   $0xf2,0xc(%esp)
  101a15:	00 
  101a16:	c7 44 24 10 cf 00 00 	movl   $0xcf,0x10(%esp)
  101a1d:	00 
  101a1e:	89 45 b4             	mov    %eax,-0x4c(%ebp)
  101a21:	89 4d b0             	mov    %ecx,-0x50(%ebp)
  101a24:	89 55 ac             	mov    %edx,-0x54(%ebp)
  101a27:	89 75 a8             	mov    %esi,-0x58(%ebp)
  101a2a:	89 7d a4             	mov    %edi,-0x5c(%ebp)
  101a2d:	e8 2e 00 00 00       	call   101a60 <GDT_SetEntry>
  101a32:	b8 98 70 0d 02       	mov    $0x20d7098,%eax
  101a37:	0f 01 10             	lgdtl  (%eax)
  101a3a:	ea 41 1a 10 00 08 00 	ljmp   $0x8,$0x101a41

00101a41 <flush>:
  101a41:	66 b8 10 00          	mov    $0x10,%ax
  101a45:	8e d8                	mov    %eax,%ds
  101a47:	8e c0                	mov    %eax,%es
  101a49:	8e e0                	mov    %eax,%fs
  101a4b:	8e e8                	mov    %eax,%gs
  101a4d:	8e d0                	mov    %eax,%ss
  101a4f:	83 c4 68             	add    $0x68,%esp
  101a52:	5e                   	pop    %esi
  101a53:	5f                   	pop    %edi
  101a54:	5d                   	pop    %ebp
  101a55:	c3                   	ret    
  101a56:	8d 76 00             	lea    0x0(%esi),%esi
  101a59:	8d bc 27 00 00 00 00 	lea    0x0(%edi,%eiz,1),%edi

00101a60 <GDT_SetEntry>:
  101a60:	55                   	push   %ebp
  101a61:	89 e5                	mov    %esp,%ebp
  101a63:	53                   	push   %ebx
  101a64:	57                   	push   %edi
  101a65:	56                   	push   %esi
  101a66:	83 ec 10             	sub    $0x10,%esp
  101a69:	8a 45 18             	mov    0x18(%ebp),%al
  101a6c:	8a 4d 14             	mov    0x14(%ebp),%cl
  101a6f:	8b 55 10             	mov    0x10(%ebp),%edx
  101a72:	8b 75 0c             	mov    0xc(%ebp),%esi
  101a75:	8b 7d 08             	mov    0x8(%ebp),%edi
  101a78:	89 7d f0             	mov    %edi,-0x10(%ebp)
  101a7b:	89 75 ec             	mov    %esi,-0x14(%ebp)
  101a7e:	89 55 e8             	mov    %edx,-0x18(%ebp)
  101a81:	88 4d e7             	mov    %cl,-0x19(%ebp)
  101a84:	88 45 e6             	mov    %al,-0x1a(%ebp)
  101a87:	8b 55 ec             	mov    -0x14(%ebp),%edx
  101a8a:	81 e2 ff ff 00 00    	and    $0xffff,%edx
  101a90:	66 89 d3             	mov    %dx,%bx
  101a93:	8b 55 f0             	mov    -0x10(%ebp),%edx
  101a96:	66 89 1c d5 a0 70 0d 	mov    %bx,0x20d70a0(,%edx,8)
  101a9d:	02 
  101a9e:	8b 55 ec             	mov    -0x14(%ebp),%edx
  101aa1:	c1 ea 10             	shr    $0x10,%edx
  101aa4:	81 e2 ff 00 00 00    	and    $0xff,%edx
  101aaa:	88 d0                	mov    %dl,%al
  101aac:	8b 55 f0             	mov    -0x10(%ebp),%edx
  101aaf:	88 04 d5 a2 70 0d 02 	mov    %al,0x20d70a2(,%edx,8)
  101ab6:	8b 55 ec             	mov    -0x14(%ebp),%edx
  101ab9:	c1 ea 18             	shr    $0x18,%edx
  101abc:	81 e2 ff 00 00 00    	and    $0xff,%edx
  101ac2:	88 d0                	mov    %dl,%al
  101ac4:	8b 55 f0             	mov    -0x10(%ebp),%edx
  101ac7:	88 04 d5 a5 70 0d 02 	mov    %al,0x20d70a5(,%edx,8)
  101ace:	8b 55 e8             	mov    -0x18(%ebp),%edx
  101ad1:	81 e2 ff ff 00 00    	and    $0xffff,%edx
  101ad7:	66 89 d3             	mov    %dx,%bx
  101ada:	8b 55 f0             	mov    -0x10(%ebp),%edx
  101add:	66 89 1c d5 9e 70 0d 	mov    %bx,0x20d709e(,%edx,8)
  101ae4:	02 
  101ae5:	8b 55 e8             	mov    -0x18(%ebp),%edx
  101ae8:	c1 ea 10             	shr    $0x10,%edx
  101aeb:	83 e2 0f             	and    $0xf,%edx
  101aee:	88 d0                	mov    %dl,%al
  101af0:	8b 55 f0             	mov    -0x10(%ebp),%edx
  101af3:	88 04 d5 a4 70 0d 02 	mov    %al,0x20d70a4(,%edx,8)
  101afa:	0f b6 55 e6          	movzbl -0x1a(%ebp),%edx
  101afe:	81 e2 f0 00 00 00    	and    $0xf0,%edx
  101b04:	8b 75 f0             	mov    -0x10(%ebp),%esi
  101b07:	0f b6 3c f5 a4 70 0d 	movzbl 0x20d70a4(,%esi,8),%edi
  101b0e:	02 
  101b0f:	09 d7                	or     %edx,%edi
  101b11:	89 fa                	mov    %edi,%edx
  101b13:	88 d0                	mov    %dl,%al
  101b15:	88 04 f5 a4 70 0d 02 	mov    %al,0x20d70a4(,%esi,8)
  101b1c:	8a 45 e7             	mov    -0x19(%ebp),%al
  101b1f:	8b 55 f0             	mov    -0x10(%ebp),%edx
  101b22:	88 04 d5 a3 70 0d 02 	mov    %al,0x20d70a3(,%edx,8)
  101b29:	83 c4 10             	add    $0x10,%esp
  101b2c:	5e                   	pop    %esi
  101b2d:	5f                   	pop    %edi
  101b2e:	5b                   	pop    %ebx
  101b2f:	5d                   	pop    %ebp
  101b30:	c3                   	ret    
  101b31:	66 90                	xchg   %ax,%ax
  101b33:	66 90                	xchg   %ax,%ax
  101b35:	66 90                	xchg   %ax,%ax
  101b37:	66 90                	xchg   %ax,%ax
  101b39:	66 90                	xchg   %ax,%ax
  101b3b:	66 90                	xchg   %ax,%ax
  101b3d:	66 90                	xchg   %ax,%ax
  101b3f:	90                   	nop

00101b40 <IDT_Initialize>:
  101b40:	55                   	push   %ebp
  101b41:	89 e5                	mov    %esp,%ebp
  101b43:	53                   	push   %ebx
  101b44:	57                   	push   %edi
  101b45:	56                   	push   %esi
  101b46:	83 ec 28             	sub    $0x28,%esp
  101b49:	8d 05 c8 a4 0d 02    	lea    0x20da4c8,%eax
  101b4f:	66 c7 05 c8 ac 0d 02 	movw   $0x7ff,0x20dacc8
  101b56:	ff 07 
  101b58:	a3 ca ac 0d 02       	mov    %eax,0x20dacca
  101b5d:	fa                   	cli    
  101b5e:	b8 c8 ac 0d 02       	mov    $0x20dacc8,%eax
  101b63:	0f 01 18             	lidtl  (%eax)
  101b66:	c7 45 f0 00 00 00 00 	movl   $0x0,-0x10(%ebp)
  101b6d:	81 7d f0 00 01 00 00 	cmpl   $0x100,-0x10(%ebp)
  101b74:	7d 45                	jge    101bbb <IDT_Initialize+0x7b>
  101b76:	b8 00 00 00 00       	mov    $0x0,%eax
  101b7b:	c7 04 24 00 00 00 00 	movl   $0x0,(%esp)
  101b82:	c7 44 24 04 00 00 00 	movl   $0x0,0x4(%esp)
  101b89:	00 
  101b8a:	c7 44 24 08 00 00 00 	movl   $0x0,0x8(%esp)
  101b91:	00 
  101b92:	c7 44 24 0c 00 00 00 	movl   $0x0,0xc(%esp)
  101b99:	00 
  101b9a:	89 45 e4             	mov    %eax,-0x1c(%ebp)
  101b9d:	e8 de 00 00 00       	call   101c80 <IDT_SetEntry>
  101ba2:	8b 45 f0             	mov    -0x10(%ebp),%eax
  101ba5:	c7 04 85 c8 a0 0d 02 	movl   $0x0,0x20da0c8(,%eax,4)
  101bac:	00 00 00 00 
  101bb0:	8b 45 f0             	mov    -0x10(%ebp),%eax
  101bb3:	83 c0 01             	add    $0x1,%eax
  101bb6:	89 45 f0             	mov    %eax,-0x10(%ebp)
  101bb9:	eb b2                	jmp    101b6d <IDT_Initialize+0x2d>
  101bbb:	c7 45 ec 01 00 00 00 	movl   $0x1,-0x14(%ebp)
  101bc2:	c7 45 e8 00 00 00 00 	movl   $0x0,-0x18(%ebp)
  101bc9:	81 7d e8 00 01 00 00 	cmpl   $0x100,-0x18(%ebp)
  101bd0:	0f 8d 9c 00 00 00    	jge    101c72 <IDT_Initialize+0x132>
  101bd6:	83 7d e8 08          	cmpl   $0x8,-0x18(%ebp)
  101bda:	74 0c                	je     101be8 <IDT_Initialize+0xa8>
  101bdc:	83 7d e8 0a          	cmpl   $0xa,-0x18(%ebp)
  101be0:	7c 0d                	jl     101bef <IDT_Initialize+0xaf>
  101be2:	83 7d e8 0e          	cmpl   $0xe,-0x18(%ebp)
  101be6:	7f 07                	jg     101bef <IDT_Initialize+0xaf>
  101be8:	c7 45 ec 00 00 00 00 	movl   $0x0,-0x14(%ebp)
  101bef:	8d 05 c8 70 0d 02    	lea    0x20d70c8,%eax
  101bf5:	6b 4d e8 30          	imul   $0x30,-0x18(%ebp),%ecx
  101bf9:	01 c8                	add    %ecx,%eax
  101bfb:	8b 4d e8             	mov    -0x18(%ebp),%ecx
  101bfe:	88 ca                	mov    %cl,%dl
  101c00:	8b 4d ec             	mov    -0x14(%ebp),%ecx
  101c03:	88 ce                	mov    %cl,%dh
  101c05:	89 04 24             	mov    %eax,(%esp)
  101c08:	0f b6 c2             	movzbl %dl,%eax
  101c0b:	89 44 24 04          	mov    %eax,0x4(%esp)
  101c0f:	0f b6 c6             	movzbl %dh,%eax
  101c12:	89 44 24 08          	mov    %eax,0x8(%esp)
  101c16:	e8 f5 00 00 00       	call   101d10 <IDT_FillSWInterruptHandler>
  101c1b:	b8 08 00 00 00       	mov    $0x8,%eax
  101c20:	b9 8e 00 00 00       	mov    $0x8e,%ecx
  101c25:	8d 35 c8 70 0d 02    	lea    0x20d70c8,%esi
  101c2b:	8b 7d e8             	mov    -0x18(%ebp),%edi
  101c2e:	89 fb                	mov    %edi,%ebx
  101c30:	88 da                	mov    %bl,%dl
  101c32:	6b 7d e8 30          	imul   $0x30,-0x18(%ebp),%edi
  101c36:	01 fe                	add    %edi,%esi
  101c38:	0f b6 fa             	movzbl %dl,%edi
  101c3b:	89 3c 24             	mov    %edi,(%esp)
  101c3e:	89 74 24 04          	mov    %esi,0x4(%esp)
  101c42:	c7 44 24 08 08 00 00 	movl   $0x8,0x8(%esp)
  101c49:	00 
  101c4a:	c7 44 24 0c 8e 00 00 	movl   $0x8e,0xc(%esp)
  101c51:	00 
  101c52:	89 45 e0             	mov    %eax,-0x20(%ebp)
  101c55:	89 4d dc             	mov    %ecx,-0x24(%ebp)
  101c58:	e8 23 00 00 00       	call   101c80 <IDT_SetEntry>
  101c5d:	c7 45 ec 01 00 00 00 	movl   $0x1,-0x14(%ebp)
  101c64:	8b 45 e8             	mov    -0x18(%ebp),%eax
  101c67:	83 c0 01             	add    $0x1,%eax
  101c6a:	89 45 e8             	mov    %eax,-0x18(%ebp)
  101c6d:	e9 57 ff ff ff       	jmp    101bc9 <IDT_Initialize+0x89>
  101c72:	83 c4 28             	add    $0x28,%esp
  101c75:	5e                   	pop    %esi
  101c76:	5f                   	pop    %edi
  101c77:	5b                   	pop    %ebx
  101c78:	5d                   	pop    %ebp
  101c79:	c3                   	ret    
  101c7a:	8d b6 00 00 00 00    	lea    0x0(%esi),%esi

00101c80 <IDT_SetEntry>:
  101c80:	55                   	push   %ebp
  101c81:	89 e5                	mov    %esp,%ebp
  101c83:	83 ec 0c             	sub    $0xc,%esp
  101c86:	0f b7 45 10          	movzwl 0x10(%ebp),%eax
  101c8a:	66 89 c1             	mov    %ax,%cx
  101c8d:	8a 55 14             	mov    0x14(%ebp),%dl
  101c90:	8b 45 0c             	mov    0xc(%ebp),%eax
  101c93:	8a 75 08             	mov    0x8(%ebp),%dh
  101c96:	88 75 ff             	mov    %dh,-0x1(%ebp)
  101c99:	89 45 f8             	mov    %eax,-0x8(%ebp)
  101c9c:	66 89 4d f6          	mov    %cx,-0xa(%ebp)
  101ca0:	88 55 f5             	mov    %dl,-0xb(%ebp)
  101ca3:	8b 45 f8             	mov    -0x8(%ebp),%eax
  101ca6:	25 ff ff 00 00       	and    $0xffff,%eax
  101cab:	66 89 c1             	mov    %ax,%cx
  101cae:	0f b6 45 ff          	movzbl -0x1(%ebp),%eax
  101cb2:	66 89 0c c5 c8 a4 0d 	mov    %cx,0x20da4c8(,%eax,8)
  101cb9:	02 
  101cba:	8b 45 f8             	mov    -0x8(%ebp),%eax
  101cbd:	c1 e8 10             	shr    $0x10,%eax
  101cc0:	25 ff ff 00 00       	and    $0xffff,%eax
  101cc5:	66 89 c1             	mov    %ax,%cx
  101cc8:	0f b6 45 ff          	movzbl -0x1(%ebp),%eax
  101ccc:	66 89 0c c5 ce a4 0d 	mov    %cx,0x20da4ce(,%eax,8)
  101cd3:	02 
  101cd4:	8a 55 f5             	mov    -0xb(%ebp),%dl
  101cd7:	0f b6 45 ff          	movzbl -0x1(%ebp),%eax
  101cdb:	88 14 c5 cd a4 0d 02 	mov    %dl,0x20da4cd(,%eax,8)
  101ce2:	0f b6 45 ff          	movzbl -0x1(%ebp),%eax
  101ce6:	c6 04 c5 cc a4 0d 02 	movb   $0x0,0x20da4cc(,%eax,8)
  101ced:	00 
  101cee:	66 8b 4d f6          	mov    -0xa(%ebp),%cx
  101cf2:	0f b6 45 ff          	movzbl -0x1(%ebp),%eax
  101cf6:	66 89 0c c5 ca a4 0d 	mov    %cx,0x20da4ca(,%eax,8)
  101cfd:	02 
  101cfe:	83 c4 0c             	add    $0xc,%esp
  101d01:	5d                   	pop    %ebp
  101d02:	c3                   	ret    
  101d03:	8d b6 00 00 00 00    	lea    0x0(%esi),%esi
  101d09:	8d bc 27 00 00 00 00 	lea    0x0(%edi,%eiz,1),%edi

00101d10 <IDT_FillSWInterruptHandler>:
  101d10:	55                   	push   %ebp
  101d11:	89 e5                	mov    %esp,%ebp
  101d13:	53                   	push   %ebx
  101d14:	56                   	push   %esi
  101d15:	83 ec 10             	sub    $0x10,%esp
  101d18:	8a 45 10             	mov    0x10(%ebp),%al
  101d1b:	8a 4d 0c             	mov    0xc(%ebp),%cl
  101d1e:	8b 55 08             	mov    0x8(%ebp),%edx
  101d21:	89 55 f4             	mov    %edx,-0xc(%ebp)
  101d24:	88 4d f3             	mov    %cl,-0xd(%ebp)
  101d27:	88 45 f2             	mov    %al,-0xe(%ebp)
  101d2a:	c7 45 ec 00 00 00 00 	movl   $0x0,-0x14(%ebp)
  101d31:	80 7d f2 00          	cmpb   $0x0,-0xe(%ebp)
  101d35:	74 5c                	je     101d93 <IDT_FillSWInterruptHandler+0x83>
  101d37:	8b 45 ec             	mov    -0x14(%ebp),%eax
  101d3a:	89 c1                	mov    %eax,%ecx
  101d3c:	83 c1 01             	add    $0x1,%ecx
  101d3f:	89 4d ec             	mov    %ecx,-0x14(%ebp)
  101d42:	8b 4d f4             	mov    -0xc(%ebp),%ecx
  101d45:	c6 04 01 68          	movb   $0x68,(%ecx,%eax,1)
  101d49:	8a 55 f2             	mov    -0xe(%ebp),%dl
  101d4c:	8b 45 ec             	mov    -0x14(%ebp),%eax
  101d4f:	89 c1                	mov    %eax,%ecx
  101d51:	83 c1 01             	add    $0x1,%ecx
  101d54:	89 4d ec             	mov    %ecx,-0x14(%ebp)
  101d57:	8b 4d f4             	mov    -0xc(%ebp),%ecx
  101d5a:	88 14 01             	mov    %dl,(%ecx,%eax,1)
  101d5d:	8b 45 ec             	mov    -0x14(%ebp),%eax
  101d60:	89 c1                	mov    %eax,%ecx
  101d62:	83 c1 01             	add    $0x1,%ecx
  101d65:	89 4d ec             	mov    %ecx,-0x14(%ebp)
  101d68:	8b 4d f4             	mov    -0xc(%ebp),%ecx
  101d6b:	c6 04 01 00          	movb   $0x0,(%ecx,%eax,1)
  101d6f:	8b 45 ec             	mov    -0x14(%ebp),%eax
  101d72:	89 c1                	mov    %eax,%ecx
  101d74:	83 c1 01             	add    $0x1,%ecx
  101d77:	89 4d ec             	mov    %ecx,-0x14(%ebp)
  101d7a:	8b 4d f4             	mov    -0xc(%ebp),%ecx
  101d7d:	c6 04 01 00          	movb   $0x0,(%ecx,%eax,1)
  101d81:	8b 45 ec             	mov    -0x14(%ebp),%eax
  101d84:	89 c1                	mov    %eax,%ecx
  101d86:	83 c1 01             	add    $0x1,%ecx
  101d89:	89 4d ec             	mov    %ecx,-0x14(%ebp)
  101d8c:	8b 4d f4             	mov    -0xc(%ebp),%ecx
  101d8f:	c6 04 01 00          	movb   $0x0,(%ecx,%eax,1)
  101d93:	8d 05 80 1e 10 00    	lea    0x101e80,%eax
  101d99:	c1 f8 18             	sar    $0x18,%eax
  101d9c:	25 ff 00 00 00       	and    $0xff,%eax
  101da1:	8b 4d ec             	mov    -0x14(%ebp),%ecx
  101da4:	89 ca                	mov    %ecx,%edx
  101da6:	42                   	inc    %edx
  101da7:	89 55 ec             	mov    %edx,-0x14(%ebp)
  101daa:	8b 55 f4             	mov    -0xc(%ebp),%edx
  101dad:	c6 04 0a 68          	movb   $0x68,(%edx,%ecx,1)
  101db1:	8a 5d f3             	mov    -0xd(%ebp),%bl
  101db4:	8b 4d ec             	mov    -0x14(%ebp),%ecx
  101db7:	89 ca                	mov    %ecx,%edx
  101db9:	42                   	inc    %edx
  101dba:	89 55 ec             	mov    %edx,-0x14(%ebp)
  101dbd:	8b 55 f4             	mov    -0xc(%ebp),%edx
  101dc0:	88 1c 0a             	mov    %bl,(%edx,%ecx,1)
  101dc3:	8b 4d ec             	mov    -0x14(%ebp),%ecx
  101dc6:	89 ca                	mov    %ecx,%edx
  101dc8:	42                   	inc    %edx
  101dc9:	89 55 ec             	mov    %edx,-0x14(%ebp)
  101dcc:	8b 55 f4             	mov    -0xc(%ebp),%edx
  101dcf:	c6 04 0a 00          	movb   $0x0,(%edx,%ecx,1)
  101dd3:	8b 4d ec             	mov    -0x14(%ebp),%ecx
  101dd6:	89 ca                	mov    %ecx,%edx
  101dd8:	42                   	inc    %edx
  101dd9:	89 55 ec             	mov    %edx,-0x14(%ebp)
  101ddc:	8b 55 f4             	mov    -0xc(%ebp),%edx
  101ddf:	c6 04 0a 00          	movb   $0x0,(%edx,%ecx,1)
  101de3:	8b 4d ec             	mov    -0x14(%ebp),%ecx
  101de6:	89 ca                	mov    %ecx,%edx
  101de8:	42                   	inc    %edx
  101de9:	89 55 ec             	mov    %edx,-0x14(%ebp)
  101dec:	8b 55 f4             	mov    -0xc(%ebp),%edx
  101def:	c6 04 0a 00          	movb   $0x0,(%edx,%ecx,1)
  101df3:	8b 4d ec             	mov    -0x14(%ebp),%ecx
  101df6:	89 ca                	mov    %ecx,%edx
  101df8:	42                   	inc    %edx
  101df9:	89 55 ec             	mov    %edx,-0x14(%ebp)
  101dfc:	8b 55 f4             	mov    -0xc(%ebp),%edx
  101dff:	c6 04 0a 68          	movb   $0x68,(%edx,%ecx,1)
  101e03:	8b 4d ec             	mov    -0x14(%ebp),%ecx
  101e06:	89 ca                	mov    %ecx,%edx
  101e08:	42                   	inc    %edx
  101e09:	89 55 ec             	mov    %edx,-0x14(%ebp)
  101e0c:	8b 55 f4             	mov    -0xc(%ebp),%edx
  101e0f:	be 80 1e 10 00       	mov    $0x101e80,%esi
  101e14:	89 f3                	mov    %esi,%ebx
  101e16:	89 45 e8             	mov    %eax,-0x18(%ebp)
  101e19:	88 d8                	mov    %bl,%al
  101e1b:	88 04 0a             	mov    %al,(%edx,%ecx,1)
  101e1e:	8b 4d ec             	mov    -0x14(%ebp),%ecx
  101e21:	89 ca                	mov    %ecx,%edx
  101e23:	42                   	inc    %edx
  101e24:	89 55 ec             	mov    %edx,-0x14(%ebp)
  101e27:	8b 55 f4             	mov    -0xc(%ebp),%edx
  101e2a:	88 f8                	mov    %bh,%al
  101e2c:	88 04 0a             	mov    %al,(%edx,%ecx,1)
  101e2f:	8b 4d ec             	mov    -0x14(%ebp),%ecx
  101e32:	89 ca                	mov    %ecx,%edx
  101e34:	42                   	inc    %edx
  101e35:	89 55 ec             	mov    %edx,-0x14(%ebp)
  101e38:	8b 55 f4             	mov    -0xc(%ebp),%edx
  101e3b:	89 f3                	mov    %esi,%ebx
  101e3d:	c1 eb 10             	shr    $0x10,%ebx
  101e40:	88 d8                	mov    %bl,%al
  101e42:	88 04 0a             	mov    %al,(%edx,%ecx,1)
  101e45:	8b 4d ec             	mov    -0x14(%ebp),%ecx
  101e48:	89 ca                	mov    %ecx,%edx
  101e4a:	42                   	inc    %edx
  101e4b:	89 55 ec             	mov    %edx,-0x14(%ebp)
  101e4e:	8b 55 f4             	mov    -0xc(%ebp),%edx
  101e51:	c1 ee 18             	shr    $0x18,%esi
  101e54:	89 f3                	mov    %esi,%ebx
  101e56:	88 d8                	mov    %bl,%al
  101e58:	88 04 0a             	mov    %al,(%edx,%ecx,1)
  101e5b:	8b 4d ec             	mov    -0x14(%ebp),%ecx
  101e5e:	89 ca                	mov    %ecx,%edx
  101e60:	83 c2 01             	add    $0x1,%edx
  101e63:	89 55 ec             	mov    %edx,-0x14(%ebp)
  101e66:	8b 55 f4             	mov    -0xc(%ebp),%edx
  101e69:	c6 04 0a c3          	movb   $0xc3,(%edx,%ecx,1)
  101e6d:	83 c4 10             	add    $0x10,%esp
  101e70:	5e                   	pop    %esi
  101e71:	5b                   	pop    %ebx
  101e72:	5d                   	pop    %ebp
  101e73:	c3                   	ret    
  101e74:	8d b6 00 00 00 00    	lea    0x0(%esi),%esi
  101e7a:	8d bf 00 00 00 00    	lea    0x0(%edi),%edi

00101e80 <IDT_DefaultHandler>:
  101e80:	60                   	pusha  
  101e81:	66 8c d8             	mov    %ds,%ax
  101e84:	50                   	push   %eax
  101e85:	66 b8 10 00          	mov    $0x10,%ax
  101e89:	8e d8                	mov    %eax,%ds
  101e8b:	8e c0                	mov    %eax,%es
  101e8d:	8e e0                	mov    %eax,%fs
  101e8f:	8e e8                	mov    %eax,%gs
  101e91:	54                   	push   %esp
  101e92:	e8 19 00 00 00       	call   101eb0 <IDT_MainHandler>
  101e97:	58                   	pop    %eax
  101e98:	58                   	pop    %eax
  101e99:	8e d8                	mov    %eax,%ds
  101e9b:	8e c0                	mov    %eax,%es
  101e9d:	8e e0                	mov    %eax,%fs
  101e9f:	8e e8                	mov    %eax,%gs
  101ea1:	61                   	popa   
  101ea2:	58                   	pop    %eax
  101ea3:	5b                   	pop    %ebx
  101ea4:	cf                   	iret   
  101ea5:	c3                   	ret    
  101ea6:	8d 76 00             	lea    0x0(%esi),%esi
  101ea9:	8d bc 27 00 00 00 00 	lea    0x0(%edi,%eiz,1),%edi

00101eb0 <IDT_MainHandler>:
  101eb0:	55                   	push   %ebp
  101eb1:	89 e5                	mov    %esp,%ebp
  101eb3:	83 ec 08             	sub    $0x8,%esp
  101eb6:	8b 45 08             	mov    0x8(%ebp),%eax
  101eb9:	89 45 fc             	mov    %eax,-0x4(%ebp)
  101ebc:	8b 45 fc             	mov    -0x4(%ebp),%eax
  101ebf:	8b 40 24             	mov    0x24(%eax),%eax
  101ec2:	83 3c 85 c8 a0 0d 02 	cmpl   $0x0,0x20da0c8(,%eax,4)
  101ec9:	00 
  101eca:	74 15                	je     101ee1 <IDT_MainHandler+0x31>
  101ecc:	8b 45 fc             	mov    -0x4(%ebp),%eax
  101ecf:	8b 40 24             	mov    0x24(%eax),%eax
  101ed2:	8b 04 85 c8 a0 0d 02 	mov    0x20da0c8(,%eax,4),%eax
  101ed9:	8b 4d fc             	mov    -0x4(%ebp),%ecx
  101edc:	89 0c 24             	mov    %ecx,(%esp)
  101edf:	ff d0                	call   *%eax
  101ee1:	83 c4 08             	add    $0x8,%esp
  101ee4:	5d                   	pop    %ebp
  101ee5:	c3                   	ret    
  101ee6:	8d 76 00             	lea    0x0(%esi),%esi
  101ee9:	8d bc 27 00 00 00 00 	lea    0x0(%edi,%eiz,1),%edi

00101ef0 <IDT_RegisterHandler>:
  101ef0:	55                   	push   %ebp
  101ef1:	89 e5                	mov    %esp,%ebp
  101ef3:	83 ec 08             	sub    $0x8,%esp
  101ef6:	8b 45 0c             	mov    0xc(%ebp),%eax
  101ef9:	8a 4d 08             	mov    0x8(%ebp),%cl
  101efc:	88 4d ff             	mov    %cl,-0x1(%ebp)
  101eff:	89 45 f8             	mov    %eax,-0x8(%ebp)
  101f02:	8b 45 f8             	mov    -0x8(%ebp),%eax
  101f05:	0f b6 55 ff          	movzbl -0x1(%ebp),%edx
  101f09:	89 04 95 c8 a0 0d 02 	mov    %eax,0x20da0c8(,%edx,4)
  101f10:	83 c4 08             	add    $0x8,%esp
  101f13:	5d                   	pop    %ebp
  101f14:	c3                   	ret    
  101f15:	66 90                	xchg   %ax,%ax
  101f17:	66 90                	xchg   %ax,%ax
  101f19:	66 90                	xchg   %ax,%ax
  101f1b:	66 90                	xchg   %ax,%ax
  101f1d:	66 90                	xchg   %ax,%ax
  101f1f:	90                   	nop

00101f20 <PIC_Initialize>:
  101f20:	55                   	push   %ebp
  101f21:	89 e5                	mov    %esp,%ebp
  101f23:	53                   	push   %ebx
  101f24:	57                   	push   %edi
  101f25:	56                   	push   %esi
  101f26:	83 ec 24             	sub    $0x24,%esp
  101f29:	b8 20 00 00 00       	mov    $0x20,%eax
  101f2e:	b9 28 00 00 00       	mov    $0x28,%ecx
  101f33:	c7 04 24 20 00 00 00 	movl   $0x20,(%esp)
  101f3a:	c7 44 24 04 28 00 00 	movl   $0x28,0x4(%esp)
  101f41:	00 
  101f42:	89 45 ec             	mov    %eax,-0x14(%ebp)
  101f45:	89 4d e8             	mov    %ecx,-0x18(%ebp)
  101f48:	e8 a3 00 00 00       	call   101ff0 <PIC_SetOffset>
  101f4d:	c7 45 f0 20 00 00 00 	movl   $0x20,-0x10(%ebp)
  101f54:	83 7d f0 30          	cmpl   $0x30,-0x10(%ebp)
  101f58:	7d 7f                	jge    101fd9 <PIC_Initialize+0xb9>
  101f5a:	8d 05 c8 70 0d 02    	lea    0x20d70c8,%eax
  101f60:	6b 4d f0 30          	imul   $0x30,-0x10(%ebp),%ecx
  101f64:	01 c8                	add    %ecx,%eax
  101f66:	8b 4d f0             	mov    -0x10(%ebp),%ecx
  101f69:	88 ca                	mov    %cl,%dl
  101f6b:	8b 4d f0             	mov    -0x10(%ebp),%ecx
  101f6e:	83 e9 20             	sub    $0x20,%ecx
  101f71:	88 ce                	mov    %cl,%dh
  101f73:	89 04 24             	mov    %eax,(%esp)
  101f76:	0f b6 c2             	movzbl %dl,%eax
  101f79:	89 44 24 04          	mov    %eax,0x4(%esp)
  101f7d:	0f b6 c6             	movzbl %dh,%eax
  101f80:	89 44 24 08          	mov    %eax,0x8(%esp)
  101f84:	e8 07 02 00 00       	call   102190 <PIC_FillHWInterruptHandler>
  101f89:	b8 08 00 00 00       	mov    $0x8,%eax
  101f8e:	b9 8e 00 00 00       	mov    $0x8e,%ecx
  101f93:	8d 35 c8 70 0d 02    	lea    0x20d70c8,%esi
  101f99:	8b 7d f0             	mov    -0x10(%ebp),%edi
  101f9c:	89 fb                	mov    %edi,%ebx
  101f9e:	88 da                	mov    %bl,%dl
  101fa0:	6b 7d f0 30          	imul   $0x30,-0x10(%ebp),%edi
  101fa4:	01 fe                	add    %edi,%esi
  101fa6:	0f b6 fa             	movzbl %dl,%edi
  101fa9:	89 3c 24             	mov    %edi,(%esp)
  101fac:	89 74 24 04          	mov    %esi,0x4(%esp)
  101fb0:	c7 44 24 08 08 00 00 	movl   $0x8,0x8(%esp)
  101fb7:	00 
  101fb8:	c7 44 24 0c 8e 00 00 	movl   $0x8e,0xc(%esp)
  101fbf:	00 
  101fc0:	89 45 e4             	mov    %eax,-0x1c(%ebp)
  101fc3:	89 4d e0             	mov    %ecx,-0x20(%ebp)
  101fc6:	e8 b5 fc ff ff       	call   101c80 <IDT_SetEntry>
  101fcb:	8b 45 f0             	mov    -0x10(%ebp),%eax
  101fce:	83 c0 01             	add    $0x1,%eax
  101fd1:	89 45 f0             	mov    %eax,-0x10(%ebp)
  101fd4:	e9 7b ff ff ff       	jmp    101f54 <PIC_Initialize+0x34>
  101fd9:	83 c4 24             	add    $0x24,%esp
  101fdc:	5e                   	pop    %esi
  101fdd:	5f                   	pop    %edi
  101fde:	5b                   	pop    %ebx
  101fdf:	5d                   	pop    %ebp
  101fe0:	c3                   	ret    
  101fe1:	eb 0d                	jmp    101ff0 <PIC_SetOffset>
  101fe3:	90                   	nop
  101fe4:	90                   	nop
  101fe5:	90                   	nop
  101fe6:	90                   	nop
  101fe7:	90                   	nop
  101fe8:	90                   	nop
  101fe9:	90                   	nop
  101fea:	90                   	nop
  101feb:	90                   	nop
  101fec:	90                   	nop
  101fed:	90                   	nop
  101fee:	90                   	nop
  101fef:	90                   	nop

00101ff0 <PIC_SetOffset>:
  101ff0:	55                   	push   %ebp
  101ff1:	89 e5                	mov    %esp,%ebp
  101ff3:	83 ec 5c             	sub    $0x5c,%esp
  101ff6:	8b 45 0c             	mov    0xc(%ebp),%eax
  101ff9:	8b 4d 08             	mov    0x8(%ebp),%ecx
  101ffc:	ba 21 00 00 00       	mov    $0x21,%edx
  102001:	89 4d fc             	mov    %ecx,-0x4(%ebp)
  102004:	89 45 f8             	mov    %eax,-0x8(%ebp)
  102007:	c7 04 24 21 00 00 00 	movl   $0x21,(%esp)
  10200e:	89 55 f0             	mov    %edx,-0x10(%ebp)
  102011:	e8 9a e1 ff ff       	call   1001b0 <inb>
  102016:	b9 a1 00 00 00       	mov    $0xa1,%ecx
  10201b:	88 45 f7             	mov    %al,-0x9(%ebp)
  10201e:	c7 04 24 a1 00 00 00 	movl   $0xa1,(%esp)
  102025:	89 4d ec             	mov    %ecx,-0x14(%ebp)
  102028:	e8 83 e1 ff ff       	call   1001b0 <inb>
  10202d:	b9 20 00 00 00       	mov    $0x20,%ecx
  102032:	ba 11 00 00 00       	mov    $0x11,%edx
  102037:	88 45 f6             	mov    %al,-0xa(%ebp)
  10203a:	c7 04 24 20 00 00 00 	movl   $0x20,(%esp)
  102041:	c7 44 24 04 11 00 00 	movl   $0x11,0x4(%esp)
  102048:	00 
  102049:	89 55 e8             	mov    %edx,-0x18(%ebp)
  10204c:	89 4d e4             	mov    %ecx,-0x1c(%ebp)
  10204f:	e8 2c e1 ff ff       	call   100180 <outb>
  102054:	b9 a0 00 00 00       	mov    $0xa0,%ecx
  102059:	ba 11 00 00 00       	mov    $0x11,%edx
  10205e:	c7 04 24 a0 00 00 00 	movl   $0xa0,(%esp)
  102065:	c7 44 24 04 11 00 00 	movl   $0x11,0x4(%esp)
  10206c:	00 
  10206d:	89 4d e0             	mov    %ecx,-0x20(%ebp)
  102070:	89 55 dc             	mov    %edx,-0x24(%ebp)
  102073:	e8 08 e1 ff ff       	call   100180 <outb>
  102078:	b9 21 00 00 00       	mov    $0x21,%ecx
  10207d:	8b 55 fc             	mov    -0x4(%ebp),%edx
  102080:	88 d0                	mov    %dl,%al
  102082:	c7 04 24 21 00 00 00 	movl   $0x21,(%esp)
  102089:	0f b6 d0             	movzbl %al,%edx
  10208c:	89 54 24 04          	mov    %edx,0x4(%esp)
  102090:	89 4d d8             	mov    %ecx,-0x28(%ebp)
  102093:	e8 e8 e0 ff ff       	call   100180 <outb>
  102098:	b9 a1 00 00 00       	mov    $0xa1,%ecx
  10209d:	8b 55 f8             	mov    -0x8(%ebp),%edx
  1020a0:	88 d0                	mov    %dl,%al
  1020a2:	c7 04 24 a1 00 00 00 	movl   $0xa1,(%esp)
  1020a9:	0f b6 d0             	movzbl %al,%edx
  1020ac:	89 54 24 04          	mov    %edx,0x4(%esp)
  1020b0:	89 4d d4             	mov    %ecx,-0x2c(%ebp)
  1020b3:	e8 c8 e0 ff ff       	call   100180 <outb>
  1020b8:	b9 21 00 00 00       	mov    $0x21,%ecx
  1020bd:	ba 04 00 00 00       	mov    $0x4,%edx
  1020c2:	c7 04 24 21 00 00 00 	movl   $0x21,(%esp)
  1020c9:	c7 44 24 04 04 00 00 	movl   $0x4,0x4(%esp)
  1020d0:	00 
  1020d1:	89 4d d0             	mov    %ecx,-0x30(%ebp)
  1020d4:	89 55 cc             	mov    %edx,-0x34(%ebp)
  1020d7:	e8 a4 e0 ff ff       	call   100180 <outb>
  1020dc:	b9 a1 00 00 00       	mov    $0xa1,%ecx
  1020e1:	ba 02 00 00 00       	mov    $0x2,%edx
  1020e6:	c7 04 24 a1 00 00 00 	movl   $0xa1,(%esp)
  1020ed:	c7 44 24 04 02 00 00 	movl   $0x2,0x4(%esp)
  1020f4:	00 
  1020f5:	89 4d c8             	mov    %ecx,-0x38(%ebp)
  1020f8:	89 55 c4             	mov    %edx,-0x3c(%ebp)
  1020fb:	e8 80 e0 ff ff       	call   100180 <outb>
  102100:	b9 21 00 00 00       	mov    $0x21,%ecx
  102105:	ba 01 00 00 00       	mov    $0x1,%edx
  10210a:	c7 04 24 21 00 00 00 	movl   $0x21,(%esp)
  102111:	c7 44 24 04 01 00 00 	movl   $0x1,0x4(%esp)
  102118:	00 
  102119:	89 4d c0             	mov    %ecx,-0x40(%ebp)
  10211c:	89 55 bc             	mov    %edx,-0x44(%ebp)
  10211f:	e8 5c e0 ff ff       	call   100180 <outb>
  102124:	b9 a1 00 00 00       	mov    $0xa1,%ecx
  102129:	ba 01 00 00 00       	mov    $0x1,%edx
  10212e:	c7 04 24 a1 00 00 00 	movl   $0xa1,(%esp)
  102135:	c7 44 24 04 01 00 00 	movl   $0x1,0x4(%esp)
  10213c:	00 
  10213d:	89 4d b8             	mov    %ecx,-0x48(%ebp)
  102140:	89 55 b4             	mov    %edx,-0x4c(%ebp)
  102143:	e8 38 e0 ff ff       	call   100180 <outb>
  102148:	b9 21 00 00 00       	mov    $0x21,%ecx
  10214d:	c7 04 24 21 00 00 00 	movl   $0x21,(%esp)
  102154:	0f b6 55 f7          	movzbl -0x9(%ebp),%edx
  102158:	89 54 24 04          	mov    %edx,0x4(%esp)
  10215c:	89 4d b0             	mov    %ecx,-0x50(%ebp)
  10215f:	e8 1c e0 ff ff       	call   100180 <outb>
  102164:	b9 a1 00 00 00       	mov    $0xa1,%ecx
  102169:	c7 04 24 a1 00 00 00 	movl   $0xa1,(%esp)
  102170:	0f b6 55 f6          	movzbl -0xa(%ebp),%edx
  102174:	89 54 24 04          	mov    %edx,0x4(%esp)
  102178:	89 4d ac             	mov    %ecx,-0x54(%ebp)
  10217b:	e8 00 e0 ff ff       	call   100180 <outb>
  102180:	83 c4 5c             	add    $0x5c,%esp
  102183:	5d                   	pop    %ebp
  102184:	c3                   	ret    
  102185:	8d 74 26 00          	lea    0x0(%esi,%eiz,1),%esi
  102189:	8d bc 27 00 00 00 00 	lea    0x0(%edi,%eiz,1),%edi

00102190 <PIC_FillHWInterruptHandler>:
  102190:	55                   	push   %ebp
  102191:	89 e5                	mov    %esp,%ebp
  102193:	53                   	push   %ebx
  102194:	57                   	push   %edi
  102195:	56                   	push   %esi
  102196:	83 ec 10             	sub    $0x10,%esp
  102199:	8a 45 10             	mov    0x10(%ebp),%al
  10219c:	8a 4d 0c             	mov    0xc(%ebp),%cl
  10219f:	8b 55 08             	mov    0x8(%ebp),%edx
  1021a2:	8d 35 90 23 10 00    	lea    0x102390,%esi
  1021a8:	c1 fe 18             	sar    $0x18,%esi
  1021ab:	81 e6 ff 00 00 00    	and    $0xff,%esi
  1021b1:	89 55 f0             	mov    %edx,-0x10(%ebp)
  1021b4:	88 4d ef             	mov    %cl,-0x11(%ebp)
  1021b7:	88 45 ee             	mov    %al,-0x12(%ebp)
  1021ba:	c7 45 e8 00 00 00 00 	movl   $0x0,-0x18(%ebp)
  1021c1:	c7 45 e8 01 00 00 00 	movl   $0x1,-0x18(%ebp)
  1021c8:	8b 55 f0             	mov    -0x10(%ebp),%edx
  1021cb:	c6 02 68             	movb   $0x68,(%edx)
  1021ce:	8a 45 ee             	mov    -0x12(%ebp),%al
  1021d1:	8b 55 e8             	mov    -0x18(%ebp),%edx
  1021d4:	89 d7                	mov    %edx,%edi
  1021d6:	47                   	inc    %edi
  1021d7:	89 7d e8             	mov    %edi,-0x18(%ebp)
  1021da:	8b 7d f0             	mov    -0x10(%ebp),%edi
  1021dd:	88 04 17             	mov    %al,(%edi,%edx,1)
  1021e0:	8b 55 e8             	mov    -0x18(%ebp),%edx
  1021e3:	89 d7                	mov    %edx,%edi
  1021e5:	47                   	inc    %edi
  1021e6:	89 7d e8             	mov    %edi,-0x18(%ebp)
  1021e9:	8b 7d f0             	mov    -0x10(%ebp),%edi
  1021ec:	c6 04 17 00          	movb   $0x0,(%edi,%edx,1)
  1021f0:	8b 55 e8             	mov    -0x18(%ebp),%edx
  1021f3:	89 d7                	mov    %edx,%edi
  1021f5:	47                   	inc    %edi
  1021f6:	89 7d e8             	mov    %edi,-0x18(%ebp)
  1021f9:	8b 7d f0             	mov    -0x10(%ebp),%edi
  1021fc:	c6 04 17 00          	movb   $0x0,(%edi,%edx,1)
  102200:	8b 55 e8             	mov    -0x18(%ebp),%edx
  102203:	89 d7                	mov    %edx,%edi
  102205:	47                   	inc    %edi
  102206:	89 7d e8             	mov    %edi,-0x18(%ebp)
  102209:	8b 7d f0             	mov    -0x10(%ebp),%edi
  10220c:	c6 04 17 00          	movb   $0x0,(%edi,%edx,1)
  102210:	8b 55 e8             	mov    -0x18(%ebp),%edx
  102213:	89 d7                	mov    %edx,%edi
  102215:	47                   	inc    %edi
  102216:	89 7d e8             	mov    %edi,-0x18(%ebp)
  102219:	8b 7d f0             	mov    -0x10(%ebp),%edi
  10221c:	c6 04 17 68          	movb   $0x68,(%edi,%edx,1)
  102220:	8a 45 ef             	mov    -0x11(%ebp),%al
  102223:	8b 55 e8             	mov    -0x18(%ebp),%edx
  102226:	89 d7                	mov    %edx,%edi
  102228:	47                   	inc    %edi
  102229:	89 7d e8             	mov    %edi,-0x18(%ebp)
  10222c:	8b 7d f0             	mov    -0x10(%ebp),%edi
  10222f:	88 04 17             	mov    %al,(%edi,%edx,1)
  102232:	8b 55 e8             	mov    -0x18(%ebp),%edx
  102235:	89 d7                	mov    %edx,%edi
  102237:	47                   	inc    %edi
  102238:	89 7d e8             	mov    %edi,-0x18(%ebp)
  10223b:	8b 7d f0             	mov    -0x10(%ebp),%edi
  10223e:	c6 04 17 00          	movb   $0x0,(%edi,%edx,1)
  102242:	8b 55 e8             	mov    -0x18(%ebp),%edx
  102245:	89 d7                	mov    %edx,%edi
  102247:	47                   	inc    %edi
  102248:	89 7d e8             	mov    %edi,-0x18(%ebp)
  10224b:	8b 7d f0             	mov    -0x10(%ebp),%edi
  10224e:	c6 04 17 00          	movb   $0x0,(%edi,%edx,1)
  102252:	8b 55 e8             	mov    -0x18(%ebp),%edx
  102255:	89 d7                	mov    %edx,%edi
  102257:	47                   	inc    %edi
  102258:	89 7d e8             	mov    %edi,-0x18(%ebp)
  10225b:	8b 7d f0             	mov    -0x10(%ebp),%edi
  10225e:	c6 04 17 00          	movb   $0x0,(%edi,%edx,1)
  102262:	8b 55 e8             	mov    -0x18(%ebp),%edx
  102265:	89 d7                	mov    %edx,%edi
  102267:	47                   	inc    %edi
  102268:	89 7d e8             	mov    %edi,-0x18(%ebp)
  10226b:	8b 7d f0             	mov    -0x10(%ebp),%edi
  10226e:	c6 04 17 68          	movb   $0x68,(%edi,%edx,1)
  102272:	8b 55 e8             	mov    -0x18(%ebp),%edx
  102275:	89 d7                	mov    %edx,%edi
  102277:	47                   	inc    %edi
  102278:	89 7d e8             	mov    %edi,-0x18(%ebp)
  10227b:	8b 7d f0             	mov    -0x10(%ebp),%edi
  10227e:	bb 90 23 10 00       	mov    $0x102390,%ebx
  102283:	89 d8                	mov    %ebx,%eax
  102285:	88 c1                	mov    %al,%cl
  102287:	88 0c 17             	mov    %cl,(%edi,%edx,1)
  10228a:	8b 55 e8             	mov    -0x18(%ebp),%edx
  10228d:	89 d7                	mov    %edx,%edi
  10228f:	47                   	inc    %edi
  102290:	89 7d e8             	mov    %edi,-0x18(%ebp)
  102293:	8b 7d f0             	mov    -0x10(%ebp),%edi
  102296:	88 e1                	mov    %ah,%cl
  102298:	88 0c 17             	mov    %cl,(%edi,%edx,1)
  10229b:	8b 45 e8             	mov    -0x18(%ebp),%eax
  10229e:	89 c2                	mov    %eax,%edx
  1022a0:	42                   	inc    %edx
  1022a1:	89 55 e8             	mov    %edx,-0x18(%ebp)
  1022a4:	8b 55 f0             	mov    -0x10(%ebp),%edx
  1022a7:	89 df                	mov    %ebx,%edi
  1022a9:	c1 ef 10             	shr    $0x10,%edi
  1022ac:	89 f9                	mov    %edi,%ecx
  1022ae:	88 0c 02             	mov    %cl,(%edx,%eax,1)
  1022b1:	8b 45 e8             	mov    -0x18(%ebp),%eax
  1022b4:	89 c2                	mov    %eax,%edx
  1022b6:	42                   	inc    %edx
  1022b7:	89 55 e8             	mov    %edx,-0x18(%ebp)
  1022ba:	8b 55 f0             	mov    -0x10(%ebp),%edx
  1022bd:	c1 eb 18             	shr    $0x18,%ebx
  1022c0:	88 d9                	mov    %bl,%cl
  1022c2:	88 0c 02             	mov    %cl,(%edx,%eax,1)
  1022c5:	8b 45 e8             	mov    -0x18(%ebp),%eax
  1022c8:	89 c2                	mov    %eax,%edx
  1022ca:	83 c2 01             	add    $0x1,%edx
  1022cd:	89 55 e8             	mov    %edx,-0x18(%ebp)
  1022d0:	8b 55 f0             	mov    -0x10(%ebp),%edx
  1022d3:	c6 04 02 c3          	movb   $0xc3,(%edx,%eax,1)
  1022d7:	89 75 e4             	mov    %esi,-0x1c(%ebp)
  1022da:	83 c4 10             	add    $0x10,%esp
  1022dd:	5e                   	pop    %esi
  1022de:	5f                   	pop    %edi
  1022df:	5b                   	pop    %ebx
  1022e0:	5d                   	pop    %ebp
  1022e1:	c3                   	ret    
  1022e2:	8d b4 26 00 00 00 00 	lea    0x0(%esi,%eiz,1),%esi
  1022e9:	8d bc 27 00 00 00 00 	lea    0x0(%edi,%eiz,1),%edi

001022f0 <PIC_GetReg>:
  1022f0:	55                   	push   %ebp
  1022f1:	89 e5                	mov    %esp,%ebp
  1022f3:	57                   	push   %edi
  1022f4:	56                   	push   %esi
  1022f5:	83 ec 20             	sub    $0x20,%esp
  1022f8:	8b 45 08             	mov    0x8(%ebp),%eax
  1022fb:	b9 20 00 00 00       	mov    $0x20,%ecx
  102300:	89 45 f4             	mov    %eax,-0xc(%ebp)
  102303:	8b 45 f4             	mov    -0xc(%ebp),%eax
  102306:	88 c2                	mov    %al,%dl
  102308:	c7 04 24 20 00 00 00 	movl   $0x20,(%esp)
  10230f:	0f b6 c2             	movzbl %dl,%eax
  102312:	89 44 24 04          	mov    %eax,0x4(%esp)
  102316:	89 4d f0             	mov    %ecx,-0x10(%ebp)
  102319:	e8 62 de ff ff       	call   100180 <outb>
  10231e:	b8 a0 00 00 00       	mov    $0xa0,%eax
  102323:	8b 4d f4             	mov    -0xc(%ebp),%ecx
  102326:	88 ca                	mov    %cl,%dl
  102328:	c7 04 24 a0 00 00 00 	movl   $0xa0,(%esp)
  10232f:	0f b6 ca             	movzbl %dl,%ecx
  102332:	89 4c 24 04          	mov    %ecx,0x4(%esp)
  102336:	89 45 ec             	mov    %eax,-0x14(%ebp)
  102339:	e8 42 de ff ff       	call   100180 <outb>
  10233e:	b8 a0 00 00 00       	mov    $0xa0,%eax
  102343:	c7 04 24 a0 00 00 00 	movl   $0xa0,(%esp)
  10234a:	89 45 e8             	mov    %eax,-0x18(%ebp)
  10234d:	e8 5e de ff ff       	call   1001b0 <inb>
  102352:	b9 20 00 00 00       	mov    $0x20,%ecx
  102357:	0f b6 f0             	movzbl %al,%esi
  10235a:	c1 e6 08             	shl    $0x8,%esi
  10235d:	c7 04 24 20 00 00 00 	movl   $0x20,(%esp)
  102364:	89 4d e4             	mov    %ecx,-0x1c(%ebp)
  102367:	89 75 e0             	mov    %esi,-0x20(%ebp)
  10236a:	e8 41 de ff ff       	call   1001b0 <inb>
  10236f:	0f b6 c8             	movzbl %al,%ecx
  102372:	8b 75 e0             	mov    -0x20(%ebp),%esi
  102375:	09 ce                	or     %ecx,%esi
  102377:	66 89 f7             	mov    %si,%di
  10237a:	0f b7 c7             	movzwl %di,%eax
  10237d:	83 c4 20             	add    $0x20,%esp
  102380:	5e                   	pop    %esi
  102381:	5f                   	pop    %edi
  102382:	5d                   	pop    %ebp
  102383:	c3                   	ret    
  102384:	8d b6 00 00 00 00    	lea    0x0(%esi),%esi
  10238a:	8d bf 00 00 00 00    	lea    0x0(%edi),%edi

00102390 <PIC_DefaultHandler>:
  102390:	60                   	pusha  
  102391:	66 8c d8             	mov    %ds,%ax
  102394:	50                   	push   %eax
  102395:	66 b8 10 00          	mov    $0x10,%ax
  102399:	8e d8                	mov    %eax,%ds
  10239b:	8e c0                	mov    %eax,%es
  10239d:	8e e0                	mov    %eax,%fs
  10239f:	8e e8                	mov    %eax,%gs
  1023a1:	54                   	push   %esp
  1023a2:	e8 19 00 00 00       	call   1023c0 <PIC_MainHandler>
  1023a7:	5b                   	pop    %ebx
  1023a8:	5b                   	pop    %ebx
  1023a9:	8e db                	mov    %ebx,%ds
  1023ab:	8e c3                	mov    %ebx,%es
  1023ad:	8e e3                	mov    %ebx,%fs
  1023af:	8e eb                	mov    %ebx,%gs
  1023b1:	61                   	popa   
  1023b2:	58                   	pop    %eax
  1023b3:	83 c4 04             	add    $0x4,%esp
  1023b6:	cf                   	iret   
  1023b7:	c3                   	ret    
  1023b8:	90                   	nop
  1023b9:	8d b4 26 00 00 00 00 	lea    0x0(%esi,%eiz,1),%esi

001023c0 <PIC_MainHandler>:
  1023c0:	55                   	push   %ebp
  1023c1:	89 e5                	mov    %esp,%ebp
  1023c3:	83 ec 20             	sub    $0x20,%esp
  1023c6:	8b 45 08             	mov    0x8(%ebp),%eax
  1023c9:	b9 0b 00 00 00       	mov    $0xb,%ecx
  1023ce:	89 45 fc             	mov    %eax,-0x4(%ebp)
  1023d1:	c7 04 24 0b 00 00 00 	movl   $0xb,(%esp)
  1023d8:	89 4d f8             	mov    %ecx,-0x8(%ebp)
  1023db:	e8 10 ff ff ff       	call   1022f0 <PIC_GetReg>
  1023e0:	0f b7 c8             	movzwl %ax,%ecx
  1023e3:	8b 55 fc             	mov    -0x4(%ebp),%edx
  1023e6:	8b 52 24             	mov    0x24(%edx),%edx
  1023e9:	89 4d f4             	mov    %ecx,-0xc(%ebp)
  1023ec:	89 d1                	mov    %edx,%ecx
  1023ee:	8b 55 f4             	mov    -0xc(%ebp),%edx
  1023f1:	d3 fa                	sar    %cl,%edx
  1023f3:	83 e2 01             	and    $0x1,%edx
  1023f6:	83 fa 01             	cmp    $0x1,%edx
  1023f9:	75 54                	jne    10244f <PIC_MainHandler+0x8f>
  1023fb:	8b 45 fc             	mov    -0x4(%ebp),%eax
  1023fe:	83 78 24 28          	cmpl   $0x28,0x24(%eax)
  102402:	72 24                	jb     102428 <PIC_MainHandler+0x68>
  102404:	b8 a0 00 00 00       	mov    $0xa0,%eax
  102409:	b9 20 00 00 00       	mov    $0x20,%ecx
  10240e:	c7 04 24 a0 00 00 00 	movl   $0xa0,(%esp)
  102415:	c7 44 24 04 20 00 00 	movl   $0x20,0x4(%esp)
  10241c:	00 
  10241d:	89 45 f0             	mov    %eax,-0x10(%ebp)
  102420:	89 4d ec             	mov    %ecx,-0x14(%ebp)
  102423:	e8 58 dd ff ff       	call   100180 <outb>
  102428:	b8 20 00 00 00       	mov    $0x20,%eax
  10242d:	c7 04 24 20 00 00 00 	movl   $0x20,(%esp)
  102434:	c7 44 24 04 20 00 00 	movl   $0x20,0x4(%esp)
  10243b:	00 
  10243c:	89 45 e8             	mov    %eax,-0x18(%ebp)
  10243f:	e8 3c dd ff ff       	call   100180 <outb>
  102444:	8b 45 fc             	mov    -0x4(%ebp),%eax
  102447:	89 04 24             	mov    %eax,(%esp)
  10244a:	e8 61 fa ff ff       	call   101eb0 <IDT_MainHandler>
  10244f:	83 c4 20             	add    $0x20,%esp
  102452:	5d                   	pop    %ebp
  102453:	c3                   	ret    
  102454:	66 90                	xchg   %ax,%ax
  102456:	66 90                	xchg   %ax,%ax
  102458:	66 90                	xchg   %ax,%ax
  10245a:	66 90                	xchg   %ax,%ax
  10245c:	66 90                	xchg   %ax,%ax
  10245e:	66 90                	xchg   %ax,%ax

00102460 <PIT_SetFrequency>:
  102460:	55                   	push   %ebp
  102461:	89 e5                	mov    %esp,%ebp
  102463:	57                   	push   %edi
  102464:	56                   	push   %esi
  102465:	83 ec 1c             	sub    $0x1c,%esp
  102468:	8b 45 18             	mov    0x18(%ebp),%eax
  10246b:	8a 4d 14             	mov    0x14(%ebp),%cl
  10246e:	8a 55 10             	mov    0x10(%ebp),%dl
  102471:	8a 6d 0c             	mov    0xc(%ebp),%ch
  102474:	8a 75 08             	mov    0x8(%ebp),%dh
  102477:	be 43 00 00 00       	mov    $0x43,%esi
  10247c:	bf dc 34 12 00       	mov    $0x1234dc,%edi
  102481:	88 75 f7             	mov    %dh,-0x9(%ebp)
  102484:	88 6d f6             	mov    %ch,-0xa(%ebp)
  102487:	88 55 f5             	mov    %dl,-0xb(%ebp)
  10248a:	88 4d f4             	mov    %cl,-0xc(%ebp)
  10248d:	89 45 f0             	mov    %eax,-0x10(%ebp)
  102490:	89 f8                	mov    %edi,%eax
  102492:	31 d2                	xor    %edx,%edx
  102494:	f7 75 f0             	divl   -0x10(%ebp)
  102497:	89 45 ec             	mov    %eax,-0x14(%ebp)
  10249a:	0f b6 45 f7          	movzbl -0x9(%ebp),%eax
  10249e:	83 e0 03             	and    $0x3,%eax
  1024a1:	88 c1                	mov    %al,%cl
  1024a3:	88 4d f7             	mov    %cl,-0x9(%ebp)
  1024a6:	0f b6 45 f6          	movzbl -0xa(%ebp),%eax
  1024aa:	83 e0 03             	and    $0x3,%eax
  1024ad:	88 c1                	mov    %al,%cl
  1024af:	88 4d f6             	mov    %cl,-0xa(%ebp)
  1024b2:	0f b6 45 f5          	movzbl -0xb(%ebp),%eax
  1024b6:	83 e0 07             	and    $0x7,%eax
  1024b9:	88 c1                	mov    %al,%cl
  1024bb:	88 4d f5             	mov    %cl,-0xb(%ebp)
  1024be:	0f b6 45 f4          	movzbl -0xc(%ebp),%eax
  1024c2:	83 e0 01             	and    $0x1,%eax
  1024c5:	88 c1                	mov    %al,%cl
  1024c7:	88 4d f4             	mov    %cl,-0xc(%ebp)
  1024ca:	c6 45 eb 00          	movb   $0x0,-0x15(%ebp)
  1024ce:	0f b6 45 f7          	movzbl -0x9(%ebp),%eax
  1024d2:	c1 e0 06             	shl    $0x6,%eax
  1024d5:	0f b6 55 f6          	movzbl -0xa(%ebp),%edx
  1024d9:	c1 e2 04             	shl    $0x4,%edx
  1024dc:	09 d0                	or     %edx,%eax
  1024de:	0f b6 55 f5          	movzbl -0xb(%ebp),%edx
  1024e2:	d1 e2                	shl    %edx
  1024e4:	09 d0                	or     %edx,%eax
  1024e6:	0f b6 55 f4          	movzbl -0xc(%ebp),%edx
  1024ea:	09 d0                	or     %edx,%eax
  1024ec:	88 c1                	mov    %al,%cl
  1024ee:	88 4d eb             	mov    %cl,-0x15(%ebp)
  1024f1:	c7 04 24 43 00 00 00 	movl   $0x43,(%esp)
  1024f8:	0f b6 45 eb          	movzbl -0x15(%ebp),%eax
  1024fc:	89 44 24 04          	mov    %eax,0x4(%esp)
  102500:	89 75 e4             	mov    %esi,-0x1c(%ebp)
  102503:	e8 78 dc ff ff       	call   100180 <outb>
  102508:	0f b6 45 f6          	movzbl -0xa(%ebp),%eax
  10250c:	83 e0 01             	and    $0x1,%eax
  10250f:	83 f8 01             	cmp    $0x1,%eax
  102512:	75 2a                	jne    10253e <PIT_SetFrequency+0xde>
  102514:	8b 45 ec             	mov    -0x14(%ebp),%eax
  102517:	25 ff 00 00 00       	and    $0xff,%eax
  10251c:	88 c1                	mov    %al,%cl
  10251e:	88 4d ea             	mov    %cl,-0x16(%ebp)
  102521:	0f b6 45 f7          	movzbl -0x9(%ebp),%eax
  102525:	83 c0 40             	add    $0x40,%eax
  102528:	66 89 c2             	mov    %ax,%dx
  10252b:	0f b7 c2             	movzwl %dx,%eax
  10252e:	89 04 24             	mov    %eax,(%esp)
  102531:	0f b6 45 ea          	movzbl -0x16(%ebp),%eax
  102535:	89 44 24 04          	mov    %eax,0x4(%esp)
  102539:	e8 42 dc ff ff       	call   100180 <outb>
  10253e:	0f b6 45 f6          	movzbl -0xa(%ebp),%eax
  102542:	83 e0 02             	and    $0x2,%eax
  102545:	83 f8 02             	cmp    $0x2,%eax
  102548:	75 2d                	jne    102577 <PIT_SetFrequency+0x117>
  10254a:	8b 45 ec             	mov    -0x14(%ebp),%eax
  10254d:	c1 e8 08             	shr    $0x8,%eax
  102550:	25 ff 00 00 00       	and    $0xff,%eax
  102555:	88 c1                	mov    %al,%cl
  102557:	88 4d e9             	mov    %cl,-0x17(%ebp)
  10255a:	0f b6 45 f7          	movzbl -0x9(%ebp),%eax
  10255e:	83 c0 40             	add    $0x40,%eax
  102561:	66 89 c2             	mov    %ax,%dx
  102564:	0f b7 c2             	movzwl %dx,%eax
  102567:	89 04 24             	mov    %eax,(%esp)
  10256a:	0f b6 45 e9          	movzbl -0x17(%ebp),%eax
  10256e:	89 44 24 04          	mov    %eax,0x4(%esp)
  102572:	e8 09 dc ff ff       	call   100180 <outb>
  102577:	83 c4 1c             	add    $0x1c,%esp
  10257a:	5e                   	pop    %esi
  10257b:	5f                   	pop    %edi
  10257c:	5d                   	pop    %ebp
  10257d:	c3                   	ret    
  10257e:	66 90                	xchg   %ax,%ax

00102580 <FPU_Initialize>:
  102580:	55                   	push   %ebp
  102581:	89 e5                	mov    %esp,%ebp
  102583:	83 ec 2c             	sub    $0x2c,%esp
  102586:	b8 01 00 00 00       	mov    $0x1,%eax
  10258b:	c7 04 24 01 00 00 00 	movl   $0x1,(%esp)
  102592:	c7 44 24 04 01 00 00 	movl   $0x1,0x4(%esp)
  102599:	00 
  10259a:	89 45 f8             	mov    %eax,-0x8(%ebp)
  10259d:	e8 4e 01 00 00       	call   1026f0 <CPUID_FeatureIsAvailable>
  1025a2:	3c 00                	cmp    $0x0,%al
  1025a4:	75 05                	jne    1025ab <FPU_Initialize+0x2b>
  1025a6:	e9 e5 00 00 00       	jmp    102690 <FPU_Initialize+0x110>
  1025ab:	b8 01 00 00 00       	mov    $0x1,%eax
  1025b0:	b9 00 00 00 02       	mov    $0x2000000,%ecx
  1025b5:	c7 04 24 01 00 00 00 	movl   $0x1,(%esp)
  1025bc:	c7 44 24 04 00 00 00 	movl   $0x2000000,0x4(%esp)
  1025c3:	02 
  1025c4:	89 45 f4             	mov    %eax,-0xc(%ebp)
  1025c7:	89 4d f0             	mov    %ecx,-0x10(%ebp)
  1025ca:	e8 21 01 00 00       	call   1026f0 <CPUID_FeatureIsAvailable>
  1025cf:	3c 00                	cmp    $0x0,%al
  1025d1:	75 05                	jne    1025d8 <FPU_Initialize+0x58>
  1025d3:	e9 b8 00 00 00       	jmp    102690 <FPU_Initialize+0x110>
  1025d8:	b8 00 00 00 00       	mov    $0x0,%eax
  1025dd:	b9 00 00 00 04       	mov    $0x4000000,%ecx
  1025e2:	c7 04 24 00 00 00 00 	movl   $0x0,(%esp)
  1025e9:	c7 44 24 04 00 00 00 	movl   $0x4000000,0x4(%esp)
  1025f0:	04 
  1025f1:	89 45 ec             	mov    %eax,-0x14(%ebp)
  1025f4:	89 4d e8             	mov    %ecx,-0x18(%ebp)
  1025f7:	e8 f4 00 00 00       	call   1026f0 <CPUID_FeatureIsAvailable>
  1025fc:	3c 00                	cmp    $0x0,%al
  1025fe:	75 05                	jne    102605 <FPU_Initialize+0x85>
  102600:	e9 8b 00 00 00       	jmp    102690 <FPU_Initialize+0x110>
  102605:	c7 45 fc 00 00 00 00 	movl   $0x0,-0x4(%ebp)
  10260c:	0f 20 c0             	mov    %cr0,%eax
  10260f:	89 45 fc             	mov    %eax,-0x4(%ebp)
  102612:	8b 45 fc             	mov    -0x4(%ebp),%eax
  102615:	83 e0 fb             	and    $0xfffffffb,%eax
  102618:	89 45 fc             	mov    %eax,-0x4(%ebp)
  10261b:	8b 45 fc             	mov    -0x4(%ebp),%eax
  10261e:	83 c8 20             	or     $0x20,%eax
  102621:	89 45 fc             	mov    %eax,-0x4(%ebp)
  102624:	8b 45 fc             	mov    -0x4(%ebp),%eax
  102627:	83 c8 02             	or     $0x2,%eax
  10262a:	89 45 fc             	mov    %eax,-0x4(%ebp)
  10262d:	8b 45 fc             	mov    -0x4(%ebp),%eax
  102630:	0f 22 c0             	mov    %eax,%cr0
  102633:	0f 20 e0             	mov    %cr4,%eax
  102636:	89 45 fc             	mov    %eax,-0x4(%ebp)
  102639:	8b 45 fc             	mov    -0x4(%ebp),%eax
  10263c:	0d 00 02 00 00       	or     $0x200,%eax
  102641:	89 45 fc             	mov    %eax,-0x4(%ebp)
  102644:	8b 45 fc             	mov    -0x4(%ebp),%eax
  102647:	0d 00 04 00 00       	or     $0x400,%eax
  10264c:	89 45 fc             	mov    %eax,-0x4(%ebp)
  10264f:	8b 45 fc             	mov    -0x4(%ebp),%eax
  102652:	0d 00 00 04 00       	or     $0x40000,%eax
  102657:	89 45 fc             	mov    %eax,-0x4(%ebp)
  10265a:	8b 45 fc             	mov    -0x4(%ebp),%eax
  10265d:	0f 22 e0             	mov    %eax,%cr4
  102660:	b8 07 00 00 00       	mov    $0x7,%eax
  102665:	b9 00 00 00 00       	mov    $0x0,%ecx
  10266a:	8d 15 a0 26 10 00    	lea    0x1026a0,%edx
  102670:	c7 04 24 07 00 00 00 	movl   $0x7,(%esp)
  102677:	c7 44 24 04 00 00 00 	movl   $0x0,0x4(%esp)
  10267e:	00 
  10267f:	89 54 24 08          	mov    %edx,0x8(%esp)
  102683:	89 45 e4             	mov    %eax,-0x1c(%ebp)
  102686:	89 4d e0             	mov    %ecx,-0x20(%ebp)
  102689:	e8 12 02 00 00       	call   1028a0 <InterruptManager_RegisterHandler>
  10268e:	db e3                	fninit 
  102690:	83 c4 2c             	add    $0x2c,%esp
  102693:	5d                   	pop    %ebp
  102694:	c3                   	ret    
  102695:	8d 74 26 00          	lea    0x0(%esi,%eiz,1),%esi
  102699:	8d bc 27 00 00 00 00 	lea    0x0(%edi,%eiz,1),%edi

001026a0 <FPU_StateHandler>:
  1026a0:	55                   	push   %ebp
  1026a1:	89 e5                	mov    %esp,%ebp
  1026a3:	50                   	push   %eax
  1026a4:	8b 45 08             	mov    0x8(%ebp),%eax
  1026a7:	89 45 fc             	mov    %eax,-0x4(%ebp)
  1026aa:	0f 06                	clts   
  1026ac:	83 c4 04             	add    $0x4,%esp
  1026af:	5d                   	pop    %ebp
  1026b0:	c3                   	ret    
  1026b1:	eb 0d                	jmp    1026c0 <FPU_EnableInterrupts>
  1026b3:	90                   	nop
  1026b4:	90                   	nop
  1026b5:	90                   	nop
  1026b6:	90                   	nop
  1026b7:	90                   	nop
  1026b8:	90                   	nop
  1026b9:	90                   	nop
  1026ba:	90                   	nop
  1026bb:	90                   	nop
  1026bc:	90                   	nop
  1026bd:	90                   	nop
  1026be:	90                   	nop
  1026bf:	90                   	nop

001026c0 <FPU_EnableInterrupts>:
  1026c0:	55                   	push   %ebp
  1026c1:	89 e5                	mov    %esp,%ebp
  1026c3:	50                   	push   %eax
  1026c4:	c7 45 fc 00 00 00 00 	movl   $0x0,-0x4(%ebp)
  1026cb:	0f 20 c0             	mov    %cr0,%eax
  1026ce:	89 45 fc             	mov    %eax,-0x4(%ebp)
  1026d1:	8b 45 fc             	mov    -0x4(%ebp),%eax
  1026d4:	83 c8 08             	or     $0x8,%eax
  1026d7:	89 45 fc             	mov    %eax,-0x4(%ebp)
  1026da:	8b 45 fc             	mov    -0x4(%ebp),%eax
  1026dd:	0f 22 c0             	mov    %eax,%cr0
  1026e0:	83 c4 04             	add    $0x4,%esp
  1026e3:	5d                   	pop    %ebp
  1026e4:	c3                   	ret    
  1026e5:	66 90                	xchg   %ax,%ax
  1026e7:	66 90                	xchg   %ax,%ax
  1026e9:	66 90                	xchg   %ax,%ax
  1026eb:	66 90                	xchg   %ax,%ax
  1026ed:	66 90                	xchg   %ax,%ax
  1026ef:	90                   	nop

001026f0 <CPUID_FeatureIsAvailable>:
  1026f0:	55                   	push   %ebp
  1026f1:	89 e5                	mov    %esp,%ebp
  1026f3:	53                   	push   %ebx
  1026f4:	83 ec 10             	sub    $0x10,%esp
  1026f7:	8b 45 0c             	mov    0xc(%ebp),%eax
  1026fa:	8a 4d 08             	mov    0x8(%ebp),%cl
  1026fd:	88 4d fa             	mov    %cl,-0x6(%ebp)
  102700:	89 45 f4             	mov    %eax,-0xc(%ebp)
  102703:	b8 01 00 00 00       	mov    $0x1,%eax
  102708:	0f a2                	cpuid  
  10270a:	89 4d f0             	mov    %ecx,-0x10(%ebp)
  10270d:	89 55 ec             	mov    %edx,-0x14(%ebp)
  102710:	0f b6 45 fa          	movzbl -0x6(%ebp),%eax
  102714:	83 f8 00             	cmp    $0x0,%eax
  102717:	75 19                	jne    102732 <CPUID_FeatureIsAvailable+0x42>
  102719:	8b 45 f0             	mov    -0x10(%ebp),%eax
  10271c:	23 45 f4             	and    -0xc(%ebp),%eax
  10271f:	3b 45 f4             	cmp    -0xc(%ebp),%eax
  102722:	0f 94 c1             	sete   %cl
  102725:	80 e1 01             	and    $0x1,%cl
  102728:	0f b6 c1             	movzbl %cl,%eax
  10272b:	88 c1                	mov    %al,%cl
  10272d:	88 4d fb             	mov    %cl,-0x5(%ebp)
  102730:	eb 28                	jmp    10275a <CPUID_FeatureIsAvailable+0x6a>
  102732:	0f b6 45 fa          	movzbl -0x6(%ebp),%eax
  102736:	83 f8 01             	cmp    $0x1,%eax
  102739:	75 19                	jne    102754 <CPUID_FeatureIsAvailable+0x64>
  10273b:	8b 45 ec             	mov    -0x14(%ebp),%eax
  10273e:	23 45 f4             	and    -0xc(%ebp),%eax
  102741:	3b 45 f4             	cmp    -0xc(%ebp),%eax
  102744:	0f 94 c1             	sete   %cl
  102747:	80 e1 01             	and    $0x1,%cl
  10274a:	0f b6 c1             	movzbl %cl,%eax
  10274d:	88 c1                	mov    %al,%cl
  10274f:	88 4d fb             	mov    %cl,-0x5(%ebp)
  102752:	eb 06                	jmp    10275a <CPUID_FeatureIsAvailable+0x6a>
  102754:	eb 00                	jmp    102756 <CPUID_FeatureIsAvailable+0x66>
  102756:	c6 45 fb ff          	movb   $0xff,-0x5(%ebp)
  10275a:	0f b6 45 fb          	movzbl -0x5(%ebp),%eax
  10275e:	83 c4 10             	add    $0x10,%esp
  102761:	5b                   	pop    %ebx
  102762:	5d                   	pop    %ebp
  102763:	c3                   	ret    
  102764:	66 90                	xchg   %ax,%ax
  102766:	66 90                	xchg   %ax,%ax
  102768:	66 90                	xchg   %ax,%ax
  10276a:	66 90                	xchg   %ax,%ax
  10276c:	66 90                	xchg   %ax,%ax
  10276e:	66 90                	xchg   %ax,%ax

00102770 <InterruptManager_Initialize>:
  102770:	55                   	push   %ebp
  102771:	89 e5                	mov    %esp,%ebp
  102773:	83 ec 1c             	sub    $0x1c,%esp
  102776:	8d 05 d0 ac 0d 02    	lea    0x20dacd0,%eax
  10277c:	b9 00 00 00 00       	mov    $0x0,%ecx
  102781:	ba 00 80 00 00       	mov    $0x8000,%edx
  102786:	89 04 24             	mov    %eax,(%esp)
  102789:	c7 44 24 04 00 00 00 	movl   $0x0,0x4(%esp)
  102790:	00 
  102791:	c7 44 24 08 00 80 00 	movl   $0x8000,0x8(%esp)
  102798:	00 
  102799:	89 55 f8             	mov    %edx,-0x8(%ebp)
  10279c:	89 4d f4             	mov    %ecx,-0xc(%ebp)
  10279f:	e8 8c da ff ff       	call   100230 <memset>
  1027a4:	c6 45 ff 00          	movb   $0x0,-0x1(%ebp)
  1027a8:	89 45 f0             	mov    %eax,-0x10(%ebp)
  1027ab:	0f b6 45 ff          	movzbl -0x1(%ebp),%eax
  1027af:	3d ff 00 00 00       	cmp    $0xff,%eax
  1027b4:	7d 20                	jge    1027d6 <InterruptManager_Initialize+0x66>
  1027b6:	8d 05 e0 27 10 00    	lea    0x1027e0,%eax
  1027bc:	0f b6 4d ff          	movzbl -0x1(%ebp),%ecx
  1027c0:	89 0c 24             	mov    %ecx,(%esp)
  1027c3:	89 44 24 04          	mov    %eax,0x4(%esp)
  1027c7:	e8 24 f7 ff ff       	call   101ef0 <IDT_RegisterHandler>
  1027cc:	8a 45 ff             	mov    -0x1(%ebp),%al
  1027cf:	04 01                	add    $0x1,%al
  1027d1:	88 45 ff             	mov    %al,-0x1(%ebp)
  1027d4:	eb d5                	jmp    1027ab <InterruptManager_Initialize+0x3b>
  1027d6:	83 c4 1c             	add    $0x1c,%esp
  1027d9:	5d                   	pop    %ebp
  1027da:	c3                   	ret    
  1027db:	90                   	nop
  1027dc:	8d 74 26 00          	lea    0x0(%esi,%eiz,1),%esi

001027e0 <InterruptManager_InterruptHandler>:
  1027e0:	55                   	push   %ebp
  1027e1:	89 e5                	mov    %esp,%ebp
  1027e3:	83 ec 1c             	sub    $0x1c,%esp
  1027e6:	8b 45 08             	mov    0x8(%ebp),%eax
  1027e9:	89 45 fc             	mov    %eax,-0x4(%ebp)
  1027ec:	c7 45 f8 00 00 00 00 	movl   $0x0,-0x8(%ebp)
  1027f3:	c7 45 f4 00 00 00 00 	movl   $0x0,-0xc(%ebp)
  1027fa:	83 7d f4 20          	cmpl   $0x20,-0xc(%ebp)
  1027fe:	7d 4d                	jge    10284d <InterruptManager_InterruptHandler+0x6d>
  102800:	8d 05 d0 ac 0d 02    	lea    0x20dacd0,%eax
  102806:	8b 4d f4             	mov    -0xc(%ebp),%ecx
  102809:	8b 55 fc             	mov    -0x4(%ebp),%edx
  10280c:	8b 52 24             	mov    0x24(%edx),%edx
  10280f:	c1 e2 07             	shl    $0x7,%edx
  102812:	01 d0                	add    %edx,%eax
  102814:	83 3c 88 00          	cmpl   $0x0,(%eax,%ecx,4)
  102818:	74 26                	je     102840 <InterruptManager_InterruptHandler+0x60>
  10281a:	8d 05 d0 ac 0d 02    	lea    0x20dacd0,%eax
  102820:	8b 4d f4             	mov    -0xc(%ebp),%ecx
  102823:	8b 55 fc             	mov    -0x4(%ebp),%edx
  102826:	8b 52 24             	mov    0x24(%edx),%edx
  102829:	c1 e2 07             	shl    $0x7,%edx
  10282c:	01 d0                	add    %edx,%eax
  10282e:	8b 04 88             	mov    (%eax,%ecx,4),%eax
  102831:	8b 4d fc             	mov    -0x4(%ebp),%ecx
  102834:	89 0c 24             	mov    %ecx,(%esp)
  102837:	ff d0                	call   *%eax
  102839:	c7 45 f8 01 00 00 00 	movl   $0x1,-0x8(%ebp)
  102840:	eb 00                	jmp    102842 <InterruptManager_InterruptHandler+0x62>
  102842:	8b 45 f4             	mov    -0xc(%ebp),%eax
  102845:	83 c0 01             	add    $0x1,%eax
  102848:	89 45 f4             	mov    %eax,-0xc(%ebp)
  10284b:	eb ad                	jmp    1027fa <InterruptManager_InterruptHandler+0x1a>
  10284d:	8b 45 fc             	mov    -0x4(%ebp),%eax
  102850:	83 78 24 20          	cmpl   $0x20,0x24(%eax)
  102854:	73 3b                	jae    102891 <InterruptManager_InterruptHandler+0xb1>
  102856:	83 7d f8 00          	cmpl   $0x0,-0x8(%ebp)
  10285a:	75 35                	jne    102891 <InterruptManager_InterruptHandler+0xb1>
  10285c:	b8 00 00 00 00       	mov    $0x0,%eax
  102861:	8b 4d fc             	mov    -0x4(%ebp),%ecx
  102864:	8b 49 24             	mov    0x24(%ecx),%ecx
  102867:	8b 0c 8d e8 d4 8e 00 	mov    0x8ed4e8(,%ecx,4),%ecx
  10286e:	89 0c 24             	mov    %ecx,(%esp)
  102871:	c7 44 24 04 00 00 00 	movl   $0x0,0x4(%esp)
  102878:	00 
  102879:	c7 44 24 08 00 00 00 	movl   $0x0,0x8(%esp)
  102880:	00 
  102881:	89 45 f0             	mov    %eax,-0x10(%ebp)
  102884:	e8 37 dc ff ff       	call   1004c0 <Graphics_WriteStr>
  102889:	e8 c2 db ff ff       	call   100450 <Graphics_SwapBuffer>
  10288e:	f4                   	hlt    
  10288f:	eb fd                	jmp    10288e <InterruptManager_InterruptHandler+0xae>
  102891:	83 c4 1c             	add    $0x1c,%esp
  102894:	5d                   	pop    %ebp
  102895:	c3                   	ret    
  102896:	8d 76 00             	lea    0x0(%esi),%esi
  102899:	8d bc 27 00 00 00 00 	lea    0x0(%edi,%eiz,1),%edi

001028a0 <InterruptManager_RegisterHandler>:
  1028a0:	55                   	push   %ebp
  1028a1:	89 e5                	mov    %esp,%ebp
  1028a3:	53                   	push   %ebx
  1028a4:	57                   	push   %edi
  1028a5:	56                   	push   %esi
  1028a6:	83 ec 08             	sub    $0x8,%esp
  1028a9:	8b 45 10             	mov    0x10(%ebp),%eax
  1028ac:	8a 4d 0c             	mov    0xc(%ebp),%cl
  1028af:	8a 55 08             	mov    0x8(%ebp),%dl
  1028b2:	8d 35 d0 ac 0d 02    	lea    0x20dacd0,%esi
  1028b8:	88 55 f3             	mov    %dl,-0xd(%ebp)
  1028bb:	88 4d f2             	mov    %cl,-0xe(%ebp)
  1028be:	89 45 ec             	mov    %eax,-0x14(%ebp)
  1028c1:	8b 45 ec             	mov    -0x14(%ebp),%eax
  1028c4:	0f b6 7d f2          	movzbl -0xe(%ebp),%edi
  1028c8:	0f b6 5d f3          	movzbl -0xd(%ebp),%ebx
  1028cc:	c1 e3 07             	shl    $0x7,%ebx
  1028cf:	01 de                	add    %ebx,%esi
  1028d1:	89 04 be             	mov    %eax,(%esi,%edi,4)
  1028d4:	83 c4 08             	add    $0x8,%esp
  1028d7:	5e                   	pop    %esi
  1028d8:	5f                   	pop    %edi
  1028d9:	5b                   	pop    %ebx
  1028da:	5d                   	pop    %ebp
  1028db:	c3                   	ret    
  1028dc:	66 90                	xchg   %ax,%ax
  1028de:	66 90                	xchg   %ax,%ax

001028e0 <__do_global_ctors_aux>:
  1028e0:	55                   	push   %ebp
  1028e1:	89 e5                	mov    %esp,%ebp
  1028e3:	53                   	push   %ebx
  1028e4:	bb 68 d5 8e 00       	mov    $0x8ed568,%ebx
  1028e9:	83 ec 04             	sub    $0x4,%esp
  1028ec:	a1 68 d5 8e 00       	mov    0x8ed568,%eax
  1028f1:	83 f8 ff             	cmp    $0xffffffff,%eax
  1028f4:	74 16                	je     10290c <__do_global_ctors_aux+0x2c>
  1028f6:	8d 76 00             	lea    0x0(%esi),%esi
  1028f9:	8d bc 27 00 00 00 00 	lea    0x0(%edi,%eiz,1),%edi
  102900:	83 eb 04             	sub    $0x4,%ebx
  102903:	ff d0                	call   *%eax
  102905:	8b 03                	mov    (%ebx),%eax
  102907:	83 f8 ff             	cmp    $0xffffffff,%eax
  10290a:	75 f4                	jne    102900 <__do_global_ctors_aux+0x20>
  10290c:	83 c4 04             	add    $0x4,%esp
  10290f:	5b                   	pop    %ebx
  102910:	5d                   	pop    %ebp
  102911:	c3                   	ret    
  102912:	66 90                	xchg   %ax,%ax
  102914:	66 90                	xchg   %ax,%ax
  102916:	66 90                	xchg   %ax,%ax
  102918:	66 90                	xchg   %ax,%ax
  10291a:	66 90                	xchg   %ax,%ax
  10291c:	66 90                	xchg   %ax,%ax
  10291e:	66 90                	xchg   %ax,%ax

00102920 <__divdi3>:
  102920:	55                   	push   %ebp
  102921:	57                   	push   %edi
  102922:	56                   	push   %esi
  102923:	83 ec 20             	sub    $0x20,%esp
  102926:	8b 44 24 34          	mov    0x34(%esp),%eax
  10292a:	8b 6c 24 30          	mov    0x30(%esp),%ebp
  10292e:	8b 4c 24 3c          	mov    0x3c(%esp),%ecx
  102932:	8b 7c 24 38          	mov    0x38(%esp),%edi
  102936:	89 6c 24 08          	mov    %ebp,0x8(%esp)
  10293a:	31 ed                	xor    %ebp,%ebp
  10293c:	85 c0                	test   %eax,%eax
  10293e:	89 ce                	mov    %ecx,%esi
  102940:	89 44 24 0c          	mov    %eax,0xc(%esp)
  102944:	0f 88 06 01 00 00    	js     102a50 <__divdi3+0x130>
  10294a:	85 f6                	test   %esi,%esi
  10294c:	89 f8                	mov    %edi,%eax
  10294e:	89 ca                	mov    %ecx,%edx
  102950:	0f 88 ea 00 00 00    	js     102a40 <__divdi3+0x120>
  102956:	8b 74 24 08          	mov    0x8(%esp),%esi
  10295a:	8b 7c 24 0c          	mov    0xc(%esp),%edi
  10295e:	85 d2                	test   %edx,%edx
  102960:	89 44 24 18          	mov    %eax,0x18(%esp)
  102964:	8b 4c 24 08          	mov    0x8(%esp),%ecx
  102968:	89 74 24 1c          	mov    %esi,0x1c(%esp)
  10296c:	89 fe                	mov    %edi,%esi
  10296e:	89 c7                	mov    %eax,%edi
  102970:	75 1e                	jne    102990 <__divdi3+0x70>
  102972:	39 f0                	cmp    %esi,%eax
  102974:	0f 86 96 00 00 00    	jbe    102a10 <__divdi3+0xf0>
  10297a:	8b 4c 24 1c          	mov    0x1c(%esp),%ecx
  10297e:	89 f2                	mov    %esi,%edx
  102980:	c7 44 24 14 00 00 00 	movl   $0x0,0x14(%esp)
  102987:	00 
  102988:	89 c8                	mov    %ecx,%eax
  10298a:	f7 f7                	div    %edi
  10298c:	89 c1                	mov    %eax,%ecx
  10298e:	eb 0e                	jmp    10299e <__divdi3+0x7e>
  102990:	39 f2                	cmp    %esi,%edx
  102992:	76 4c                	jbe    1029e0 <__divdi3+0xc0>
  102994:	c7 44 24 14 00 00 00 	movl   $0x0,0x14(%esp)
  10299b:	00 
  10299c:	31 c9                	xor    %ecx,%ecx
  10299e:	31 c0                	xor    %eax,%eax
  1029a0:	85 ed                	test   %ebp,%ebp
  1029a2:	0f 95 c0             	setne  %al
  1029a5:	31 d2                	xor    %edx,%edx
  1029a7:	89 c7                	mov    %eax,%edi
  1029a9:	89 d5                	mov    %edx,%ebp
  1029ab:	f7 df                	neg    %edi
  1029ad:	83 d5 00             	adc    $0x0,%ebp
  1029b0:	89 7c 24 08          	mov    %edi,0x8(%esp)
  1029b4:	33 4c 24 08          	xor    0x8(%esp),%ecx
  1029b8:	f7 dd                	neg    %ebp
  1029ba:	89 6c 24 0c          	mov    %ebp,0xc(%esp)
  1029be:	89 ce                	mov    %ecx,%esi
  1029c0:	8b 4c 24 0c          	mov    0xc(%esp),%ecx
  1029c4:	33 4c 24 14          	xor    0x14(%esp),%ecx
  1029c8:	01 f0                	add    %esi,%eax
  1029ca:	11 ca                	adc    %ecx,%edx
  1029cc:	83 c4 20             	add    $0x20,%esp
  1029cf:	5e                   	pop    %esi
  1029d0:	5f                   	pop    %edi
  1029d1:	5d                   	pop    %ebp
  1029d2:	c3                   	ret    
  1029d3:	8d b6 00 00 00 00    	lea    0x0(%esi),%esi
  1029d9:	8d bc 27 00 00 00 00 	lea    0x0(%edi,%eiz,1),%edi
  1029e0:	0f bd c2             	bsr    %edx,%eax
  1029e3:	83 f0 1f             	xor    $0x1f,%eax
  1029e6:	89 44 24 14          	mov    %eax,0x14(%esp)
  1029ea:	0f 85 80 00 00 00    	jne    102a70 <__divdi3+0x150>
  1029f0:	8b 7c 24 1c          	mov    0x1c(%esp),%edi
  1029f4:	39 7c 24 18          	cmp    %edi,0x18(%esp)
  1029f8:	76 06                	jbe    102a00 <__divdi3+0xe0>
  1029fa:	31 c9                	xor    %ecx,%ecx
  1029fc:	39 f2                	cmp    %esi,%edx
  1029fe:	73 9e                	jae    10299e <__divdi3+0x7e>
  102a00:	b9 01 00 00 00       	mov    $0x1,%ecx
  102a05:	eb 97                	jmp    10299e <__divdi3+0x7e>
  102a07:	89 f6                	mov    %esi,%esi
  102a09:	8d bc 27 00 00 00 00 	lea    0x0(%edi,%eiz,1),%edi
  102a10:	85 c0                	test   %eax,%eax
  102a12:	75 0b                	jne    102a1f <__divdi3+0xff>
  102a14:	b8 01 00 00 00       	mov    $0x1,%eax
  102a19:	31 d2                	xor    %edx,%edx
  102a1b:	f7 f7                	div    %edi
  102a1d:	89 c7                	mov    %eax,%edi
  102a1f:	89 f0                	mov    %esi,%eax
  102a21:	31 d2                	xor    %edx,%edx
  102a23:	f7 f7                	div    %edi
  102a25:	89 c6                	mov    %eax,%esi
  102a27:	89 c8                	mov    %ecx,%eax
  102a29:	89 74 24 14          	mov    %esi,0x14(%esp)
  102a2d:	f7 f7                	div    %edi
  102a2f:	89 c1                	mov    %eax,%ecx
  102a31:	e9 68 ff ff ff       	jmp    10299e <__divdi3+0x7e>
  102a36:	8d 76 00             	lea    0x0(%esi),%esi
  102a39:	8d bc 27 00 00 00 00 	lea    0x0(%edi,%eiz,1),%edi
  102a40:	f7 d8                	neg    %eax
  102a42:	f7 d5                	not    %ebp
  102a44:	83 d2 00             	adc    $0x0,%edx
  102a47:	f7 da                	neg    %edx
  102a49:	e9 08 ff ff ff       	jmp    102956 <__divdi3+0x36>
  102a4e:	66 90                	xchg   %ax,%ax
  102a50:	f7 5c 24 08          	negl   0x8(%esp)
  102a54:	bd ff ff ff ff       	mov    $0xffffffff,%ebp
  102a59:	83 54 24 0c 00       	adcl   $0x0,0xc(%esp)
  102a5e:	f7 5c 24 0c          	negl   0xc(%esp)
  102a62:	e9 e3 fe ff ff       	jmp    10294a <__divdi3+0x2a>
  102a67:	89 f6                	mov    %esi,%esi
  102a69:	8d bc 27 00 00 00 00 	lea    0x0(%edi,%eiz,1),%edi
  102a70:	89 d7                	mov    %edx,%edi
  102a72:	8b 54 24 14          	mov    0x14(%esp),%edx
  102a76:	b8 20 00 00 00       	mov    $0x20,%eax
  102a7b:	29 d0                	sub    %edx,%eax
  102a7d:	89 d1                	mov    %edx,%ecx
  102a7f:	8b 54 24 18          	mov    0x18(%esp),%edx
  102a83:	d3 e7                	shl    %cl,%edi
  102a85:	89 c1                	mov    %eax,%ecx
  102a87:	d3 ea                	shr    %cl,%edx
  102a89:	89 d1                	mov    %edx,%ecx
  102a8b:	8b 54 24 18          	mov    0x18(%esp),%edx
  102a8f:	09 f9                	or     %edi,%ecx
  102a91:	8b 7c 24 14          	mov    0x14(%esp),%edi
  102a95:	89 4c 24 08          	mov    %ecx,0x8(%esp)
  102a99:	89 f9                	mov    %edi,%ecx
  102a9b:	d3 e2                	shl    %cl,%edx
  102a9d:	89 c1                	mov    %eax,%ecx
  102a9f:	89 54 24 18          	mov    %edx,0x18(%esp)
  102aa3:	89 f2                	mov    %esi,%edx
  102aa5:	d3 ea                	shr    %cl,%edx
  102aa7:	89 f9                	mov    %edi,%ecx
  102aa9:	8b 7c 24 1c          	mov    0x1c(%esp),%edi
  102aad:	d3 e6                	shl    %cl,%esi
  102aaf:	89 c1                	mov    %eax,%ecx
  102ab1:	d3 ef                	shr    %cl,%edi
  102ab3:	09 fe                	or     %edi,%esi
  102ab5:	89 f0                	mov    %esi,%eax
  102ab7:	f7 74 24 08          	divl   0x8(%esp)
  102abb:	89 d6                	mov    %edx,%esi
  102abd:	89 c7                	mov    %eax,%edi
  102abf:	f7 64 24 18          	mull   0x18(%esp)
  102ac3:	39 d6                	cmp    %edx,%esi
  102ac5:	89 54 24 08          	mov    %edx,0x8(%esp)
  102ac9:	72 25                	jb     102af0 <__divdi3+0x1d0>
  102acb:	0f b6 4c 24 14       	movzbl 0x14(%esp),%ecx
  102ad0:	8b 54 24 1c          	mov    0x1c(%esp),%edx
  102ad4:	d3 e2                	shl    %cl,%edx
  102ad6:	39 c2                	cmp    %eax,%edx
  102ad8:	73 06                	jae    102ae0 <__divdi3+0x1c0>
  102ada:	3b 74 24 08          	cmp    0x8(%esp),%esi
  102ade:	74 10                	je     102af0 <__divdi3+0x1d0>
  102ae0:	89 f9                	mov    %edi,%ecx
  102ae2:	c7 44 24 14 00 00 00 	movl   $0x0,0x14(%esp)
  102ae9:	00 
  102aea:	e9 af fe ff ff       	jmp    10299e <__divdi3+0x7e>
  102aef:	90                   	nop
  102af0:	8d 4f ff             	lea    -0x1(%edi),%ecx
  102af3:	c7 44 24 14 00 00 00 	movl   $0x0,0x14(%esp)
  102afa:	00 
  102afb:	e9 9e fe ff ff       	jmp    10299e <__divdi3+0x7e>

00102b00 <__moddi3>:
  102b00:	55                   	push   %ebp
  102b01:	57                   	push   %edi
  102b02:	56                   	push   %esi
  102b03:	83 ec 30             	sub    $0x30,%esp
  102b06:	8b 54 24 44          	mov    0x44(%esp),%edx
  102b0a:	8b 44 24 40          	mov    0x40(%esp),%eax
  102b0e:	8b 6c 24 48          	mov    0x48(%esp),%ebp
  102b12:	8b 4c 24 4c          	mov    0x4c(%esp),%ecx
  102b16:	85 d2                	test   %edx,%edx
  102b18:	0f 88 12 01 00 00    	js     102c30 <__moddi3+0x130>
  102b1e:	89 44 24 08          	mov    %eax,0x8(%esp)
  102b22:	89 54 24 0c          	mov    %edx,0xc(%esp)
  102b26:	c7 44 24 18 00 00 00 	movl   $0x0,0x18(%esp)
  102b2d:	00 
  102b2e:	c7 44 24 1c 00 00 00 	movl   $0x0,0x1c(%esp)
  102b35:	00 
  102b36:	c7 44 24 20 00 00 00 	movl   $0x0,0x20(%esp)
  102b3d:	00 
  102b3e:	c7 44 24 24 00 00 00 	movl   $0x0,0x24(%esp)
  102b45:	00 
  102b46:	89 c8                	mov    %ecx,%eax
  102b48:	c7 44 24 04 00 00 00 	movl   $0x0,0x4(%esp)
  102b4f:	00 
  102b50:	99                   	cltd   
  102b51:	89 d0                	mov    %edx,%eax
  102b53:	8b 54 24 0c          	mov    0xc(%esp),%edx
  102b57:	c1 e8 1f             	shr    $0x1f,%eax
  102b5a:	89 04 24             	mov    %eax,(%esp)
  102b5d:	8b 44 24 08          	mov    0x8(%esp),%eax
  102b61:	89 54 24 14          	mov    %edx,0x14(%esp)
  102b65:	8b 54 24 04          	mov    0x4(%esp),%edx
  102b69:	89 44 24 28          	mov    %eax,0x28(%esp)
  102b6d:	8b 04 24             	mov    (%esp),%eax
  102b70:	f7 d8                	neg    %eax
  102b72:	83 d2 00             	adc    $0x0,%edx
  102b75:	31 c5                	xor    %eax,%ebp
  102b77:	f7 da                	neg    %edx
  102b79:	89 e8                	mov    %ebp,%eax
  102b7b:	89 d5                	mov    %edx,%ebp
  102b7d:	31 cd                	xor    %ecx,%ebp
  102b7f:	03 04 24             	add    (%esp),%eax
  102b82:	89 ea                	mov    %ebp,%edx
  102b84:	13 54 24 04          	adc    0x4(%esp),%edx
  102b88:	89 04 24             	mov    %eax,(%esp)
  102b8b:	89 c5                	mov    %eax,%ebp
  102b8d:	89 c7                	mov    %eax,%edi
  102b8f:	89 d1                	mov    %edx,%ecx
  102b91:	89 c2                	mov    %eax,%edx
  102b93:	8b 44 24 14          	mov    0x14(%esp),%eax
  102b97:	89 ce                	mov    %ecx,%esi
  102b99:	89 4c 24 04          	mov    %ecx,0x4(%esp)
  102b9d:	8b 4c 24 08          	mov    0x8(%esp),%ecx
  102ba1:	85 f6                	test   %esi,%esi
  102ba3:	75 1b                	jne    102bc0 <__moddi3+0xc0>
  102ba5:	39 c2                	cmp    %eax,%edx
  102ba7:	76 67                	jbe    102c10 <__moddi3+0x110>
  102ba9:	8b 44 24 28          	mov    0x28(%esp),%eax
  102bad:	8b 54 24 14          	mov    0x14(%esp),%edx
  102bb1:	f7 34 24             	divl   (%esp)
  102bb4:	31 c0                	xor    %eax,%eax
  102bb6:	eb 16                	jmp    102bce <__moddi3+0xce>
  102bb8:	90                   	nop
  102bb9:	8d b4 26 00 00 00 00 	lea    0x0(%esi,%eiz,1),%esi
  102bc0:	3b 74 24 14          	cmp    0x14(%esp),%esi
  102bc4:	76 2a                	jbe    102bf0 <__moddi3+0xf0>
  102bc6:	8b 54 24 08          	mov    0x8(%esp),%edx
  102bca:	8b 44 24 14          	mov    0x14(%esp),%eax
  102bce:	8b 4c 24 20          	mov    0x20(%esp),%ecx
  102bd2:	31 d1                	xor    %edx,%ecx
  102bd4:	8b 54 24 1c          	mov    0x1c(%esp),%edx
  102bd8:	89 ce                	mov    %ecx,%esi
  102bda:	8b 4c 24 24          	mov    0x24(%esp),%ecx
  102bde:	31 c1                	xor    %eax,%ecx
  102be0:	8b 44 24 18          	mov    0x18(%esp),%eax
  102be4:	01 f0                	add    %esi,%eax
  102be6:	11 ca                	adc    %ecx,%edx
  102be8:	83 c4 30             	add    $0x30,%esp
  102beb:	5e                   	pop    %esi
  102bec:	5f                   	pop    %edi
  102bed:	5d                   	pop    %ebp
  102bee:	c3                   	ret    
  102bef:	90                   	nop
  102bf0:	0f bd fe             	bsr    %esi,%edi
  102bf3:	83 f7 1f             	xor    $0x1f,%edi
  102bf6:	75 78                	jne    102c70 <__moddi3+0x170>
  102bf8:	39 ca                	cmp    %ecx,%edx
  102bfa:	0f 86 10 01 00 00    	jbe    102d10 <__moddi3+0x210>
  102c00:	3b 74 24 14          	cmp    0x14(%esp),%esi
  102c04:	0f 82 06 01 00 00    	jb     102d10 <__moddi3+0x210>
  102c0a:	89 ca                	mov    %ecx,%edx
  102c0c:	eb c0                	jmp    102bce <__moddi3+0xce>
  102c0e:	66 90                	xchg   %ax,%ax
  102c10:	85 d2                	test   %edx,%edx
  102c12:	75 0b                	jne    102c1f <__moddi3+0x11f>
  102c14:	b8 01 00 00 00       	mov    $0x1,%eax
  102c19:	31 d2                	xor    %edx,%edx
  102c1b:	f7 f5                	div    %ebp
  102c1d:	89 c7                	mov    %eax,%edi
  102c1f:	8b 44 24 14          	mov    0x14(%esp),%eax
  102c23:	31 d2                	xor    %edx,%edx
  102c25:	f7 f7                	div    %edi
  102c27:	89 c8                	mov    %ecx,%eax
  102c29:	f7 f7                	div    %edi
  102c2b:	31 c0                	xor    %eax,%eax
  102c2d:	eb 9f                	jmp    102bce <__moddi3+0xce>
  102c2f:	90                   	nop
  102c30:	f7 d8                	neg    %eax
  102c32:	c7 44 24 18 01 00 00 	movl   $0x1,0x18(%esp)
  102c39:	00 
  102c3a:	c7 44 24 1c 00 00 00 	movl   $0x0,0x1c(%esp)
  102c41:	00 
  102c42:	83 d2 00             	adc    $0x0,%edx
  102c45:	89 44 24 08          	mov    %eax,0x8(%esp)
  102c49:	c7 44 24 20 ff ff ff 	movl   $0xffffffff,0x20(%esp)
  102c50:	ff 
  102c51:	f7 da                	neg    %edx
  102c53:	c7 44 24 24 ff ff ff 	movl   $0xffffffff,0x24(%esp)
  102c5a:	ff 
  102c5b:	89 54 24 0c          	mov    %edx,0xc(%esp)
  102c5f:	e9 e2 fe ff ff       	jmp    102b46 <__moddi3+0x46>
  102c64:	8d b6 00 00 00 00    	lea    0x0(%esi),%esi
  102c6a:	8d bf 00 00 00 00    	lea    0x0(%edi),%edi
  102c70:	b8 20 00 00 00       	mov    $0x20,%eax
  102c75:	89 f9                	mov    %edi,%ecx
  102c77:	29 f8                	sub    %edi,%eax
  102c79:	d3 e6                	shl    %cl,%esi
  102c7b:	89 c2                	mov    %eax,%edx
  102c7d:	89 44 24 2c          	mov    %eax,0x2c(%esp)
  102c81:	89 e8                	mov    %ebp,%eax
  102c83:	89 d1                	mov    %edx,%ecx
  102c85:	d3 e8                	shr    %cl,%eax
  102c87:	89 f9                	mov    %edi,%ecx
  102c89:	09 f0                	or     %esi,%eax
  102c8b:	d3 e5                	shl    %cl,%ebp
  102c8d:	89 d1                	mov    %edx,%ecx
  102c8f:	89 04 24             	mov    %eax,(%esp)
  102c92:	8b 44 24 14          	mov    0x14(%esp),%eax
  102c96:	89 6c 24 08          	mov    %ebp,0x8(%esp)
  102c9a:	89 d5                	mov    %edx,%ebp
  102c9c:	89 c6                	mov    %eax,%esi
  102c9e:	89 c2                	mov    %eax,%edx
  102ca0:	8b 44 24 28          	mov    0x28(%esp),%eax
  102ca4:	d3 ee                	shr    %cl,%esi
  102ca6:	89 f9                	mov    %edi,%ecx
  102ca8:	d3 e2                	shl    %cl,%edx
  102caa:	89 e9                	mov    %ebp,%ecx
  102cac:	d3 e8                	shr    %cl,%eax
  102cae:	89 f9                	mov    %edi,%ecx
  102cb0:	09 d0                	or     %edx,%eax
  102cb2:	8b 54 24 28          	mov    0x28(%esp),%edx
  102cb6:	d3 e2                	shl    %cl,%edx
  102cb8:	89 54 24 14          	mov    %edx,0x14(%esp)
  102cbc:	89 f2                	mov    %esi,%edx
  102cbe:	f7 34 24             	divl   (%esp)
  102cc1:	89 d1                	mov    %edx,%ecx
  102cc3:	f7 64 24 08          	mull   0x8(%esp)
  102cc7:	39 d1                	cmp    %edx,%ecx
  102cc9:	89 c5                	mov    %eax,%ebp
  102ccb:	89 d6                	mov    %edx,%esi
  102ccd:	72 0a                	jb     102cd9 <__moddi3+0x1d9>
  102ccf:	39 44 24 14          	cmp    %eax,0x14(%esp)
  102cd3:	73 0f                	jae    102ce4 <__moddi3+0x1e4>
  102cd5:	39 d1                	cmp    %edx,%ecx
  102cd7:	75 0b                	jne    102ce4 <__moddi3+0x1e4>
  102cd9:	89 d6                	mov    %edx,%esi
  102cdb:	89 c5                	mov    %eax,%ebp
  102cdd:	2b 6c 24 08          	sub    0x8(%esp),%ebp
  102ce1:	1b 34 24             	sbb    (%esp),%esi
  102ce4:	89 c8                	mov    %ecx,%eax
  102ce6:	89 f9                	mov    %edi,%ecx
  102ce8:	8b 54 24 14          	mov    0x14(%esp),%edx
  102cec:	29 ea                	sub    %ebp,%edx
  102cee:	19 f0                	sbb    %esi,%eax
  102cf0:	d3 ea                	shr    %cl,%edx
  102cf2:	0f b6 4c 24 2c       	movzbl 0x2c(%esp),%ecx
  102cf7:	89 c6                	mov    %eax,%esi
  102cf9:	d3 e6                	shl    %cl,%esi
  102cfb:	89 f9                	mov    %edi,%ecx
  102cfd:	09 f2                	or     %esi,%edx
  102cff:	d3 e8                	shr    %cl,%eax
  102d01:	e9 c8 fe ff ff       	jmp    102bce <__moddi3+0xce>
  102d06:	8d 76 00             	lea    0x0(%esi),%esi
  102d09:	8d bc 27 00 00 00 00 	lea    0x0(%edi,%eiz,1),%edi
  102d10:	8b 44 24 14          	mov    0x14(%esp),%eax
  102d14:	2b 0c 24             	sub    (%esp),%ecx
  102d17:	1b 44 24 04          	sbb    0x4(%esp),%eax
  102d1b:	89 ca                	mov    %ecx,%edx
  102d1d:	e9 ac fe ff ff       	jmp    102bce <__moddi3+0xce>
  102d22:	66 90                	xchg   %ax,%ax
  102d24:	66 90                	xchg   %ax,%ax
  102d26:	66 90                	xchg   %ax,%ax
  102d28:	66 90                	xchg   %ax,%ax
  102d2a:	66 90                	xchg   %ax,%ax
  102d2c:	66 90                	xchg   %ax,%ax
  102d2e:	66 90                	xchg   %ax,%ax

00102d30 <__udivdi3>:
  102d30:	55                   	push   %ebp
  102d31:	57                   	push   %edi
  102d32:	56                   	push   %esi
  102d33:	83 ec 10             	sub    $0x10,%esp
  102d36:	8b 54 24 2c          	mov    0x2c(%esp),%edx
  102d3a:	8b 7c 24 20          	mov    0x20(%esp),%edi
  102d3e:	8b 74 24 24          	mov    0x24(%esp),%esi
  102d42:	8b 4c 24 28          	mov    0x28(%esp),%ecx
  102d46:	85 d2                	test   %edx,%edx
  102d48:	89 7c 24 04          	mov    %edi,0x4(%esp)
  102d4c:	89 34 24             	mov    %esi,(%esp)
  102d4f:	89 c8                	mov    %ecx,%eax
  102d51:	75 3d                	jne    102d90 <__udivdi3+0x60>
  102d53:	39 f1                	cmp    %esi,%ecx
  102d55:	0f 87 c5 00 00 00    	ja     102e20 <__udivdi3+0xf0>
  102d5b:	85 c9                	test   %ecx,%ecx
  102d5d:	89 cd                	mov    %ecx,%ebp
  102d5f:	75 0b                	jne    102d6c <__udivdi3+0x3c>
  102d61:	b8 01 00 00 00       	mov    $0x1,%eax
  102d66:	31 d2                	xor    %edx,%edx
  102d68:	f7 f1                	div    %ecx
  102d6a:	89 c5                	mov    %eax,%ebp
  102d6c:	89 f0                	mov    %esi,%eax
  102d6e:	31 d2                	xor    %edx,%edx
  102d70:	f7 f5                	div    %ebp
  102d72:	89 c6                	mov    %eax,%esi
  102d74:	89 f8                	mov    %edi,%eax
  102d76:	f7 f5                	div    %ebp
  102d78:	89 f2                	mov    %esi,%edx
  102d7a:	83 c4 10             	add    $0x10,%esp
  102d7d:	5e                   	pop    %esi
  102d7e:	5f                   	pop    %edi
  102d7f:	5d                   	pop    %ebp
  102d80:	c3                   	ret    
  102d81:	eb 0d                	jmp    102d90 <__udivdi3+0x60>
  102d83:	90                   	nop
  102d84:	90                   	nop
  102d85:	90                   	nop
  102d86:	90                   	nop
  102d87:	90                   	nop
  102d88:	90                   	nop
  102d89:	90                   	nop
  102d8a:	90                   	nop
  102d8b:	90                   	nop
  102d8c:	90                   	nop
  102d8d:	90                   	nop
  102d8e:	90                   	nop
  102d8f:	90                   	nop
  102d90:	3b 14 24             	cmp    (%esp),%edx
  102d93:	77 7b                	ja     102e10 <__udivdi3+0xe0>
  102d95:	0f bd f2             	bsr    %edx,%esi
  102d98:	83 f6 1f             	xor    $0x1f,%esi
  102d9b:	0f 84 9f 00 00 00    	je     102e40 <__udivdi3+0x110>
  102da1:	bd 20 00 00 00       	mov    $0x20,%ebp
  102da6:	89 d7                	mov    %edx,%edi
  102da8:	89 f1                	mov    %esi,%ecx
  102daa:	29 f5                	sub    %esi,%ebp
  102dac:	d3 e7                	shl    %cl,%edi
  102dae:	89 c2                	mov    %eax,%edx
  102db0:	89 e9                	mov    %ebp,%ecx
  102db2:	d3 ea                	shr    %cl,%edx
  102db4:	89 f1                	mov    %esi,%ecx
  102db6:	09 fa                	or     %edi,%edx
  102db8:	8b 3c 24             	mov    (%esp),%edi
  102dbb:	d3 e0                	shl    %cl,%eax
  102dbd:	89 54 24 08          	mov    %edx,0x8(%esp)
  102dc1:	89 e9                	mov    %ebp,%ecx
  102dc3:	89 44 24 0c          	mov    %eax,0xc(%esp)
  102dc7:	8b 44 24 04          	mov    0x4(%esp),%eax
  102dcb:	89 fa                	mov    %edi,%edx
  102dcd:	d3 ea                	shr    %cl,%edx
  102dcf:	89 f1                	mov    %esi,%ecx
  102dd1:	d3 e7                	shl    %cl,%edi
  102dd3:	89 e9                	mov    %ebp,%ecx
  102dd5:	d3 e8                	shr    %cl,%eax
  102dd7:	09 c7                	or     %eax,%edi
  102dd9:	89 f8                	mov    %edi,%eax
  102ddb:	f7 74 24 08          	divl   0x8(%esp)
  102ddf:	89 d5                	mov    %edx,%ebp
  102de1:	89 c7                	mov    %eax,%edi
  102de3:	f7 64 24 0c          	mull   0xc(%esp)
  102de7:	39 d5                	cmp    %edx,%ebp
  102de9:	89 14 24             	mov    %edx,(%esp)
  102dec:	72 11                	jb     102dff <__udivdi3+0xcf>
  102dee:	8b 54 24 04          	mov    0x4(%esp),%edx
  102df2:	89 f1                	mov    %esi,%ecx
  102df4:	d3 e2                	shl    %cl,%edx
  102df6:	39 c2                	cmp    %eax,%edx
  102df8:	73 66                	jae    102e60 <__udivdi3+0x130>
  102dfa:	3b 2c 24             	cmp    (%esp),%ebp
  102dfd:	75 61                	jne    102e60 <__udivdi3+0x130>
  102dff:	8d 47 ff             	lea    -0x1(%edi),%eax
  102e02:	31 f6                	xor    %esi,%esi
  102e04:	89 f2                	mov    %esi,%edx
  102e06:	83 c4 10             	add    $0x10,%esp
  102e09:	5e                   	pop    %esi
  102e0a:	5f                   	pop    %edi
  102e0b:	5d                   	pop    %ebp
  102e0c:	c3                   	ret    
  102e0d:	8d 76 00             	lea    0x0(%esi),%esi
  102e10:	31 f6                	xor    %esi,%esi
  102e12:	31 c0                	xor    %eax,%eax
  102e14:	89 f2                	mov    %esi,%edx
  102e16:	83 c4 10             	add    $0x10,%esp
  102e19:	5e                   	pop    %esi
  102e1a:	5f                   	pop    %edi
  102e1b:	5d                   	pop    %ebp
  102e1c:	c3                   	ret    
  102e1d:	8d 76 00             	lea    0x0(%esi),%esi
  102e20:	89 f2                	mov    %esi,%edx
  102e22:	31 f6                	xor    %esi,%esi
  102e24:	89 f8                	mov    %edi,%eax
  102e26:	f7 f1                	div    %ecx
  102e28:	89 f2                	mov    %esi,%edx
  102e2a:	83 c4 10             	add    $0x10,%esp
  102e2d:	5e                   	pop    %esi
  102e2e:	5f                   	pop    %edi
  102e2f:	5d                   	pop    %ebp
  102e30:	c3                   	ret    
  102e31:	eb 0d                	jmp    102e40 <__udivdi3+0x110>
  102e33:	90                   	nop
  102e34:	90                   	nop
  102e35:	90                   	nop
  102e36:	90                   	nop
  102e37:	90                   	nop
  102e38:	90                   	nop
  102e39:	90                   	nop
  102e3a:	90                   	nop
  102e3b:	90                   	nop
  102e3c:	90                   	nop
  102e3d:	90                   	nop
  102e3e:	90                   	nop
  102e3f:	90                   	nop
  102e40:	3b 4c 24 04          	cmp    0x4(%esp),%ecx
  102e44:	76 0b                	jbe    102e51 <__udivdi3+0x121>
  102e46:	31 c0                	xor    %eax,%eax
  102e48:	3b 14 24             	cmp    (%esp),%edx
  102e4b:	0f 83 27 ff ff ff    	jae    102d78 <__udivdi3+0x48>
  102e51:	b8 01 00 00 00       	mov    $0x1,%eax
  102e56:	e9 1d ff ff ff       	jmp    102d78 <__udivdi3+0x48>
  102e5b:	90                   	nop
  102e5c:	8d 74 26 00          	lea    0x0(%esi,%eiz,1),%esi
  102e60:	89 f8                	mov    %edi,%eax
  102e62:	31 f6                	xor    %esi,%esi
  102e64:	e9 0f ff ff ff       	jmp    102d78 <__udivdi3+0x48>
  102e69:	66 90                	xchg   %ax,%ax
  102e6b:	66 90                	xchg   %ax,%ax
  102e6d:	66 90                	xchg   %ax,%ax
  102e6f:	90                   	nop

00102e70 <__umoddi3>:
  102e70:	55                   	push   %ebp
  102e71:	57                   	push   %edi
  102e72:	56                   	push   %esi
  102e73:	83 ec 20             	sub    $0x20,%esp
  102e76:	8b 44 24 34          	mov    0x34(%esp),%eax
  102e7a:	8b 4c 24 30          	mov    0x30(%esp),%ecx
  102e7e:	8b 7c 24 38          	mov    0x38(%esp),%edi
  102e82:	89 c6                	mov    %eax,%esi
  102e84:	89 44 24 10          	mov    %eax,0x10(%esp)
  102e88:	8b 44 24 3c          	mov    0x3c(%esp),%eax
  102e8c:	89 4c 24 1c          	mov    %ecx,0x1c(%esp)
  102e90:	89 7c 24 0c          	mov    %edi,0xc(%esp)
  102e94:	89 4c 24 14          	mov    %ecx,0x14(%esp)
  102e98:	89 74 24 18          	mov    %esi,0x18(%esp)
  102e9c:	85 c0                	test   %eax,%eax
  102e9e:	89 c2                	mov    %eax,%edx
  102ea0:	75 1e                	jne    102ec0 <__umoddi3+0x50>
  102ea2:	39 f7                	cmp    %esi,%edi
  102ea4:	76 5a                	jbe    102f00 <__umoddi3+0x90>
  102ea6:	89 c8                	mov    %ecx,%eax
  102ea8:	89 f2                	mov    %esi,%edx
  102eaa:	f7 f7                	div    %edi
  102eac:	89 d0                	mov    %edx,%eax
  102eae:	31 d2                	xor    %edx,%edx
  102eb0:	83 c4 20             	add    $0x20,%esp
  102eb3:	5e                   	pop    %esi
  102eb4:	5f                   	pop    %edi
  102eb5:	5d                   	pop    %ebp
  102eb6:	c3                   	ret    
  102eb7:	89 f6                	mov    %esi,%esi
  102eb9:	8d bc 27 00 00 00 00 	lea    0x0(%edi,%eiz,1),%edi
  102ec0:	39 f0                	cmp    %esi,%eax
  102ec2:	77 5c                	ja     102f20 <__umoddi3+0xb0>
  102ec4:	0f bd e8             	bsr    %eax,%ebp
  102ec7:	83 f5 1f             	xor    $0x1f,%ebp
  102eca:	75 64                	jne    102f30 <__umoddi3+0xc0>
  102ecc:	8b 6c 24 14          	mov    0x14(%esp),%ebp
  102ed0:	39 6c 24 0c          	cmp    %ebp,0xc(%esp)
  102ed4:	0f 86 f6 00 00 00    	jbe    102fd0 <__umoddi3+0x160>
  102eda:	3b 44 24 18          	cmp    0x18(%esp),%eax
  102ede:	0f 82 ec 00 00 00    	jb     102fd0 <__umoddi3+0x160>
  102ee4:	8b 44 24 14          	mov    0x14(%esp),%eax
  102ee8:	8b 54 24 18          	mov    0x18(%esp),%edx
  102eec:	83 c4 20             	add    $0x20,%esp
  102eef:	5e                   	pop    %esi
  102ef0:	5f                   	pop    %edi
  102ef1:	5d                   	pop    %ebp
  102ef2:	c3                   	ret    
  102ef3:	8d b6 00 00 00 00    	lea    0x0(%esi),%esi
  102ef9:	8d bc 27 00 00 00 00 	lea    0x0(%edi,%eiz,1),%edi
  102f00:	85 ff                	test   %edi,%edi
  102f02:	89 fd                	mov    %edi,%ebp
  102f04:	75 0b                	jne    102f11 <__umoddi3+0xa1>
  102f06:	b8 01 00 00 00       	mov    $0x1,%eax
  102f0b:	31 d2                	xor    %edx,%edx
  102f0d:	f7 f7                	div    %edi
  102f0f:	89 c5                	mov    %eax,%ebp
  102f11:	8b 44 24 10          	mov    0x10(%esp),%eax
  102f15:	31 d2                	xor    %edx,%edx
  102f17:	f7 f5                	div    %ebp
  102f19:	89 c8                	mov    %ecx,%eax
  102f1b:	f7 f5                	div    %ebp
  102f1d:	eb 8d                	jmp    102eac <__umoddi3+0x3c>
  102f1f:	90                   	nop
  102f20:	89 c8                	mov    %ecx,%eax
  102f22:	89 f2                	mov    %esi,%edx
  102f24:	83 c4 20             	add    $0x20,%esp
  102f27:	5e                   	pop    %esi
  102f28:	5f                   	pop    %edi
  102f29:	5d                   	pop    %ebp
  102f2a:	c3                   	ret    
  102f2b:	90                   	nop
  102f2c:	8d 74 26 00          	lea    0x0(%esi,%eiz,1),%esi
  102f30:	b8 20 00 00 00       	mov    $0x20,%eax
  102f35:	89 e9                	mov    %ebp,%ecx
  102f37:	29 e8                	sub    %ebp,%eax
  102f39:	d3 e2                	shl    %cl,%edx
  102f3b:	89 c7                	mov    %eax,%edi
  102f3d:	89 44 24 18          	mov    %eax,0x18(%esp)
  102f41:	8b 44 24 0c          	mov    0xc(%esp),%eax
  102f45:	89 f9                	mov    %edi,%ecx
  102f47:	d3 e8                	shr    %cl,%eax
  102f49:	89 c1                	mov    %eax,%ecx
  102f4b:	8b 44 24 0c          	mov    0xc(%esp),%eax
  102f4f:	09 d1                	or     %edx,%ecx
  102f51:	89 fa                	mov    %edi,%edx
  102f53:	89 4c 24 10          	mov    %ecx,0x10(%esp)
  102f57:	89 e9                	mov    %ebp,%ecx
  102f59:	d3 e0                	shl    %cl,%eax
  102f5b:	89 f9                	mov    %edi,%ecx
  102f5d:	89 44 24 0c          	mov    %eax,0xc(%esp)
  102f61:	89 f0                	mov    %esi,%eax
  102f63:	d3 e8                	shr    %cl,%eax
  102f65:	89 e9                	mov    %ebp,%ecx
  102f67:	89 c7                	mov    %eax,%edi
  102f69:	8b 44 24 1c          	mov    0x1c(%esp),%eax
  102f6d:	d3 e6                	shl    %cl,%esi
  102f6f:	89 d1                	mov    %edx,%ecx
  102f71:	89 fa                	mov    %edi,%edx
  102f73:	d3 e8                	shr    %cl,%eax
  102f75:	89 e9                	mov    %ebp,%ecx
  102f77:	09 f0                	or     %esi,%eax
  102f79:	8b 74 24 1c          	mov    0x1c(%esp),%esi
  102f7d:	f7 74 24 10          	divl   0x10(%esp)
  102f81:	d3 e6                	shl    %cl,%esi
  102f83:	89 d1                	mov    %edx,%ecx
  102f85:	f7 64 24 0c          	mull   0xc(%esp)
  102f89:	39 d1                	cmp    %edx,%ecx
  102f8b:	89 74 24 14          	mov    %esi,0x14(%esp)
  102f8f:	89 d7                	mov    %edx,%edi
  102f91:	89 c6                	mov    %eax,%esi
  102f93:	72 0a                	jb     102f9f <__umoddi3+0x12f>
  102f95:	39 44 24 14          	cmp    %eax,0x14(%esp)
  102f99:	73 10                	jae    102fab <__umoddi3+0x13b>
  102f9b:	39 d1                	cmp    %edx,%ecx
  102f9d:	75 0c                	jne    102fab <__umoddi3+0x13b>
  102f9f:	89 d7                	mov    %edx,%edi
  102fa1:	89 c6                	mov    %eax,%esi
  102fa3:	2b 74 24 0c          	sub    0xc(%esp),%esi
  102fa7:	1b 7c 24 10          	sbb    0x10(%esp),%edi
  102fab:	89 ca                	mov    %ecx,%edx
  102fad:	89 e9                	mov    %ebp,%ecx
  102faf:	8b 44 24 14          	mov    0x14(%esp),%eax
  102fb3:	29 f0                	sub    %esi,%eax
  102fb5:	19 fa                	sbb    %edi,%edx
  102fb7:	d3 e8                	shr    %cl,%eax
  102fb9:	0f b6 4c 24 18       	movzbl 0x18(%esp),%ecx
  102fbe:	89 d7                	mov    %edx,%edi
  102fc0:	d3 e7                	shl    %cl,%edi
  102fc2:	89 e9                	mov    %ebp,%ecx
  102fc4:	09 f8                	or     %edi,%eax
  102fc6:	d3 ea                	shr    %cl,%edx
  102fc8:	83 c4 20             	add    $0x20,%esp
  102fcb:	5e                   	pop    %esi
  102fcc:	5f                   	pop    %edi
  102fcd:	5d                   	pop    %ebp
  102fce:	c3                   	ret    
  102fcf:	90                   	nop
  102fd0:	8b 74 24 10          	mov    0x10(%esp),%esi
  102fd4:	29 f9                	sub    %edi,%ecx
  102fd6:	19 c6                	sbb    %eax,%esi
  102fd8:	89 4c 24 14          	mov    %ecx,0x14(%esp)
  102fdc:	89 74 24 18          	mov    %esi,0x18(%esp)
  102fe0:	e9 ff fe ff ff       	jmp    102ee4 <__umoddi3+0x74>

Disassembly of section .init:

00102fe5 <_init>:
  102fe5:	55                   	push   %ebp
  102fe6:	89 e5                	mov    %esp,%ebp
  102fe8:	e8 33 d1 ff ff       	call   100120 <frame_dummy>
  102fed:	e8 ee f8 ff ff       	call   1028e0 <__do_global_ctors_aux>
  102ff2:	5d                   	pop    %ebp
  102ff3:	c3                   	ret    

Disassembly of section .fini:

00102ff4 <_fini>:
  102ff4:	55                   	push   %ebp
  102ff5:	89 e5                	mov    %esp,%ebp
  102ff7:	e8 a4 d0 ff ff       	call   1000a0 <__do_global_dtors_aux>
  102ffc:	5d                   	pop    %ebp
  102ffd:	c3                   	ret    
