
build/RELEASE/kernel.bin:     file format elf32-i386


Disassembly of section .text:

01000000 <timerHandler-0x30>:
 1000000:	02 b0 ad 1b 07 00    	add    0x71bad(%eax),%dh
 1000006:	00 00                	add    %al,(%eax)
 1000008:	f7                   	(bad)  
 1000009:	4f                   	dec    %edi
 100000a:	52                   	push   %edx
 100000b:	e4 00                	in     $0x0,%al
	...
 1000021:	00 00                	add    %al,(%eax)
 1000023:	00 80 07 00 00 38    	add    %al,0x38000007(%eax)
 1000029:	04 00                	add    $0x0,%al
 100002b:	00 20                	add    %ah,(%eax)
 100002d:	00 00                	add    %al,(%eax)
	...

01000030 <timerHandler>:
 1000030:	55                   	push   %ebp
 1000031:	89 e5                	mov    %esp,%ebp
 1000033:	56                   	push   %esi
 1000034:	83 e4 f8             	and    $0xfffffff8,%esp
 1000037:	83 ec 50             	sub    $0x50,%esp
 100003a:	a1 28 f0 a8 04       	mov    0x4a8f028,%eax
 100003f:	40                   	inc    %eax
 1000040:	a3 28 f0 a8 04       	mov    %eax,0x4a8f028
 1000045:	e8 06 52 00 00       	call   1005250 <graphics_Clear>
 100004a:	a1 00 b0 84 01       	mov    0x184b000,%eax
 100004f:	89 e1                	mov    %esp,%ecx
 1000051:	89 01                	mov    %eax,(%ecx)
 1000053:	c7 41 10 38 04 00 00 	movl   $0x438,0x10(%ecx)
 100005a:	c7 41 0c 80 07 00 00 	movl   $0x780,0xc(%ecx)
 1000061:	c7 41 08 00 00 00 00 	movl   $0x0,0x8(%ecx)
 1000068:	c7 41 04 00 00 00 00 	movl   $0x0,0x4(%ecx)
 100006f:	e8 1c 58 00 00       	call   1005890 <graphics_DrawBuffer>
 1000074:	89 e0                	mov    %esp,%eax
 1000076:	8d 4c 24 40          	lea    0x40(%esp),%ecx
 100007a:	89 08                	mov    %ecx,(%eax)
 100007c:	e8 9f 2d 00 00       	call   1002e20 <CMOS_GetRTCTime>
 1000081:	a1 28 f0 a8 04       	mov    0x4a8f028,%eax
 1000086:	89 c1                	mov    %eax,%ecx
 1000088:	c1 f9 1f             	sar    $0x1f,%ecx
 100008b:	89 e2                	mov    %esp,%edx
 100008d:	89 4a 04             	mov    %ecx,0x4(%edx)
 1000090:	89 02                	mov    %eax,(%edx)
 1000092:	c7 42 10 10 00 00 00 	movl   $0x10,0x10(%edx)
 1000099:	c7 42 0c 00 00 00 00 	movl   $0x0,0xc(%edx)
 10000a0:	c7 42 08 02 00 00 00 	movl   $0x2,0x8(%edx)
 10000a7:	e8 24 54 00 00       	call   10054d0 <graphics_WriteUInt64>
 10000ac:	b8 10 00 00 00       	mov    $0x10,%eax
 10000b1:	b9 00 00 00 00       	mov    $0x0,%ecx
 10000b6:	ba 20 00 00 00       	mov    $0x20,%edx
 10000bb:	8b 35 2c f0 a8 04    	mov    0x4a8f02c,%esi
 10000c1:	89 34 24             	mov    %esi,(%esp)
 10000c4:	c7 44 24 04 10 00 00 	movl   $0x10,0x4(%esp)
 10000cb:	00 
 10000cc:	c7 44 24 08 00 00 00 	movl   $0x0,0x8(%esp)
 10000d3:	00 
 10000d4:	c7 44 24 0c 20 00 00 	movl   $0x20,0xc(%esp)
 10000db:	00 
 10000dc:	89 44 24 3c          	mov    %eax,0x3c(%esp)
 10000e0:	89 4c 24 38          	mov    %ecx,0x38(%esp)
 10000e4:	89 54 24 34          	mov    %edx,0x34(%esp)
 10000e8:	e8 13 53 00 00       	call   1005400 <graphics_WriteUInt32>
 10000ed:	b8 0a 00 00 00       	mov    $0xa,%eax
 10000f2:	b9 00 00 00 00       	mov    $0x0,%ecx
 10000f7:	ba 30 00 00 00       	mov    $0x30,%edx
 10000fc:	0f b6 74 24 40       	movzbl 0x40(%esp),%esi
 1000101:	89 34 24             	mov    %esi,(%esp)
 1000104:	c7 44 24 04 0a 00 00 	movl   $0xa,0x4(%esp)
 100010b:	00 
 100010c:	c7 44 24 08 00 00 00 	movl   $0x0,0x8(%esp)
 1000113:	00 
 1000114:	c7 44 24 0c 30 00 00 	movl   $0x30,0xc(%esp)
 100011b:	00 
 100011c:	89 44 24 30          	mov    %eax,0x30(%esp)
 1000120:	89 4c 24 2c          	mov    %ecx,0x2c(%esp)
 1000124:	89 54 24 28          	mov    %edx,0x28(%esp)
 1000128:	e8 d3 52 00 00       	call   1005400 <graphics_WriteUInt32>
 100012d:	b8 68 02 00 00       	mov    $0x268,%eax
 1000132:	b9 0a 00 00 00       	mov    $0xa,%ecx
 1000137:	ba 00 00 00 00       	mov    $0x0,%edx
 100013c:	be 40 00 00 00       	mov    $0x40,%esi
 1000141:	c7 04 24 68 02 00 00 	movl   $0x268,(%esp)
 1000148:	c7 44 24 04 0a 00 00 	movl   $0xa,0x4(%esp)
 100014f:	00 
 1000150:	c7 44 24 08 00 00 00 	movl   $0x0,0x8(%esp)
 1000157:	00 
 1000158:	c7 44 24 0c 40 00 00 	movl   $0x40,0xc(%esp)
 100015f:	00 
 1000160:	89 44 24 24          	mov    %eax,0x24(%esp)
 1000164:	89 4c 24 20          	mov    %ecx,0x20(%esp)
 1000168:	89 54 24 1c          	mov    %edx,0x1c(%esp)
 100016c:	89 74 24 18          	mov    %esi,0x18(%esp)
 1000170:	e8 8b 52 00 00       	call   1005400 <graphics_WriteUInt32>
 1000175:	e8 36 50 00 00       	call   10051b0 <graphics_SwapBuffer>
 100017a:	8d 65 fc             	lea    -0x4(%ebp),%esp
 100017d:	5e                   	pop    %esi
 100017e:	5d                   	pop    %ebp
 100017f:	c3                   	ret    

01000180 <setup_kernel_core>:
 1000180:	55                   	push   %ebp
 1000181:	89 e5                	mov    %esp,%ebp
 1000183:	83 ec 48             	sub    $0x48,%esp
 1000186:	8b 45 0c             	mov    0xc(%ebp),%eax
 1000189:	8b 4d 08             	mov    0x8(%ebp),%ecx
 100018c:	89 4d fc             	mov    %ecx,-0x4(%ebp)
 100018f:	89 45 f8             	mov    %eax,-0x8(%ebp)
 1000192:	e8 f9 02 00 00       	call   1000490 <GDT_Initialize>
 1000197:	e8 a4 05 00 00       	call   1000740 <IDT_Initialize>
 100019c:	e8 3f 0a 00 00       	call   1000be0 <COM_Initialize>
 10001a1:	e8 3a 0c 00 00       	call   1000de0 <ACPITables_Initialize>
 10001a6:	88 45 f3             	mov    %al,-0xd(%ebp)
 10001a9:	e8 d2 21 00 00       	call   1002380 <bootstrap_setup>
 10001ae:	b9 14 00 00 00       	mov    $0x14,%ecx
 10001b3:	c7 04 24 14 00 00 00 	movl   $0x14,(%esp)
 10001ba:	89 4d ec             	mov    %ecx,-0x14(%ebp)
 10001bd:	e8 ae 22 00 00       	call   1002470 <bootstrap_malloc>
 10001c2:	b9 14 00 00 00       	mov    $0x14,%ecx
 10001c7:	a3 24 b0 84 01       	mov    %eax,0x184b024
 10001cc:	a1 24 b0 84 01       	mov    0x184b024,%eax
 10001d1:	8b 55 fc             	mov    -0x4(%ebp),%edx
 10001d4:	8b 52 48             	mov    0x48(%edx),%edx
 10001d7:	89 04 24             	mov    %eax,(%esp)
 10001da:	89 54 24 04          	mov    %edx,0x4(%esp)
 10001de:	c7 44 24 08 14 00 00 	movl   $0x14,0x8(%esp)
 10001e5:	00 
 10001e6:	89 4d e8             	mov    %ecx,-0x18(%ebp)
 10001e9:	e8 c2 35 00 00       	call   10037b0 <memcpy>
 10001ee:	b9 32 00 00 00       	mov    $0x32,%ecx
 10001f3:	c7 04 24 32 00 00 00 	movl   $0x32,(%esp)
 10001fa:	89 45 e4             	mov    %eax,-0x1c(%ebp)
 10001fd:	89 4d e0             	mov    %ecx,-0x20(%ebp)
 1000200:	e8 6b 22 00 00       	call   1002470 <bootstrap_malloc>
 1000205:	b9 32 00 00 00       	mov    $0x32,%ecx
 100020a:	a3 0c b0 84 01       	mov    %eax,0x184b00c
 100020f:	a1 0c b0 84 01       	mov    0x184b00c,%eax
 1000214:	8b 55 fc             	mov    -0x4(%ebp),%edx
 1000217:	8b 52 4c             	mov    0x4c(%edx),%edx
 100021a:	89 04 24             	mov    %eax,(%esp)
 100021d:	89 54 24 04          	mov    %edx,0x4(%esp)
 1000221:	c7 44 24 08 32 00 00 	movl   $0x32,0x8(%esp)
 1000228:	00 
 1000229:	89 4d dc             	mov    %ecx,-0x24(%ebp)
 100022c:	e8 7f 35 00 00       	call   10037b0 <memcpy>
 1000231:	b9 78 00 00 00       	mov    $0x78,%ecx
 1000236:	c7 04 24 78 00 00 00 	movl   $0x78,(%esp)
 100023d:	89 45 d8             	mov    %eax,-0x28(%ebp)
 1000240:	89 4d d4             	mov    %ecx,-0x2c(%ebp)
 1000243:	e8 28 22 00 00       	call   1002470 <bootstrap_malloc>
 1000248:	b9 78 00 00 00       	mov    $0x78,%ecx
 100024d:	a3 1c b0 84 01       	mov    %eax,0x184b01c
 1000252:	a1 1c b0 84 01       	mov    0x184b01c,%eax
 1000257:	8b 55 fc             	mov    -0x4(%ebp),%edx
 100025a:	89 04 24             	mov    %eax,(%esp)
 100025d:	89 54 24 04          	mov    %edx,0x4(%esp)
 1000261:	c7 44 24 08 78 00 00 	movl   $0x78,0x8(%esp)
 1000268:	00 
 1000269:	89 4d d0             	mov    %ecx,-0x30(%ebp)
 100026c:	e8 3f 35 00 00       	call   10037b0 <memcpy>
 1000271:	8b 4d fc             	mov    -0x4(%ebp),%ecx
 1000274:	8b 49 2c             	mov    0x2c(%ecx),%ecx
 1000277:	89 0d 18 b0 84 01    	mov    %ecx,0x184b018
 100027d:	8b 0d 18 b0 84 01    	mov    0x184b018,%ecx
 1000283:	89 0c 24             	mov    %ecx,(%esp)
 1000286:	89 45 cc             	mov    %eax,-0x34(%ebp)
 1000289:	e8 e2 21 00 00       	call   1002470 <bootstrap_malloc>
 100028e:	a3 14 b0 84 01       	mov    %eax,0x184b014
 1000293:	a1 14 b0 84 01       	mov    0x184b014,%eax
 1000298:	8b 4d fc             	mov    -0x4(%ebp),%ecx
 100029b:	8b 49 30             	mov    0x30(%ecx),%ecx
 100029e:	8b 15 18 b0 84 01    	mov    0x184b018,%edx
 10002a4:	89 04 24             	mov    %eax,(%esp)
 10002a7:	89 4c 24 04          	mov    %ecx,0x4(%esp)
 10002ab:	89 54 24 08          	mov    %edx,0x8(%esp)
 10002af:	e8 fc 34 00 00       	call   10037b0 <memcpy>
 10002b4:	89 45 c8             	mov    %eax,-0x38(%ebp)
 10002b7:	e8 d4 22 00 00       	call   1002590 <Interrupts_Setup>
 10002bc:	e8 df 29 00 00       	call   1002ca0 <CMOS_Initialize>
 10002c1:	e8 ca 2f 00 00       	call   1003290 <FPU_Initialize>
 10002c6:	e8 e5 8f 00 00       	call   10092b0 <pci_Initialize>
 10002cb:	e8 70 59 00 00       	call   1005c40 <physMemMan_Setup>
 10002d0:	e8 0b 76 00 00       	call   10078e0 <virtMemMan_Setup>
 10002d5:	e8 36 24 00 00       	call   1002710 <Interrupts_Virtualize>
 10002da:	e8 51 4d 00 00       	call   1005030 <graphics_Initialize>
 10002df:	e8 7c 9d 00 00       	call   100a060 <kmalloc_init>
 10002e4:	e8 c7 71 00 00       	call   10074b0 <Timers_Setup>
 10002e9:	e8 82 6b 00 00       	call   1006e70 <ThreadMan_Setup>
 10002ee:	b8 10 90 7e 00       	mov    $0x7e9010,%eax
 10002f3:	c7 04 24 10 90 7e 00 	movl   $0x7e9010,(%esp)
 10002fa:	89 45 c4             	mov    %eax,-0x3c(%ebp)
 10002fd:	e8 4e 9f 00 00       	call   100a250 <kmalloc>
 1000302:	a3 00 b0 84 01       	mov    %eax,0x184b000
 1000307:	a1 00 b0 84 01       	mov    0x184b000,%eax
 100030c:	83 c0 10             	add    $0x10,%eax
 100030f:	a3 00 b0 84 01       	mov    %eax,0x184b000
 1000314:	a1 00 b0 84 01       	mov    0x184b000,%eax
 1000319:	83 e0 f0             	and    $0xfffffff0,%eax
 100031c:	a3 00 b0 84 01       	mov    %eax,0x184b000
 1000321:	c7 05 20 b0 84 01 00 	movl   $0x0,0x184b020
 1000328:	00 00 00 
 100032b:	a1 20 b0 84 01       	mov    0x184b020,%eax
 1000330:	3b 05 00 e0 82 01    	cmp    0x182e000,%eax
 1000336:	0f 83 16 01 00 00    	jae    1000452 <setup_kernel_core+0x2d2>
 100033c:	c7 05 04 b0 84 01 00 	movl   $0x0,0x184b004
 1000343:	00 00 00 
 1000346:	a1 04 b0 84 01       	mov    0x184b004,%eax
 100034b:	3b 05 04 e0 82 01    	cmp    0x182e004,%eax
 1000351:	0f 83 e7 00 00 00    	jae    100043e <setup_kernel_core+0x2be>
 1000357:	a1 08 e0 82 01       	mov    0x182e008,%eax
 100035c:	0f be 00             	movsbl (%eax),%eax
 100035f:	83 e8 21             	sub    $0x21,%eax
 1000362:	c1 e0 02             	shl    $0x2,%eax
 1000365:	8b 0d 08 e0 82 01    	mov    0x182e008,%ecx
 100036b:	0f be 49 01          	movsbl 0x1(%ecx),%ecx
 100036f:	83 e9 21             	sub    $0x21,%ecx
 1000372:	c1 f9 04             	sar    $0x4,%ecx
 1000375:	09 c8                	or     %ecx,%eax
 1000377:	88 c2                	mov    %al,%dl
 1000379:	88 55 f4             	mov    %dl,-0xc(%ebp)
 100037c:	a1 08 e0 82 01       	mov    0x182e008,%eax
 1000381:	0f be 40 01          	movsbl 0x1(%eax),%eax
 1000385:	83 e8 21             	sub    $0x21,%eax
 1000388:	83 e0 0f             	and    $0xf,%eax
 100038b:	c1 e0 04             	shl    $0x4,%eax
 100038e:	8b 0d 08 e0 82 01    	mov    0x182e008,%ecx
 1000394:	0f be 49 02          	movsbl 0x2(%ecx),%ecx
 1000398:	83 e9 21             	sub    $0x21,%ecx
 100039b:	c1 f9 02             	sar    $0x2,%ecx
 100039e:	09 c8                	or     %ecx,%eax
 10003a0:	88 c2                	mov    %al,%dl
 10003a2:	88 55 f5             	mov    %dl,-0xb(%ebp)
 10003a5:	a1 08 e0 82 01       	mov    0x182e008,%eax
 10003aa:	0f be 40 02          	movsbl 0x2(%eax),%eax
 10003ae:	83 e8 21             	sub    $0x21,%eax
 10003b1:	83 e0 03             	and    $0x3,%eax
 10003b4:	c1 e0 06             	shl    $0x6,%eax
 10003b7:	8b 0d 08 e0 82 01    	mov    0x182e008,%ecx
 10003bd:	0f be 49 03          	movsbl 0x3(%ecx),%ecx
 10003c1:	83 e9 21             	sub    $0x21,%ecx
 10003c4:	09 c8                	or     %ecx,%eax
 10003c6:	88 c2                	mov    %al,%dl
 10003c8:	88 55 f6             	mov    %dl,-0xa(%ebp)
 10003cb:	a1 08 e0 82 01       	mov    0x182e008,%eax
 10003d0:	83 c0 04             	add    $0x4,%eax
 10003d3:	a3 08 e0 82 01       	mov    %eax,0x182e008
 10003d8:	8a 55 f6             	mov    -0xa(%ebp),%dl
 10003db:	a1 40 f0 a8 04       	mov    0x4a8f040,%eax
 10003e0:	8b 0d 00 b0 84 01    	mov    0x184b000,%ecx
 10003e6:	88 14 01             	mov    %dl,(%ecx,%eax,1)
 10003e9:	8a 55 f5             	mov    -0xb(%ebp),%dl
 10003ec:	a1 40 f0 a8 04       	mov    0x4a8f040,%eax
 10003f1:	8b 0d 00 b0 84 01    	mov    0x184b000,%ecx
 10003f7:	88 54 01 01          	mov    %dl,0x1(%ecx,%eax,1)
 10003fb:	8a 55 f4             	mov    -0xc(%ebp),%dl
 10003fe:	a1 40 f0 a8 04       	mov    0x4a8f040,%eax
 1000403:	8b 0d 00 b0 84 01    	mov    0x184b000,%ecx
 1000409:	88 54 01 02          	mov    %dl,0x2(%ecx,%eax,1)
 100040d:	8a 55 f7             	mov    -0x9(%ebp),%dl
 1000410:	a1 40 f0 a8 04       	mov    0x4a8f040,%eax
 1000415:	8b 0d 00 b0 84 01    	mov    0x184b000,%ecx
 100041b:	88 54 01 03          	mov    %dl,0x3(%ecx,%eax,1)
 100041f:	a1 40 f0 a8 04       	mov    0x4a8f040,%eax
 1000424:	83 c0 04             	add    $0x4,%eax
 1000427:	a3 40 f0 a8 04       	mov    %eax,0x4a8f040
 100042c:	a1 04 b0 84 01       	mov    0x184b004,%eax
 1000431:	83 c0 01             	add    $0x1,%eax
 1000434:	a3 04 b0 84 01       	mov    %eax,0x184b004
 1000439:	e9 08 ff ff ff       	jmp    1000346 <setup_kernel_core+0x1c6>
 100043e:	eb 00                	jmp    1000440 <setup_kernel_core+0x2c0>
 1000440:	a1 20 b0 84 01       	mov    0x184b020,%eax
 1000445:	83 c0 01             	add    $0x1,%eax
 1000448:	a3 20 b0 84 01       	mov    %eax,0x184b020
 100044d:	e9 d9 fe ff ff       	jmp    100032b <setup_kernel_core+0x1ab>
 1000452:	e8 09 56 00 00       	call   1005a60 <Keyboard_Setup>
 1000457:	e8 24 28 00 00       	call   1002c80 <Interrupts_Unlock>
 100045c:	f4                   	hlt    
 100045d:	eb fd                	jmp    100045c <setup_kernel_core+0x2dc>
 100045f:	90                   	nop

01000460 <kernel_main>:
 1000460:	55                   	push   %ebp
 1000461:	89 e5                	mov    %esp,%ebp
 1000463:	83 ec 0c             	sub    $0xc,%esp
 1000466:	8b 45 0c             	mov    0xc(%ebp),%eax
 1000469:	8b 4d 08             	mov    0x8(%ebp),%ecx
 100046c:	89 4d fc             	mov    %ecx,-0x4(%ebp)
 100046f:	89 45 f8             	mov    %eax,-0x8(%ebp)
 1000472:	bb 00 00 00 00       	mov    $0x0,%ebx
 1000477:	8d 05 f0 b0 00 01    	lea    0x100b0f0,%eax
 100047d:	89 04 24             	mov    %eax,(%esp)
 1000480:	e8 9b 08 00 00       	call   1000d20 <COM_WriteStr>
 1000485:	b8 ef be ad de       	mov    $0xdeadbeef,%eax
 100048a:	43                   	inc    %ebx
 100048b:	fb                   	sti    
 100048c:	eb e9                	jmp    1000477 <kernel_main+0x17>
 100048e:	66 90                	xchg   %ax,%ax

01000490 <GDT_Initialize>:
 1000490:	55                   	push   %ebp
 1000491:	89 e5                	mov    %esp,%ebp
 1000493:	57                   	push   %edi
 1000494:	56                   	push   %esi
 1000495:	83 ec 68             	sub    $0x68,%esp
 1000498:	fa                   	cli    
 1000499:	b8 00 00 00 00       	mov    $0x0,%eax
 100049e:	8d 0d 2e b0 84 01    	lea    0x184b02e,%ecx
 10004a4:	66 c7 05 28 b0 84 01 	movw   $0x27,0x184b028
 10004ab:	27 00 
 10004ad:	89 0d 2a b0 84 01    	mov    %ecx,0x184b02a
 10004b3:	c7 04 24 00 00 00 00 	movl   $0x0,(%esp)
 10004ba:	c7 44 24 04 00 00 00 	movl   $0x0,0x4(%esp)
 10004c1:	00 
 10004c2:	c7 44 24 08 00 00 00 	movl   $0x0,0x8(%esp)
 10004c9:	00 
 10004ca:	c7 44 24 0c 00 00 00 	movl   $0x0,0xc(%esp)
 10004d1:	00 
 10004d2:	c7 44 24 10 00 00 00 	movl   $0x0,0x10(%esp)
 10004d9:	00 
 10004da:	89 45 f4             	mov    %eax,-0xc(%ebp)
 10004dd:	e8 7e 01 00 00       	call   1000660 <GDT_SetEntry>
 10004e2:	b8 01 00 00 00       	mov    $0x1,%eax
 10004e7:	b9 00 00 00 00       	mov    $0x0,%ecx
 10004ec:	ba ff ff ff ff       	mov    $0xffffffff,%edx
 10004f1:	be 9a 00 00 00       	mov    $0x9a,%esi
 10004f6:	bf cf 00 00 00       	mov    $0xcf,%edi
 10004fb:	c7 04 24 01 00 00 00 	movl   $0x1,(%esp)
 1000502:	c7 44 24 04 00 00 00 	movl   $0x0,0x4(%esp)
 1000509:	00 
 100050a:	c7 44 24 08 ff ff ff 	movl   $0xffffffff,0x8(%esp)
 1000511:	ff 
 1000512:	c7 44 24 0c 9a 00 00 	movl   $0x9a,0xc(%esp)
 1000519:	00 
 100051a:	c7 44 24 10 cf 00 00 	movl   $0xcf,0x10(%esp)
 1000521:	00 
 1000522:	89 45 f0             	mov    %eax,-0x10(%ebp)
 1000525:	89 4d ec             	mov    %ecx,-0x14(%ebp)
 1000528:	89 55 e8             	mov    %edx,-0x18(%ebp)
 100052b:	89 75 e4             	mov    %esi,-0x1c(%ebp)
 100052e:	89 7d e0             	mov    %edi,-0x20(%ebp)
 1000531:	e8 2a 01 00 00       	call   1000660 <GDT_SetEntry>
 1000536:	b8 02 00 00 00       	mov    $0x2,%eax
 100053b:	b9 00 00 00 00       	mov    $0x0,%ecx
 1000540:	ba ff ff ff ff       	mov    $0xffffffff,%edx
 1000545:	be 92 00 00 00       	mov    $0x92,%esi
 100054a:	bf cf 00 00 00       	mov    $0xcf,%edi
 100054f:	c7 04 24 02 00 00 00 	movl   $0x2,(%esp)
 1000556:	c7 44 24 04 00 00 00 	movl   $0x0,0x4(%esp)
 100055d:	00 
 100055e:	c7 44 24 08 ff ff ff 	movl   $0xffffffff,0x8(%esp)
 1000565:	ff 
 1000566:	c7 44 24 0c 92 00 00 	movl   $0x92,0xc(%esp)
 100056d:	00 
 100056e:	c7 44 24 10 cf 00 00 	movl   $0xcf,0x10(%esp)
 1000575:	00 
 1000576:	89 45 dc             	mov    %eax,-0x24(%ebp)
 1000579:	89 4d d8             	mov    %ecx,-0x28(%ebp)
 100057c:	89 55 d4             	mov    %edx,-0x2c(%ebp)
 100057f:	89 75 d0             	mov    %esi,-0x30(%ebp)
 1000582:	89 7d cc             	mov    %edi,-0x34(%ebp)
 1000585:	e8 d6 00 00 00       	call   1000660 <GDT_SetEntry>
 100058a:	b8 03 00 00 00       	mov    $0x3,%eax
 100058f:	b9 00 00 00 00       	mov    $0x0,%ecx
 1000594:	ba ff ff ff ff       	mov    $0xffffffff,%edx
 1000599:	be fa 00 00 00       	mov    $0xfa,%esi
 100059e:	bf cf 00 00 00       	mov    $0xcf,%edi
 10005a3:	c7 04 24 03 00 00 00 	movl   $0x3,(%esp)
 10005aa:	c7 44 24 04 00 00 00 	movl   $0x0,0x4(%esp)
 10005b1:	00 
 10005b2:	c7 44 24 08 ff ff ff 	movl   $0xffffffff,0x8(%esp)
 10005b9:	ff 
 10005ba:	c7 44 24 0c fa 00 00 	movl   $0xfa,0xc(%esp)
 10005c1:	00 
 10005c2:	c7 44 24 10 cf 00 00 	movl   $0xcf,0x10(%esp)
 10005c9:	00 
 10005ca:	89 45 c8             	mov    %eax,-0x38(%ebp)
 10005cd:	89 4d c4             	mov    %ecx,-0x3c(%ebp)
 10005d0:	89 55 c0             	mov    %edx,-0x40(%ebp)
 10005d3:	89 75 bc             	mov    %esi,-0x44(%ebp)
 10005d6:	89 7d b8             	mov    %edi,-0x48(%ebp)
 10005d9:	e8 82 00 00 00       	call   1000660 <GDT_SetEntry>
 10005de:	b8 04 00 00 00       	mov    $0x4,%eax
 10005e3:	b9 00 00 00 00       	mov    $0x0,%ecx
 10005e8:	ba ff ff ff ff       	mov    $0xffffffff,%edx
 10005ed:	be f2 00 00 00       	mov    $0xf2,%esi
 10005f2:	bf cf 00 00 00       	mov    $0xcf,%edi
 10005f7:	c7 04 24 04 00 00 00 	movl   $0x4,(%esp)
 10005fe:	c7 44 24 04 00 00 00 	movl   $0x0,0x4(%esp)
 1000605:	00 
 1000606:	c7 44 24 08 ff ff ff 	movl   $0xffffffff,0x8(%esp)
 100060d:	ff 
 100060e:	c7 44 24 0c f2 00 00 	movl   $0xf2,0xc(%esp)
 1000615:	00 
 1000616:	c7 44 24 10 cf 00 00 	movl   $0xcf,0x10(%esp)
 100061d:	00 
 100061e:	89 45 b4             	mov    %eax,-0x4c(%ebp)
 1000621:	89 4d b0             	mov    %ecx,-0x50(%ebp)
 1000624:	89 55 ac             	mov    %edx,-0x54(%ebp)
 1000627:	89 75 a8             	mov    %esi,-0x58(%ebp)
 100062a:	89 7d a4             	mov    %edi,-0x5c(%ebp)
 100062d:	e8 2e 00 00 00       	call   1000660 <GDT_SetEntry>
 1000632:	b8 28 b0 84 01       	mov    $0x184b028,%eax
 1000637:	0f 01 10             	lgdtl  (%eax)
 100063a:	ea 41 06 00 01 08 00 	ljmp   $0x8,$0x1000641

01000641 <flush>:
 1000641:	66 b8 10 00          	mov    $0x10,%ax
 1000645:	8e d8                	mov    %eax,%ds
 1000647:	8e c0                	mov    %eax,%es
 1000649:	8e e0                	mov    %eax,%fs
 100064b:	8e e8                	mov    %eax,%gs
 100064d:	8e d0                	mov    %eax,%ss
 100064f:	83 c4 68             	add    $0x68,%esp
 1000652:	5e                   	pop    %esi
 1000653:	5f                   	pop    %edi
 1000654:	5d                   	pop    %ebp
 1000655:	c3                   	ret    
 1000656:	8d 76 00             	lea    0x0(%esi),%esi
 1000659:	8d bc 27 00 00 00 00 	lea    0x0(%edi,%eiz,1),%edi

01000660 <GDT_SetEntry>:
 1000660:	55                   	push   %ebp
 1000661:	89 e5                	mov    %esp,%ebp
 1000663:	53                   	push   %ebx
 1000664:	57                   	push   %edi
 1000665:	56                   	push   %esi
 1000666:	83 ec 10             	sub    $0x10,%esp
 1000669:	8a 45 18             	mov    0x18(%ebp),%al
 100066c:	8a 4d 14             	mov    0x14(%ebp),%cl
 100066f:	8b 55 10             	mov    0x10(%ebp),%edx
 1000672:	8b 75 0c             	mov    0xc(%ebp),%esi
 1000675:	8b 7d 08             	mov    0x8(%ebp),%edi
 1000678:	89 7d f0             	mov    %edi,-0x10(%ebp)
 100067b:	89 75 ec             	mov    %esi,-0x14(%ebp)
 100067e:	89 55 e8             	mov    %edx,-0x18(%ebp)
 1000681:	88 4d e7             	mov    %cl,-0x19(%ebp)
 1000684:	88 45 e6             	mov    %al,-0x1a(%ebp)
 1000687:	8b 55 ec             	mov    -0x14(%ebp),%edx
 100068a:	81 e2 ff ff 00 00    	and    $0xffff,%edx
 1000690:	66 89 d3             	mov    %dx,%bx
 1000693:	8b 55 f0             	mov    -0x10(%ebp),%edx
 1000696:	66 89 1c d5 30 b0 84 	mov    %bx,0x184b030(,%edx,8)
 100069d:	01 
 100069e:	8b 55 ec             	mov    -0x14(%ebp),%edx
 10006a1:	c1 ea 10             	shr    $0x10,%edx
 10006a4:	81 e2 ff 00 00 00    	and    $0xff,%edx
 10006aa:	88 d0                	mov    %dl,%al
 10006ac:	8b 55 f0             	mov    -0x10(%ebp),%edx
 10006af:	88 04 d5 32 b0 84 01 	mov    %al,0x184b032(,%edx,8)
 10006b6:	8b 55 ec             	mov    -0x14(%ebp),%edx
 10006b9:	c1 ea 18             	shr    $0x18,%edx
 10006bc:	81 e2 ff 00 00 00    	and    $0xff,%edx
 10006c2:	88 d0                	mov    %dl,%al
 10006c4:	8b 55 f0             	mov    -0x10(%ebp),%edx
 10006c7:	88 04 d5 35 b0 84 01 	mov    %al,0x184b035(,%edx,8)
 10006ce:	8b 55 e8             	mov    -0x18(%ebp),%edx
 10006d1:	81 e2 ff ff 00 00    	and    $0xffff,%edx
 10006d7:	66 89 d3             	mov    %dx,%bx
 10006da:	8b 55 f0             	mov    -0x10(%ebp),%edx
 10006dd:	66 89 1c d5 2e b0 84 	mov    %bx,0x184b02e(,%edx,8)
 10006e4:	01 
 10006e5:	8b 55 e8             	mov    -0x18(%ebp),%edx
 10006e8:	c1 ea 10             	shr    $0x10,%edx
 10006eb:	83 e2 0f             	and    $0xf,%edx
 10006ee:	88 d0                	mov    %dl,%al
 10006f0:	8b 55 f0             	mov    -0x10(%ebp),%edx
 10006f3:	88 04 d5 34 b0 84 01 	mov    %al,0x184b034(,%edx,8)
 10006fa:	0f b6 55 e6          	movzbl -0x1a(%ebp),%edx
 10006fe:	81 e2 f0 00 00 00    	and    $0xf0,%edx
 1000704:	8b 75 f0             	mov    -0x10(%ebp),%esi
 1000707:	0f b6 3c f5 34 b0 84 	movzbl 0x184b034(,%esi,8),%edi
 100070e:	01 
 100070f:	09 d7                	or     %edx,%edi
 1000711:	89 fa                	mov    %edi,%edx
 1000713:	88 d0                	mov    %dl,%al
 1000715:	88 04 f5 34 b0 84 01 	mov    %al,0x184b034(,%esi,8)
 100071c:	8a 45 e7             	mov    -0x19(%ebp),%al
 100071f:	8b 55 f0             	mov    -0x10(%ebp),%edx
 1000722:	88 04 d5 33 b0 84 01 	mov    %al,0x184b033(,%edx,8)
 1000729:	83 c4 10             	add    $0x10,%esp
 100072c:	5e                   	pop    %esi
 100072d:	5f                   	pop    %edi
 100072e:	5b                   	pop    %ebx
 100072f:	5d                   	pop    %ebp
 1000730:	c3                   	ret    
 1000731:	66 90                	xchg   %ax,%ax
 1000733:	66 90                	xchg   %ax,%ax
 1000735:	66 90                	xchg   %ax,%ax
 1000737:	66 90                	xchg   %ax,%ax
 1000739:	66 90                	xchg   %ax,%ax
 100073b:	66 90                	xchg   %ax,%ax
 100073d:	66 90                	xchg   %ax,%ax
 100073f:	90                   	nop

01000740 <IDT_Initialize>:
 1000740:	55                   	push   %ebp
 1000741:	89 e5                	mov    %esp,%ebp
 1000743:	53                   	push   %ebx
 1000744:	57                   	push   %edi
 1000745:	56                   	push   %esi
 1000746:	83 ec 28             	sub    $0x28,%esp
 1000749:	8d 05 58 e4 84 01    	lea    0x184e458,%eax
 100074f:	66 c7 05 58 ec 84 01 	movw   $0x7ff,0x184ec58
 1000756:	ff 07 
 1000758:	a3 5a ec 84 01       	mov    %eax,0x184ec5a
 100075d:	fa                   	cli    
 100075e:	b8 58 ec 84 01       	mov    $0x184ec58,%eax
 1000763:	0f 01 18             	lidtl  (%eax)
 1000766:	c7 45 f0 00 00 00 00 	movl   $0x0,-0x10(%ebp)
 100076d:	81 7d f0 00 01 00 00 	cmpl   $0x100,-0x10(%ebp)
 1000774:	7d 45                	jge    10007bb <IDT_Initialize+0x7b>
 1000776:	b8 00 00 00 00       	mov    $0x0,%eax
 100077b:	c7 04 24 00 00 00 00 	movl   $0x0,(%esp)
 1000782:	c7 44 24 04 00 00 00 	movl   $0x0,0x4(%esp)
 1000789:	00 
 100078a:	c7 44 24 08 00 00 00 	movl   $0x0,0x8(%esp)
 1000791:	00 
 1000792:	c7 44 24 0c 00 00 00 	movl   $0x0,0xc(%esp)
 1000799:	00 
 100079a:	89 45 e4             	mov    %eax,-0x1c(%ebp)
 100079d:	e8 de 00 00 00       	call   1000880 <IDT_SetEntry>
 10007a2:	8b 45 f0             	mov    -0x10(%ebp),%eax
 10007a5:	c7 04 85 58 e0 84 01 	movl   $0x0,0x184e058(,%eax,4)
 10007ac:	00 00 00 00 
 10007b0:	8b 45 f0             	mov    -0x10(%ebp),%eax
 10007b3:	83 c0 01             	add    $0x1,%eax
 10007b6:	89 45 f0             	mov    %eax,-0x10(%ebp)
 10007b9:	eb b2                	jmp    100076d <IDT_Initialize+0x2d>
 10007bb:	c7 45 ec 01 00 00 00 	movl   $0x1,-0x14(%ebp)
 10007c2:	c7 45 e8 00 00 00 00 	movl   $0x0,-0x18(%ebp)
 10007c9:	81 7d e8 00 01 00 00 	cmpl   $0x100,-0x18(%ebp)
 10007d0:	0f 8d 9c 00 00 00    	jge    1000872 <IDT_Initialize+0x132>
 10007d6:	83 7d e8 08          	cmpl   $0x8,-0x18(%ebp)
 10007da:	74 0c                	je     10007e8 <IDT_Initialize+0xa8>
 10007dc:	83 7d e8 0a          	cmpl   $0xa,-0x18(%ebp)
 10007e0:	7c 0d                	jl     10007ef <IDT_Initialize+0xaf>
 10007e2:	83 7d e8 0e          	cmpl   $0xe,-0x18(%ebp)
 10007e6:	7f 07                	jg     10007ef <IDT_Initialize+0xaf>
 10007e8:	c7 45 ec 00 00 00 00 	movl   $0x0,-0x14(%ebp)
 10007ef:	8d 05 58 b0 84 01    	lea    0x184b058,%eax
 10007f5:	6b 4d e8 30          	imul   $0x30,-0x18(%ebp),%ecx
 10007f9:	01 c8                	add    %ecx,%eax
 10007fb:	8b 4d e8             	mov    -0x18(%ebp),%ecx
 10007fe:	88 ca                	mov    %cl,%dl
 1000800:	8b 4d ec             	mov    -0x14(%ebp),%ecx
 1000803:	88 ce                	mov    %cl,%dh
 1000805:	89 04 24             	mov    %eax,(%esp)
 1000808:	0f b6 c2             	movzbl %dl,%eax
 100080b:	89 44 24 04          	mov    %eax,0x4(%esp)
 100080f:	0f b6 c6             	movzbl %dh,%eax
 1000812:	89 44 24 08          	mov    %eax,0x8(%esp)
 1000816:	e8 f5 00 00 00       	call   1000910 <IDT_FillSWInterruptHandler>
 100081b:	b8 08 00 00 00       	mov    $0x8,%eax
 1000820:	b9 8e 00 00 00       	mov    $0x8e,%ecx
 1000825:	8d 35 58 b0 84 01    	lea    0x184b058,%esi
 100082b:	8b 7d e8             	mov    -0x18(%ebp),%edi
 100082e:	89 fb                	mov    %edi,%ebx
 1000830:	88 da                	mov    %bl,%dl
 1000832:	6b 7d e8 30          	imul   $0x30,-0x18(%ebp),%edi
 1000836:	01 fe                	add    %edi,%esi
 1000838:	0f b6 fa             	movzbl %dl,%edi
 100083b:	89 3c 24             	mov    %edi,(%esp)
 100083e:	89 74 24 04          	mov    %esi,0x4(%esp)
 1000842:	c7 44 24 08 08 00 00 	movl   $0x8,0x8(%esp)
 1000849:	00 
 100084a:	c7 44 24 0c 8e 00 00 	movl   $0x8e,0xc(%esp)
 1000851:	00 
 1000852:	89 45 e0             	mov    %eax,-0x20(%ebp)
 1000855:	89 4d dc             	mov    %ecx,-0x24(%ebp)
 1000858:	e8 23 00 00 00       	call   1000880 <IDT_SetEntry>
 100085d:	c7 45 ec 01 00 00 00 	movl   $0x1,-0x14(%ebp)
 1000864:	8b 45 e8             	mov    -0x18(%ebp),%eax
 1000867:	83 c0 01             	add    $0x1,%eax
 100086a:	89 45 e8             	mov    %eax,-0x18(%ebp)
 100086d:	e9 57 ff ff ff       	jmp    10007c9 <IDT_Initialize+0x89>
 1000872:	83 c4 28             	add    $0x28,%esp
 1000875:	5e                   	pop    %esi
 1000876:	5f                   	pop    %edi
 1000877:	5b                   	pop    %ebx
 1000878:	5d                   	pop    %ebp
 1000879:	c3                   	ret    
 100087a:	8d b6 00 00 00 00    	lea    0x0(%esi),%esi

01000880 <IDT_SetEntry>:
 1000880:	55                   	push   %ebp
 1000881:	89 e5                	mov    %esp,%ebp
 1000883:	83 ec 0c             	sub    $0xc,%esp
 1000886:	0f b7 45 10          	movzwl 0x10(%ebp),%eax
 100088a:	66 89 c1             	mov    %ax,%cx
 100088d:	8a 55 14             	mov    0x14(%ebp),%dl
 1000890:	8b 45 0c             	mov    0xc(%ebp),%eax
 1000893:	8a 75 08             	mov    0x8(%ebp),%dh
 1000896:	88 75 ff             	mov    %dh,-0x1(%ebp)
 1000899:	89 45 f8             	mov    %eax,-0x8(%ebp)
 100089c:	66 89 4d f6          	mov    %cx,-0xa(%ebp)
 10008a0:	88 55 f5             	mov    %dl,-0xb(%ebp)
 10008a3:	8b 45 f8             	mov    -0x8(%ebp),%eax
 10008a6:	25 ff ff 00 00       	and    $0xffff,%eax
 10008ab:	66 89 c1             	mov    %ax,%cx
 10008ae:	0f b6 45 ff          	movzbl -0x1(%ebp),%eax
 10008b2:	66 89 0c c5 58 e4 84 	mov    %cx,0x184e458(,%eax,8)
 10008b9:	01 
 10008ba:	8b 45 f8             	mov    -0x8(%ebp),%eax
 10008bd:	c1 e8 10             	shr    $0x10,%eax
 10008c0:	25 ff ff 00 00       	and    $0xffff,%eax
 10008c5:	66 89 c1             	mov    %ax,%cx
 10008c8:	0f b6 45 ff          	movzbl -0x1(%ebp),%eax
 10008cc:	66 89 0c c5 5e e4 84 	mov    %cx,0x184e45e(,%eax,8)
 10008d3:	01 
 10008d4:	8a 55 f5             	mov    -0xb(%ebp),%dl
 10008d7:	0f b6 45 ff          	movzbl -0x1(%ebp),%eax
 10008db:	88 14 c5 5d e4 84 01 	mov    %dl,0x184e45d(,%eax,8)
 10008e2:	0f b6 45 ff          	movzbl -0x1(%ebp),%eax
 10008e6:	c6 04 c5 5c e4 84 01 	movb   $0x0,0x184e45c(,%eax,8)
 10008ed:	00 
 10008ee:	66 8b 4d f6          	mov    -0xa(%ebp),%cx
 10008f2:	0f b6 45 ff          	movzbl -0x1(%ebp),%eax
 10008f6:	66 89 0c c5 5a e4 84 	mov    %cx,0x184e45a(,%eax,8)
 10008fd:	01 
 10008fe:	83 c4 0c             	add    $0xc,%esp
 1000901:	5d                   	pop    %ebp
 1000902:	c3                   	ret    
 1000903:	8d b6 00 00 00 00    	lea    0x0(%esi),%esi
 1000909:	8d bc 27 00 00 00 00 	lea    0x0(%edi,%eiz,1),%edi

01000910 <IDT_FillSWInterruptHandler>:
 1000910:	55                   	push   %ebp
 1000911:	89 e5                	mov    %esp,%ebp
 1000913:	53                   	push   %ebx
 1000914:	56                   	push   %esi
 1000915:	83 ec 10             	sub    $0x10,%esp
 1000918:	8a 45 10             	mov    0x10(%ebp),%al
 100091b:	8a 4d 0c             	mov    0xc(%ebp),%cl
 100091e:	8b 55 08             	mov    0x8(%ebp),%edx
 1000921:	89 55 f4             	mov    %edx,-0xc(%ebp)
 1000924:	88 4d f3             	mov    %cl,-0xd(%ebp)
 1000927:	88 45 f2             	mov    %al,-0xe(%ebp)
 100092a:	c7 45 ec 00 00 00 00 	movl   $0x0,-0x14(%ebp)
 1000931:	80 7d f2 00          	cmpb   $0x0,-0xe(%ebp)
 1000935:	74 5c                	je     1000993 <IDT_FillSWInterruptHandler+0x83>
 1000937:	8b 45 ec             	mov    -0x14(%ebp),%eax
 100093a:	89 c1                	mov    %eax,%ecx
 100093c:	83 c1 01             	add    $0x1,%ecx
 100093f:	89 4d ec             	mov    %ecx,-0x14(%ebp)
 1000942:	8b 4d f4             	mov    -0xc(%ebp),%ecx
 1000945:	c6 04 01 68          	movb   $0x68,(%ecx,%eax,1)
 1000949:	8a 55 f2             	mov    -0xe(%ebp),%dl
 100094c:	8b 45 ec             	mov    -0x14(%ebp),%eax
 100094f:	89 c1                	mov    %eax,%ecx
 1000951:	83 c1 01             	add    $0x1,%ecx
 1000954:	89 4d ec             	mov    %ecx,-0x14(%ebp)
 1000957:	8b 4d f4             	mov    -0xc(%ebp),%ecx
 100095a:	88 14 01             	mov    %dl,(%ecx,%eax,1)
 100095d:	8b 45 ec             	mov    -0x14(%ebp),%eax
 1000960:	89 c1                	mov    %eax,%ecx
 1000962:	83 c1 01             	add    $0x1,%ecx
 1000965:	89 4d ec             	mov    %ecx,-0x14(%ebp)
 1000968:	8b 4d f4             	mov    -0xc(%ebp),%ecx
 100096b:	c6 04 01 00          	movb   $0x0,(%ecx,%eax,1)
 100096f:	8b 45 ec             	mov    -0x14(%ebp),%eax
 1000972:	89 c1                	mov    %eax,%ecx
 1000974:	83 c1 01             	add    $0x1,%ecx
 1000977:	89 4d ec             	mov    %ecx,-0x14(%ebp)
 100097a:	8b 4d f4             	mov    -0xc(%ebp),%ecx
 100097d:	c6 04 01 00          	movb   $0x0,(%ecx,%eax,1)
 1000981:	8b 45 ec             	mov    -0x14(%ebp),%eax
 1000984:	89 c1                	mov    %eax,%ecx
 1000986:	83 c1 01             	add    $0x1,%ecx
 1000989:	89 4d ec             	mov    %ecx,-0x14(%ebp)
 100098c:	8b 4d f4             	mov    -0xc(%ebp),%ecx
 100098f:	c6 04 01 00          	movb   $0x0,(%ecx,%eax,1)
 1000993:	8d 05 80 0a 00 01    	lea    0x1000a80,%eax
 1000999:	c1 f8 18             	sar    $0x18,%eax
 100099c:	25 ff 00 00 00       	and    $0xff,%eax
 10009a1:	8b 4d ec             	mov    -0x14(%ebp),%ecx
 10009a4:	89 ca                	mov    %ecx,%edx
 10009a6:	42                   	inc    %edx
 10009a7:	89 55 ec             	mov    %edx,-0x14(%ebp)
 10009aa:	8b 55 f4             	mov    -0xc(%ebp),%edx
 10009ad:	c6 04 0a 68          	movb   $0x68,(%edx,%ecx,1)
 10009b1:	8a 5d f3             	mov    -0xd(%ebp),%bl
 10009b4:	8b 4d ec             	mov    -0x14(%ebp),%ecx
 10009b7:	89 ca                	mov    %ecx,%edx
 10009b9:	42                   	inc    %edx
 10009ba:	89 55 ec             	mov    %edx,-0x14(%ebp)
 10009bd:	8b 55 f4             	mov    -0xc(%ebp),%edx
 10009c0:	88 1c 0a             	mov    %bl,(%edx,%ecx,1)
 10009c3:	8b 4d ec             	mov    -0x14(%ebp),%ecx
 10009c6:	89 ca                	mov    %ecx,%edx
 10009c8:	42                   	inc    %edx
 10009c9:	89 55 ec             	mov    %edx,-0x14(%ebp)
 10009cc:	8b 55 f4             	mov    -0xc(%ebp),%edx
 10009cf:	c6 04 0a 00          	movb   $0x0,(%edx,%ecx,1)
 10009d3:	8b 4d ec             	mov    -0x14(%ebp),%ecx
 10009d6:	89 ca                	mov    %ecx,%edx
 10009d8:	42                   	inc    %edx
 10009d9:	89 55 ec             	mov    %edx,-0x14(%ebp)
 10009dc:	8b 55 f4             	mov    -0xc(%ebp),%edx
 10009df:	c6 04 0a 00          	movb   $0x0,(%edx,%ecx,1)
 10009e3:	8b 4d ec             	mov    -0x14(%ebp),%ecx
 10009e6:	89 ca                	mov    %ecx,%edx
 10009e8:	42                   	inc    %edx
 10009e9:	89 55 ec             	mov    %edx,-0x14(%ebp)
 10009ec:	8b 55 f4             	mov    -0xc(%ebp),%edx
 10009ef:	c6 04 0a 00          	movb   $0x0,(%edx,%ecx,1)
 10009f3:	8b 4d ec             	mov    -0x14(%ebp),%ecx
 10009f6:	89 ca                	mov    %ecx,%edx
 10009f8:	42                   	inc    %edx
 10009f9:	89 55 ec             	mov    %edx,-0x14(%ebp)
 10009fc:	8b 55 f4             	mov    -0xc(%ebp),%edx
 10009ff:	c6 04 0a 68          	movb   $0x68,(%edx,%ecx,1)
 1000a03:	8b 4d ec             	mov    -0x14(%ebp),%ecx
 1000a06:	89 ca                	mov    %ecx,%edx
 1000a08:	42                   	inc    %edx
 1000a09:	89 55 ec             	mov    %edx,-0x14(%ebp)
 1000a0c:	8b 55 f4             	mov    -0xc(%ebp),%edx
 1000a0f:	be 80 0a 00 01       	mov    $0x1000a80,%esi
 1000a14:	89 f3                	mov    %esi,%ebx
 1000a16:	89 45 e8             	mov    %eax,-0x18(%ebp)
 1000a19:	88 d8                	mov    %bl,%al
 1000a1b:	88 04 0a             	mov    %al,(%edx,%ecx,1)
 1000a1e:	8b 4d ec             	mov    -0x14(%ebp),%ecx
 1000a21:	89 ca                	mov    %ecx,%edx
 1000a23:	42                   	inc    %edx
 1000a24:	89 55 ec             	mov    %edx,-0x14(%ebp)
 1000a27:	8b 55 f4             	mov    -0xc(%ebp),%edx
 1000a2a:	88 f8                	mov    %bh,%al
 1000a2c:	88 04 0a             	mov    %al,(%edx,%ecx,1)
 1000a2f:	8b 4d ec             	mov    -0x14(%ebp),%ecx
 1000a32:	89 ca                	mov    %ecx,%edx
 1000a34:	42                   	inc    %edx
 1000a35:	89 55 ec             	mov    %edx,-0x14(%ebp)
 1000a38:	8b 55 f4             	mov    -0xc(%ebp),%edx
 1000a3b:	89 f3                	mov    %esi,%ebx
 1000a3d:	c1 eb 10             	shr    $0x10,%ebx
 1000a40:	88 d8                	mov    %bl,%al
 1000a42:	88 04 0a             	mov    %al,(%edx,%ecx,1)
 1000a45:	8b 4d ec             	mov    -0x14(%ebp),%ecx
 1000a48:	89 ca                	mov    %ecx,%edx
 1000a4a:	42                   	inc    %edx
 1000a4b:	89 55 ec             	mov    %edx,-0x14(%ebp)
 1000a4e:	8b 55 f4             	mov    -0xc(%ebp),%edx
 1000a51:	c1 ee 18             	shr    $0x18,%esi
 1000a54:	89 f3                	mov    %esi,%ebx
 1000a56:	88 d8                	mov    %bl,%al
 1000a58:	88 04 0a             	mov    %al,(%edx,%ecx,1)
 1000a5b:	8b 4d ec             	mov    -0x14(%ebp),%ecx
 1000a5e:	89 ca                	mov    %ecx,%edx
 1000a60:	83 c2 01             	add    $0x1,%edx
 1000a63:	89 55 ec             	mov    %edx,-0x14(%ebp)
 1000a66:	8b 55 f4             	mov    -0xc(%ebp),%edx
 1000a69:	c6 04 0a c3          	movb   $0xc3,(%edx,%ecx,1)
 1000a6d:	83 c4 10             	add    $0x10,%esp
 1000a70:	5e                   	pop    %esi
 1000a71:	5b                   	pop    %ebx
 1000a72:	5d                   	pop    %ebp
 1000a73:	c3                   	ret    
 1000a74:	8d b6 00 00 00 00    	lea    0x0(%esi),%esi
 1000a7a:	8d bf 00 00 00 00    	lea    0x0(%edi),%edi

01000a80 <IDT_DefaultHandler>:
 1000a80:	60                   	pusha  
 1000a81:	66 8c d8             	mov    %ds,%ax
 1000a84:	50                   	push   %eax
 1000a85:	66 b8 10 00          	mov    $0x10,%ax
 1000a89:	8e d8                	mov    %eax,%ds
 1000a8b:	8e c0                	mov    %eax,%es
 1000a8d:	8e e0                	mov    %eax,%fs
 1000a8f:	8e e8                	mov    %eax,%gs
 1000a91:	54                   	push   %esp
 1000a92:	e8 19 00 00 00       	call   1000ab0 <IDT_MainHandler>
 1000a97:	58                   	pop    %eax
 1000a98:	58                   	pop    %eax
 1000a99:	8e d8                	mov    %eax,%ds
 1000a9b:	8e c0                	mov    %eax,%es
 1000a9d:	8e e0                	mov    %eax,%fs
 1000a9f:	8e e8                	mov    %eax,%gs
 1000aa1:	61                   	popa   
 1000aa2:	83 c4 08             	add    $0x8,%esp
 1000aa5:	cf                   	iret   
 1000aa6:	c3                   	ret    
 1000aa7:	89 f6                	mov    %esi,%esi
 1000aa9:	8d bc 27 00 00 00 00 	lea    0x0(%edi,%eiz,1),%edi

01000ab0 <IDT_MainHandler>:
 1000ab0:	55                   	push   %ebp
 1000ab1:	89 e5                	mov    %esp,%ebp
 1000ab3:	83 ec 08             	sub    $0x8,%esp
 1000ab6:	8b 45 08             	mov    0x8(%ebp),%eax
 1000ab9:	89 45 fc             	mov    %eax,-0x4(%ebp)
 1000abc:	8b 45 fc             	mov    -0x4(%ebp),%eax
 1000abf:	8b 40 24             	mov    0x24(%eax),%eax
 1000ac2:	83 3c 85 58 e0 84 01 	cmpl   $0x0,0x184e058(,%eax,4)
 1000ac9:	00 
 1000aca:	74 15                	je     1000ae1 <IDT_MainHandler+0x31>
 1000acc:	8b 45 fc             	mov    -0x4(%ebp),%eax
 1000acf:	8b 40 24             	mov    0x24(%eax),%eax
 1000ad2:	8b 04 85 58 e0 84 01 	mov    0x184e058(,%eax,4),%eax
 1000ad9:	8b 4d fc             	mov    -0x4(%ebp),%ecx
 1000adc:	89 0c 24             	mov    %ecx,(%esp)
 1000adf:	ff d0                	call   *%eax
 1000ae1:	83 c4 08             	add    $0x8,%esp
 1000ae4:	5d                   	pop    %ebp
 1000ae5:	c3                   	ret    
 1000ae6:	8d 76 00             	lea    0x0(%esi),%esi
 1000ae9:	8d bc 27 00 00 00 00 	lea    0x0(%edi,%eiz,1),%edi

01000af0 <IDT_RegisterHandler>:
 1000af0:	55                   	push   %ebp
 1000af1:	89 e5                	mov    %esp,%ebp
 1000af3:	83 ec 08             	sub    $0x8,%esp
 1000af6:	8b 45 0c             	mov    0xc(%ebp),%eax
 1000af9:	8a 4d 08             	mov    0x8(%ebp),%cl
 1000afc:	88 4d ff             	mov    %cl,-0x1(%ebp)
 1000aff:	89 45 f8             	mov    %eax,-0x8(%ebp)
 1000b02:	8b 45 f8             	mov    -0x8(%ebp),%eax
 1000b05:	0f b6 55 ff          	movzbl -0x1(%ebp),%edx
 1000b09:	89 04 95 58 e0 84 01 	mov    %eax,0x184e058(,%edx,4)
 1000b10:	83 c4 08             	add    $0x8,%esp
 1000b13:	5d                   	pop    %ebp
 1000b14:	c3                   	ret    
 1000b15:	66 90                	xchg   %ax,%ax
 1000b17:	66 90                	xchg   %ax,%ax
 1000b19:	66 90                	xchg   %ax,%ax
 1000b1b:	66 90                	xchg   %ax,%ax
 1000b1d:	66 90                	xchg   %ax,%ax
 1000b1f:	90                   	nop

01000b20 <CPUID_FeatureIsAvailable>:
 1000b20:	55                   	push   %ebp
 1000b21:	89 e5                	mov    %esp,%ebp
 1000b23:	53                   	push   %ebx
 1000b24:	83 ec 08             	sub    $0x8,%esp
 1000b27:	8b 45 0c             	mov    0xc(%ebp),%eax
 1000b2a:	8a 4d 08             	mov    0x8(%ebp),%cl
 1000b2d:	88 4d fa             	mov    %cl,-0x6(%ebp)
 1000b30:	89 45 f4             	mov    %eax,-0xc(%ebp)
 1000b33:	83 3d 44 f0 a8 04 00 	cmpl   $0x0,0x4a8f044
 1000b3a:	0f 94 c1             	sete   %cl
 1000b3d:	80 e1 01             	and    $0x1,%cl
 1000b40:	0f b6 c1             	movzbl %cl,%eax
 1000b43:	83 3d 48 f0 a8 04 00 	cmpl   $0x0,0x4a8f048
 1000b4a:	0f 94 c1             	sete   %cl
 1000b4d:	80 e1 01             	and    $0x1,%cl
 1000b50:	0f b6 d1             	movzbl %cl,%edx
 1000b53:	09 d0                	or     %edx,%eax
 1000b55:	83 f8 00             	cmp    $0x0,%eax
 1000b58:	74 13                	je     1000b6d <CPUID_FeatureIsAvailable+0x4d>
 1000b5a:	b8 01 00 00 00       	mov    $0x1,%eax
 1000b5f:	0f a2                	cpuid  
 1000b61:	89 0d 44 f0 a8 04    	mov    %ecx,0x4a8f044
 1000b67:	89 15 48 f0 a8 04    	mov    %edx,0x4a8f048
 1000b6d:	0f b6 45 fa          	movzbl -0x6(%ebp),%eax
 1000b71:	83 f8 00             	cmp    $0x0,%eax
 1000b74:	75 1b                	jne    1000b91 <CPUID_FeatureIsAvailable+0x71>
 1000b76:	a1 44 f0 a8 04       	mov    0x4a8f044,%eax
 1000b7b:	23 45 f4             	and    -0xc(%ebp),%eax
 1000b7e:	3b 45 f4             	cmp    -0xc(%ebp),%eax
 1000b81:	0f 94 c1             	sete   %cl
 1000b84:	80 e1 01             	and    $0x1,%cl
 1000b87:	0f b6 c1             	movzbl %cl,%eax
 1000b8a:	88 c1                	mov    %al,%cl
 1000b8c:	88 4d fb             	mov    %cl,-0x5(%ebp)
 1000b8f:	eb 2a                	jmp    1000bbb <CPUID_FeatureIsAvailable+0x9b>
 1000b91:	0f b6 45 fa          	movzbl -0x6(%ebp),%eax
 1000b95:	83 f8 01             	cmp    $0x1,%eax
 1000b98:	75 1b                	jne    1000bb5 <CPUID_FeatureIsAvailable+0x95>
 1000b9a:	a1 48 f0 a8 04       	mov    0x4a8f048,%eax
 1000b9f:	23 45 f4             	and    -0xc(%ebp),%eax
 1000ba2:	3b 45 f4             	cmp    -0xc(%ebp),%eax
 1000ba5:	0f 94 c1             	sete   %cl
 1000ba8:	80 e1 01             	and    $0x1,%cl
 1000bab:	0f b6 c1             	movzbl %cl,%eax
 1000bae:	88 c1                	mov    %al,%cl
 1000bb0:	88 4d fb             	mov    %cl,-0x5(%ebp)
 1000bb3:	eb 06                	jmp    1000bbb <CPUID_FeatureIsAvailable+0x9b>
 1000bb5:	eb 00                	jmp    1000bb7 <CPUID_FeatureIsAvailable+0x97>
 1000bb7:	c6 45 fb ff          	movb   $0xff,-0x5(%ebp)
 1000bbb:	0f b6 45 fb          	movzbl -0x5(%ebp),%eax
 1000bbf:	83 c4 08             	add    $0x8,%esp
 1000bc2:	5b                   	pop    %ebx
 1000bc3:	5d                   	pop    %ebp
 1000bc4:	c3                   	ret    

01000bc5 <_start>:
 1000bc5:	bc d9 30 a9 04       	mov    $0x4a930d9,%esp
 1000bca:	50                   	push   %eax
 1000bcb:	53                   	push   %ebx
 1000bcc:	e8 af f5 ff ff       	call   1000180 <setup_kernel_core>
 1000bd1:	fa                   	cli    
 1000bd2:	f4                   	hlt    
 1000bd3:	eb fe                	jmp    1000bd3 <_start+0xe>
 1000bd5:	66 90                	xchg   %ax,%ax
 1000bd7:	66 90                	xchg   %ax,%ax
 1000bd9:	66 90                	xchg   %ax,%ax
 1000bdb:	66 90                	xchg   %ax,%ax
 1000bdd:	66 90                	xchg   %ax,%ax
 1000bdf:	90                   	nop

01000be0 <COM_Initialize>:
 1000be0:	55                   	push   %ebp
 1000be1:	89 e5                	mov    %esp,%ebp
 1000be3:	83 ec 40             	sub    $0x40,%esp
 1000be6:	b8 f9 03 00 00       	mov    $0x3f9,%eax
 1000beb:	b9 00 00 00 00       	mov    $0x0,%ecx
 1000bf0:	c7 04 24 f9 03 00 00 	movl   $0x3f9,(%esp)
 1000bf7:	c7 44 24 04 00 00 00 	movl   $0x0,0x4(%esp)
 1000bfe:	00 
 1000bff:	89 45 fc             	mov    %eax,-0x4(%ebp)
 1000c02:	89 4d f8             	mov    %ecx,-0x8(%ebp)
 1000c05:	e8 26 2a 00 00       	call   1003630 <outb>
 1000c0a:	b8 fb 03 00 00       	mov    $0x3fb,%eax
 1000c0f:	b9 80 00 00 00       	mov    $0x80,%ecx
 1000c14:	c7 04 24 fb 03 00 00 	movl   $0x3fb,(%esp)
 1000c1b:	c7 44 24 04 80 00 00 	movl   $0x80,0x4(%esp)
 1000c22:	00 
 1000c23:	89 45 f4             	mov    %eax,-0xc(%ebp)
 1000c26:	89 4d f0             	mov    %ecx,-0x10(%ebp)
 1000c29:	e8 02 2a 00 00       	call   1003630 <outb>
 1000c2e:	b8 f8 03 00 00       	mov    $0x3f8,%eax
 1000c33:	b9 03 00 00 00       	mov    $0x3,%ecx
 1000c38:	c7 04 24 f8 03 00 00 	movl   $0x3f8,(%esp)
 1000c3f:	c7 44 24 04 03 00 00 	movl   $0x3,0x4(%esp)
 1000c46:	00 
 1000c47:	89 45 ec             	mov    %eax,-0x14(%ebp)
 1000c4a:	89 4d e8             	mov    %ecx,-0x18(%ebp)
 1000c4d:	e8 de 29 00 00       	call   1003630 <outb>
 1000c52:	b8 f9 03 00 00       	mov    $0x3f9,%eax
 1000c57:	b9 00 00 00 00       	mov    $0x0,%ecx
 1000c5c:	c7 04 24 f9 03 00 00 	movl   $0x3f9,(%esp)
 1000c63:	c7 44 24 04 00 00 00 	movl   $0x0,0x4(%esp)
 1000c6a:	00 
 1000c6b:	89 45 e4             	mov    %eax,-0x1c(%ebp)
 1000c6e:	89 4d e0             	mov    %ecx,-0x20(%ebp)
 1000c71:	e8 ba 29 00 00       	call   1003630 <outb>
 1000c76:	b8 fb 03 00 00       	mov    $0x3fb,%eax
 1000c7b:	b9 03 00 00 00       	mov    $0x3,%ecx
 1000c80:	c7 04 24 fb 03 00 00 	movl   $0x3fb,(%esp)
 1000c87:	c7 44 24 04 03 00 00 	movl   $0x3,0x4(%esp)
 1000c8e:	00 
 1000c8f:	89 45 dc             	mov    %eax,-0x24(%ebp)
 1000c92:	89 4d d8             	mov    %ecx,-0x28(%ebp)
 1000c95:	e8 96 29 00 00       	call   1003630 <outb>
 1000c9a:	b8 fa 03 00 00       	mov    $0x3fa,%eax
 1000c9f:	b9 c7 00 00 00       	mov    $0xc7,%ecx
 1000ca4:	c7 04 24 fa 03 00 00 	movl   $0x3fa,(%esp)
 1000cab:	c7 44 24 04 c7 00 00 	movl   $0xc7,0x4(%esp)
 1000cb2:	00 
 1000cb3:	89 45 d4             	mov    %eax,-0x2c(%ebp)
 1000cb6:	89 4d d0             	mov    %ecx,-0x30(%ebp)
 1000cb9:	e8 72 29 00 00       	call   1003630 <outb>
 1000cbe:	b8 fc 03 00 00       	mov    $0x3fc,%eax
 1000cc3:	b9 0b 00 00 00       	mov    $0xb,%ecx
 1000cc8:	c7 04 24 fc 03 00 00 	movl   $0x3fc,(%esp)
 1000ccf:	c7 44 24 04 0b 00 00 	movl   $0xb,0x4(%esp)
 1000cd6:	00 
 1000cd7:	89 45 cc             	mov    %eax,-0x34(%ebp)
 1000cda:	89 4d c8             	mov    %ecx,-0x38(%ebp)
 1000cdd:	e8 4e 29 00 00       	call   1003630 <outb>
 1000ce2:	83 c4 40             	add    $0x40,%esp
 1000ce5:	5d                   	pop    %ebp
 1000ce6:	c3                   	ret    
 1000ce7:	89 f6                	mov    %esi,%esi
 1000ce9:	8d bc 27 00 00 00 00 	lea    0x0(%edi,%eiz,1),%edi

01000cf0 <COM_ready>:
 1000cf0:	55                   	push   %ebp
 1000cf1:	89 e5                	mov    %esp,%ebp
 1000cf3:	83 ec 08             	sub    $0x8,%esp
 1000cf6:	b8 fd 03 00 00       	mov    $0x3fd,%eax
 1000cfb:	c7 04 24 fd 03 00 00 	movl   $0x3fd,(%esp)
 1000d02:	89 45 fc             	mov    %eax,-0x4(%ebp)
 1000d05:	e8 56 29 00 00       	call   1003660 <inb>
 1000d0a:	0f b6 c8             	movzbl %al,%ecx
 1000d0d:	83 e1 20             	and    $0x20,%ecx
 1000d10:	88 c8                	mov    %cl,%al
 1000d12:	0f b6 c0             	movzbl %al,%eax
 1000d15:	83 c4 08             	add    $0x8,%esp
 1000d18:	5d                   	pop    %ebp
 1000d19:	c3                   	ret    
 1000d1a:	8d b6 00 00 00 00    	lea    0x0(%esi),%esi

01000d20 <COM_WriteStr>:
 1000d20:	55                   	push   %ebp
 1000d21:	89 e5                	mov    %esp,%ebp
 1000d23:	81 ec 24 04 00 00    	sub    $0x424,%esp
 1000d29:	8b 45 08             	mov    0x8(%ebp),%eax
 1000d2c:	8d 8d fc fb ff ff    	lea    -0x404(%ebp),%ecx
 1000d32:	8d 95 f4 fb ff ff    	lea    -0x40c(%ebp),%edx
 1000d38:	89 45 fc             	mov    %eax,-0x4(%ebp)
 1000d3b:	c7 85 f8 fb ff ff 00 	movl   $0x0,-0x408(%ebp)
 1000d42:	00 00 00 
 1000d45:	8d 45 0c             	lea    0xc(%ebp),%eax
 1000d48:	89 02                	mov    %eax,(%edx)
 1000d4a:	8b 45 fc             	mov    -0x4(%ebp),%eax
 1000d4d:	8b 95 f4 fb ff ff    	mov    -0x40c(%ebp),%edx
 1000d53:	89 0c 24             	mov    %ecx,(%esp)
 1000d56:	89 44 24 04          	mov    %eax,0x4(%esp)
 1000d5a:	89 54 24 08          	mov    %edx,0x8(%esp)
 1000d5e:	e8 2d 32 00 00       	call   1003f90 <vsnprintf>
 1000d63:	8d 8d f4 fb ff ff    	lea    -0x40c(%ebp),%ecx
 1000d69:	89 85 f0 fb ff ff    	mov    %eax,-0x410(%ebp)
 1000d6f:	89 8d ec fb ff ff    	mov    %ecx,-0x414(%ebp)
 1000d75:	8b 85 f8 fb ff ff    	mov    -0x408(%ebp),%eax
 1000d7b:	80 bc 05 fc fb ff ff 	cmpb   $0x0,-0x404(%ebp,%eax,1)
 1000d82:	00 
 1000d83:	74 47                	je     1000dcc <COM_WriteStr+0xac>
 1000d85:	eb 00                	jmp    1000d87 <COM_WriteStr+0x67>
 1000d87:	e8 64 ff ff ff       	call   1000cf0 <COM_ready>
 1000d8c:	0f b6 c8             	movzbl %al,%ecx
 1000d8f:	83 f9 00             	cmp    $0x0,%ecx
 1000d92:	75 02                	jne    1000d96 <COM_WriteStr+0x76>
 1000d94:	eb f1                	jmp    1000d87 <COM_WriteStr+0x67>
 1000d96:	b8 f8 03 00 00       	mov    $0x3f8,%eax
 1000d9b:	8b 8d f8 fb ff ff    	mov    -0x408(%ebp),%ecx
 1000da1:	89 ca                	mov    %ecx,%edx
 1000da3:	83 c2 01             	add    $0x1,%edx
 1000da6:	89 95 f8 fb ff ff    	mov    %edx,-0x408(%ebp)
 1000dac:	c7 04 24 f8 03 00 00 	movl   $0x3f8,(%esp)
 1000db3:	0f b6 8c 0d fc fb ff 	movzbl -0x404(%ebp,%ecx,1),%ecx
 1000dba:	ff 
 1000dbb:	89 4c 24 04          	mov    %ecx,0x4(%esp)
 1000dbf:	89 85 e8 fb ff ff    	mov    %eax,-0x418(%ebp)
 1000dc5:	e8 66 28 00 00       	call   1003630 <outb>
 1000dca:	eb a9                	jmp    1000d75 <COM_WriteStr+0x55>
 1000dcc:	81 c4 24 04 00 00    	add    $0x424,%esp
 1000dd2:	5d                   	pop    %ebp
 1000dd3:	c3                   	ret    
 1000dd4:	66 90                	xchg   %ax,%ax
 1000dd6:	66 90                	xchg   %ax,%ax
 1000dd8:	66 90                	xchg   %ax,%ax
 1000dda:	66 90                	xchg   %ax,%ax
 1000ddc:	66 90                	xchg   %ax,%ax
 1000dde:	66 90                	xchg   %ax,%ax

01000de0 <ACPITables_Initialize>:
 1000de0:	55                   	push   %ebp
 1000de1:	89 e5                	mov    %esp,%ebp
 1000de3:	83 ec 20             	sub    $0x20,%esp
 1000de6:	b8 00 00 0e 00       	mov    $0xe0000,%eax
 1000deb:	c7 05 60 ec 84 01 00 	movl   $0x0,0x184ec60
 1000df2:	00 00 00 
 1000df5:	89 45 f8             	mov    %eax,-0x8(%ebp)
 1000df8:	8b 45 f8             	mov    -0x8(%ebp),%eax
 1000dfb:	3d ff ff 0f 00       	cmp    $0xfffff,%eax
 1000e00:	0f 83 b0 00 00 00    	jae    1000eb6 <ACPITables_Initialize+0xd6>
 1000e06:	8b 45 f8             	mov    -0x8(%ebp),%eax
 1000e09:	0f b6 00             	movzbl (%eax),%eax
 1000e0c:	0f be 0d fb 40 7f 01 	movsbl 0x17f40fb,%ecx
 1000e13:	39 c8                	cmp    %ecx,%eax
 1000e15:	0f 85 8d 00 00 00    	jne    1000ea8 <ACPITables_Initialize+0xc8>
 1000e1b:	8d 05 fb 40 7f 01    	lea    0x17f40fb,%eax
 1000e21:	b9 08 00 00 00       	mov    $0x8,%ecx
 1000e26:	8b 55 f8             	mov    -0x8(%ebp),%edx
 1000e29:	89 14 24             	mov    %edx,(%esp)
 1000e2c:	89 44 24 04          	mov    %eax,0x4(%esp)
 1000e30:	c7 44 24 08 08 00 00 	movl   $0x8,0x8(%esp)
 1000e37:	00 
 1000e38:	89 4d ec             	mov    %ecx,-0x14(%ebp)
 1000e3b:	e8 50 2b 00 00       	call   1003990 <strncmp>
 1000e40:	83 f8 00             	cmp    $0x0,%eax
 1000e43:	75 61                	jne    1000ea6 <ACPITables_Initialize+0xc6>
 1000e45:	8b 45 f8             	mov    -0x8(%ebp),%eax
 1000e48:	a3 60 ec 84 01       	mov    %eax,0x184ec60
 1000e4d:	c7 45 f4 00 00 00 00 	movl   $0x0,-0xc(%ebp)
 1000e54:	8b 45 f8             	mov    -0x8(%ebp),%eax
 1000e57:	89 45 f0             	mov    %eax,-0x10(%ebp)
 1000e5a:	8b 45 f0             	mov    -0x10(%ebp),%eax
 1000e5d:	8b 4d f8             	mov    -0x8(%ebp),%ecx
 1000e60:	83 c1 14             	add    $0x14,%ecx
 1000e63:	39 c8                	cmp    %ecx,%eax
 1000e65:	73 19                	jae    1000e80 <ACPITables_Initialize+0xa0>
 1000e67:	8b 45 f0             	mov    -0x10(%ebp),%eax
 1000e6a:	0f b6 00             	movzbl (%eax),%eax
 1000e6d:	8b 4d f4             	mov    -0xc(%ebp),%ecx
 1000e70:	01 c1                	add    %eax,%ecx
 1000e72:	89 4d f4             	mov    %ecx,-0xc(%ebp)
 1000e75:	8b 45 f0             	mov    -0x10(%ebp),%eax
 1000e78:	83 c0 01             	add    $0x1,%eax
 1000e7b:	89 45 f0             	mov    %eax,-0x10(%ebp)
 1000e7e:	eb da                	jmp    1000e5a <ACPITables_Initialize+0x7a>
 1000e80:	8b 45 f4             	mov    -0xc(%ebp),%eax
 1000e83:	25 ff 00 00 00       	and    $0xff,%eax
 1000e88:	83 f8 00             	cmp    $0x0,%eax
 1000e8b:	75 0d                	jne    1000e9a <ACPITables_Initialize+0xba>
 1000e8d:	a1 60 ec 84 01       	mov    0x184ec60,%eax
 1000e92:	8a 48 0f             	mov    0xf(%eax),%cl
 1000e95:	88 4d ff             	mov    %cl,-0x1(%ebp)
 1000e98:	eb 20                	jmp    1000eba <ACPITables_Initialize+0xda>
 1000e9a:	c7 05 60 ec 84 01 00 	movl   $0x0,0x184ec60
 1000ea1:	00 00 00 
 1000ea4:	eb 00                	jmp    1000ea6 <ACPITables_Initialize+0xc6>
 1000ea6:	eb 00                	jmp    1000ea8 <ACPITables_Initialize+0xc8>
 1000ea8:	8b 45 f8             	mov    -0x8(%ebp),%eax
 1000eab:	83 c0 10             	add    $0x10,%eax
 1000eae:	89 45 f8             	mov    %eax,-0x8(%ebp)
 1000eb1:	e9 42 ff ff ff       	jmp    1000df8 <ACPITables_Initialize+0x18>
 1000eb6:	c6 45 ff ff          	movb   $0xff,-0x1(%ebp)
 1000eba:	0f b6 45 ff          	movzbl -0x1(%ebp),%eax
 1000ebe:	83 c4 20             	add    $0x20,%esp
 1000ec1:	5d                   	pop    %ebp
 1000ec2:	c3                   	ret    
 1000ec3:	8d b6 00 00 00 00    	lea    0x0(%esi),%esi
 1000ec9:	8d bc 27 00 00 00 00 	lea    0x0(%edi,%eiz,1),%edi

01000ed0 <ACPITables_ValidateChecksum>:
 1000ed0:	55                   	push   %ebp
 1000ed1:	89 e5                	mov    %esp,%ebp
 1000ed3:	83 ec 0c             	sub    $0xc,%esp
 1000ed6:	8b 45 08             	mov    0x8(%ebp),%eax
 1000ed9:	89 45 fc             	mov    %eax,-0x4(%ebp)
 1000edc:	c6 45 fb 00          	movb   $0x0,-0x5(%ebp)
 1000ee0:	c7 45 f4 00 00 00 00 	movl   $0x0,-0xc(%ebp)
 1000ee7:	8b 45 f4             	mov    -0xc(%ebp),%eax
 1000eea:	8b 4d fc             	mov    -0x4(%ebp),%ecx
 1000eed:	3b 41 04             	cmp    0x4(%ecx),%eax
 1000ef0:	73 20                	jae    1000f12 <ACPITables_ValidateChecksum+0x42>
 1000ef2:	8b 45 f4             	mov    -0xc(%ebp),%eax
 1000ef5:	8b 4d fc             	mov    -0x4(%ebp),%ecx
 1000ef8:	0f be 04 01          	movsbl (%ecx,%eax,1),%eax
 1000efc:	0f b6 4d fb          	movzbl -0x5(%ebp),%ecx
 1000f00:	01 c1                	add    %eax,%ecx
 1000f02:	88 ca                	mov    %cl,%dl
 1000f04:	88 55 fb             	mov    %dl,-0x5(%ebp)
 1000f07:	8b 45 f4             	mov    -0xc(%ebp),%eax
 1000f0a:	83 c0 01             	add    $0x1,%eax
 1000f0d:	89 45 f4             	mov    %eax,-0xc(%ebp)
 1000f10:	eb d5                	jmp    1000ee7 <ACPITables_ValidateChecksum+0x17>
 1000f12:	0f b6 45 fb          	movzbl -0x5(%ebp),%eax
 1000f16:	83 f8 00             	cmp    $0x0,%eax
 1000f19:	0f 94 c1             	sete   %cl
 1000f1c:	80 e1 01             	and    $0x1,%cl
 1000f1f:	0f b6 c1             	movzbl %cl,%eax
 1000f22:	88 c1                	mov    %al,%cl
 1000f24:	0f b6 c1             	movzbl %cl,%eax
 1000f27:	83 c4 0c             	add    $0xc,%esp
 1000f2a:	5d                   	pop    %ebp
 1000f2b:	c3                   	ret    
 1000f2c:	8d 74 26 00          	lea    0x0(%esi,%eiz,1),%esi

01000f30 <ACPITables_FindTable>:
 1000f30:	55                   	push   %ebp
 1000f31:	89 e5                	mov    %esp,%ebp
 1000f33:	83 ec 48             	sub    $0x48,%esp
 1000f36:	8b 45 0c             	mov    0xc(%ebp),%eax
 1000f39:	8b 4d 08             	mov    0x8(%ebp),%ecx
 1000f3c:	89 4d f8             	mov    %ecx,-0x8(%ebp)
 1000f3f:	89 45 f4             	mov    %eax,-0xc(%ebp)
 1000f42:	83 3d 60 ec 84 01 00 	cmpl   $0x0,0x184ec60
 1000f49:	75 0c                	jne    1000f57 <ACPITables_FindTable+0x27>
 1000f4b:	c7 45 fc 00 00 00 00 	movl   $0x0,-0x4(%ebp)
 1000f52:	e9 95 01 00 00       	jmp    10010ec <ACPITables_FindTable+0x1bc>
 1000f57:	a1 60 ec 84 01       	mov    0x184ec60,%eax
 1000f5c:	0f b6 40 0f          	movzbl 0xf(%eax),%eax
 1000f60:	83 f8 00             	cmp    $0x0,%eax
 1000f63:	0f 85 c1 00 00 00    	jne    100102a <ACPITables_FindTable+0xfa>
 1000f69:	a1 60 ec 84 01       	mov    0x184ec60,%eax
 1000f6e:	8b 40 10             	mov    0x10(%eax),%eax
 1000f71:	89 45 f0             	mov    %eax,-0x10(%ebp)
 1000f74:	8b 45 f0             	mov    -0x10(%ebp),%eax
 1000f77:	89 04 24             	mov    %eax,(%esp)
 1000f7a:	e8 51 ff ff ff       	call   1000ed0 <ACPITables_ValidateChecksum>
 1000f7f:	3c 00                	cmp    $0x0,%al
 1000f81:	75 0d                	jne    1000f90 <ACPITables_FindTable+0x60>
 1000f83:	b8 ff ff ff ff       	mov    $0xffffffff,%eax
 1000f88:	89 45 fc             	mov    %eax,-0x4(%ebp)
 1000f8b:	e9 5c 01 00 00       	jmp    10010ec <ACPITables_FindTable+0x1bc>
 1000f90:	8b 45 f0             	mov    -0x10(%ebp),%eax
 1000f93:	8b 40 04             	mov    0x4(%eax),%eax
 1000f96:	83 e8 24             	sub    $0x24,%eax
 1000f99:	c1 e8 02             	shr    $0x2,%eax
 1000f9c:	89 45 ec             	mov    %eax,-0x14(%ebp)
 1000f9f:	c7 45 e8 00 00 00 00 	movl   $0x0,-0x18(%ebp)
 1000fa6:	c7 45 e4 00 00 00 00 	movl   $0x0,-0x1c(%ebp)
 1000fad:	8b 45 e4             	mov    -0x1c(%ebp),%eax
 1000fb0:	3b 45 ec             	cmp    -0x14(%ebp),%eax
 1000fb3:	7d 70                	jge    1001025 <ACPITables_FindTable+0xf5>
 1000fb5:	b8 04 00 00 00       	mov    $0x4,%eax
 1000fba:	8b 4d e4             	mov    -0x1c(%ebp),%ecx
 1000fbd:	8b 55 f0             	mov    -0x10(%ebp),%edx
 1000fc0:	8b 4c 8a 24          	mov    0x24(%edx,%ecx,4),%ecx
 1000fc4:	89 4d e0             	mov    %ecx,-0x20(%ebp)
 1000fc7:	8b 4d e0             	mov    -0x20(%ebp),%ecx
 1000fca:	8b 55 f8             	mov    -0x8(%ebp),%edx
 1000fcd:	89 0c 24             	mov    %ecx,(%esp)
 1000fd0:	89 54 24 04          	mov    %edx,0x4(%esp)
 1000fd4:	c7 44 24 08 04 00 00 	movl   $0x4,0x8(%esp)
 1000fdb:	00 
 1000fdc:	89 45 c8             	mov    %eax,-0x38(%ebp)
 1000fdf:	e8 ac 29 00 00       	call   1003990 <strncmp>
 1000fe4:	83 f8 00             	cmp    $0x0,%eax
 1000fe7:	75 2f                	jne    1001018 <ACPITables_FindTable+0xe8>
 1000fe9:	8b 45 e0             	mov    -0x20(%ebp),%eax
 1000fec:	89 04 24             	mov    %eax,(%esp)
 1000fef:	e8 dc fe ff ff       	call   1000ed0 <ACPITables_ValidateChecksum>
 1000ff4:	0f b6 c8             	movzbl %al,%ecx
 1000ff7:	83 f9 00             	cmp    $0x0,%ecx
 1000ffa:	74 1c                	je     1001018 <ACPITables_FindTable+0xe8>
 1000ffc:	8b 45 e8             	mov    -0x18(%ebp),%eax
 1000fff:	3b 45 f4             	cmp    -0xc(%ebp),%eax
 1001002:	75 0b                	jne    100100f <ACPITables_FindTable+0xdf>
 1001004:	8b 45 e0             	mov    -0x20(%ebp),%eax
 1001007:	89 45 fc             	mov    %eax,-0x4(%ebp)
 100100a:	e9 dd 00 00 00       	jmp    10010ec <ACPITables_FindTable+0x1bc>
 100100f:	8b 45 e8             	mov    -0x18(%ebp),%eax
 1001012:	83 c0 01             	add    $0x1,%eax
 1001015:	89 45 e8             	mov    %eax,-0x18(%ebp)
 1001018:	eb 00                	jmp    100101a <ACPITables_FindTable+0xea>
 100101a:	8b 45 e4             	mov    -0x1c(%ebp),%eax
 100101d:	83 c0 01             	add    $0x1,%eax
 1001020:	89 45 e4             	mov    %eax,-0x1c(%ebp)
 1001023:	eb 88                	jmp    1000fad <ACPITables_FindTable+0x7d>
 1001025:	e9 bb 00 00 00       	jmp    10010e5 <ACPITables_FindTable+0x1b5>
 100102a:	a1 60 ec 84 01       	mov    0x184ec60,%eax
 100102f:	8b 40 18             	mov    0x18(%eax),%eax
 1001032:	89 45 dc             	mov    %eax,-0x24(%ebp)
 1001035:	8b 45 dc             	mov    -0x24(%ebp),%eax
 1001038:	89 04 24             	mov    %eax,(%esp)
 100103b:	e8 90 fe ff ff       	call   1000ed0 <ACPITables_ValidateChecksum>
 1001040:	3c 00                	cmp    $0x0,%al
 1001042:	75 0d                	jne    1001051 <ACPITables_FindTable+0x121>
 1001044:	b8 ff ff ff ff       	mov    $0xffffffff,%eax
 1001049:	89 45 fc             	mov    %eax,-0x4(%ebp)
 100104c:	e9 9b 00 00 00       	jmp    10010ec <ACPITables_FindTable+0x1bc>
 1001051:	8b 45 dc             	mov    -0x24(%ebp),%eax
 1001054:	8b 40 04             	mov    0x4(%eax),%eax
 1001057:	83 e8 24             	sub    $0x24,%eax
 100105a:	c1 e8 03             	shr    $0x3,%eax
 100105d:	89 45 d8             	mov    %eax,-0x28(%ebp)
 1001060:	c7 45 d4 00 00 00 00 	movl   $0x0,-0x2c(%ebp)
 1001067:	c7 45 d0 00 00 00 00 	movl   $0x0,-0x30(%ebp)
 100106e:	8b 45 d0             	mov    -0x30(%ebp),%eax
 1001071:	3b 45 d8             	cmp    -0x28(%ebp),%eax
 1001074:	7d 6d                	jge    10010e3 <ACPITables_FindTable+0x1b3>
 1001076:	b8 04 00 00 00       	mov    $0x4,%eax
 100107b:	8b 4d d0             	mov    -0x30(%ebp),%ecx
 100107e:	8b 55 dc             	mov    -0x24(%ebp),%edx
 1001081:	8b 4c ca 24          	mov    0x24(%edx,%ecx,8),%ecx
 1001085:	89 4d cc             	mov    %ecx,-0x34(%ebp)
 1001088:	8b 4d cc             	mov    -0x34(%ebp),%ecx
 100108b:	8b 55 f8             	mov    -0x8(%ebp),%edx
 100108e:	89 0c 24             	mov    %ecx,(%esp)
 1001091:	89 54 24 04          	mov    %edx,0x4(%esp)
 1001095:	c7 44 24 08 04 00 00 	movl   $0x4,0x8(%esp)
 100109c:	00 
 100109d:	89 45 c4             	mov    %eax,-0x3c(%ebp)
 10010a0:	e8 eb 28 00 00       	call   1003990 <strncmp>
 10010a5:	83 f8 00             	cmp    $0x0,%eax
 10010a8:	75 2c                	jne    10010d6 <ACPITables_FindTable+0x1a6>
 10010aa:	8b 45 cc             	mov    -0x34(%ebp),%eax
 10010ad:	89 04 24             	mov    %eax,(%esp)
 10010b0:	e8 1b fe ff ff       	call   1000ed0 <ACPITables_ValidateChecksum>
 10010b5:	0f b6 c8             	movzbl %al,%ecx
 10010b8:	83 f9 00             	cmp    $0x0,%ecx
 10010bb:	74 19                	je     10010d6 <ACPITables_FindTable+0x1a6>
 10010bd:	8b 45 d4             	mov    -0x2c(%ebp),%eax
 10010c0:	3b 45 f4             	cmp    -0xc(%ebp),%eax
 10010c3:	75 08                	jne    10010cd <ACPITables_FindTable+0x19d>
 10010c5:	8b 45 cc             	mov    -0x34(%ebp),%eax
 10010c8:	89 45 fc             	mov    %eax,-0x4(%ebp)
 10010cb:	eb 1f                	jmp    10010ec <ACPITables_FindTable+0x1bc>
 10010cd:	8b 45 d4             	mov    -0x2c(%ebp),%eax
 10010d0:	83 c0 01             	add    $0x1,%eax
 10010d3:	89 45 d4             	mov    %eax,-0x2c(%ebp)
 10010d6:	eb 00                	jmp    10010d8 <ACPITables_FindTable+0x1a8>
 10010d8:	8b 45 d0             	mov    -0x30(%ebp),%eax
 10010db:	83 c0 01             	add    $0x1,%eax
 10010de:	89 45 d0             	mov    %eax,-0x30(%ebp)
 10010e1:	eb 8b                	jmp    100106e <ACPITables_FindTable+0x13e>
 10010e3:	eb 00                	jmp    10010e5 <ACPITables_FindTable+0x1b5>
 10010e5:	c7 45 fc 00 00 00 00 	movl   $0x0,-0x4(%ebp)
 10010ec:	8b 45 fc             	mov    -0x4(%ebp),%eax
 10010ef:	83 c4 48             	add    $0x48,%esp
 10010f2:	5d                   	pop    %ebp
 10010f3:	c3                   	ret    
 10010f4:	66 90                	xchg   %ax,%ax
 10010f6:	66 90                	xchg   %ax,%ax
 10010f8:	66 90                	xchg   %ax,%ax
 10010fa:	66 90                	xchg   %ax,%ax
 10010fc:	66 90                	xchg   %ax,%ax
 10010fe:	66 90                	xchg   %ax,%ax

01001100 <APIC_LocalInitialize>:
 1001100:	55                   	push   %ebp
 1001101:	89 e5                	mov    %esp,%ebp
 1001103:	53                   	push   %ebx
 1001104:	57                   	push   %edi
 1001105:	56                   	push   %esi
 1001106:	83 e4 f8             	and    $0xfffffff8,%esp
 1001109:	83 ec 48             	sub    $0x48,%esp
 100110c:	e8 0f 3c 00 00       	call   1004d20 <PIC_MaskAll>
 1001111:	c7 44 24 40 20 00 00 	movl   $0x20,0x40(%esp)
 1001118:	00 
 1001119:	81 7c 24 40 00 01 00 	cmpl   $0x100,0x40(%esp)
 1001120:	00 
 1001121:	0f 8d 88 00 00 00    	jge    10011af <APIC_LocalInitialize+0xaf>
 1001127:	8d 05 58 b0 84 01    	lea    0x184b058,%eax
 100112d:	6b 4c 24 40 30       	imul   $0x30,0x40(%esp),%ecx
 1001132:	01 c8                	add    %ecx,%eax
 1001134:	8b 4c 24 40          	mov    0x40(%esp),%ecx
 1001138:	88 ca                	mov    %cl,%dl
 100113a:	8b 4c 24 40          	mov    0x40(%esp),%ecx
 100113e:	83 e9 20             	sub    $0x20,%ecx
 1001141:	88 ce                	mov    %cl,%dh
 1001143:	89 04 24             	mov    %eax,(%esp)
 1001146:	0f b6 c2             	movzbl %dl,%eax
 1001149:	89 44 24 04          	mov    %eax,0x4(%esp)
 100114d:	0f b6 c6             	movzbl %dh,%eax
 1001150:	89 44 24 08          	mov    %eax,0x8(%esp)
 1001154:	e8 57 01 00 00       	call   10012b0 <APIC_FillHWInterruptHandler>
 1001159:	b8 08 00 00 00       	mov    $0x8,%eax
 100115e:	b9 8e 00 00 00       	mov    $0x8e,%ecx
 1001163:	8d 35 58 b0 84 01    	lea    0x184b058,%esi
 1001169:	8b 7c 24 40          	mov    0x40(%esp),%edi
 100116d:	89 fb                	mov    %edi,%ebx
 100116f:	88 da                	mov    %bl,%dl
 1001171:	6b 7c 24 40 30       	imul   $0x30,0x40(%esp),%edi
 1001176:	01 fe                	add    %edi,%esi
 1001178:	0f b6 fa             	movzbl %dl,%edi
 100117b:	89 3c 24             	mov    %edi,(%esp)
 100117e:	89 74 24 04          	mov    %esi,0x4(%esp)
 1001182:	c7 44 24 08 08 00 00 	movl   $0x8,0x8(%esp)
 1001189:	00 
 100118a:	c7 44 24 0c 8e 00 00 	movl   $0x8e,0xc(%esp)
 1001191:	00 
 1001192:	89 44 24 2c          	mov    %eax,0x2c(%esp)
 1001196:	89 4c 24 28          	mov    %ecx,0x28(%esp)
 100119a:	e8 e1 f6 ff ff       	call   1000880 <IDT_SetEntry>
 100119f:	8b 44 24 40          	mov    0x40(%esp),%eax
 10011a3:	83 c0 01             	add    $0x1,%eax
 10011a6:	89 44 24 40          	mov    %eax,0x40(%esp)
 10011aa:	e9 6a ff ff ff       	jmp    1001119 <APIC_LocalInitialize+0x19>
 10011af:	89 e0                	mov    %esp,%eax
 10011b1:	c7 00 1b 00 00 00    	movl   $0x1b,(%eax)
 10011b7:	e8 c4 25 00 00       	call   1003780 <rdmsr>
 10011bc:	89 54 24 3c          	mov    %edx,0x3c(%esp)
 10011c0:	89 44 24 38          	mov    %eax,0x38(%esp)
 10011c4:	8b 44 24 38          	mov    0x38(%esp),%eax
 10011c8:	25 00 f0 ff ff       	and    $0xfffff000,%eax
 10011cd:	a3 50 f0 a8 04       	mov    %eax,0x4a8f050
 10011d2:	8b 44 24 38          	mov    0x38(%esp),%eax
 10011d6:	8b 54 24 3c          	mov    0x3c(%esp),%edx
 10011da:	0d 00 08 00 00       	or     $0x800,%eax
 10011df:	89 54 24 3c          	mov    %edx,0x3c(%esp)
 10011e3:	89 44 24 38          	mov    %eax,0x38(%esp)
 10011e7:	89 e1                	mov    %esp,%ecx
 10011e9:	89 51 08             	mov    %edx,0x8(%ecx)
 10011ec:	89 41 04             	mov    %eax,0x4(%ecx)
 10011ef:	c7 01 1b 00 00 00    	movl   $0x1b,(%ecx)
 10011f5:	e8 46 25 00 00       	call   1003740 <wrmsr>
 10011fa:	b8 80 00 00 00       	mov    $0x80,%eax
 10011ff:	c7 04 24 80 00 00 00 	movl   $0x80,(%esp)
 1001206:	89 44 24 24          	mov    %eax,0x24(%esp)
 100120a:	e8 01 02 00 00       	call   1001410 <APIC_Read>
 100120f:	b9 80 00 00 00       	mov    $0x80,%ecx
 1001214:	89 44 24 34          	mov    %eax,0x34(%esp)
 1001218:	8b 44 24 34          	mov    0x34(%esp),%eax
 100121c:	25 00 ff ff ff       	and    $0xffffff00,%eax
 1001221:	89 44 24 34          	mov    %eax,0x34(%esp)
 1001225:	8b 44 24 34          	mov    0x34(%esp),%eax
 1001229:	c7 04 24 80 00 00 00 	movl   $0x80,(%esp)
 1001230:	89 44 24 04          	mov    %eax,0x4(%esp)
 1001234:	89 4c 24 20          	mov    %ecx,0x20(%esp)
 1001238:	e8 f3 01 00 00       	call   1001430 <APIC_Write>
 100123d:	b8 f0 00 00 00       	mov    $0xf0,%eax
 1001242:	c7 04 24 f0 00 00 00 	movl   $0xf0,(%esp)
 1001249:	89 44 24 1c          	mov    %eax,0x1c(%esp)
 100124d:	e8 be 01 00 00       	call   1001410 <APIC_Read>
 1001252:	b9 f0 00 00 00       	mov    $0xf0,%ecx
 1001257:	89 44 24 30          	mov    %eax,0x30(%esp)
 100125b:	8b 44 24 30          	mov    0x30(%esp),%eax
 100125f:	0d ff 00 00 00       	or     $0xff,%eax
 1001264:	89 44 24 30          	mov    %eax,0x30(%esp)
 1001268:	8b 44 24 30          	mov    0x30(%esp),%eax
 100126c:	c7 04 24 f0 00 00 00 	movl   $0xf0,(%esp)
 1001273:	89 44 24 04          	mov    %eax,0x4(%esp)
 1001277:	89 4c 24 18          	mov    %ecx,0x18(%esp)
 100127b:	e8 b0 01 00 00       	call   1001430 <APIC_Write>
 1001280:	b8 01 00 00 00       	mov    $0x1,%eax
 1001285:	c7 04 24 01 00 00 00 	movl   $0x1,(%esp)
 100128c:	89 44 24 14          	mov    %eax,0x14(%esp)
 1001290:	e8 cb 01 00 00       	call   1001460 <APIC_SetEnableMode>
 1001295:	b3 00                	mov    $0x0,%bl
 1001297:	0f b6 c3             	movzbl %bl,%eax
 100129a:	8d 65 f4             	lea    -0xc(%ebp),%esp
 100129d:	5e                   	pop    %esi
 100129e:	5f                   	pop    %edi
 100129f:	5b                   	pop    %ebx
 10012a0:	5d                   	pop    %ebp
 10012a1:	c3                   	ret    
 10012a2:	8d b4 26 00 00 00 00 	lea    0x0(%esi,%eiz,1),%esi
 10012a9:	8d bc 27 00 00 00 00 	lea    0x0(%edi,%eiz,1),%edi

010012b0 <APIC_FillHWInterruptHandler>:
 10012b0:	55                   	push   %ebp
 10012b1:	89 e5                	mov    %esp,%ebp
 10012b3:	53                   	push   %ebx
 10012b4:	57                   	push   %edi
 10012b5:	56                   	push   %esi
 10012b6:	83 ec 10             	sub    $0x10,%esp
 10012b9:	8a 45 10             	mov    0x10(%ebp),%al
 10012bc:	8a 4d 0c             	mov    0xc(%ebp),%cl
 10012bf:	8b 55 08             	mov    0x8(%ebp),%edx
 10012c2:	8d 35 60 18 00 01    	lea    0x1001860,%esi
 10012c8:	c1 fe 18             	sar    $0x18,%esi
 10012cb:	81 e6 ff 00 00 00    	and    $0xff,%esi
 10012d1:	89 55 f0             	mov    %edx,-0x10(%ebp)
 10012d4:	88 4d ef             	mov    %cl,-0x11(%ebp)
 10012d7:	88 45 ee             	mov    %al,-0x12(%ebp)
 10012da:	c7 45 e8 00 00 00 00 	movl   $0x0,-0x18(%ebp)
 10012e1:	c7 45 e8 01 00 00 00 	movl   $0x1,-0x18(%ebp)
 10012e8:	8b 55 f0             	mov    -0x10(%ebp),%edx
 10012eb:	c6 02 68             	movb   $0x68,(%edx)
 10012ee:	8a 45 ee             	mov    -0x12(%ebp),%al
 10012f1:	8b 55 e8             	mov    -0x18(%ebp),%edx
 10012f4:	89 d7                	mov    %edx,%edi
 10012f6:	47                   	inc    %edi
 10012f7:	89 7d e8             	mov    %edi,-0x18(%ebp)
 10012fa:	8b 7d f0             	mov    -0x10(%ebp),%edi
 10012fd:	88 04 17             	mov    %al,(%edi,%edx,1)
 1001300:	8b 55 e8             	mov    -0x18(%ebp),%edx
 1001303:	89 d7                	mov    %edx,%edi
 1001305:	47                   	inc    %edi
 1001306:	89 7d e8             	mov    %edi,-0x18(%ebp)
 1001309:	8b 7d f0             	mov    -0x10(%ebp),%edi
 100130c:	c6 04 17 00          	movb   $0x0,(%edi,%edx,1)
 1001310:	8b 55 e8             	mov    -0x18(%ebp),%edx
 1001313:	89 d7                	mov    %edx,%edi
 1001315:	47                   	inc    %edi
 1001316:	89 7d e8             	mov    %edi,-0x18(%ebp)
 1001319:	8b 7d f0             	mov    -0x10(%ebp),%edi
 100131c:	c6 04 17 00          	movb   $0x0,(%edi,%edx,1)
 1001320:	8b 55 e8             	mov    -0x18(%ebp),%edx
 1001323:	89 d7                	mov    %edx,%edi
 1001325:	47                   	inc    %edi
 1001326:	89 7d e8             	mov    %edi,-0x18(%ebp)
 1001329:	8b 7d f0             	mov    -0x10(%ebp),%edi
 100132c:	c6 04 17 00          	movb   $0x0,(%edi,%edx,1)
 1001330:	8b 55 e8             	mov    -0x18(%ebp),%edx
 1001333:	89 d7                	mov    %edx,%edi
 1001335:	47                   	inc    %edi
 1001336:	89 7d e8             	mov    %edi,-0x18(%ebp)
 1001339:	8b 7d f0             	mov    -0x10(%ebp),%edi
 100133c:	c6 04 17 68          	movb   $0x68,(%edi,%edx,1)
 1001340:	8a 45 ef             	mov    -0x11(%ebp),%al
 1001343:	8b 55 e8             	mov    -0x18(%ebp),%edx
 1001346:	89 d7                	mov    %edx,%edi
 1001348:	47                   	inc    %edi
 1001349:	89 7d e8             	mov    %edi,-0x18(%ebp)
 100134c:	8b 7d f0             	mov    -0x10(%ebp),%edi
 100134f:	88 04 17             	mov    %al,(%edi,%edx,1)
 1001352:	8b 55 e8             	mov    -0x18(%ebp),%edx
 1001355:	89 d7                	mov    %edx,%edi
 1001357:	47                   	inc    %edi
 1001358:	89 7d e8             	mov    %edi,-0x18(%ebp)
 100135b:	8b 7d f0             	mov    -0x10(%ebp),%edi
 100135e:	c6 04 17 00          	movb   $0x0,(%edi,%edx,1)
 1001362:	8b 55 e8             	mov    -0x18(%ebp),%edx
 1001365:	89 d7                	mov    %edx,%edi
 1001367:	47                   	inc    %edi
 1001368:	89 7d e8             	mov    %edi,-0x18(%ebp)
 100136b:	8b 7d f0             	mov    -0x10(%ebp),%edi
 100136e:	c6 04 17 00          	movb   $0x0,(%edi,%edx,1)
 1001372:	8b 55 e8             	mov    -0x18(%ebp),%edx
 1001375:	89 d7                	mov    %edx,%edi
 1001377:	47                   	inc    %edi
 1001378:	89 7d e8             	mov    %edi,-0x18(%ebp)
 100137b:	8b 7d f0             	mov    -0x10(%ebp),%edi
 100137e:	c6 04 17 00          	movb   $0x0,(%edi,%edx,1)
 1001382:	8b 55 e8             	mov    -0x18(%ebp),%edx
 1001385:	89 d7                	mov    %edx,%edi
 1001387:	47                   	inc    %edi
 1001388:	89 7d e8             	mov    %edi,-0x18(%ebp)
 100138b:	8b 7d f0             	mov    -0x10(%ebp),%edi
 100138e:	c6 04 17 68          	movb   $0x68,(%edi,%edx,1)
 1001392:	8b 55 e8             	mov    -0x18(%ebp),%edx
 1001395:	89 d7                	mov    %edx,%edi
 1001397:	47                   	inc    %edi
 1001398:	89 7d e8             	mov    %edi,-0x18(%ebp)
 100139b:	8b 7d f0             	mov    -0x10(%ebp),%edi
 100139e:	bb 60 18 00 01       	mov    $0x1001860,%ebx
 10013a3:	89 d8                	mov    %ebx,%eax
 10013a5:	88 c1                	mov    %al,%cl
 10013a7:	88 0c 17             	mov    %cl,(%edi,%edx,1)
 10013aa:	8b 55 e8             	mov    -0x18(%ebp),%edx
 10013ad:	89 d7                	mov    %edx,%edi
 10013af:	47                   	inc    %edi
 10013b0:	89 7d e8             	mov    %edi,-0x18(%ebp)
 10013b3:	8b 7d f0             	mov    -0x10(%ebp),%edi
 10013b6:	88 e1                	mov    %ah,%cl
 10013b8:	88 0c 17             	mov    %cl,(%edi,%edx,1)
 10013bb:	8b 45 e8             	mov    -0x18(%ebp),%eax
 10013be:	89 c2                	mov    %eax,%edx
 10013c0:	42                   	inc    %edx
 10013c1:	89 55 e8             	mov    %edx,-0x18(%ebp)
 10013c4:	8b 55 f0             	mov    -0x10(%ebp),%edx
 10013c7:	89 df                	mov    %ebx,%edi
 10013c9:	c1 ef 10             	shr    $0x10,%edi
 10013cc:	89 f9                	mov    %edi,%ecx
 10013ce:	88 0c 02             	mov    %cl,(%edx,%eax,1)
 10013d1:	8b 45 e8             	mov    -0x18(%ebp),%eax
 10013d4:	89 c2                	mov    %eax,%edx
 10013d6:	42                   	inc    %edx
 10013d7:	89 55 e8             	mov    %edx,-0x18(%ebp)
 10013da:	8b 55 f0             	mov    -0x10(%ebp),%edx
 10013dd:	c1 eb 18             	shr    $0x18,%ebx
 10013e0:	88 d9                	mov    %bl,%cl
 10013e2:	88 0c 02             	mov    %cl,(%edx,%eax,1)
 10013e5:	8b 45 e8             	mov    -0x18(%ebp),%eax
 10013e8:	89 c2                	mov    %eax,%edx
 10013ea:	83 c2 01             	add    $0x1,%edx
 10013ed:	89 55 e8             	mov    %edx,-0x18(%ebp)
 10013f0:	8b 55 f0             	mov    -0x10(%ebp),%edx
 10013f3:	c6 04 02 c3          	movb   $0xc3,(%edx,%eax,1)
 10013f7:	89 75 e4             	mov    %esi,-0x1c(%ebp)
 10013fa:	83 c4 10             	add    $0x10,%esp
 10013fd:	5e                   	pop    %esi
 10013fe:	5f                   	pop    %edi
 10013ff:	5b                   	pop    %ebx
 1001400:	5d                   	pop    %ebp
 1001401:	c3                   	ret    
 1001402:	8d b4 26 00 00 00 00 	lea    0x0(%esi,%eiz,1),%esi
 1001409:	8d bc 27 00 00 00 00 	lea    0x0(%edi,%eiz,1),%edi

01001410 <APIC_Read>:
 1001410:	55                   	push   %ebp
 1001411:	89 e5                	mov    %esp,%ebp
 1001413:	50                   	push   %eax
 1001414:	8b 45 08             	mov    0x8(%ebp),%eax
 1001417:	89 45 fc             	mov    %eax,-0x4(%ebp)
 100141a:	8b 45 fc             	mov    -0x4(%ebp),%eax
 100141d:	c1 e8 02             	shr    $0x2,%eax
 1001420:	8b 0d 50 f0 a8 04    	mov    0x4a8f050,%ecx
 1001426:	8b 04 81             	mov    (%ecx,%eax,4),%eax
 1001429:	83 c4 04             	add    $0x4,%esp
 100142c:	5d                   	pop    %ebp
 100142d:	c3                   	ret    
 100142e:	66 90                	xchg   %ax,%ax

01001430 <APIC_Write>:
 1001430:	55                   	push   %ebp
 1001431:	89 e5                	mov    %esp,%ebp
 1001433:	83 ec 08             	sub    $0x8,%esp
 1001436:	8b 45 0c             	mov    0xc(%ebp),%eax
 1001439:	8b 4d 08             	mov    0x8(%ebp),%ecx
 100143c:	89 4d fc             	mov    %ecx,-0x4(%ebp)
 100143f:	89 45 f8             	mov    %eax,-0x8(%ebp)
 1001442:	8b 45 f8             	mov    -0x8(%ebp),%eax
 1001445:	8b 4d fc             	mov    -0x4(%ebp),%ecx
 1001448:	c1 e9 02             	shr    $0x2,%ecx
 100144b:	8b 15 50 f0 a8 04    	mov    0x4a8f050,%edx
 1001451:	89 04 8a             	mov    %eax,(%edx,%ecx,4)
 1001454:	83 c4 08             	add    $0x8,%esp
 1001457:	5d                   	pop    %ebp
 1001458:	c3                   	ret    
 1001459:	8d b4 26 00 00 00 00 	lea    0x0(%esi,%eiz,1),%esi

01001460 <APIC_SetEnableMode>:
 1001460:	55                   	push   %ebp
 1001461:	89 e5                	mov    %esp,%ebp
 1001463:	56                   	push   %esi
 1001464:	83 ec 18             	sub    $0x18,%esp
 1001467:	8a 45 08             	mov    0x8(%ebp),%al
 100146a:	b9 f0 00 00 00       	mov    $0xf0,%ecx
 100146f:	88 45 fb             	mov    %al,-0x5(%ebp)
 1001472:	c7 04 24 f0 00 00 00 	movl   $0xf0,(%esp)
 1001479:	89 4d f0             	mov    %ecx,-0x10(%ebp)
 100147c:	e8 8f ff ff ff       	call   1001410 <APIC_Read>
 1001481:	b9 f0 00 00 00       	mov    $0xf0,%ecx
 1001486:	ba 00 00 00 00       	mov    $0x0,%edx
 100148b:	89 45 f4             	mov    %eax,-0xc(%ebp)
 100148e:	8b 45 f4             	mov    -0xc(%ebp),%eax
 1001491:	0f b6 75 fb          	movzbl -0x5(%ebp),%esi
 1001495:	83 e6 01             	and    $0x1,%esi
 1001498:	29 f2                	sub    %esi,%edx
 100149a:	33 55 f4             	xor    -0xc(%ebp),%edx
 100149d:	81 e2 00 01 00 00    	and    $0x100,%edx
 10014a3:	31 d0                	xor    %edx,%eax
 10014a5:	89 45 f4             	mov    %eax,-0xc(%ebp)
 10014a8:	8b 45 f4             	mov    -0xc(%ebp),%eax
 10014ab:	c7 04 24 f0 00 00 00 	movl   $0xf0,(%esp)
 10014b2:	89 44 24 04          	mov    %eax,0x4(%esp)
 10014b6:	89 4d ec             	mov    %ecx,-0x14(%ebp)
 10014b9:	e8 72 ff ff ff       	call   1001430 <APIC_Write>
 10014be:	83 c4 18             	add    $0x18,%esp
 10014c1:	5e                   	pop    %esi
 10014c2:	5d                   	pop    %ebp
 10014c3:	c3                   	ret    
 10014c4:	8d b6 00 00 00 00    	lea    0x0(%esi),%esi
 10014ca:	8d bf 00 00 00 00    	lea    0x0(%edi),%edi

010014d0 <APIC_Virtualize>:
 10014d0:	55                   	push   %ebp
 10014d1:	89 e5                	mov    %esp,%ebp
 10014d3:	a1 50 f0 a8 04       	mov    0x4a8f050,%eax
 10014d8:	2d 00 00 00 f0       	sub    $0xf0000000,%eax
 10014dd:	05 00 00 00 10       	add    $0x10000000,%eax
 10014e2:	a3 50 f0 a8 04       	mov    %eax,0x4a8f050
 10014e7:	5d                   	pop    %ebp
 10014e8:	c3                   	ret    
 10014e9:	8d b4 26 00 00 00 00 	lea    0x0(%esi,%eiz,1),%esi

010014f0 <APIC_SetEnableInterrupt>:
 10014f0:	55                   	push   %ebp
 10014f1:	89 e5                	mov    %esp,%ebp
 10014f3:	83 ec 14             	sub    $0x14,%esp
 10014f6:	8b 45 0c             	mov    0xc(%ebp),%eax
 10014f9:	8b 4d 08             	mov    0x8(%ebp),%ecx
 10014fc:	89 4d fc             	mov    %ecx,-0x4(%ebp)
 10014ff:	89 45 f8             	mov    %eax,-0x8(%ebp)
 1001502:	81 7d fc 20 03 00 00 	cmpl   $0x320,-0x4(%ebp)
 1001509:	72 09                	jb     1001514 <APIC_SetEnableInterrupt+0x24>
 100150b:	81 7d fc 70 03 00 00 	cmpl   $0x370,-0x4(%ebp)
 1001512:	76 02                	jbe    1001516 <APIC_SetEnableInterrupt+0x26>
 1001514:	eb 41                	jmp    1001557 <APIC_SetEnableInterrupt+0x67>
 1001516:	8b 45 fc             	mov    -0x4(%ebp),%eax
 1001519:	89 04 24             	mov    %eax,(%esp)
 100151c:	e8 ef fe ff ff       	call   1001410 <APIC_Read>
 1001521:	b9 00 00 00 00       	mov    $0x0,%ecx
 1001526:	89 45 f4             	mov    %eax,-0xc(%ebp)
 1001529:	8b 45 f4             	mov    -0xc(%ebp),%eax
 100152c:	8b 55 f8             	mov    -0x8(%ebp),%edx
 100152f:	83 f2 ff             	xor    $0xffffffff,%edx
 1001532:	83 e2 01             	and    $0x1,%edx
 1001535:	29 d1                	sub    %edx,%ecx
 1001537:	33 4d f4             	xor    -0xc(%ebp),%ecx
 100153a:	81 e1 00 00 01 00    	and    $0x10000,%ecx
 1001540:	31 c8                	xor    %ecx,%eax
 1001542:	89 45 f4             	mov    %eax,-0xc(%ebp)
 1001545:	8b 45 fc             	mov    -0x4(%ebp),%eax
 1001548:	8b 4d f4             	mov    -0xc(%ebp),%ecx
 100154b:	89 04 24             	mov    %eax,(%esp)
 100154e:	89 4c 24 04          	mov    %ecx,0x4(%esp)
 1001552:	e8 d9 fe ff ff       	call   1001430 <APIC_Write>
 1001557:	83 c4 14             	add    $0x14,%esp
 100155a:	5d                   	pop    %ebp
 100155b:	c3                   	ret    
 100155c:	8d 74 26 00          	lea    0x0(%esi,%eiz,1),%esi

01001560 <APIC_SetVector>:
 1001560:	55                   	push   %ebp
 1001561:	89 e5                	mov    %esp,%ebp
 1001563:	83 ec 14             	sub    $0x14,%esp
 1001566:	8a 45 0c             	mov    0xc(%ebp),%al
 1001569:	8b 4d 08             	mov    0x8(%ebp),%ecx
 100156c:	89 4d fc             	mov    %ecx,-0x4(%ebp)
 100156f:	88 45 fb             	mov    %al,-0x5(%ebp)
 1001572:	81 7d fc 20 03 00 00 	cmpl   $0x320,-0x4(%ebp)
 1001579:	72 09                	jb     1001584 <APIC_SetVector+0x24>
 100157b:	81 7d fc 70 03 00 00 	cmpl   $0x370,-0x4(%ebp)
 1001582:	76 02                	jbe    1001586 <APIC_SetVector+0x26>
 1001584:	eb 2c                	jmp    10015b2 <APIC_SetVector+0x52>
 1001586:	8b 45 fc             	mov    -0x4(%ebp),%eax
 1001589:	89 04 24             	mov    %eax,(%esp)
 100158c:	e8 7f fe ff ff       	call   1001410 <APIC_Read>
 1001591:	89 45 f4             	mov    %eax,-0xc(%ebp)
 1001594:	0f b6 45 fb          	movzbl -0x5(%ebp),%eax
 1001598:	8b 4d f4             	mov    -0xc(%ebp),%ecx
 100159b:	09 c1                	or     %eax,%ecx
 100159d:	89 4d f4             	mov    %ecx,-0xc(%ebp)
 10015a0:	8b 45 fc             	mov    -0x4(%ebp),%eax
 10015a3:	8b 4d f4             	mov    -0xc(%ebp),%ecx
 10015a6:	89 04 24             	mov    %eax,(%esp)
 10015a9:	89 4c 24 04          	mov    %ecx,0x4(%esp)
 10015ad:	e8 7e fe ff ff       	call   1001430 <APIC_Write>
 10015b2:	83 c4 14             	add    $0x14,%esp
 10015b5:	5d                   	pop    %ebp
 10015b6:	c3                   	ret    
 10015b7:	89 f6                	mov    %esi,%esi
 10015b9:	8d bc 27 00 00 00 00 	lea    0x0(%edi,%eiz,1),%edi

010015c0 <APIC_SetDeliveryMode>:
 10015c0:	55                   	push   %ebp
 10015c1:	89 e5                	mov    %esp,%ebp
 10015c3:	83 ec 14             	sub    $0x14,%esp
 10015c6:	8a 45 0c             	mov    0xc(%ebp),%al
 10015c9:	8b 4d 08             	mov    0x8(%ebp),%ecx
 10015cc:	89 4d fc             	mov    %ecx,-0x4(%ebp)
 10015cf:	88 45 fb             	mov    %al,-0x5(%ebp)
 10015d2:	81 7d fc 20 03 00 00 	cmpl   $0x320,-0x4(%ebp)
 10015d9:	72 09                	jb     10015e4 <APIC_SetDeliveryMode+0x24>
 10015db:	81 7d fc 60 03 00 00 	cmpl   $0x360,-0x4(%ebp)
 10015e2:	76 02                	jbe    10015e6 <APIC_SetDeliveryMode+0x26>
 10015e4:	eb 32                	jmp    1001618 <APIC_SetDeliveryMode+0x58>
 10015e6:	8b 45 fc             	mov    -0x4(%ebp),%eax
 10015e9:	89 04 24             	mov    %eax,(%esp)
 10015ec:	e8 1f fe ff ff       	call   1001410 <APIC_Read>
 10015f1:	89 45 f4             	mov    %eax,-0xc(%ebp)
 10015f4:	0f b6 45 fb          	movzbl -0x5(%ebp),%eax
 10015f8:	83 e0 07             	and    $0x7,%eax
 10015fb:	c1 e0 08             	shl    $0x8,%eax
 10015fe:	8b 4d f4             	mov    -0xc(%ebp),%ecx
 1001601:	09 c1                	or     %eax,%ecx
 1001603:	89 4d f4             	mov    %ecx,-0xc(%ebp)
 1001606:	8b 45 fc             	mov    -0x4(%ebp),%eax
 1001609:	8b 4d f4             	mov    -0xc(%ebp),%ecx
 100160c:	89 04 24             	mov    %eax,(%esp)
 100160f:	89 4c 24 04          	mov    %ecx,0x4(%esp)
 1001613:	e8 18 fe ff ff       	call   1001430 <APIC_Write>
 1001618:	83 c4 14             	add    $0x14,%esp
 100161b:	5d                   	pop    %ebp
 100161c:	c3                   	ret    
 100161d:	8d 76 00             	lea    0x0(%esi),%esi

01001620 <APIC_SetTriggerMode>:
 1001620:	55                   	push   %ebp
 1001621:	89 e5                	mov    %esp,%ebp
 1001623:	83 ec 14             	sub    $0x14,%esp
 1001626:	8a 45 0c             	mov    0xc(%ebp),%al
 1001629:	8b 4d 08             	mov    0x8(%ebp),%ecx
 100162c:	89 4d fc             	mov    %ecx,-0x4(%ebp)
 100162f:	88 45 fb             	mov    %al,-0x5(%ebp)
 1001632:	81 7d fc 50 03 00 00 	cmpl   $0x350,-0x4(%ebp)
 1001639:	72 09                	jb     1001644 <APIC_SetTriggerMode+0x24>
 100163b:	81 7d fc 60 03 00 00 	cmpl   $0x360,-0x4(%ebp)
 1001642:	76 02                	jbe    1001646 <APIC_SetTriggerMode+0x26>
 1001644:	eb 32                	jmp    1001678 <APIC_SetTriggerMode+0x58>
 1001646:	8b 45 fc             	mov    -0x4(%ebp),%eax
 1001649:	89 04 24             	mov    %eax,(%esp)
 100164c:	e8 bf fd ff ff       	call   1001410 <APIC_Read>
 1001651:	89 45 f4             	mov    %eax,-0xc(%ebp)
 1001654:	0f b6 45 fb          	movzbl -0x5(%ebp),%eax
 1001658:	83 e0 01             	and    $0x1,%eax
 100165b:	c1 e0 0f             	shl    $0xf,%eax
 100165e:	8b 4d f4             	mov    -0xc(%ebp),%ecx
 1001661:	09 c1                	or     %eax,%ecx
 1001663:	89 4d f4             	mov    %ecx,-0xc(%ebp)
 1001666:	8b 45 fc             	mov    -0x4(%ebp),%eax
 1001669:	8b 4d f4             	mov    -0xc(%ebp),%ecx
 100166c:	89 04 24             	mov    %eax,(%esp)
 100166f:	89 4c 24 04          	mov    %ecx,0x4(%esp)
 1001673:	e8 b8 fd ff ff       	call   1001430 <APIC_Write>
 1001678:	83 c4 14             	add    $0x14,%esp
 100167b:	5d                   	pop    %ebp
 100167c:	c3                   	ret    
 100167d:	8d 76 00             	lea    0x0(%esi),%esi

01001680 <APIC_SetPolarity>:
 1001680:	55                   	push   %ebp
 1001681:	89 e5                	mov    %esp,%ebp
 1001683:	83 ec 14             	sub    $0x14,%esp
 1001686:	8a 45 0c             	mov    0xc(%ebp),%al
 1001689:	8b 4d 08             	mov    0x8(%ebp),%ecx
 100168c:	89 4d fc             	mov    %ecx,-0x4(%ebp)
 100168f:	88 45 fb             	mov    %al,-0x5(%ebp)
 1001692:	81 7d fc 50 03 00 00 	cmpl   $0x350,-0x4(%ebp)
 1001699:	72 09                	jb     10016a4 <APIC_SetPolarity+0x24>
 100169b:	81 7d fc 60 03 00 00 	cmpl   $0x360,-0x4(%ebp)
 10016a2:	76 02                	jbe    10016a6 <APIC_SetPolarity+0x26>
 10016a4:	eb 32                	jmp    10016d8 <APIC_SetPolarity+0x58>
 10016a6:	8b 45 fc             	mov    -0x4(%ebp),%eax
 10016a9:	89 04 24             	mov    %eax,(%esp)
 10016ac:	e8 5f fd ff ff       	call   1001410 <APIC_Read>
 10016b1:	89 45 f4             	mov    %eax,-0xc(%ebp)
 10016b4:	0f b6 45 fb          	movzbl -0x5(%ebp),%eax
 10016b8:	83 e0 01             	and    $0x1,%eax
 10016bb:	c1 e0 0d             	shl    $0xd,%eax
 10016be:	8b 4d f4             	mov    -0xc(%ebp),%ecx
 10016c1:	09 c1                	or     %eax,%ecx
 10016c3:	89 4d f4             	mov    %ecx,-0xc(%ebp)
 10016c6:	8b 45 fc             	mov    -0x4(%ebp),%eax
 10016c9:	8b 4d f4             	mov    -0xc(%ebp),%ecx
 10016cc:	89 04 24             	mov    %eax,(%esp)
 10016cf:	89 4c 24 04          	mov    %ecx,0x4(%esp)
 10016d3:	e8 58 fd ff ff       	call   1001430 <APIC_Write>
 10016d8:	83 c4 14             	add    $0x14,%esp
 10016db:	5d                   	pop    %ebp
 10016dc:	c3                   	ret    
 10016dd:	8d 76 00             	lea    0x0(%esi),%esi

010016e0 <APIC_SetTimerMode>:
 10016e0:	55                   	push   %ebp
 10016e1:	89 e5                	mov    %esp,%ebp
 10016e3:	83 ec 18             	sub    $0x18,%esp
 10016e6:	8a 45 08             	mov    0x8(%ebp),%al
 10016e9:	b9 20 03 00 00       	mov    $0x320,%ecx
 10016ee:	88 45 ff             	mov    %al,-0x1(%ebp)
 10016f1:	c7 04 24 20 03 00 00 	movl   $0x320,(%esp)
 10016f8:	89 4d f4             	mov    %ecx,-0xc(%ebp)
 10016fb:	e8 10 fd ff ff       	call   1001410 <APIC_Read>
 1001700:	b9 20 03 00 00       	mov    $0x320,%ecx
 1001705:	89 45 f8             	mov    %eax,-0x8(%ebp)
 1001708:	0f b6 45 ff          	movzbl -0x1(%ebp),%eax
 100170c:	83 e0 03             	and    $0x3,%eax
 100170f:	c1 e0 11             	shl    $0x11,%eax
 1001712:	8b 55 f8             	mov    -0x8(%ebp),%edx
 1001715:	09 c2                	or     %eax,%edx
 1001717:	89 55 f8             	mov    %edx,-0x8(%ebp)
 100171a:	8b 45 f8             	mov    -0x8(%ebp),%eax
 100171d:	c7 04 24 20 03 00 00 	movl   $0x320,(%esp)
 1001724:	89 44 24 04          	mov    %eax,0x4(%esp)
 1001728:	89 4d f0             	mov    %ecx,-0x10(%ebp)
 100172b:	e8 00 fd ff ff       	call   1001430 <APIC_Write>
 1001730:	83 c4 18             	add    $0x18,%esp
 1001733:	5d                   	pop    %ebp
 1001734:	c3                   	ret    
 1001735:	8d 74 26 00          	lea    0x0(%esi,%eiz,1),%esi
 1001739:	8d bc 27 00 00 00 00 	lea    0x0(%edi,%eiz,1),%edi

01001740 <APIC_SetTimerDivisor>:
 1001740:	55                   	push   %ebp
 1001741:	89 e5                	mov    %esp,%ebp
 1001743:	53                   	push   %ebx
 1001744:	83 ec 14             	sub    $0x14,%esp
 1001747:	8a 45 08             	mov    0x8(%ebp),%al
 100174a:	88 45 fb             	mov    %al,-0x5(%ebp)
 100174d:	c6 45 fa 00          	movb   $0x0,-0x6(%ebp)
 1001751:	0f b6 4d fb          	movzbl -0x5(%ebp),%ecx
 1001755:	83 f9 10             	cmp    $0x10,%ecx
 1001758:	7e 25                	jle    100177f <APIC_SetTimerDivisor+0x3f>
 100175a:	b8 10 00 00 00       	mov    $0x10,%eax
 100175f:	0f b6 4d fa          	movzbl -0x6(%ebp),%ecx
 1001763:	83 c9 08             	or     $0x8,%ecx
 1001766:	88 ca                	mov    %cl,%dl
 1001768:	88 55 fa             	mov    %dl,-0x6(%ebp)
 100176b:	0f b6 4d fb          	movzbl -0x5(%ebp),%ecx
 100176f:	89 45 f4             	mov    %eax,-0xc(%ebp)
 1001772:	89 c8                	mov    %ecx,%eax
 1001774:	99                   	cltd   
 1001775:	8b 4d f4             	mov    -0xc(%ebp),%ecx
 1001778:	f7 f9                	idiv   %ecx
 100177a:	88 c3                	mov    %al,%bl
 100177c:	88 5d fb             	mov    %bl,-0x5(%ebp)
 100177f:	0f b6 45 fb          	movzbl -0x5(%ebp),%eax
 1001783:	83 f8 10             	cmp    $0x10,%eax
 1001786:	75 0e                	jne    1001796 <APIC_SetTimerDivisor+0x56>
 1001788:	0f b6 45 fa          	movzbl -0x6(%ebp),%eax
 100178c:	83 c8 03             	or     $0x3,%eax
 100178f:	88 c1                	mov    %al,%cl
 1001791:	88 4d fa             	mov    %cl,-0x6(%ebp)
 1001794:	eb 26                	jmp    10017bc <APIC_SetTimerDivisor+0x7c>
 1001796:	0f b6 45 fb          	movzbl -0x5(%ebp),%eax
 100179a:	83 f8 01             	cmp    $0x1,%eax
 100179d:	75 06                	jne    10017a5 <APIC_SetTimerDivisor+0x65>
 100179f:	c6 45 fa 0b          	movb   $0xb,-0x6(%ebp)
 10017a3:	eb 15                	jmp    10017ba <APIC_SetTimerDivisor+0x7a>
 10017a5:	0f b6 45 fb          	movzbl -0x5(%ebp),%eax
 10017a9:	c1 f8 02             	sar    $0x2,%eax
 10017ac:	83 e0 03             	and    $0x3,%eax
 10017af:	0f b6 4d fa          	movzbl -0x6(%ebp),%ecx
 10017b3:	09 c1                	or     %eax,%ecx
 10017b5:	88 ca                	mov    %cl,%dl
 10017b7:	88 55 fa             	mov    %dl,-0x6(%ebp)
 10017ba:	eb 00                	jmp    10017bc <APIC_SetTimerDivisor+0x7c>
 10017bc:	b8 e0 03 00 00       	mov    $0x3e0,%eax
 10017c1:	0f b6 4d fa          	movzbl -0x6(%ebp),%ecx
 10017c5:	c7 04 24 e0 03 00 00 	movl   $0x3e0,(%esp)
 10017cc:	89 4c 24 04          	mov    %ecx,0x4(%esp)
 10017d0:	89 45 f0             	mov    %eax,-0x10(%ebp)
 10017d3:	e8 58 fc ff ff       	call   1001430 <APIC_Write>
 10017d8:	83 c4 14             	add    $0x14,%esp
 10017db:	5b                   	pop    %ebx
 10017dc:	5d                   	pop    %ebp
 10017dd:	c3                   	ret    
 10017de:	66 90                	xchg   %ax,%ax

010017e0 <APIC_SetTimerValue>:
 10017e0:	55                   	push   %ebp
 10017e1:	89 e5                	mov    %esp,%ebp
 10017e3:	83 ec 10             	sub    $0x10,%esp
 10017e6:	8b 45 08             	mov    0x8(%ebp),%eax
 10017e9:	b9 80 03 00 00       	mov    $0x380,%ecx
 10017ee:	89 45 fc             	mov    %eax,-0x4(%ebp)
 10017f1:	8b 45 fc             	mov    -0x4(%ebp),%eax
 10017f4:	c7 04 24 80 03 00 00 	movl   $0x380,(%esp)
 10017fb:	89 44 24 04          	mov    %eax,0x4(%esp)
 10017ff:	89 4d f8             	mov    %ecx,-0x8(%ebp)
 1001802:	e8 29 fc ff ff       	call   1001430 <APIC_Write>
 1001807:	83 c4 10             	add    $0x10,%esp
 100180a:	5d                   	pop    %ebp
 100180b:	c3                   	ret    
 100180c:	8d 74 26 00          	lea    0x0(%esi,%eiz,1),%esi

01001810 <APIC_GetTimerValue>:
 1001810:	55                   	push   %ebp
 1001811:	89 e5                	mov    %esp,%ebp
 1001813:	83 ec 08             	sub    $0x8,%esp
 1001816:	b8 80 03 00 00       	mov    $0x380,%eax
 100181b:	c7 04 24 80 03 00 00 	movl   $0x380,(%esp)
 1001822:	89 45 fc             	mov    %eax,-0x4(%ebp)
 1001825:	e8 e6 fb ff ff       	call   1001410 <APIC_Read>
 100182a:	83 c4 08             	add    $0x8,%esp
 100182d:	5d                   	pop    %ebp
 100182e:	c3                   	ret    
 100182f:	90                   	nop

01001830 <APIC_GetID>:
 1001830:	55                   	push   %ebp
 1001831:	89 e5                	mov    %esp,%ebp
 1001833:	83 ec 08             	sub    $0x8,%esp
 1001836:	b8 20 00 00 00       	mov    $0x20,%eax
 100183b:	c7 04 24 20 00 00 00 	movl   $0x20,(%esp)
 1001842:	89 45 fc             	mov    %eax,-0x4(%ebp)
 1001845:	e8 c6 fb ff ff       	call   1001410 <APIC_Read>
 100184a:	88 c1                	mov    %al,%cl
 100184c:	0f b6 c1             	movzbl %cl,%eax
 100184f:	83 c4 08             	add    $0x8,%esp
 1001852:	5d                   	pop    %ebp
 1001853:	c3                   	ret    
 1001854:	8d b6 00 00 00 00    	lea    0x0(%esi),%esi
 100185a:	8d bf 00 00 00 00    	lea    0x0(%edi),%edi

01001860 <APIC_DefaultHandler>:
 1001860:	60                   	pusha  
 1001861:	66 8c d8             	mov    %ds,%ax
 1001864:	50                   	push   %eax
 1001865:	66 b8 10 00          	mov    $0x10,%ax
 1001869:	8e d8                	mov    %eax,%ds
 100186b:	8e c0                	mov    %eax,%es
 100186d:	8e e0                	mov    %eax,%fs
 100186f:	8e e8                	mov    %eax,%gs
 1001871:	54                   	push   %esp
 1001872:	e8 d9 00 00 00       	call   1001950 <APIC_MainHandler>
 1001877:	5b                   	pop    %ebx
 1001878:	5b                   	pop    %ebx
 1001879:	8e db                	mov    %ebx,%ds
 100187b:	8e c3                	mov    %ebx,%es
 100187d:	8e e3                	mov    %ebx,%fs
 100187f:	8e eb                	mov    %ebx,%gs
 1001881:	61                   	popa   
 1001882:	83 c4 08             	add    $0x8,%esp
 1001885:	cf                   	iret   
 1001886:	c3                   	ret    
 1001887:	89 f6                	mov    %esi,%esi
 1001889:	8d bc 27 00 00 00 00 	lea    0x0(%edi,%eiz,1),%edi

01001890 <APIC_SendEOI>:
 1001890:	55                   	push   %ebp
 1001891:	89 e5                	mov    %esp,%ebp
 1001893:	56                   	push   %esi
 1001894:	83 ec 2c             	sub    $0x2c,%esp
 1001897:	8a 45 08             	mov    0x8(%ebp),%al
 100189a:	b9 20 00 00 00       	mov    $0x20,%ecx
 100189f:	88 45 fb             	mov    %al,-0x5(%ebp)
 10018a2:	0f b6 45 fb          	movzbl -0x5(%ebp),%eax
 10018a6:	99                   	cltd   
 10018a7:	f7 f9                	idiv   %ecx
 10018a9:	c1 e0 04             	shl    $0x4,%eax
 10018ac:	05 00 01 00 00       	add    $0x100,%eax
 10018b1:	89 45 f4             	mov    %eax,-0xc(%ebp)
 10018b4:	8b 45 f4             	mov    -0xc(%ebp),%eax
 10018b7:	89 04 24             	mov    %eax,(%esp)
 10018ba:	e8 51 fb ff ff       	call   1001410 <APIC_Read>
 10018bf:	b9 20 00 00 00       	mov    $0x20,%ecx
 10018c4:	ba 01 00 00 00       	mov    $0x1,%edx
 10018c9:	89 45 f0             	mov    %eax,-0x10(%ebp)
 10018cc:	8b 45 f0             	mov    -0x10(%ebp),%eax
 10018cf:	0f b6 75 fb          	movzbl -0x5(%ebp),%esi
 10018d3:	89 45 ec             	mov    %eax,-0x14(%ebp)
 10018d6:	89 f0                	mov    %esi,%eax
 10018d8:	89 55 e8             	mov    %edx,-0x18(%ebp)
 10018db:	99                   	cltd   
 10018dc:	f7 f9                	idiv   %ecx
 10018de:	89 4d e4             	mov    %ecx,-0x1c(%ebp)
 10018e1:	89 d1                	mov    %edx,%ecx
 10018e3:	8b 45 e8             	mov    -0x18(%ebp),%eax
 10018e6:	d3 e0                	shl    %cl,%eax
 10018e8:	8b 55 ec             	mov    -0x14(%ebp),%edx
 10018eb:	21 c2                	and    %eax,%edx
 10018ed:	0f b6 45 fb          	movzbl -0x5(%ebp),%eax
 10018f1:	89 55 e0             	mov    %edx,-0x20(%ebp)
 10018f4:	99                   	cltd   
 10018f5:	8b 75 e4             	mov    -0x1c(%ebp),%esi
 10018f8:	f7 fe                	idiv   %esi
 10018fa:	89 d1                	mov    %edx,%ecx
 10018fc:	8b 45 e0             	mov    -0x20(%ebp),%eax
 10018ff:	d3 e8                	shr    %cl,%eax
 1001901:	83 f8 00             	cmp    $0x0,%eax
 1001904:	74 3a                	je     1001940 <APIC_SendEOI+0xb0>
 1001906:	8d 05 04 41 7f 01    	lea    0x17f4104,%eax
 100190c:	0f b6 4d fb          	movzbl -0x5(%ebp),%ecx
 1001910:	89 04 24             	mov    %eax,(%esp)
 1001913:	89 4c 24 04          	mov    %ecx,0x4(%esp)
 1001917:	e8 04 f4 ff ff       	call   1000d20 <COM_WriteStr>
 100191c:	b8 b0 00 00 00       	mov    $0xb0,%eax
 1001921:	b9 ef be ad de       	mov    $0xdeadbeef,%ecx
 1001926:	c7 04 24 b0 00 00 00 	movl   $0xb0,(%esp)
 100192d:	c7 44 24 04 ef be ad 	movl   $0xdeadbeef,0x4(%esp)
 1001934:	de 
 1001935:	89 45 dc             	mov    %eax,-0x24(%ebp)
 1001938:	89 4d d8             	mov    %ecx,-0x28(%ebp)
 100193b:	e8 f0 fa ff ff       	call   1001430 <APIC_Write>
 1001940:	83 c4 2c             	add    $0x2c,%esp
 1001943:	5e                   	pop    %esi
 1001944:	5d                   	pop    %ebp
 1001945:	c3                   	ret    
 1001946:	8d 76 00             	lea    0x0(%esi),%esi
 1001949:	8d bc 27 00 00 00 00 	lea    0x0(%edi,%eiz,1),%edi

01001950 <APIC_MainHandler>:
 1001950:	55                   	push   %ebp
 1001951:	89 e5                	mov    %esp,%ebp
 1001953:	83 ec 08             	sub    $0x8,%esp
 1001956:	8b 45 08             	mov    0x8(%ebp),%eax
 1001959:	89 45 fc             	mov    %eax,-0x4(%ebp)
 100195c:	8b 45 fc             	mov    -0x4(%ebp),%eax
 100195f:	89 04 24             	mov    %eax,(%esp)
 1001962:	e8 49 f1 ff ff       	call   1000ab0 <IDT_MainHandler>
 1001967:	83 c4 08             	add    $0x8,%esp
 100196a:	5d                   	pop    %ebp
 100196b:	c3                   	ret    
 100196c:	66 90                	xchg   %ax,%ax
 100196e:	66 90                	xchg   %ax,%ax

01001970 <APIC_Initialize>:
 1001970:	55                   	push   %ebp
 1001971:	89 e5                	mov    %esp,%ebp
 1001973:	53                   	push   %ebx
 1001974:	57                   	push   %edi
 1001975:	56                   	push   %esi
 1001976:	83 ec 78             	sub    $0x78,%esp
 1001979:	b8 01 00 00 00       	mov    $0x1,%eax
 100197e:	b9 00 02 00 00       	mov    $0x200,%ecx
 1001983:	c7 04 24 01 00 00 00 	movl   $0x1,(%esp)
 100198a:	c7 44 24 04 00 02 00 	movl   $0x200,0x4(%esp)
 1001991:	00 
 1001992:	89 45 b4             	mov    %eax,-0x4c(%ebp)
 1001995:	89 4d b0             	mov    %ecx,-0x50(%ebp)
 1001998:	e8 83 f1 ff ff       	call   1000b20 <CPUID_FeatureIsAvailable>
 100199d:	88 45 ef             	mov    %al,-0x11(%ebp)
 10019a0:	80 7d ef 00          	cmpb   $0x0,-0x11(%ebp)
 10019a4:	75 0c                	jne    10019b2 <APIC_Initialize+0x42>
 10019a6:	c7 45 f0 ff ff ff ff 	movl   $0xffffffff,-0x10(%ebp)
 10019ad:	e9 40 04 00 00       	jmp    1001df2 <APIC_Initialize+0x482>
 10019b2:	e8 49 f7 ff ff       	call   1001100 <APIC_LocalInitialize>
 10019b7:	8d 0d 6d 66 82 01    	lea    0x182666d,%ecx
 10019bd:	ba 00 00 00 00       	mov    $0x0,%edx
 10019c2:	89 0c 24             	mov    %ecx,(%esp)
 10019c5:	c7 44 24 04 00 00 00 	movl   $0x0,0x4(%esp)
 10019cc:	00 
 10019cd:	88 45 af             	mov    %al,-0x51(%ebp)
 10019d0:	89 55 a8             	mov    %edx,-0x58(%ebp)
 10019d3:	e8 58 f5 ff ff       	call   1000f30 <ACPITables_FindTable>
 10019d8:	89 45 e8             	mov    %eax,-0x18(%ebp)
 10019db:	c7 45 e4 01 00 00 00 	movl   $0x1,-0x1c(%ebp)
 10019e2:	83 7d e8 00          	cmpl   $0x0,-0x18(%ebp)
 10019e6:	0f 84 e8 03 00 00    	je     1001dd4 <APIC_Initialize+0x464>
 10019ec:	eb 00                	jmp    10019ee <APIC_Initialize+0x7e>
 10019ee:	83 7d e8 00          	cmpl   $0x0,-0x18(%ebp)
 10019f2:	0f 84 da 03 00 00    	je     1001dd2 <APIC_Initialize+0x462>
 10019f8:	8b 45 e8             	mov    -0x18(%ebp),%eax
 10019fb:	8b 40 04             	mov    0x4(%eax),%eax
 10019fe:	83 e8 08             	sub    $0x8,%eax
 1001a01:	83 e8 24             	sub    $0x24,%eax
 1001a04:	89 45 e0             	mov    %eax,-0x20(%ebp)
 1001a07:	c7 45 dc 00 00 00 00 	movl   $0x0,-0x24(%ebp)
 1001a0e:	83 7d dc 02          	cmpl   $0x2,-0x24(%ebp)
 1001a12:	0f 8d 95 03 00 00    	jge    1001dad <APIC_Initialize+0x43d>
 1001a18:	c7 45 d8 00 00 00 00 	movl   $0x0,-0x28(%ebp)
 1001a1f:	8b 45 d8             	mov    -0x28(%ebp),%eax
 1001a22:	3b 45 e0             	cmp    -0x20(%ebp),%eax
 1001a25:	0f 83 72 03 00 00    	jae    1001d9d <APIC_Initialize+0x42d>
 1001a2b:	8b 45 d8             	mov    -0x28(%ebp),%eax
 1001a2e:	8b 4d e8             	mov    -0x18(%ebp),%ecx
 1001a31:	8d 54 01 2c          	lea    0x2c(%ecx,%eax,1),%edx
 1001a35:	89 55 d4             	mov    %edx,-0x2c(%ebp)
 1001a38:	0f b6 44 01 2c       	movzbl 0x2c(%ecx,%eax,1),%eax
 1001a3d:	89 c1                	mov    %eax,%ecx
 1001a3f:	83 e9 03             	sub    $0x3,%ecx
 1001a42:	89 45 a4             	mov    %eax,-0x5c(%ebp)
 1001a45:	89 4d a0             	mov    %ecx,-0x60(%ebp)
 1001a48:	0f 87 10 03 00 00    	ja     1001d5e <APIC_Initialize+0x3ee>
 1001a4e:	8b 45 a4             	mov    -0x5c(%ebp),%eax
 1001a51:	8b 0c 85 00 b0 00 01 	mov    0x100b000(,%eax,4),%ecx
 1001a58:	ff e1                	jmp    *%ecx
 1001a5a:	83 7d dc 00          	cmpl   $0x0,-0x24(%ebp)
 1001a5e:	74 05                	je     1001a65 <APIC_Initialize+0xf5>
 1001a60:	e9 0f 03 00 00       	jmp    1001d74 <APIC_Initialize+0x404>
 1001a65:	8d 05 1d 41 7f 01    	lea    0x17f411d,%eax
 1001a6b:	8b 4d d4             	mov    -0x2c(%ebp),%ecx
 1001a6e:	89 4d d0             	mov    %ecx,-0x30(%ebp)
 1001a71:	89 04 24             	mov    %eax,(%esp)
 1001a74:	e8 a7 f2 ff ff       	call   1000d20 <COM_WriteStr>
 1001a79:	8d 05 27 41 7f 01    	lea    0x17f4127,%eax
 1001a7f:	8b 4d d0             	mov    -0x30(%ebp),%ecx
 1001a82:	0f b6 49 01          	movzbl 0x1(%ecx),%ecx
 1001a86:	89 04 24             	mov    %eax,(%esp)
 1001a89:	89 4c 24 04          	mov    %ecx,0x4(%esp)
 1001a8d:	e8 8e f2 ff ff       	call   1000d20 <COM_WriteStr>
 1001a92:	8d 05 32 41 7f 01    	lea    0x17f4132,%eax
 1001a98:	8b 4d d0             	mov    -0x30(%ebp),%ecx
 1001a9b:	0f b6 49 03          	movzbl 0x3(%ecx),%ecx
 1001a9f:	89 04 24             	mov    %eax,(%esp)
 1001aa2:	89 4c 24 04          	mov    %ecx,0x4(%esp)
 1001aa6:	e8 75 f2 ff ff       	call   1000d20 <COM_WriteStr>
 1001aab:	8d 05 3c 41 7f 01    	lea    0x17f413c,%eax
 1001ab1:	8b 4d d0             	mov    -0x30(%ebp),%ecx
 1001ab4:	0f b6 49 02          	movzbl 0x2(%ecx),%ecx
 1001ab8:	89 04 24             	mov    %eax,(%esp)
 1001abb:	89 4c 24 04          	mov    %ecx,0x4(%esp)
 1001abf:	e8 5c f2 ff ff       	call   1000d20 <COM_WriteStr>
 1001ac4:	8d 05 50 41 7f 01    	lea    0x17f4150,%eax
 1001aca:	8b 4d d0             	mov    -0x30(%ebp),%ecx
 1001acd:	8b 49 04             	mov    0x4(%ecx),%ecx
 1001ad0:	89 04 24             	mov    %eax,(%esp)
 1001ad3:	89 4c 24 04          	mov    %ecx,0x4(%esp)
 1001ad7:	e8 44 f2 ff ff       	call   1000d20 <COM_WriteStr>
 1001adc:	e9 93 02 00 00       	jmp    1001d74 <APIC_Initialize+0x404>
 1001ae1:	83 7d dc 00          	cmpl   $0x0,-0x24(%ebp)
 1001ae5:	74 05                	je     1001aec <APIC_Initialize+0x17c>
 1001ae7:	e9 88 02 00 00       	jmp    1001d74 <APIC_Initialize+0x404>
 1001aec:	8d 05 5a 41 7f 01    	lea    0x17f415a,%eax
 1001af2:	8b 4d d4             	mov    -0x2c(%ebp),%ecx
 1001af5:	89 4d cc             	mov    %ecx,-0x34(%ebp)
 1001af8:	89 04 24             	mov    %eax,(%esp)
 1001afb:	e8 20 f2 ff ff       	call   1000d20 <COM_WriteStr>
 1001b00:	8d 05 27 41 7f 01    	lea    0x17f4127,%eax
 1001b06:	8b 4d cc             	mov    -0x34(%ebp),%ecx
 1001b09:	0f b6 49 01          	movzbl 0x1(%ecx),%ecx
 1001b0d:	89 04 24             	mov    %eax,(%esp)
 1001b10:	89 4c 24 04          	mov    %ecx,0x4(%esp)
 1001b14:	e8 07 f2 ff ff       	call   1000d20 <COM_WriteStr>
 1001b19:	8d 05 65 41 7f 01    	lea    0x17f4165,%eax
 1001b1f:	8b 4d cc             	mov    -0x34(%ebp),%ecx
 1001b22:	0f b6 49 02          	movzbl 0x2(%ecx),%ecx
 1001b26:	89 04 24             	mov    %eax,(%esp)
 1001b29:	89 4c 24 04          	mov    %ecx,0x4(%esp)
 1001b2d:	e8 ee f1 ff ff       	call   1000d20 <COM_WriteStr>
 1001b32:	8d 05 6f 41 7f 01    	lea    0x17f416f,%eax
 1001b38:	8b 4d cc             	mov    -0x34(%ebp),%ecx
 1001b3b:	8b 49 04             	mov    0x4(%ecx),%ecx
 1001b3e:	89 04 24             	mov    %eax,(%esp)
 1001b41:	89 4c 24 04          	mov    %ecx,0x4(%esp)
 1001b45:	e8 d6 f1 ff ff       	call   1000d20 <COM_WriteStr>
 1001b4a:	8d 05 83 41 7f 01    	lea    0x17f4183,%eax
 1001b50:	8b 4d cc             	mov    -0x34(%ebp),%ecx
 1001b53:	8b 49 08             	mov    0x8(%ecx),%ecx
 1001b56:	89 04 24             	mov    %eax,(%esp)
 1001b59:	89 4c 24 04          	mov    %ecx,0x4(%esp)
 1001b5d:	e8 be f1 ff ff       	call   1000d20 <COM_WriteStr>
 1001b62:	8b 45 cc             	mov    -0x34(%ebp),%eax
 1001b65:	8b 40 04             	mov    0x4(%eax),%eax
 1001b68:	8b 4d cc             	mov    -0x34(%ebp),%ecx
 1001b6b:	8b 49 08             	mov    0x8(%ecx),%ecx
 1001b6e:	89 04 24             	mov    %eax,(%esp)
 1001b71:	89 4c 24 04          	mov    %ecx,0x4(%esp)
 1001b75:	e8 86 02 00 00       	call   1001e00 <IOAPIC_Initialize>
 1001b7a:	c7 45 c8 00 00 00 00 	movl   $0x0,-0x38(%ebp)
 1001b81:	88 45 9f             	mov    %al,-0x61(%ebp)
 1001b84:	83 7d c8 10          	cmpl   $0x10,-0x38(%ebp)
 1001b88:	7d 5a                	jge    1001be4 <APIC_Initialize+0x274>
 1001b8a:	8b 45 c8             	mov    -0x38(%ebp),%eax
 1001b8d:	89 c1                	mov    %eax,%ecx
 1001b8f:	88 ca                	mov    %cl,%dl
 1001b91:	83 c0 20             	add    $0x20,%eax
 1001b94:	88 c6                	mov    %al,%dh
 1001b96:	88 55 9e             	mov    %dl,-0x62(%ebp)
 1001b99:	88 75 9d             	mov    %dh,-0x63(%ebp)
 1001b9c:	e8 8f fc ff ff       	call   1001830 <APIC_GetID>
 1001ba1:	0f b6 c8             	movzbl %al,%ecx
 1001ba4:	31 f6                	xor    %esi,%esi
 1001ba6:	89 e7                	mov    %esp,%edi
 1001ba8:	89 77 0c             	mov    %esi,0xc(%edi)
 1001bab:	89 4f 08             	mov    %ecx,0x8(%edi)
 1001bae:	8a 45 9d             	mov    -0x63(%ebp),%al
 1001bb1:	0f b6 c8             	movzbl %al,%ecx
 1001bb4:	89 4f 04             	mov    %ecx,0x4(%edi)
 1001bb7:	8a 55 9e             	mov    -0x62(%ebp),%dl
 1001bba:	0f b6 ca             	movzbl %dl,%ecx
 1001bbd:	89 0f                	mov    %ecx,(%edi)
 1001bbf:	c7 47 18 00 00 00 00 	movl   $0x0,0x18(%edi)
 1001bc6:	c7 47 14 00 00 00 00 	movl   $0x0,0x14(%edi)
 1001bcd:	c7 47 10 00 00 00 00 	movl   $0x0,0x10(%edi)
 1001bd4:	e8 67 04 00 00       	call   1002040 <IOAPIC_MapIRQ>
 1001bd9:	8b 45 c8             	mov    -0x38(%ebp),%eax
 1001bdc:	83 c0 01             	add    $0x1,%eax
 1001bdf:	89 45 c8             	mov    %eax,-0x38(%ebp)
 1001be2:	eb a0                	jmp    1001b84 <APIC_Initialize+0x214>
 1001be4:	e9 8b 01 00 00       	jmp    1001d74 <APIC_Initialize+0x404>
 1001be9:	83 7d dc 00          	cmpl   $0x0,-0x24(%ebp)
 1001bed:	75 05                	jne    1001bf4 <APIC_Initialize+0x284>
 1001bef:	e9 80 01 00 00       	jmp    1001d74 <APIC_Initialize+0x404>
 1001bf4:	8b 45 d4             	mov    -0x2c(%ebp),%eax
 1001bf7:	89 45 c4             	mov    %eax,-0x3c(%ebp)
 1001bfa:	8b 45 c4             	mov    -0x3c(%ebp),%eax
 1001bfd:	0f b7 40 08          	movzwl 0x8(%eax),%eax
 1001c01:	83 e0 03             	and    $0x3,%eax
 1001c04:	89 45 c0             	mov    %eax,-0x40(%ebp)
 1001c07:	8b 45 c4             	mov    -0x3c(%ebp),%eax
 1001c0a:	0f b7 40 08          	movzwl 0x8(%eax),%eax
 1001c0e:	c1 f8 02             	sar    $0x2,%eax
 1001c11:	83 e0 03             	and    $0x3,%eax
 1001c14:	89 45 bc             	mov    %eax,-0x44(%ebp)
 1001c17:	8b 45 c4             	mov    -0x3c(%ebp),%eax
 1001c1a:	0f b6 40 03          	movzbl 0x3(%eax),%eax
 1001c1e:	83 f8 00             	cmp    $0x0,%eax
 1001c21:	75 60                	jne    1001c83 <APIC_Initialize+0x313>
 1001c23:	8b 45 c4             	mov    -0x3c(%ebp),%eax
 1001c26:	8a 48 04             	mov    0x4(%eax),%cl
 1001c29:	0f b6 40 03          	movzbl 0x3(%eax),%eax
 1001c2d:	83 c0 20             	add    $0x20,%eax
 1001c30:	88 c2                	mov    %al,%dl
 1001c32:	88 4d 9c             	mov    %cl,-0x64(%ebp)
 1001c35:	88 55 9b             	mov    %dl,-0x65(%ebp)
 1001c38:	e8 f3 fb ff ff       	call   1001830 <APIC_GetID>
 1001c3d:	0f b6 f0             	movzbl %al,%esi
 1001c40:	31 ff                	xor    %edi,%edi
 1001c42:	8b 5d bc             	mov    -0x44(%ebp),%ebx
 1001c45:	d1 fb                	sar    %ebx
 1001c47:	88 d8                	mov    %bl,%al
 1001c49:	8b 5d c0             	mov    -0x40(%ebp),%ebx
 1001c4c:	d1 fb                	sar    %ebx
 1001c4e:	88 d9                	mov    %bl,%cl
 1001c50:	0f b6 d9             	movzbl %cl,%ebx
 1001c53:	89 e1                	mov    %esp,%ecx
 1001c55:	89 59 14             	mov    %ebx,0x14(%ecx)
 1001c58:	0f b6 d8             	movzbl %al,%ebx
 1001c5b:	89 59 10             	mov    %ebx,0x10(%ecx)
 1001c5e:	89 79 0c             	mov    %edi,0xc(%ecx)
 1001c61:	89 71 08             	mov    %esi,0x8(%ecx)
 1001c64:	8a 45 9b             	mov    -0x65(%ebp),%al
 1001c67:	0f b6 f0             	movzbl %al,%esi
 1001c6a:	89 71 04             	mov    %esi,0x4(%ecx)
 1001c6d:	8a 55 9c             	mov    -0x64(%ebp),%dl
 1001c70:	0f b6 f2             	movzbl %dl,%esi
 1001c73:	89 31                	mov    %esi,(%ecx)
 1001c75:	c7 41 18 00 00 00 00 	movl   $0x0,0x18(%ecx)
 1001c7c:	e8 bf 03 00 00       	call   1002040 <IOAPIC_MapIRQ>
 1001c81:	eb 58                	jmp    1001cdb <APIC_Initialize+0x36b>
 1001c83:	8b 45 c4             	mov    -0x3c(%ebp),%eax
 1001c86:	8a 48 03             	mov    0x3(%eax),%cl
 1001c89:	8a 50 04             	mov    0x4(%eax),%dl
 1001c8c:	88 4d 9a             	mov    %cl,-0x66(%ebp)
 1001c8f:	88 55 99             	mov    %dl,-0x67(%ebp)
 1001c92:	e8 99 fb ff ff       	call   1001830 <APIC_GetID>
 1001c97:	0f b6 f0             	movzbl %al,%esi
 1001c9a:	31 ff                	xor    %edi,%edi
 1001c9c:	8b 5d bc             	mov    -0x44(%ebp),%ebx
 1001c9f:	d1 fb                	sar    %ebx
 1001ca1:	88 d8                	mov    %bl,%al
 1001ca3:	8b 5d c0             	mov    -0x40(%ebp),%ebx
 1001ca6:	d1 fb                	sar    %ebx
 1001ca8:	88 d9                	mov    %bl,%cl
 1001caa:	0f b6 d9             	movzbl %cl,%ebx
 1001cad:	89 e1                	mov    %esp,%ecx
 1001caf:	89 59 14             	mov    %ebx,0x14(%ecx)
 1001cb2:	0f b6 d8             	movzbl %al,%ebx
 1001cb5:	89 59 10             	mov    %ebx,0x10(%ecx)
 1001cb8:	89 79 0c             	mov    %edi,0xc(%ecx)
 1001cbb:	89 71 08             	mov    %esi,0x8(%ecx)
 1001cbe:	8a 45 9a             	mov    -0x66(%ebp),%al
 1001cc1:	0f b6 f0             	movzbl %al,%esi
 1001cc4:	89 71 04             	mov    %esi,0x4(%ecx)
 1001cc7:	8a 55 99             	mov    -0x67(%ebp),%dl
 1001cca:	0f b6 f2             	movzbl %dl,%esi
 1001ccd:	89 31                	mov    %esi,(%ecx)
 1001ccf:	c7 41 18 00 00 00 00 	movl   $0x0,0x18(%ecx)
 1001cd6:	e8 65 03 00 00       	call   1002040 <IOAPIC_MapIRQ>
 1001cdb:	8d 05 a0 41 7f 01    	lea    0x17f41a0,%eax
 1001ce1:	89 04 24             	mov    %eax,(%esp)
 1001ce4:	e8 37 f0 ff ff       	call   1000d20 <COM_WriteStr>
 1001ce9:	8d 05 27 41 7f 01    	lea    0x17f4127,%eax
 1001cef:	8b 4d c4             	mov    -0x3c(%ebp),%ecx
 1001cf2:	0f b6 49 01          	movzbl 0x1(%ecx),%ecx
 1001cf6:	89 04 24             	mov    %eax,(%esp)
 1001cf9:	89 4c 24 04          	mov    %ecx,0x4(%esp)
 1001cfd:	e8 1e f0 ff ff       	call   1000d20 <COM_WriteStr>
 1001d02:	8d 05 ab 41 7f 01    	lea    0x17f41ab,%eax
 1001d08:	8b 4d c4             	mov    -0x3c(%ebp),%ecx
 1001d0b:	0f b6 49 03          	movzbl 0x3(%ecx),%ecx
 1001d0f:	89 04 24             	mov    %eax,(%esp)
 1001d12:	89 4c 24 04          	mov    %ecx,0x4(%esp)
 1001d16:	e8 05 f0 ff ff       	call   1000d20 <COM_WriteStr>
 1001d1b:	8d 05 b6 41 7f 01    	lea    0x17f41b6,%eax
 1001d21:	8b 4d c4             	mov    -0x3c(%ebp),%ecx
 1001d24:	0f b6 49 02          	movzbl 0x2(%ecx),%ecx
 1001d28:	89 04 24             	mov    %eax,(%esp)
 1001d2b:	89 4c 24 04          	mov    %ecx,0x4(%esp)
 1001d2f:	e8 ec ef ff ff       	call   1000d20 <COM_WriteStr>
 1001d34:	8d 05 c1 41 7f 01    	lea    0x17f41c1,%eax
 1001d3a:	8b 4d c4             	mov    -0x3c(%ebp),%ecx
 1001d3d:	8b 49 04             	mov    0x4(%ecx),%ecx
 1001d40:	89 04 24             	mov    %eax,(%esp)
 1001d43:	89 4c 24 04          	mov    %ecx,0x4(%esp)
 1001d47:	e8 d4 ef ff ff       	call   1000d20 <COM_WriteStr>
 1001d4c:	eb 26                	jmp    1001d74 <APIC_Initialize+0x404>
 1001d4e:	83 7d dc 00          	cmpl   $0x0,-0x24(%ebp)
 1001d52:	75 02                	jne    1001d56 <APIC_Initialize+0x3e6>
 1001d54:	eb 1e                	jmp    1001d74 <APIC_Initialize+0x404>
 1001d56:	8b 45 d4             	mov    -0x2c(%ebp),%eax
 1001d59:	89 45 b8             	mov    %eax,-0x48(%ebp)
 1001d5c:	eb 16                	jmp    1001d74 <APIC_Initialize+0x404>
 1001d5e:	83 7d dc 00          	cmpl   $0x0,-0x24(%ebp)
 1001d62:	74 02                	je     1001d66 <APIC_Initialize+0x3f6>
 1001d64:	eb 0e                	jmp    1001d74 <APIC_Initialize+0x404>
 1001d66:	8d 05 d9 41 7f 01    	lea    0x17f41d9,%eax
 1001d6c:	89 04 24             	mov    %eax,(%esp)
 1001d6f:	e8 ac ef ff ff       	call   1000d20 <COM_WriteStr>
 1001d74:	8b 45 d4             	mov    -0x2c(%ebp),%eax
 1001d77:	0f b6 40 01          	movzbl 0x1(%eax),%eax
 1001d7b:	8b 4d d8             	mov    -0x28(%ebp),%ecx
 1001d7e:	01 c1                	add    %eax,%ecx
 1001d80:	89 4d d8             	mov    %ecx,-0x28(%ebp)
 1001d83:	8b 45 d4             	mov    -0x2c(%ebp),%eax
 1001d86:	0f b6 40 01          	movzbl 0x1(%eax),%eax
 1001d8a:	83 f8 00             	cmp    $0x0,%eax
 1001d8d:	75 09                	jne    1001d98 <APIC_Initialize+0x428>
 1001d8f:	8b 45 d8             	mov    -0x28(%ebp),%eax
 1001d92:	83 c0 08             	add    $0x8,%eax
 1001d95:	89 45 d8             	mov    %eax,-0x28(%ebp)
 1001d98:	e9 82 fc ff ff       	jmp    1001a1f <APIC_Initialize+0xaf>
 1001d9d:	eb 00                	jmp    1001d9f <APIC_Initialize+0x42f>
 1001d9f:	8b 45 dc             	mov    -0x24(%ebp),%eax
 1001da2:	83 c0 01             	add    $0x1,%eax
 1001da5:	89 45 dc             	mov    %eax,-0x24(%ebp)
 1001da8:	e9 61 fc ff ff       	jmp    1001a0e <APIC_Initialize+0x9e>
 1001dad:	8d 05 6d 66 82 01    	lea    0x182666d,%eax
 1001db3:	8b 4d e4             	mov    -0x1c(%ebp),%ecx
 1001db6:	89 ca                	mov    %ecx,%edx
 1001db8:	83 c2 01             	add    $0x1,%edx
 1001dbb:	89 55 e4             	mov    %edx,-0x1c(%ebp)
 1001dbe:	89 04 24             	mov    %eax,(%esp)
 1001dc1:	89 4c 24 04          	mov    %ecx,0x4(%esp)
 1001dc5:	e8 66 f1 ff ff       	call   1000f30 <ACPITables_FindTable>
 1001dca:	89 45 e8             	mov    %eax,-0x18(%ebp)
 1001dcd:	e9 1c fc ff ff       	jmp    10019ee <APIC_Initialize+0x7e>
 1001dd2:	eb 17                	jmp    1001deb <APIC_Initialize+0x47b>
 1001dd4:	8d 05 e0 41 7f 01    	lea    0x17f41e0,%eax
 1001dda:	89 04 24             	mov    %eax,(%esp)
 1001ddd:	e8 3e ef ff ff       	call   1000d20 <COM_WriteStr>
 1001de2:	c7 45 f0 ff ff ff ff 	movl   $0xffffffff,-0x10(%ebp)
 1001de9:	eb 07                	jmp    1001df2 <APIC_Initialize+0x482>
 1001deb:	c7 45 f0 00 00 00 00 	movl   $0x0,-0x10(%ebp)
 1001df2:	8b 45 f0             	mov    -0x10(%ebp),%eax
 1001df5:	83 c4 78             	add    $0x78,%esp
 1001df8:	5e                   	pop    %esi
 1001df9:	5f                   	pop    %edi
 1001dfa:	5b                   	pop    %ebx
 1001dfb:	5d                   	pop    %ebp
 1001dfc:	c3                   	ret    
 1001dfd:	66 90                	xchg   %ax,%ax
 1001dff:	90                   	nop

01001e00 <IOAPIC_Initialize>:
 1001e00:	55                   	push   %ebp
 1001e01:	89 e5                	mov    %esp,%ebp
 1001e03:	57                   	push   %edi
 1001e04:	56                   	push   %esi
 1001e05:	83 ec 1c             	sub    $0x1c,%esp
 1001e08:	8b 45 0c             	mov    0xc(%ebp),%eax
 1001e0b:	8b 4d 08             	mov    0x8(%ebp),%ecx
 1001e0e:	89 4d f0             	mov    %ecx,-0x10(%ebp)
 1001e11:	89 45 ec             	mov    %eax,-0x14(%ebp)
 1001e14:	81 3d 54 f0 a8 04 80 	cmpl   $0x80,0x4a8f054
 1001e1b:	00 00 00 
 1001e1e:	72 09                	jb     1001e29 <IOAPIC_Initialize+0x29>
 1001e20:	c6 45 f7 ff          	movb   $0xff,-0x9(%ebp)
 1001e24:	e9 a6 00 00 00       	jmp    1001ecf <IOAPIC_Initialize+0xcf>
 1001e29:	b8 00 00 00 00       	mov    $0x0,%eax
 1001e2e:	8d 0d 64 f4 84 01    	lea    0x184f464,%ecx
 1001e34:	8b 55 f0             	mov    -0x10(%ebp),%edx
 1001e37:	8b 35 54 f0 a8 04    	mov    0x4a8f054,%esi
 1001e3d:	c1 e6 04             	shl    $0x4,%esi
 1001e40:	89 cf                	mov    %ecx,%edi
 1001e42:	01 f7                	add    %esi,%edi
 1001e44:	89 17                	mov    %edx,(%edi)
 1001e46:	8b 55 ec             	mov    -0x14(%ebp),%edx
 1001e49:	8b 35 54 f0 a8 04    	mov    0x4a8f054,%esi
 1001e4f:	c1 e6 04             	shl    $0x4,%esi
 1001e52:	01 f1                	add    %esi,%ecx
 1001e54:	89 51 04             	mov    %edx,0x4(%ecx)
 1001e57:	8b 4d f0             	mov    -0x10(%ebp),%ecx
 1001e5a:	89 0c 24             	mov    %ecx,(%esp)
 1001e5d:	c7 44 24 04 00 00 00 	movl   $0x0,0x4(%esp)
 1001e64:	00 
 1001e65:	89 45 e8             	mov    %eax,-0x18(%ebp)
 1001e68:	e8 73 00 00 00       	call   1001ee0 <IOAPIC_Read>
 1001e6d:	b9 01 00 00 00       	mov    $0x1,%ecx
 1001e72:	8d 15 64 f4 84 01    	lea    0x184f464,%edx
 1001e78:	c1 e8 18             	shr    $0x18,%eax
 1001e7b:	83 e0 0f             	and    $0xf,%eax
 1001e7e:	8b 35 54 f0 a8 04    	mov    0x4a8f054,%esi
 1001e84:	c1 e6 04             	shl    $0x4,%esi
 1001e87:	01 f2                	add    %esi,%edx
 1001e89:	89 42 08             	mov    %eax,0x8(%edx)
 1001e8c:	8b 45 f0             	mov    -0x10(%ebp),%eax
 1001e8f:	89 04 24             	mov    %eax,(%esp)
 1001e92:	c7 44 24 04 01 00 00 	movl   $0x1,0x4(%esp)
 1001e99:	00 
 1001e9a:	89 4d e4             	mov    %ecx,-0x1c(%ebp)
 1001e9d:	e8 3e 00 00 00       	call   1001ee0 <IOAPIC_Read>
 1001ea2:	8d 0d 64 f4 84 01    	lea    0x184f464,%ecx
 1001ea8:	c1 e8 10             	shr    $0x10,%eax
 1001eab:	25 ff 00 00 00       	and    $0xff,%eax
 1001eb0:	8b 15 54 f0 a8 04    	mov    0x4a8f054,%edx
 1001eb6:	c1 e2 04             	shl    $0x4,%edx
 1001eb9:	01 d1                	add    %edx,%ecx
 1001ebb:	89 41 0c             	mov    %eax,0xc(%ecx)
 1001ebe:	a1 54 f0 a8 04       	mov    0x4a8f054,%eax
 1001ec3:	83 c0 01             	add    $0x1,%eax
 1001ec6:	a3 54 f0 a8 04       	mov    %eax,0x4a8f054
 1001ecb:	c6 45 f7 00          	movb   $0x0,-0x9(%ebp)
 1001ecf:	0f b6 45 f7          	movzbl -0x9(%ebp),%eax
 1001ed3:	83 c4 1c             	add    $0x1c,%esp
 1001ed6:	5e                   	pop    %esi
 1001ed7:	5f                   	pop    %edi
 1001ed8:	5d                   	pop    %ebp
 1001ed9:	c3                   	ret    
 1001eda:	8d b6 00 00 00 00    	lea    0x0(%esi),%esi

01001ee0 <IOAPIC_Read>:
 1001ee0:	55                   	push   %ebp
 1001ee1:	89 e5                	mov    %esp,%ebp
 1001ee3:	83 ec 08             	sub    $0x8,%esp
 1001ee6:	8b 45 0c             	mov    0xc(%ebp),%eax
 1001ee9:	8b 4d 08             	mov    0x8(%ebp),%ecx
 1001eec:	89 4d fc             	mov    %ecx,-0x4(%ebp)
 1001eef:	89 45 f8             	mov    %eax,-0x8(%ebp)
 1001ef2:	8b 45 f8             	mov    -0x8(%ebp),%eax
 1001ef5:	8b 4d fc             	mov    -0x4(%ebp),%ecx
 1001ef8:	89 01                	mov    %eax,(%ecx)
 1001efa:	8b 45 fc             	mov    -0x4(%ebp),%eax
 1001efd:	8b 40 10             	mov    0x10(%eax),%eax
 1001f00:	83 c4 08             	add    $0x8,%esp
 1001f03:	5d                   	pop    %ebp
 1001f04:	c3                   	ret    
 1001f05:	8d 74 26 00          	lea    0x0(%esi,%eiz,1),%esi
 1001f09:	8d bc 27 00 00 00 00 	lea    0x0(%edi,%eiz,1),%edi

01001f10 <IOAPIC_Write>:
 1001f10:	55                   	push   %ebp
 1001f11:	89 e5                	mov    %esp,%ebp
 1001f13:	83 ec 0c             	sub    $0xc,%esp
 1001f16:	8b 45 10             	mov    0x10(%ebp),%eax
 1001f19:	8b 4d 0c             	mov    0xc(%ebp),%ecx
 1001f1c:	8b 55 08             	mov    0x8(%ebp),%edx
 1001f1f:	89 55 fc             	mov    %edx,-0x4(%ebp)
 1001f22:	89 4d f8             	mov    %ecx,-0x8(%ebp)
 1001f25:	89 45 f4             	mov    %eax,-0xc(%ebp)
 1001f28:	8b 45 f8             	mov    -0x8(%ebp),%eax
 1001f2b:	8b 4d fc             	mov    -0x4(%ebp),%ecx
 1001f2e:	89 01                	mov    %eax,(%ecx)
 1001f30:	8b 45 f4             	mov    -0xc(%ebp),%eax
 1001f33:	8b 4d fc             	mov    -0x4(%ebp),%ecx
 1001f36:	89 41 10             	mov    %eax,0x10(%ecx)
 1001f39:	83 c4 0c             	add    $0xc,%esp
 1001f3c:	5d                   	pop    %ebp
 1001f3d:	c3                   	ret    
 1001f3e:	66 90                	xchg   %ax,%ax

01001f40 <IOAPIC_GetVector>:
 1001f40:	55                   	push   %ebp
 1001f41:	89 e5                	mov    %esp,%ebp
 1001f43:	56                   	push   %esi
 1001f44:	83 ec 24             	sub    $0x24,%esp
 1001f47:	8b 45 0c             	mov    0xc(%ebp),%eax
 1001f4a:	8a 4d 08             	mov    0x8(%ebp),%cl
 1001f4d:	88 4d fa             	mov    %cl,-0x6(%ebp)
 1001f50:	89 45 f4             	mov    %eax,-0xc(%ebp)
 1001f53:	c7 45 f0 00 00 00 00 	movl   $0x0,-0x10(%ebp)
 1001f5a:	c7 45 ec 00 00 00 00 	movl   $0x0,-0x14(%ebp)
 1001f61:	c7 45 e8 00 00 00 00 	movl   $0x0,-0x18(%ebp)
 1001f68:	8b 45 e8             	mov    -0x18(%ebp),%eax
 1001f6b:	3b 05 54 f0 a8 04    	cmp    0x4a8f054,%eax
 1001f71:	73 71                	jae    1001fe4 <IOAPIC_GetVector+0xa4>
 1001f73:	8d 05 64 f4 84 01    	lea    0x184f464,%eax
 1001f79:	0f b6 4d fa          	movzbl -0x6(%ebp),%ecx
 1001f7d:	8b 55 e8             	mov    -0x18(%ebp),%edx
 1001f80:	c1 e2 04             	shl    $0x4,%edx
 1001f83:	01 d0                	add    %edx,%eax
 1001f85:	3b 48 04             	cmp    0x4(%eax),%ecx
 1001f88:	72 4d                	jb     1001fd7 <IOAPIC_GetVector+0x97>
 1001f8a:	8d 05 64 f4 84 01    	lea    0x184f464,%eax
 1001f90:	0f b6 4d fa          	movzbl -0x6(%ebp),%ecx
 1001f94:	8b 55 e8             	mov    -0x18(%ebp),%edx
 1001f97:	c1 e2 04             	shl    $0x4,%edx
 1001f9a:	89 c6                	mov    %eax,%esi
 1001f9c:	01 d6                	add    %edx,%esi
 1001f9e:	8b 56 04             	mov    0x4(%esi),%edx
 1001fa1:	8b 75 e8             	mov    -0x18(%ebp),%esi
 1001fa4:	c1 e6 04             	shl    $0x4,%esi
 1001fa7:	01 f0                	add    %esi,%eax
 1001fa9:	03 50 0c             	add    0xc(%eax),%edx
 1001fac:	39 d1                	cmp    %edx,%ecx
 1001fae:	73 27                	jae    1001fd7 <IOAPIC_GetVector+0x97>
 1001fb0:	8d 05 64 f4 84 01    	lea    0x184f464,%eax
 1001fb6:	0f b6 4d fa          	movzbl -0x6(%ebp),%ecx
 1001fba:	8b 55 e8             	mov    -0x18(%ebp),%edx
 1001fbd:	c1 e2 04             	shl    $0x4,%edx
 1001fc0:	89 c6                	mov    %eax,%esi
 1001fc2:	01 d6                	add    %edx,%esi
 1001fc4:	2b 4e 04             	sub    0x4(%esi),%ecx
 1001fc7:	89 4d f0             	mov    %ecx,-0x10(%ebp)
 1001fca:	8b 4d e8             	mov    -0x18(%ebp),%ecx
 1001fcd:	c1 e1 04             	shl    $0x4,%ecx
 1001fd0:	01 c8                	add    %ecx,%eax
 1001fd2:	8b 00                	mov    (%eax),%eax
 1001fd4:	89 45 ec             	mov    %eax,-0x14(%ebp)
 1001fd7:	eb 00                	jmp    1001fd9 <IOAPIC_GetVector+0x99>
 1001fd9:	8b 45 e8             	mov    -0x18(%ebp),%eax
 1001fdc:	83 c0 01             	add    $0x1,%eax
 1001fdf:	89 45 e8             	mov    %eax,-0x18(%ebp)
 1001fe2:	eb 84                	jmp    1001f68 <IOAPIC_GetVector+0x28>
 1001fe4:	83 7d ec 00          	cmpl   $0x0,-0x14(%ebp)
 1001fe8:	75 06                	jne    1001ff0 <IOAPIC_GetVector+0xb0>
 1001fea:	c6 45 fb ff          	movb   $0xff,-0x5(%ebp)
 1001fee:	eb 3c                	jmp    100202c <IOAPIC_GetVector+0xec>
 1001ff0:	8b 45 f0             	mov    -0x10(%ebp),%eax
 1001ff3:	d1 e0                	shl    %eax
 1001ff5:	83 c0 10             	add    $0x10,%eax
 1001ff8:	89 45 e4             	mov    %eax,-0x1c(%ebp)
 1001ffb:	8b 45 ec             	mov    -0x14(%ebp),%eax
 1001ffe:	8b 4d e4             	mov    -0x1c(%ebp),%ecx
 1002001:	89 04 24             	mov    %eax,(%esp)
 1002004:	89 4c 24 04          	mov    %ecx,0x4(%esp)
 1002008:	e8 d3 fe ff ff       	call   1001ee0 <IOAPIC_Read>
 100200d:	89 45 e0             	mov    %eax,-0x20(%ebp)
 1002010:	8b 45 e0             	mov    -0x20(%ebp),%eax
 1002013:	25 ff 00 00 00       	and    $0xff,%eax
 1002018:	88 c2                	mov    %al,%dl
 100201a:	8b 45 f4             	mov    -0xc(%ebp),%eax
 100201d:	88 10                	mov    %dl,(%eax)
 100201f:	8b 45 e0             	mov    -0x20(%ebp),%eax
 1002022:	25 ff 00 00 00       	and    $0xff,%eax
 1002027:	88 c2                	mov    %al,%dl
 1002029:	88 55 fb             	mov    %dl,-0x5(%ebp)
 100202c:	0f b6 45 fb          	movzbl -0x5(%ebp),%eax
 1002030:	83 c4 24             	add    $0x24,%esp
 1002033:	5e                   	pop    %esi
 1002034:	5d                   	pop    %ebp
 1002035:	c3                   	ret    
 1002036:	8d 76 00             	lea    0x0(%esi),%esi
 1002039:	8d bc 27 00 00 00 00 	lea    0x0(%edi,%eiz,1),%edi

01002040 <IOAPIC_MapIRQ>:
 1002040:	55                   	push   %ebp
 1002041:	89 e5                	mov    %esp,%ebp
 1002043:	53                   	push   %ebx
 1002044:	56                   	push   %esi
 1002045:	83 e4 f8             	and    $0xfffffff8,%esp
 1002048:	83 ec 40             	sub    $0x40,%esp
 100204b:	8b 45 14             	mov    0x14(%ebp),%eax
 100204e:	8b 4d 10             	mov    0x10(%ebp),%ecx
 1002051:	8a 55 20             	mov    0x20(%ebp),%dl
 1002054:	8a 75 1c             	mov    0x1c(%ebp),%dh
 1002057:	8a 5d 18             	mov    0x18(%ebp),%bl
 100205a:	8a 7d 0c             	mov    0xc(%ebp),%bh
 100205d:	89 44 24 0c          	mov    %eax,0xc(%esp)
 1002061:	8a 45 08             	mov    0x8(%ebp),%al
 1002064:	88 44 24 3f          	mov    %al,0x3f(%esp)
 1002068:	88 7c 24 3e          	mov    %bh,0x3e(%esp)
 100206c:	8b 74 24 0c          	mov    0xc(%esp),%esi
 1002070:	89 74 24 34          	mov    %esi,0x34(%esp)
 1002074:	89 4c 24 30          	mov    %ecx,0x30(%esp)
 1002078:	88 5c 24 2f          	mov    %bl,0x2f(%esp)
 100207c:	88 74 24 2e          	mov    %dh,0x2e(%esp)
 1002080:	88 54 24 2d          	mov    %dl,0x2d(%esp)
 1002084:	c7 44 24 28 00 00 00 	movl   $0x0,0x28(%esp)
 100208b:	00 
 100208c:	c7 44 24 24 00 00 00 	movl   $0x0,0x24(%esp)
 1002093:	00 
 1002094:	c7 44 24 20 00 00 00 	movl   $0x0,0x20(%esp)
 100209b:	00 
 100209c:	8b 44 24 20          	mov    0x20(%esp),%eax
 10020a0:	3b 05 54 f0 a8 04    	cmp    0x4a8f054,%eax
 10020a6:	0f 83 a0 00 00 00    	jae    100214c <IOAPIC_MapIRQ+0x10c>
 10020ac:	8d 05 64 f4 84 01    	lea    0x184f464,%eax
 10020b2:	0f b6 4c 24 3f       	movzbl 0x3f(%esp),%ecx
 10020b7:	8b 54 24 20          	mov    0x20(%esp),%edx
 10020bb:	c1 e2 04             	shl    $0x4,%edx
 10020be:	01 d0                	add    %edx,%eax
 10020c0:	3b 48 04             	cmp    0x4(%eax),%ecx
 10020c3:	72 75                	jb     100213a <IOAPIC_MapIRQ+0xfa>
 10020c5:	8d 05 64 f4 84 01    	lea    0x184f464,%eax
 10020cb:	0f b6 4c 24 3f       	movzbl 0x3f(%esp),%ecx
 10020d0:	8b 54 24 20          	mov    0x20(%esp),%edx
 10020d4:	c1 e2 04             	shl    $0x4,%edx
 10020d7:	89 c6                	mov    %eax,%esi
 10020d9:	01 d6                	add    %edx,%esi
 10020db:	8b 56 04             	mov    0x4(%esi),%edx
 10020de:	8b 74 24 20          	mov    0x20(%esp),%esi
 10020e2:	c1 e6 04             	shl    $0x4,%esi
 10020e5:	01 f0                	add    %esi,%eax
 10020e7:	03 50 0c             	add    0xc(%eax),%edx
 10020ea:	39 d1                	cmp    %edx,%ecx
 10020ec:	73 4c                	jae    100213a <IOAPIC_MapIRQ+0xfa>
 10020ee:	8d 05 64 f4 84 01    	lea    0x184f464,%eax
 10020f4:	0f b6 4c 24 3f       	movzbl 0x3f(%esp),%ecx
 10020f9:	8b 54 24 20          	mov    0x20(%esp),%edx
 10020fd:	c1 e2 04             	shl    $0x4,%edx
 1002100:	89 c6                	mov    %eax,%esi
 1002102:	01 d6                	add    %edx,%esi
 1002104:	2b 4e 04             	sub    0x4(%esi),%ecx
 1002107:	89 4c 24 28          	mov    %ecx,0x28(%esp)
 100210b:	8b 4c 24 20          	mov    0x20(%esp),%ecx
 100210f:	c1 e1 04             	shl    $0x4,%ecx
 1002112:	01 c8                	add    %ecx,%eax
 1002114:	8b 00                	mov    (%eax),%eax
 1002116:	89 44 24 24          	mov    %eax,0x24(%esp)
 100211a:	8b 44 24 20          	mov    0x20(%esp),%eax
 100211e:	0f b6 4c 24 3e       	movzbl 0x3e(%esp),%ecx
 1002123:	89 04 cd 64 ec 84 01 	mov    %eax,0x184ec64(,%ecx,8)
 100212a:	8b 44 24 28          	mov    0x28(%esp),%eax
 100212e:	0f b6 4c 24 3e       	movzbl 0x3e(%esp),%ecx
 1002133:	89 04 cd 68 ec 84 01 	mov    %eax,0x184ec68(,%ecx,8)
 100213a:	eb 00                	jmp    100213c <IOAPIC_MapIRQ+0xfc>
 100213c:	8b 44 24 20          	mov    0x20(%esp),%eax
 1002140:	83 c0 01             	add    $0x1,%eax
 1002143:	89 44 24 20          	mov    %eax,0x20(%esp)
 1002147:	e9 50 ff ff ff       	jmp    100209c <IOAPIC_MapIRQ+0x5c>
 100214c:	83 7c 24 24 00       	cmpl   $0x0,0x24(%esp)
 1002151:	75 05                	jne    1002158 <IOAPIC_MapIRQ+0x118>
 1002153:	e9 21 01 00 00       	jmp    1002279 <IOAPIC_MapIRQ+0x239>
 1002158:	8b 44 24 28          	mov    0x28(%esp),%eax
 100215c:	8d 44 00 10          	lea    0x10(%eax,%eax,1),%eax
 1002160:	89 44 24 1c          	mov    %eax,0x1c(%esp)
 1002164:	8b 44 24 28          	mov    0x28(%esp),%eax
 1002168:	8d 44 00 11          	lea    0x11(%eax,%eax,1),%eax
 100216c:	89 44 24 18          	mov    %eax,0x18(%esp)
 1002170:	8b 4c 24 24          	mov    0x24(%esp),%ecx
 1002174:	89 e2                	mov    %esp,%edx
 1002176:	89 42 04             	mov    %eax,0x4(%edx)
 1002179:	89 0a                	mov    %ecx,(%edx)
 100217b:	e8 60 fd ff ff       	call   1001ee0 <IOAPIC_Read>
 1002180:	89 44 24 14          	mov    %eax,0x14(%esp)
 1002184:	c6 44 24 17 00       	movb   $0x0,0x17(%esp)
 1002189:	8b 44 24 30          	mov    0x30(%esp),%eax
 100218d:	c1 e0 18             	shl    $0x18,%eax
 1002190:	8b 4c 24 14          	mov    0x14(%esp),%ecx
 1002194:	09 c1                	or     %eax,%ecx
 1002196:	89 4c 24 14          	mov    %ecx,0x14(%esp)
 100219a:	8b 44 24 24          	mov    0x24(%esp),%eax
 100219e:	8b 4c 24 18          	mov    0x18(%esp),%ecx
 10021a2:	8b 54 24 14          	mov    0x14(%esp),%edx
 10021a6:	89 04 24             	mov    %eax,(%esp)
 10021a9:	89 4c 24 04          	mov    %ecx,0x4(%esp)
 10021ad:	89 54 24 08          	mov    %edx,0x8(%esp)
 10021b1:	e8 5a fd ff ff       	call   1001f10 <IOAPIC_Write>
 10021b6:	8b 44 24 24          	mov    0x24(%esp),%eax
 10021ba:	8b 4c 24 1c          	mov    0x1c(%esp),%ecx
 10021be:	89 04 24             	mov    %eax,(%esp)
 10021c1:	89 4c 24 04          	mov    %ecx,0x4(%esp)
 10021c5:	e8 16 fd ff ff       	call   1001ee0 <IOAPIC_Read>
 10021ca:	89 44 24 10          	mov    %eax,0x10(%esp)
 10021ce:	8b 44 24 10          	mov    0x10(%esp),%eax
 10021d2:	25 ff df ff ff       	and    $0xffffdfff,%eax
 10021d7:	89 44 24 10          	mov    %eax,0x10(%esp)
 10021db:	0f b6 44 24 2e       	movzbl 0x2e(%esp),%eax
 10021e0:	83 e0 01             	and    $0x1,%eax
 10021e3:	c1 e0 0d             	shl    $0xd,%eax
 10021e6:	8b 4c 24 10          	mov    0x10(%esp),%ecx
 10021ea:	09 c1                	or     %eax,%ecx
 10021ec:	89 4c 24 10          	mov    %ecx,0x10(%esp)
 10021f0:	8b 44 24 10          	mov    0x10(%esp),%eax
 10021f4:	25 ff 7f ff ff       	and    $0xffff7fff,%eax
 10021f9:	89 44 24 10          	mov    %eax,0x10(%esp)
 10021fd:	0f b6 44 24 2f       	movzbl 0x2f(%esp),%eax
 1002202:	83 e0 01             	and    $0x1,%eax
 1002205:	c1 e0 0f             	shl    $0xf,%eax
 1002208:	8b 4c 24 10          	mov    0x10(%esp),%ecx
 100220c:	09 c1                	or     %eax,%ecx
 100220e:	89 4c 24 10          	mov    %ecx,0x10(%esp)
 1002212:	8b 44 24 10          	mov    0x10(%esp),%eax
 1002216:	25 ff f7 ff ff       	and    $0xfffff7ff,%eax
 100221b:	89 44 24 10          	mov    %eax,0x10(%esp)
 100221f:	8b 44 24 10          	mov    0x10(%esp),%eax
 1002223:	25 ff f8 ff ff       	and    $0xfffff8ff,%eax
 1002228:	89 44 24 10          	mov    %eax,0x10(%esp)
 100222c:	8b 44 24 10          	mov    0x10(%esp),%eax
 1002230:	25 00 ff ff ff       	and    $0xffffff00,%eax
 1002235:	89 44 24 10          	mov    %eax,0x10(%esp)
 1002239:	0f b6 44 24 3e       	movzbl 0x3e(%esp),%eax
 100223e:	8b 4c 24 10          	mov    0x10(%esp),%ecx
 1002242:	09 c1                	or     %eax,%ecx
 1002244:	89 4c 24 10          	mov    %ecx,0x10(%esp)
 1002248:	0f b6 44 24 2d       	movzbl 0x2d(%esp),%eax
 100224d:	83 e0 07             	and    $0x7,%eax
 1002250:	c1 e0 08             	shl    $0x8,%eax
 1002253:	8b 4c 24 10          	mov    0x10(%esp),%ecx
 1002257:	09 c1                	or     %eax,%ecx
 1002259:	89 4c 24 10          	mov    %ecx,0x10(%esp)
 100225d:	8b 44 24 24          	mov    0x24(%esp),%eax
 1002261:	8b 4c 24 1c          	mov    0x1c(%esp),%ecx
 1002265:	8b 54 24 10          	mov    0x10(%esp),%edx
 1002269:	89 04 24             	mov    %eax,(%esp)
 100226c:	89 4c 24 04          	mov    %ecx,0x4(%esp)
 1002270:	89 54 24 08          	mov    %edx,0x8(%esp)
 1002274:	e8 97 fc ff ff       	call   1001f10 <IOAPIC_Write>
 1002279:	8d 65 f8             	lea    -0x8(%ebp),%esp
 100227c:	5e                   	pop    %esi
 100227d:	5b                   	pop    %ebx
 100227e:	5d                   	pop    %ebp
 100227f:	c3                   	ret    

01002280 <IOAPIC_SetEnableMode>:
 1002280:	55                   	push   %ebp
 1002281:	89 e5                	mov    %esp,%ebp
 1002283:	83 ec 1c             	sub    $0x1c,%esp
 1002286:	8a 45 0c             	mov    0xc(%ebp),%al
 1002289:	8a 4d 08             	mov    0x8(%ebp),%cl
 100228c:	88 4d ff             	mov    %cl,-0x1(%ebp)
 100228f:	88 45 fe             	mov    %al,-0x2(%ebp)
 1002292:	0f b6 55 ff          	movzbl -0x1(%ebp),%edx
 1002296:	83 3c d5 64 ec 84 01 	cmpl   $0xffffffff,0x184ec64(,%edx,8)
 100229d:	ff 
 100229e:	74 7e                	je     100231e <IOAPIC_SetEnableMode+0x9e>
 10022a0:	8d 05 64 f4 84 01    	lea    0x184f464,%eax
 10022a6:	0f b6 4d ff          	movzbl -0x1(%ebp),%ecx
 10022aa:	8b 0c cd 68 ec 84 01 	mov    0x184ec68(,%ecx,8),%ecx
 10022b1:	d1 e1                	shl    %ecx
 10022b3:	83 c1 10             	add    $0x10,%ecx
 10022b6:	89 4d f8             	mov    %ecx,-0x8(%ebp)
 10022b9:	0f b6 4d ff          	movzbl -0x1(%ebp),%ecx
 10022bd:	8b 0c cd 64 ec 84 01 	mov    0x184ec64(,%ecx,8),%ecx
 10022c4:	c1 e1 04             	shl    $0x4,%ecx
 10022c7:	01 c8                	add    %ecx,%eax
 10022c9:	8b 00                	mov    (%eax),%eax
 10022cb:	89 45 f4             	mov    %eax,-0xc(%ebp)
 10022ce:	8b 45 f4             	mov    -0xc(%ebp),%eax
 10022d1:	8b 4d f8             	mov    -0x8(%ebp),%ecx
 10022d4:	89 04 24             	mov    %eax,(%esp)
 10022d7:	89 4c 24 04          	mov    %ecx,0x4(%esp)
 10022db:	e8 00 fc ff ff       	call   1001ee0 <IOAPIC_Read>
 10022e0:	b9 00 00 00 00       	mov    $0x0,%ecx
 10022e5:	89 45 f0             	mov    %eax,-0x10(%ebp)
 10022e8:	8b 45 f0             	mov    -0x10(%ebp),%eax
 10022eb:	0f b6 55 fe          	movzbl -0x2(%ebp),%edx
 10022ef:	83 f2 ff             	xor    $0xffffffff,%edx
 10022f2:	83 e2 01             	and    $0x1,%edx
 10022f5:	29 d1                	sub    %edx,%ecx
 10022f7:	33 4d f0             	xor    -0x10(%ebp),%ecx
 10022fa:	81 e1 00 00 01 00    	and    $0x10000,%ecx
 1002300:	31 c8                	xor    %ecx,%eax
 1002302:	89 45 f0             	mov    %eax,-0x10(%ebp)
 1002305:	8b 45 f4             	mov    -0xc(%ebp),%eax
 1002308:	8b 4d f8             	mov    -0x8(%ebp),%ecx
 100230b:	8b 55 f0             	mov    -0x10(%ebp),%edx
 100230e:	89 04 24             	mov    %eax,(%esp)
 1002311:	89 4c 24 04          	mov    %ecx,0x4(%esp)
 1002315:	89 54 24 08          	mov    %edx,0x8(%esp)
 1002319:	e8 f2 fb ff ff       	call   1001f10 <IOAPIC_Write>
 100231e:	83 c4 1c             	add    $0x1c,%esp
 1002321:	5d                   	pop    %ebp
 1002322:	c3                   	ret    
 1002323:	8d b6 00 00 00 00    	lea    0x0(%esi),%esi
 1002329:	8d bc 27 00 00 00 00 	lea    0x0(%edi,%eiz,1),%edi

01002330 <IOAPIC_VirtualizeAll>:
 1002330:	55                   	push   %ebp
 1002331:	89 e5                	mov    %esp,%ebp
 1002333:	50                   	push   %eax
 1002334:	c7 45 fc 00 00 00 00 	movl   $0x0,-0x4(%ebp)
 100233b:	8b 45 fc             	mov    -0x4(%ebp),%eax
 100233e:	3b 05 54 f0 a8 04    	cmp    0x4a8f054,%eax
 1002344:	73 33                	jae    1002379 <IOAPIC_VirtualizeAll+0x49>
 1002346:	8d 05 64 f4 84 01    	lea    0x184f464,%eax
 100234c:	8b 4d fc             	mov    -0x4(%ebp),%ecx
 100234f:	c1 e1 04             	shl    $0x4,%ecx
 1002352:	89 c2                	mov    %eax,%edx
 1002354:	01 ca                	add    %ecx,%edx
 1002356:	8b 0a                	mov    (%edx),%ecx
 1002358:	81 e9 00 00 00 f0    	sub    $0xf0000000,%ecx
 100235e:	81 c1 00 00 00 10    	add    $0x10000000,%ecx
 1002364:	8b 55 fc             	mov    -0x4(%ebp),%edx
 1002367:	c1 e2 04             	shl    $0x4,%edx
 100236a:	01 d0                	add    %edx,%eax
 100236c:	89 08                	mov    %ecx,(%eax)
 100236e:	8b 45 fc             	mov    -0x4(%ebp),%eax
 1002371:	83 c0 01             	add    $0x1,%eax
 1002374:	89 45 fc             	mov    %eax,-0x4(%ebp)
 1002377:	eb c2                	jmp    100233b <IOAPIC_VirtualizeAll+0xb>
 1002379:	83 c4 04             	add    $0x4,%esp
 100237c:	5d                   	pop    %ebp
 100237d:	c3                   	ret    
 100237e:	66 90                	xchg   %ax,%ax

01002380 <bootstrap_setup>:
 1002380:	55                   	push   %ebp
 1002381:	89 e5                	mov    %esp,%ebp
 1002383:	56                   	push   %esi
 1002384:	83 ec 0c             	sub    $0xc,%esp
 1002387:	e8 44 21 00 00       	call   10044d0 <SysMan_RegisterSystem>
 100238c:	a3 5c f0 a8 04       	mov    %eax,0x4a8f05c
 1002391:	89 e1                	mov    %esp,%ecx
 1002393:	89 01                	mov    %eax,(%ecx)
 1002395:	c7 41 04 f2 41 7f 01 	movl   $0x17f41f2,0x4(%ecx)
 100239c:	e8 5f 16 00 00       	call   1003a00 <strcpy>
 10023a1:	8b 0d 5c f0 a8 04    	mov    0x4a8f05c,%ecx
 10023a7:	c7 41 14 00 00 00 00 	movl   $0x0,0x14(%ecx)
 10023ae:	c7 41 10 00 00 00 00 	movl   $0x0,0x10(%ecx)
 10023b5:	8b 0d 5c f0 a8 04    	mov    0x4a8f05c,%ecx
 10023bb:	c7 81 08 01 00 00 60 	movl   $0x1002460,0x108(%ecx)
 10023c2:	24 00 01 
 10023c5:	8b 0d 5c f0 a8 04    	mov    0x4a8f05c,%ecx
 10023cb:	c7 81 0c 01 00 00 10 	movl   $0x1002410,0x10c(%ecx)
 10023d2:	24 00 01 
 10023d5:	8b 0d 5c f0 a8 04    	mov    0x4a8f05c,%ecx
 10023db:	c7 81 10 01 00 00 30 	movl   $0x1002430,0x110(%ecx)
 10023e2:	24 00 01 
 10023e5:	8b 0d 5c f0 a8 04    	mov    0x4a8f05c,%ecx
 10023eb:	8b 91 14 01 00 00    	mov    0x114(%ecx),%edx
 10023f1:	8b 89 18 01 00 00    	mov    0x118(%ecx),%ecx
 10023f7:	89 e6                	mov    %esp,%esi
 10023f9:	89 4e 04             	mov    %ecx,0x4(%esi)
 10023fc:	89 16                	mov    %edx,(%esi)
 10023fe:	89 45 f8             	mov    %eax,-0x8(%ebp)
 1002401:	e8 aa 22 00 00       	call   10046b0 <SysMan_StartSystem>
 1002406:	83 c4 0c             	add    $0xc,%esp
 1002409:	5e                   	pop    %esi
 100240a:	5d                   	pop    %ebp
 100240b:	c3                   	ret    
 100240c:	8d 74 26 00          	lea    0x0(%esi,%eiz,1),%esi

01002410 <bootstrap_callback>:
 1002410:	55                   	push   %ebp
 1002411:	89 e5                	mov    %esp,%ebp
 1002413:	50                   	push   %eax
 1002414:	8b 45 08             	mov    0x8(%ebp),%eax
 1002417:	89 45 fc             	mov    %eax,-0x4(%ebp)
 100241a:	83 7d fc 00          	cmpl   $0x0,-0x4(%ebp)
 100241e:	75 02                	jne    1002422 <bootstrap_callback+0x12>
 1002420:	eb 00                	jmp    1002422 <bootstrap_callback+0x12>
 1002422:	83 c4 04             	add    $0x4,%esp
 1002425:	5d                   	pop    %ebp
 1002426:	c3                   	ret    
 1002427:	89 f6                	mov    %esi,%esi
 1002429:	8d bc 27 00 00 00 00 	lea    0x0(%edi,%eiz,1),%edi

01002430 <bootstrap_messageHandler>:
 1002430:	55                   	push   %ebp
 1002431:	89 e5                	mov    %esp,%ebp
 1002433:	83 ec 08             	sub    $0x8,%esp
 1002436:	8b 45 08             	mov    0x8(%ebp),%eax
 1002439:	89 45 f8             	mov    %eax,-0x8(%ebp)
 100243c:	8b 45 f8             	mov    -0x8(%ebp),%eax
 100243f:	83 b8 9c 00 00 00 01 	cmpl   $0x1,0x9c(%eax)
 1002446:	75 06                	jne    100244e <bootstrap_messageHandler+0x1e>
 1002448:	c6 45 ff 01          	movb   $0x1,-0x1(%ebp)
 100244c:	eb 04                	jmp    1002452 <bootstrap_messageHandler+0x22>
 100244e:	c6 45 ff 00          	movb   $0x0,-0x1(%ebp)
 1002452:	0f b6 45 ff          	movzbl -0x1(%ebp),%eax
 1002456:	83 c4 08             	add    $0x8,%esp
 1002459:	5d                   	pop    %ebp
 100245a:	c3                   	ret    
 100245b:	90                   	nop
 100245c:	8d 74 26 00          	lea    0x0(%esi,%eiz,1),%esi

01002460 <bootstrap_Initialize>:
 1002460:	55                   	push   %ebp
 1002461:	89 e5                	mov    %esp,%ebp
 1002463:	b8 00 00 00 00       	mov    $0x0,%eax
 1002468:	5d                   	pop    %ebp
 1002469:	c3                   	ret    
 100246a:	8d b6 00 00 00 00    	lea    0x0(%esi),%esi

01002470 <bootstrap_malloc>:
 1002470:	55                   	push   %ebp
 1002471:	89 e5                	mov    %esp,%ebp
 1002473:	83 e4 f8             	and    $0xfffffff8,%esp
 1002476:	81 ec c0 00 00 00    	sub    $0xc0,%esp
 100247c:	8b 45 08             	mov    0x8(%ebp),%eax
 100247f:	89 84 24 b8 00 00 00 	mov    %eax,0xb8(%esp)
 1002486:	8b 84 24 b8 00 00 00 	mov    0xb8(%esp),%eax
 100248d:	83 e0 03             	and    $0x3,%eax
 1002490:	8b 8c 24 b8 00 00 00 	mov    0xb8(%esp),%ecx
 1002497:	01 c1                	add    %eax,%ecx
 1002499:	89 8c 24 b8 00 00 00 	mov    %ecx,0xb8(%esp)
 10024a0:	a1 58 f0 a8 04       	mov    0x4a8f058,%eax
 10024a5:	03 84 24 b8 00 00 00 	add    0xb8(%esp),%eax
 10024ac:	3d 00 00 00 02       	cmp    $0x2000000,%eax
 10024b1:	0f 86 9a 00 00 00    	jbe    1002551 <bootstrap_malloc+0xe1>
 10024b7:	8d 44 24 18          	lea    0x18(%esp),%eax
 10024bb:	89 e1                	mov    %esp,%ecx
 10024bd:	8d 54 24 18          	lea    0x18(%esp),%edx
 10024c1:	89 11                	mov    %edx,(%ecx)
 10024c3:	c7 41 04 ff 41 7f 01 	movl   $0x17f41ff,0x4(%ecx)
 10024ca:	89 44 24 10          	mov    %eax,0x10(%esp)
 10024ce:	e8 2d 15 00 00       	call   1003a00 <strcpy>
 10024d3:	8b 0d 5c f0 a8 04    	mov    0x4a8f05c,%ecx
 10024d9:	8b 91 14 01 00 00    	mov    0x114(%ecx),%edx
 10024df:	8b 89 18 01 00 00    	mov    0x118(%ecx),%ecx
 10024e5:	89 8c 24 9c 00 00 00 	mov    %ecx,0x9c(%esp)
 10024ec:	89 94 24 98 00 00 00 	mov    %edx,0x98(%esp)
 10024f3:	8b 0d 5c f0 a8 04    	mov    0x4a8f05c,%ecx
 10024f9:	8b 91 14 01 00 00    	mov    0x114(%ecx),%edx
 10024ff:	8b 89 18 01 00 00    	mov    0x118(%ecx),%ecx
 1002505:	89 8c 24 a4 00 00 00 	mov    %ecx,0xa4(%esp)
 100250c:	89 94 24 a0 00 00 00 	mov    %edx,0xa0(%esp)
 1002513:	c7 84 24 ac 00 00 00 	movl   $0x3,0xac(%esp)
 100251a:	03 00 00 00 
 100251e:	c7 84 24 b0 00 00 00 	movl   $0x2,0xb0(%esp)
 1002525:	02 00 00 00 
 1002529:	c7 84 24 b4 00 00 00 	movl   $0x1,0xb4(%esp)
 1002530:	01 00 00 00 
 1002534:	8b 4c 24 10          	mov    0x10(%esp),%ecx
 1002538:	89 0c 24             	mov    %ecx,(%esp)
 100253b:	89 44 24 0c          	mov    %eax,0xc(%esp)
 100253f:	e8 cc 0e 00 00       	call   1003410 <MessageMan_Add>
 1002544:	c7 84 24 bc 00 00 00 	movl   $0x0,0xbc(%esp)
 100254b:	00 00 00 00 
 100254f:	eb 30                	jmp    1002581 <bootstrap_malloc+0x111>
 1002551:	8d 05 64 fc 84 01    	lea    0x184fc64,%eax
 1002557:	03 05 58 f0 a8 04    	add    0x4a8f058,%eax
 100255d:	89 44 24 14          	mov    %eax,0x14(%esp)
 1002561:	8b 84 24 b8 00 00 00 	mov    0xb8(%esp),%eax
 1002568:	8b 0d 58 f0 a8 04    	mov    0x4a8f058,%ecx
 100256e:	01 c1                	add    %eax,%ecx
 1002570:	89 0d 58 f0 a8 04    	mov    %ecx,0x4a8f058
 1002576:	8b 44 24 14          	mov    0x14(%esp),%eax
 100257a:	89 84 24 bc 00 00 00 	mov    %eax,0xbc(%esp)
 1002581:	8b 84 24 bc 00 00 00 	mov    0xbc(%esp),%eax
 1002588:	89 ec                	mov    %ebp,%esp
 100258a:	5d                   	pop    %ebp
 100258b:	c3                   	ret    
 100258c:	66 90                	xchg   %ax,%ax
 100258e:	66 90                	xchg   %ax,%ax

01002590 <Interrupts_Setup>:
 1002590:	55                   	push   %ebp
 1002591:	89 e5                	mov    %esp,%ebp
 1002593:	56                   	push   %esi
 1002594:	83 ec 0c             	sub    $0xc,%esp
 1002597:	e8 34 1f 00 00       	call   10044d0 <SysMan_RegisterSystem>
 100259c:	a3 60 f0 a8 04       	mov    %eax,0x4a8f060
 10025a1:	89 e1                	mov    %esp,%ecx
 10025a3:	89 01                	mov    %eax,(%ecx)
 10025a5:	c7 41 04 1f 42 7f 01 	movl   $0x17f421f,0x4(%ecx)
 10025ac:	e8 4f 14 00 00       	call   1003a00 <strcpy>
 10025b1:	8b 0d 60 f0 a8 04    	mov    0x4a8f060,%ecx
 10025b7:	c7 41 14 00 00 00 00 	movl   $0x0,0x14(%ecx)
 10025be:	c7 41 10 00 00 00 00 	movl   $0x0,0x10(%ecx)
 10025c5:	8b 0d 60 f0 a8 04    	mov    0x4a8f060,%ecx
 10025cb:	c7 81 08 01 00 00 30 	movl   $0x1002730,0x108(%ecx)
 10025d2:	27 00 01 
 10025d5:	8b 0d 60 f0 a8 04    	mov    0x4a8f060,%ecx
 10025db:	c7 81 0c 01 00 00 20 	movl   $0x1002620,0x10c(%ecx)
 10025e2:	26 00 01 
 10025e5:	8b 0d 60 f0 a8 04    	mov    0x4a8f060,%ecx
 10025eb:	c7 81 10 01 00 00 e0 	movl   $0x10026e0,0x110(%ecx)
 10025f2:	26 00 01 
 10025f5:	8b 0d 60 f0 a8 04    	mov    0x4a8f060,%ecx
 10025fb:	8b 91 14 01 00 00    	mov    0x114(%ecx),%edx
 1002601:	8b 89 18 01 00 00    	mov    0x118(%ecx),%ecx
 1002607:	89 e6                	mov    %esp,%esi
 1002609:	89 4e 04             	mov    %ecx,0x4(%esi)
 100260c:	89 16                	mov    %edx,(%esi)
 100260e:	89 45 f8             	mov    %eax,-0x8(%ebp)
 1002611:	e8 9a 20 00 00       	call   10046b0 <SysMan_StartSystem>
 1002616:	83 c4 0c             	add    $0xc,%esp
 1002619:	5e                   	pop    %esi
 100261a:	5d                   	pop    %ebp
 100261b:	c3                   	ret    
 100261c:	8d 74 26 00          	lea    0x0(%esi,%eiz,1),%esi

01002620 <interrupts_callback>:
 1002620:	55                   	push   %ebp
 1002621:	89 e5                	mov    %esp,%ebp
 1002623:	83 e4 f8             	and    $0xfffffff8,%esp
 1002626:	81 ec b8 00 00 00    	sub    $0xb8,%esp
 100262c:	8b 45 08             	mov    0x8(%ebp),%eax
 100262f:	89 84 24 b4 00 00 00 	mov    %eax,0xb4(%esp)
 1002636:	83 bc 24 b4 00 00 00 	cmpl   $0xffffffff,0xb4(%esp)
 100263d:	ff 
 100263e:	0f 85 8d 00 00 00    	jne    10026d1 <interrupts_callback+0xb1>
 1002644:	8d 44 24 10          	lea    0x10(%esp),%eax
 1002648:	89 e1                	mov    %esp,%ecx
 100264a:	8d 54 24 10          	lea    0x10(%esp),%edx
 100264e:	89 11                	mov    %edx,(%ecx)
 1002650:	c7 41 04 2c 42 7f 01 	movl   $0x17f422c,0x4(%ecx)
 1002657:	89 44 24 0c          	mov    %eax,0xc(%esp)
 100265b:	e8 a0 13 00 00       	call   1003a00 <strcpy>
 1002660:	8b 0d 60 f0 a8 04    	mov    0x4a8f060,%ecx
 1002666:	8b 91 14 01 00 00    	mov    0x114(%ecx),%edx
 100266c:	8b 89 18 01 00 00    	mov    0x118(%ecx),%ecx
 1002672:	89 8c 24 94 00 00 00 	mov    %ecx,0x94(%esp)
 1002679:	89 94 24 90 00 00 00 	mov    %edx,0x90(%esp)
 1002680:	8b 0d 60 f0 a8 04    	mov    0x4a8f060,%ecx
 1002686:	8b 91 14 01 00 00    	mov    0x114(%ecx),%edx
 100268c:	8b 89 18 01 00 00    	mov    0x118(%ecx),%ecx
 1002692:	89 8c 24 9c 00 00 00 	mov    %ecx,0x9c(%esp)
 1002699:	89 94 24 98 00 00 00 	mov    %edx,0x98(%esp)
 10026a0:	c7 84 24 a4 00 00 00 	movl   $0x1,0xa4(%esp)
 10026a7:	01 00 00 00 
 10026ab:	c7 84 24 a8 00 00 00 	movl   $0x2,0xa8(%esp)
 10026b2:	02 00 00 00 
 10026b6:	c7 84 24 ac 00 00 00 	movl   $0x1,0xac(%esp)
 10026bd:	01 00 00 00 
 10026c1:	8b 4c 24 0c          	mov    0xc(%esp),%ecx
 10026c5:	89 0c 24             	mov    %ecx,(%esp)
 10026c8:	89 44 24 08          	mov    %eax,0x8(%esp)
 10026cc:	e8 3f 0d 00 00       	call   1003410 <MessageMan_Add>
 10026d1:	89 ec                	mov    %ebp,%esp
 10026d3:	5d                   	pop    %ebp
 10026d4:	c3                   	ret    
 10026d5:	8d 74 26 00          	lea    0x0(%esi,%eiz,1),%esi
 10026d9:	8d bc 27 00 00 00 00 	lea    0x0(%edi,%eiz,1),%edi

010026e0 <interrupts_messageHandler>:
 10026e0:	55                   	push   %ebp
 10026e1:	89 e5                	mov    %esp,%ebp
 10026e3:	83 ec 08             	sub    $0x8,%esp
 10026e6:	8b 45 08             	mov    0x8(%ebp),%eax
 10026e9:	89 45 f8             	mov    %eax,-0x8(%ebp)
 10026ec:	8b 45 f8             	mov    -0x8(%ebp),%eax
 10026ef:	83 b8 94 00 00 00 01 	cmpl   $0x1,0x94(%eax)
 10026f6:	75 06                	jne    10026fe <interrupts_messageHandler+0x1e>
 10026f8:	c6 45 ff 01          	movb   $0x1,-0x1(%ebp)
 10026fc:	eb 04                	jmp    1002702 <interrupts_messageHandler+0x22>
 10026fe:	c6 45 ff 00          	movb   $0x0,-0x1(%ebp)
 1002702:	0f b6 45 ff          	movzbl -0x1(%ebp),%eax
 1002706:	83 c4 08             	add    $0x8,%esp
 1002709:	5d                   	pop    %ebp
 100270a:	c3                   	ret    
 100270b:	90                   	nop
 100270c:	8d 74 26 00          	lea    0x0(%esi,%eiz,1),%esi

01002710 <Interrupts_Virtualize>:
 1002710:	55                   	push   %ebp
 1002711:	89 e5                	mov    %esp,%ebp
 1002713:	80 3d 64 f0 a8 04 00 	cmpb   $0x0,0x4a8f064
 100271a:	74 0a                	je     1002726 <Interrupts_Virtualize+0x16>
 100271c:	e8 af ed ff ff       	call   10014d0 <APIC_Virtualize>
 1002721:	e8 0a fc ff ff       	call   1002330 <IOAPIC_VirtualizeAll>
 1002726:	5d                   	pop    %ebp
 1002727:	c3                   	ret    
 1002728:	90                   	nop
 1002729:	8d b4 26 00 00 00 00 	lea    0x0(%esi,%eiz,1),%esi

01002730 <interrupts_Initialize>:
 1002730:	55                   	push   %ebp
 1002731:	89 e5                	mov    %esp,%ebp
 1002733:	83 ec 2c             	sub    $0x2c,%esp
 1002736:	e8 15 22 00 00       	call   1004950 <PIC_Initialize>
 100273b:	89 45 f8             	mov    %eax,-0x8(%ebp)
 100273e:	e8 2d f2 ff ff       	call   1001970 <APIC_Initialize>
 1002743:	89 45 f4             	mov    %eax,-0xc(%ebp)
 1002746:	83 7d f4 00          	cmpl   $0x0,-0xc(%ebp)
 100274a:	7d 12                	jge    100275e <interrupts_Initialize+0x2e>
 100274c:	83 7d f8 00          	cmpl   $0x0,-0x8(%ebp)
 1002750:	7d 0c                	jge    100275e <interrupts_Initialize+0x2e>
 1002752:	c7 45 fc ff ff ff ff 	movl   $0xffffffff,-0x4(%ebp)
 1002759:	e9 ab 00 00 00       	jmp    1002809 <interrupts_Initialize+0xd9>
 100275e:	83 7d f4 00          	cmpl   $0x0,-0xc(%ebp)
 1002762:	7d 09                	jge    100276d <interrupts_Initialize+0x3d>
 1002764:	c6 05 64 f0 a8 04 00 	movb   $0x0,0x4a8f064
 100276b:	eb 0f                	jmp    100277c <interrupts_Initialize+0x4c>
 100276d:	83 7d f4 00          	cmpl   $0x0,-0xc(%ebp)
 1002771:	75 07                	jne    100277a <interrupts_Initialize+0x4a>
 1002773:	c6 05 64 f0 a8 04 01 	movb   $0x1,0x4a8f064
 100277a:	eb 00                	jmp    100277c <interrupts_Initialize+0x4c>
 100277c:	eb 00                	jmp    100277e <interrupts_Initialize+0x4e>
 100277e:	8d 05 64 fc 84 03    	lea    0x384fc64,%eax
 1002784:	b9 00 00 00 00       	mov    $0x0,%ecx
 1002789:	ba 00 00 02 00       	mov    $0x20000,%edx
 100278e:	89 04 24             	mov    %eax,(%esp)
 1002791:	c7 44 24 04 00 00 00 	movl   $0x0,0x4(%esp)
 1002798:	00 
 1002799:	c7 44 24 08 00 00 02 	movl   $0x20000,0x8(%esp)
 10027a0:	00 
 10027a1:	89 55 ec             	mov    %edx,-0x14(%ebp)
 10027a4:	89 4d e8             	mov    %ecx,-0x18(%ebp)
 10027a7:	e8 54 10 00 00       	call   1003800 <memset>
 10027ac:	c7 45 f0 00 00 00 00 	movl   $0x0,-0x10(%ebp)
 10027b3:	89 45 e4             	mov    %eax,-0x1c(%ebp)
 10027b6:	81 7d f0 00 01 00 00 	cmpl   $0x100,-0x10(%ebp)
 10027bd:	73 25                	jae    10027e4 <interrupts_Initialize+0xb4>
 10027bf:	8d 05 20 28 00 01    	lea    0x1002820,%eax
 10027c5:	8b 4d f0             	mov    -0x10(%ebp),%ecx
 10027c8:	88 ca                	mov    %cl,%dl
 10027ca:	0f b6 ca             	movzbl %dl,%ecx
 10027cd:	89 0c 24             	mov    %ecx,(%esp)
 10027d0:	89 44 24 04          	mov    %eax,0x4(%esp)
 10027d4:	e8 17 e3 ff ff       	call   1000af0 <IDT_RegisterHandler>
 10027d9:	8b 45 f0             	mov    -0x10(%ebp),%eax
 10027dc:	83 c0 01             	add    $0x1,%eax
 10027df:	89 45 f0             	mov    %eax,-0x10(%ebp)
 10027e2:	eb d2                	jmp    10027b6 <interrupts_Initialize+0x86>
 10027e4:	b8 0d 00 00 00       	mov    $0xd,%eax
 10027e9:	8d 0d d0 28 00 01    	lea    0x10028d0,%ecx
 10027ef:	c7 04 24 0d 00 00 00 	movl   $0xd,(%esp)
 10027f6:	89 4c 24 04          	mov    %ecx,0x4(%esp)
 10027fa:	89 45 e0             	mov    %eax,-0x20(%ebp)
 10027fd:	e8 ee e2 ff ff       	call   1000af0 <IDT_RegisterHandler>
 1002802:	c7 45 fc 00 00 00 00 	movl   $0x0,-0x4(%ebp)
 1002809:	8b 45 fc             	mov    -0x4(%ebp),%eax
 100280c:	83 c4 2c             	add    $0x2c,%esp
 100280f:	5d                   	pop    %ebp
 1002810:	c3                   	ret    
 1002811:	eb 0d                	jmp    1002820 <interrupts_IDTHandler>
 1002813:	90                   	nop
 1002814:	90                   	nop
 1002815:	90                   	nop
 1002816:	90                   	nop
 1002817:	90                   	nop
 1002818:	90                   	nop
 1002819:	90                   	nop
 100281a:	90                   	nop
 100281b:	90                   	nop
 100281c:	90                   	nop
 100281d:	90                   	nop
 100281e:	90                   	nop
 100281f:	90                   	nop

01002820 <interrupts_IDTHandler>:
 1002820:	55                   	push   %ebp
 1002821:	89 e5                	mov    %esp,%ebp
 1002823:	83 ec 10             	sub    $0x10,%esp
 1002826:	8b 45 08             	mov    0x8(%ebp),%eax
 1002829:	89 45 fc             	mov    %eax,-0x4(%ebp)
 100282c:	c7 45 f8 00 00 00 00 	movl   $0x0,-0x8(%ebp)
 1002833:	81 7d f8 81 00 00 00 	cmpl   $0x81,-0x8(%ebp)
 100283a:	7d 55                	jge    1002891 <interrupts_IDTHandler+0x71>
 100283c:	8d 05 64 fc 84 03    	lea    0x384fc64,%eax
 1002842:	8b 4d f8             	mov    -0x8(%ebp),%ecx
 1002845:	8b 55 fc             	mov    -0x4(%ebp),%edx
 1002848:	69 52 24 04 02 00 00 	imul   $0x204,0x24(%edx),%edx
 100284f:	01 d0                	add    %edx,%eax
 1002851:	83 3c 88 00          	cmpl   $0x0,(%eax,%ecx,4)
 1002855:	74 2d                	je     1002884 <interrupts_IDTHandler+0x64>
 1002857:	8d 05 64 fc 84 03    	lea    0x384fc64,%eax
 100285d:	8b 4d f8             	mov    -0x8(%ebp),%ecx
 1002860:	8b 55 fc             	mov    -0x4(%ebp),%edx
 1002863:	69 52 24 04 02 00 00 	imul   $0x204,0x24(%edx),%edx
 100286a:	01 d0                	add    %edx,%eax
 100286c:	8b 04 88             	mov    (%eax,%ecx,4),%eax
 100286f:	8b 4d fc             	mov    -0x4(%ebp),%ecx
 1002872:	89 0c 24             	mov    %ecx,(%esp)
 1002875:	ff d0                	call   *%eax
 1002877:	89 45 f4             	mov    %eax,-0xc(%ebp)
 100287a:	83 7d f4 00          	cmpl   $0x0,-0xc(%ebp)
 100287e:	74 02                	je     1002882 <interrupts_IDTHandler+0x62>
 1002880:	eb 0f                	jmp    1002891 <interrupts_IDTHandler+0x71>
 1002882:	eb 00                	jmp    1002884 <interrupts_IDTHandler+0x64>
 1002884:	eb 00                	jmp    1002886 <interrupts_IDTHandler+0x66>
 1002886:	8b 45 f8             	mov    -0x8(%ebp),%eax
 1002889:	83 c0 01             	add    $0x1,%eax
 100288c:	89 45 f8             	mov    %eax,-0x8(%ebp)
 100288f:	eb a2                	jmp    1002833 <interrupts_IDTHandler+0x13>
 1002891:	80 3d 64 f0 a8 04 00 	cmpb   $0x0,0x4a8f064
 1002898:	74 15                	je     10028af <interrupts_IDTHandler+0x8f>
 100289a:	8b 45 fc             	mov    -0x4(%ebp),%eax
 100289d:	8b 40 24             	mov    0x24(%eax),%eax
 10028a0:	88 c1                	mov    %al,%cl
 10028a2:	0f b6 c1             	movzbl %cl,%eax
 10028a5:	89 04 24             	mov    %eax,(%esp)
 10028a8:	e8 e3 ef ff ff       	call   1001890 <APIC_SendEOI>
 10028ad:	eb 13                	jmp    10028c2 <interrupts_IDTHandler+0xa2>
 10028af:	8b 45 fc             	mov    -0x4(%ebp),%eax
 10028b2:	8b 40 24             	mov    0x24(%eax),%eax
 10028b5:	88 c1                	mov    %al,%cl
 10028b7:	0f b6 c1             	movzbl %cl,%eax
 10028ba:	89 04 24             	mov    %eax,(%esp)
 10028bd:	e8 8e 26 00 00       	call   1004f50 <PIC_SendEOI>
 10028c2:	83 c4 10             	add    $0x10,%esp
 10028c5:	5d                   	pop    %ebp
 10028c6:	c3                   	ret    
 10028c7:	89 f6                	mov    %esi,%esi
 10028c9:	8d bc 27 00 00 00 00 	lea    0x0(%edi,%eiz,1),%edi

010028d0 <Interrupts_GPF_Handler>:
 10028d0:	55                   	push   %ebp
 10028d1:	89 e5                	mov    %esp,%ebp
 10028d3:	83 ec 0c             	sub    $0xc,%esp
 10028d6:	8b 45 08             	mov    0x8(%ebp),%eax
 10028d9:	8d 0d 56 42 7f 01    	lea    0x17f4256,%ecx
 10028df:	89 45 fc             	mov    %eax,-0x4(%ebp)
 10028e2:	89 0c 24             	mov    %ecx,(%esp)
 10028e5:	e8 36 e4 ff ff       	call   1000d20 <COM_WriteStr>
 10028ea:	8d 05 80 42 7f 01    	lea    0x17f4280,%eax
 10028f0:	8b 4d fc             	mov    -0x4(%ebp),%ecx
 10028f3:	8b 49 20             	mov    0x20(%ecx),%ecx
 10028f6:	89 04 24             	mov    %eax,(%esp)
 10028f9:	89 4c 24 04          	mov    %ecx,0x4(%esp)
 10028fd:	e8 1e e4 ff ff       	call   1000d20 <COM_WriteStr>
 1002902:	8d 05 89 42 7f 01    	lea    0x17f4289,%eax
 1002908:	8b 4d fc             	mov    -0x4(%ebp),%ecx
 100290b:	8b 49 14             	mov    0x14(%ecx),%ecx
 100290e:	89 04 24             	mov    %eax,(%esp)
 1002911:	89 4c 24 04          	mov    %ecx,0x4(%esp)
 1002915:	e8 06 e4 ff ff       	call   1000d20 <COM_WriteStr>
 100291a:	8d 05 92 42 7f 01    	lea    0x17f4292,%eax
 1002920:	8b 4d fc             	mov    -0x4(%ebp),%ecx
 1002923:	8b 49 1c             	mov    0x1c(%ecx),%ecx
 1002926:	89 04 24             	mov    %eax,(%esp)
 1002929:	89 4c 24 04          	mov    %ecx,0x4(%esp)
 100292d:	e8 ee e3 ff ff       	call   1000d20 <COM_WriteStr>
 1002932:	8d 05 9b 42 7f 01    	lea    0x17f429b,%eax
 1002938:	8b 4d fc             	mov    -0x4(%ebp),%ecx
 100293b:	8b 49 18             	mov    0x18(%ecx),%ecx
 100293e:	89 04 24             	mov    %eax,(%esp)
 1002941:	89 4c 24 04          	mov    %ecx,0x4(%esp)
 1002945:	e8 d6 e3 ff ff       	call   1000d20 <COM_WriteStr>
 100294a:	8d 05 a5 42 7f 01    	lea    0x17f42a5,%eax
 1002950:	8b 4d fc             	mov    -0x4(%ebp),%ecx
 1002953:	8b 49 2c             	mov    0x2c(%ecx),%ecx
 1002956:	89 04 24             	mov    %eax,(%esp)
 1002959:	89 4c 24 04          	mov    %ecx,0x4(%esp)
 100295d:	e8 be e3 ff ff       	call   1000d20 <COM_WriteStr>
 1002962:	8d 05 ae 42 7f 01    	lea    0x17f42ae,%eax
 1002968:	8b 4d fc             	mov    -0x4(%ebp),%ecx
 100296b:	8b 49 08             	mov    0x8(%ecx),%ecx
 100296e:	89 04 24             	mov    %eax,(%esp)
 1002971:	89 4c 24 04          	mov    %ecx,0x4(%esp)
 1002975:	e8 a6 e3 ff ff       	call   1000d20 <COM_WriteStr>
 100297a:	8d 05 b7 42 7f 01    	lea    0x17f42b7,%eax
 1002980:	8b 4d fc             	mov    -0x4(%ebp),%ecx
 1002983:	8b 49 04             	mov    0x4(%ecx),%ecx
 1002986:	89 04 24             	mov    %eax,(%esp)
 1002989:	89 4c 24 04          	mov    %ecx,0x4(%esp)
 100298d:	e8 8e e3 ff ff       	call   1000d20 <COM_WriteStr>
 1002992:	8d 05 c2 42 7f 01    	lea    0x17f42c2,%eax
 1002998:	8b 4d fc             	mov    -0x4(%ebp),%ecx
 100299b:	8b 49 30             	mov    0x30(%ecx),%ecx
 100299e:	89 04 24             	mov    %eax,(%esp)
 10029a1:	89 4c 24 04          	mov    %ecx,0x4(%esp)
 10029a5:	e8 76 e3 ff ff       	call   1000d20 <COM_WriteStr>
 10029aa:	8d 05 ca 42 7f 01    	lea    0x17f42ca,%eax
 10029b0:	8b 4d fc             	mov    -0x4(%ebp),%ecx
 10029b3:	8b 49 3c             	mov    0x3c(%ecx),%ecx
 10029b6:	89 04 24             	mov    %eax,(%esp)
 10029b9:	89 4c 24 04          	mov    %ecx,0x4(%esp)
 10029bd:	e8 5e e3 ff ff       	call   1000d20 <COM_WriteStr>
 10029c2:	8d 05 d2 42 7f 01    	lea    0x17f42d2,%eax
 10029c8:	8b 4d fc             	mov    -0x4(%ebp),%ecx
 10029cb:	8b 09                	mov    (%ecx),%ecx
 10029cd:	89 04 24             	mov    %eax,(%esp)
 10029d0:	89 4c 24 04          	mov    %ecx,0x4(%esp)
 10029d4:	e8 47 e3 ff ff       	call   1000d20 <COM_WriteStr>
 10029d9:	8d 05 dc 42 7f 01    	lea    0x17f42dc,%eax
 10029df:	8b 4d fc             	mov    -0x4(%ebp),%ecx
 10029e2:	8b 49 34             	mov    0x34(%ecx),%ecx
 10029e5:	89 04 24             	mov    %eax,(%esp)
 10029e8:	89 4c 24 04          	mov    %ecx,0x4(%esp)
 10029ec:	e8 2f e3 ff ff       	call   1000d20 <COM_WriteStr>
 10029f1:	8d 05 ea 42 7f 01    	lea    0x17f42ea,%eax
 10029f7:	8b 4d fc             	mov    -0x4(%ebp),%ecx
 10029fa:	8b 49 38             	mov    0x38(%ecx),%ecx
 10029fd:	89 04 24             	mov    %eax,(%esp)
 1002a00:	89 4c 24 04          	mov    %ecx,0x4(%esp)
 1002a04:	e8 17 e3 ff ff       	call   1000d20 <COM_WriteStr>
 1002a09:	8d 05 f7 42 7f 01    	lea    0x17f42f7,%eax
 1002a0f:	8b 4d fc             	mov    -0x4(%ebp),%ecx
 1002a12:	8b 49 0c             	mov    0xc(%ecx),%ecx
 1002a15:	89 04 24             	mov    %eax,(%esp)
 1002a18:	89 4c 24 04          	mov    %ecx,0x4(%esp)
 1002a1c:	e8 ff e2 ff ff       	call   1000d20 <COM_WriteStr>
 1002a21:	f4                   	hlt    
 1002a22:	83 c4 0c             	add    $0xc,%esp
 1002a25:	5d                   	pop    %ebp
 1002a26:	c3                   	ret    
 1002a27:	89 f6                	mov    %esi,%esi
 1002a29:	8d bc 27 00 00 00 00 	lea    0x0(%edi,%eiz,1),%edi

01002a30 <Interrupts_RegisterHandler>:
 1002a30:	55                   	push   %ebp
 1002a31:	89 e5                	mov    %esp,%ebp
 1002a33:	53                   	push   %ebx
 1002a34:	57                   	push   %edi
 1002a35:	56                   	push   %esi
 1002a36:	83 ec 08             	sub    $0x8,%esp
 1002a39:	8b 45 10             	mov    0x10(%ebp),%eax
 1002a3c:	8a 4d 0c             	mov    0xc(%ebp),%cl
 1002a3f:	8a 55 08             	mov    0x8(%ebp),%dl
 1002a42:	8d 35 64 fc 84 03    	lea    0x384fc64,%esi
 1002a48:	88 55 f3             	mov    %dl,-0xd(%ebp)
 1002a4b:	88 4d f2             	mov    %cl,-0xe(%ebp)
 1002a4e:	89 45 ec             	mov    %eax,-0x14(%ebp)
 1002a51:	8b 45 ec             	mov    -0x14(%ebp),%eax
 1002a54:	0f b6 7d f2          	movzbl -0xe(%ebp),%edi
 1002a58:	0f b6 5d f3          	movzbl -0xd(%ebp),%ebx
 1002a5c:	69 db 04 02 00 00    	imul   $0x204,%ebx,%ebx
 1002a62:	01 de                	add    %ebx,%esi
 1002a64:	89 04 be             	mov    %eax,(%esi,%edi,4)
 1002a67:	83 c4 08             	add    $0x8,%esp
 1002a6a:	5e                   	pop    %esi
 1002a6b:	5f                   	pop    %edi
 1002a6c:	5b                   	pop    %ebx
 1002a6d:	5d                   	pop    %ebp
 1002a6e:	c3                   	ret    
 1002a6f:	90                   	nop

01002a70 <Interrupts_GetFreeSlot>:
 1002a70:	55                   	push   %ebp
 1002a71:	89 e5                	mov    %esp,%ebp
 1002a73:	57                   	push   %edi
 1002a74:	56                   	push   %esi
 1002a75:	50                   	push   %eax
 1002a76:	8a 45 08             	mov    0x8(%ebp),%al
 1002a79:	88 45 f7             	mov    %al,-0x9(%ebp)
 1002a7c:	c6 45 f6 00          	movb   $0x0,-0xa(%ebp)
 1002a80:	b0 00                	mov    $0x0,%al
 1002a82:	0f b6 4d f6          	movzbl -0xa(%ebp),%ecx
 1002a86:	81 f9 80 00 00 00    	cmp    $0x80,%ecx
 1002a8c:	88 45 f5             	mov    %al,-0xb(%ebp)
 1002a8f:	7d 2a                	jge    1002abb <Interrupts_GetFreeSlot+0x4b>
 1002a91:	8d 05 64 fc 84 03    	lea    0x384fc64,%eax
 1002a97:	8a 4d f6             	mov    -0xa(%ebp),%cl
 1002a9a:	88 ca                	mov    %cl,%dl
 1002a9c:	80 c2 01             	add    $0x1,%dl
 1002a9f:	88 55 f6             	mov    %dl,-0xa(%ebp)
 1002aa2:	0f b6 f1             	movzbl %cl,%esi
 1002aa5:	0f b6 7d f7          	movzbl -0x9(%ebp),%edi
 1002aa9:	69 ff 04 02 00 00    	imul   $0x204,%edi,%edi
 1002aaf:	01 f8                	add    %edi,%eax
 1002ab1:	83 3c b0 00          	cmpl   $0x0,(%eax,%esi,4)
 1002ab5:	0f 95 c1             	setne  %cl
 1002ab8:	88 4d f5             	mov    %cl,-0xb(%ebp)
 1002abb:	8a 45 f5             	mov    -0xb(%ebp),%al
 1002abe:	a8 01                	test   $0x1,%al
 1002ac0:	75 02                	jne    1002ac4 <Interrupts_GetFreeSlot+0x54>
 1002ac2:	eb 02                	jmp    1002ac6 <Interrupts_GetFreeSlot+0x56>
 1002ac4:	eb ba                	jmp    1002a80 <Interrupts_GetFreeSlot+0x10>
 1002ac6:	0f b6 45 f6          	movzbl -0xa(%ebp),%eax
 1002aca:	83 e8 01             	sub    $0x1,%eax
 1002acd:	88 c1                	mov    %al,%cl
 1002acf:	0f b6 c1             	movzbl %cl,%eax
 1002ad2:	83 c4 04             	add    $0x4,%esp
 1002ad5:	5e                   	pop    %esi
 1002ad6:	5f                   	pop    %edi
 1002ad7:	5d                   	pop    %ebp
 1002ad8:	c3                   	ret    
 1002ad9:	8d b4 26 00 00 00 00 	lea    0x0(%esi,%eiz,1),%esi

01002ae0 <Interrupts_EmptySlot>:
 1002ae0:	55                   	push   %ebp
 1002ae1:	89 e5                	mov    %esp,%ebp
 1002ae3:	50                   	push   %eax
 1002ae4:	8a 45 0c             	mov    0xc(%ebp),%al
 1002ae7:	8a 4d 08             	mov    0x8(%ebp),%cl
 1002aea:	88 4d ff             	mov    %cl,-0x1(%ebp)
 1002aed:	88 45 fe             	mov    %al,-0x2(%ebp)
 1002af0:	0f b6 55 fe          	movzbl -0x2(%ebp),%edx
 1002af4:	81 fa 80 00 00 00    	cmp    $0x80,%edx
 1002afa:	7d 1d                	jge    1002b19 <Interrupts_EmptySlot+0x39>
 1002afc:	8d 05 64 fc 84 03    	lea    0x384fc64,%eax
 1002b02:	0f b6 4d fe          	movzbl -0x2(%ebp),%ecx
 1002b06:	0f b6 55 ff          	movzbl -0x1(%ebp),%edx
 1002b0a:	69 d2 04 02 00 00    	imul   $0x204,%edx,%edx
 1002b10:	01 d0                	add    %edx,%eax
 1002b12:	c7 04 88 00 00 00 00 	movl   $0x0,(%eax,%ecx,4)
 1002b19:	83 c4 04             	add    $0x4,%esp
 1002b1c:	5d                   	pop    %ebp
 1002b1d:	c3                   	ret    
 1002b1e:	66 90                	xchg   %ax,%ax

01002b20 <Interrupts_GetHandler>:
 1002b20:	55                   	push   %ebp
 1002b21:	89 e5                	mov    %esp,%ebp
 1002b23:	83 ec 08             	sub    $0x8,%esp
 1002b26:	8b 45 10             	mov    0x10(%ebp),%eax
 1002b29:	8a 4d 0c             	mov    0xc(%ebp),%cl
 1002b2c:	8a 55 08             	mov    0x8(%ebp),%dl
 1002b2f:	88 55 ff             	mov    %dl,-0x1(%ebp)
 1002b32:	88 4d fe             	mov    %cl,-0x2(%ebp)
 1002b35:	89 45 f8             	mov    %eax,-0x8(%ebp)
 1002b38:	0f b6 45 fe          	movzbl -0x2(%ebp),%eax
 1002b3c:	3d 80 00 00 00       	cmp    $0x80,%eax
 1002b41:	7d 1e                	jge    1002b61 <Interrupts_GetHandler+0x41>
 1002b43:	8d 05 64 fc 84 03    	lea    0x384fc64,%eax
 1002b49:	0f b6 4d fe          	movzbl -0x2(%ebp),%ecx
 1002b4d:	0f b6 55 ff          	movzbl -0x1(%ebp),%edx
 1002b51:	69 d2 04 02 00 00    	imul   $0x204,%edx,%edx
 1002b57:	01 d0                	add    %edx,%eax
 1002b59:	8b 04 88             	mov    (%eax,%ecx,4),%eax
 1002b5c:	8b 4d f8             	mov    -0x8(%ebp),%ecx
 1002b5f:	89 01                	mov    %eax,(%ecx)
 1002b61:	83 c4 08             	add    $0x8,%esp
 1002b64:	5d                   	pop    %ebp
 1002b65:	c3                   	ret    
 1002b66:	8d 76 00             	lea    0x0(%esi),%esi
 1002b69:	8d bc 27 00 00 00 00 	lea    0x0(%edi,%eiz,1),%edi

01002b70 <Interrupts_SetEnableMode>:
 1002b70:	55                   	push   %ebp
 1002b71:	89 e5                	mov    %esp,%ebp
 1002b73:	50                   	push   %eax
 1002b74:	8a 45 08             	mov    0x8(%ebp),%al
 1002b77:	88 45 ff             	mov    %al,-0x1(%ebp)
 1002b7a:	80 7d ff 00          	cmpb   $0x0,-0x1(%ebp)
 1002b7e:	74 03                	je     1002b83 <Interrupts_SetEnableMode+0x13>
 1002b80:	fb                   	sti    
 1002b81:	eb 01                	jmp    1002b84 <Interrupts_SetEnableMode+0x14>
 1002b83:	fa                   	cli    
 1002b84:	83 c4 04             	add    $0x4,%esp
 1002b87:	5d                   	pop    %ebp
 1002b88:	c3                   	ret    
 1002b89:	8d b4 26 00 00 00 00 	lea    0x0(%esi,%eiz,1),%esi

01002b90 <Interrupts_SetInterruptEnableMode>:
 1002b90:	55                   	push   %ebp
 1002b91:	89 e5                	mov    %esp,%ebp
 1002b93:	83 ec 0c             	sub    $0xc,%esp
 1002b96:	8a 45 0c             	mov    0xc(%ebp),%al
 1002b99:	8a 4d 08             	mov    0x8(%ebp),%cl
 1002b9c:	88 4d ff             	mov    %cl,-0x1(%ebp)
 1002b9f:	88 45 fe             	mov    %al,-0x2(%ebp)
 1002ba2:	0f b6 55 ff          	movzbl -0x1(%ebp),%edx
 1002ba6:	83 fa 20             	cmp    $0x20,%edx
 1002ba9:	7c 45                	jl     1002bf0 <Interrupts_SetInterruptEnableMode+0x60>
 1002bab:	80 3d 64 f0 a8 04 00 	cmpb   $0x0,0x4a8f064
 1002bb2:	74 18                	je     1002bcc <Interrupts_SetInterruptEnableMode+0x3c>
 1002bb4:	8a 45 ff             	mov    -0x1(%ebp),%al
 1002bb7:	0f b6 c8             	movzbl %al,%ecx
 1002bba:	89 0c 24             	mov    %ecx,(%esp)
 1002bbd:	0f b6 4d fe          	movzbl -0x2(%ebp),%ecx
 1002bc1:	89 4c 24 04          	mov    %ecx,0x4(%esp)
 1002bc5:	e8 b6 f6 ff ff       	call   1002280 <IOAPIC_SetEnableMode>
 1002bca:	eb 22                	jmp    1002bee <Interrupts_SetInterruptEnableMode+0x5e>
 1002bcc:	80 7d fe 00          	cmpb   $0x0,-0x2(%ebp)
 1002bd0:	75 0e                	jne    1002be0 <Interrupts_SetInterruptEnableMode+0x50>
 1002bd2:	0f b6 45 ff          	movzbl -0x1(%ebp),%eax
 1002bd6:	89 04 24             	mov    %eax,(%esp)
 1002bd9:	e8 a2 21 00 00       	call   1004d80 <PIC_MaskIRQ>
 1002bde:	eb 0c                	jmp    1002bec <Interrupts_SetInterruptEnableMode+0x5c>
 1002be0:	0f b6 45 ff          	movzbl -0x1(%ebp),%eax
 1002be4:	89 04 24             	mov    %eax,(%esp)
 1002be7:	e8 14 22 00 00       	call   1004e00 <PIC_UnMaskIRQ>
 1002bec:	eb 00                	jmp    1002bee <Interrupts_SetInterruptEnableMode+0x5e>
 1002bee:	eb 00                	jmp    1002bf0 <Interrupts_SetInterruptEnableMode+0x60>
 1002bf0:	83 c4 0c             	add    $0xc,%esp
 1002bf3:	5d                   	pop    %ebp
 1002bf4:	c3                   	ret    
 1002bf5:	8d 74 26 00          	lea    0x0(%esi,%eiz,1),%esi
 1002bf9:	8d bc 27 00 00 00 00 	lea    0x0(%edi,%eiz,1),%edi

01002c00 <Interrupts_GetSysID>:
 1002c00:	55                   	push   %ebp
 1002c01:	89 e5                	mov    %esp,%ebp
 1002c03:	a1 60 f0 a8 04       	mov    0x4a8f060,%eax
 1002c08:	8b 88 14 01 00 00    	mov    0x114(%eax),%ecx
 1002c0e:	8b 90 18 01 00 00    	mov    0x118(%eax),%edx
 1002c14:	89 c8                	mov    %ecx,%eax
 1002c16:	5d                   	pop    %ebp
 1002c17:	c3                   	ret    
 1002c18:	90                   	nop
 1002c19:	8d b4 26 00 00 00 00 	lea    0x0(%esi,%eiz,1),%esi

01002c20 <Interrupts_IsAPICEnabled>:
 1002c20:	55                   	push   %ebp
 1002c21:	89 e5                	mov    %esp,%ebp
 1002c23:	0f b6 05 64 f0 a8 04 	movzbl 0x4a8f064,%eax
 1002c2a:	5d                   	pop    %ebp
 1002c2b:	c3                   	ret    
 1002c2c:	8d 74 26 00          	lea    0x0(%esi,%eiz,1),%esi

01002c30 <Interrupts_Lock>:
 1002c30:	55                   	push   %ebp
 1002c31:	89 e5                	mov    %esp,%ebp
 1002c33:	83 ec 02             	sub    $0x2,%esp
 1002c36:	66 c7 45 fe 00 00    	movw   $0x0,-0x2(%ebp)
 1002c3c:	a1 68 f0 a8 04       	mov    0x4a8f068,%eax
 1002c41:	83 c0 01             	add    $0x1,%eax
 1002c44:	a3 68 f0 a8 04       	mov    %eax,0x4a8f068
 1002c49:	9c                   	pushf  
 1002c4a:	58                   	pop    %eax
 1002c4b:	66 89 45 fe          	mov    %ax,-0x2(%ebp)
 1002c4f:	0f b7 4d fe          	movzwl -0x2(%ebp),%ecx
 1002c53:	81 e1 00 02 00 00    	and    $0x200,%ecx
 1002c59:	81 f9 00 02 00 00    	cmp    $0x200,%ecx
 1002c5f:	75 0a                	jne    1002c6b <Interrupts_Lock+0x3b>
 1002c61:	a1 68 f0 a8 04       	mov    0x4a8f068,%eax
 1002c66:	a3 6c f0 a8 04       	mov    %eax,0x4a8f06c
 1002c6b:	fa                   	cli    
 1002c6c:	83 c4 02             	add    $0x2,%esp
 1002c6f:	5d                   	pop    %ebp
 1002c70:	c3                   	ret    
 1002c71:	eb 0d                	jmp    1002c80 <Interrupts_Unlock>
 1002c73:	90                   	nop
 1002c74:	90                   	nop
 1002c75:	90                   	nop
 1002c76:	90                   	nop
 1002c77:	90                   	nop
 1002c78:	90                   	nop
 1002c79:	90                   	nop
 1002c7a:	90                   	nop
 1002c7b:	90                   	nop
 1002c7c:	90                   	nop
 1002c7d:	90                   	nop
 1002c7e:	90                   	nop
 1002c7f:	90                   	nop

01002c80 <Interrupts_Unlock>:
 1002c80:	55                   	push   %ebp
 1002c81:	89 e5                	mov    %esp,%ebp
 1002c83:	a1 6c f0 a8 04       	mov    0x4a8f06c,%eax
 1002c88:	8b 0d 68 f0 a8 04    	mov    0x4a8f068,%ecx
 1002c8e:	89 ca                	mov    %ecx,%edx
 1002c90:	83 c2 ff             	add    $0xffffffff,%edx
 1002c93:	89 15 68 f0 a8 04    	mov    %edx,0x4a8f068
 1002c99:	39 c8                	cmp    %ecx,%eax
 1002c9b:	75 01                	jne    1002c9e <Interrupts_Unlock+0x1e>
 1002c9d:	fb                   	sti    
 1002c9e:	5d                   	pop    %ebp
 1002c9f:	c3                   	ret    

01002ca0 <CMOS_Initialize>:
 1002ca0:	55                   	push   %ebp
 1002ca1:	89 e5                	mov    %esp,%ebp
 1002ca3:	83 ec 10             	sub    $0x10,%esp
 1002ca6:	8d 05 00 43 7f 01    	lea    0x17f4300,%eax
 1002cac:	b9 00 00 00 00       	mov    $0x0,%ecx
 1002cb1:	89 04 24             	mov    %eax,(%esp)
 1002cb4:	c7 44 24 04 00 00 00 	movl   $0x0,0x4(%esp)
 1002cbb:	00 
 1002cbc:	89 4d f8             	mov    %ecx,-0x8(%ebp)
 1002cbf:	e8 6c e2 ff ff       	call   1000f30 <ACPITables_FindTable>
 1002cc4:	89 45 fc             	mov    %eax,-0x4(%ebp)
 1002cc7:	83 7d fc 00          	cmpl   $0x0,-0x4(%ebp)
 1002ccb:	74 0c                	je     1002cd9 <CMOS_Initialize+0x39>
 1002ccd:	8b 45 fc             	mov    -0x4(%ebp),%eax
 1002cd0:	0f b6 40 6c          	movzbl 0x6c(%eax),%eax
 1002cd4:	a3 70 f0 a8 04       	mov    %eax,0x4a8f070
 1002cd9:	83 c4 10             	add    $0x10,%esp
 1002cdc:	5d                   	pop    %ebp
 1002cdd:	c3                   	ret    
 1002cde:	66 90                	xchg   %ax,%ax

01002ce0 <CMOS_SelectRegister>:
 1002ce0:	55                   	push   %ebp
 1002ce1:	89 e5                	mov    %esp,%ebp
 1002ce3:	53                   	push   %ebx
 1002ce4:	57                   	push   %edi
 1002ce5:	56                   	push   %esi
 1002ce6:	83 ec 10             	sub    $0x10,%esp
 1002ce9:	8a 45 0c             	mov    0xc(%ebp),%al
 1002cec:	8a 4d 08             	mov    0x8(%ebp),%cl
 1002cef:	ba 70 00 00 00       	mov    $0x70,%edx
 1002cf4:	88 4d f3             	mov    %cl,-0xd(%ebp)
 1002cf7:	88 45 f2             	mov    %al,-0xe(%ebp)
 1002cfa:	0f b6 75 f3          	movzbl -0xd(%ebp),%esi
 1002cfe:	c1 e6 07             	shl    $0x7,%esi
 1002d01:	0f b6 7d f2          	movzbl -0xe(%ebp),%edi
 1002d05:	09 fe                	or     %edi,%esi
 1002d07:	89 f3                	mov    %esi,%ebx
 1002d09:	88 d8                	mov    %bl,%al
 1002d0b:	c7 04 24 70 00 00 00 	movl   $0x70,(%esp)
 1002d12:	0f b6 f0             	movzbl %al,%esi
 1002d15:	89 74 24 04          	mov    %esi,0x4(%esp)
 1002d19:	89 55 ec             	mov    %edx,-0x14(%ebp)
 1002d1c:	e8 0f 09 00 00       	call   1003630 <outb>
 1002d21:	83 c4 10             	add    $0x10,%esp
 1002d24:	5e                   	pop    %esi
 1002d25:	5f                   	pop    %edi
 1002d26:	5b                   	pop    %ebx
 1002d27:	5d                   	pop    %ebp
 1002d28:	c3                   	ret    
 1002d29:	8d b4 26 00 00 00 00 	lea    0x0(%esi,%eiz,1),%esi

01002d30 <CMOS_SetRegister>:
 1002d30:	55                   	push   %ebp
 1002d31:	89 e5                	mov    %esp,%ebp
 1002d33:	57                   	push   %edi
 1002d34:	56                   	push   %esi
 1002d35:	83 ec 10             	sub    $0x10,%esp
 1002d38:	8a 45 10             	mov    0x10(%ebp),%al
 1002d3b:	8a 4d 0c             	mov    0xc(%ebp),%cl
 1002d3e:	8a 55 08             	mov    0x8(%ebp),%dl
 1002d41:	88 55 f7             	mov    %dl,-0x9(%ebp)
 1002d44:	88 4d f6             	mov    %cl,-0xa(%ebp)
 1002d47:	88 45 f5             	mov    %al,-0xb(%ebp)
 1002d4a:	8a 45 f6             	mov    -0xa(%ebp),%al
 1002d4d:	0f b6 f0             	movzbl %al,%esi
 1002d50:	89 34 24             	mov    %esi,(%esp)
 1002d53:	0f b6 75 f5          	movzbl -0xb(%ebp),%esi
 1002d57:	89 74 24 04          	mov    %esi,0x4(%esp)
 1002d5b:	e8 80 ff ff ff       	call   1002ce0 <CMOS_SelectRegister>
 1002d60:	be 71 00 00 00       	mov    $0x71,%esi
 1002d65:	c7 04 24 71 00 00 00 	movl   $0x71,(%esp)
 1002d6c:	0f b6 7d f7          	movzbl -0x9(%ebp),%edi
 1002d70:	89 7c 24 04          	mov    %edi,0x4(%esp)
 1002d74:	89 75 f0             	mov    %esi,-0x10(%ebp)
 1002d77:	e8 b4 08 00 00       	call   1003630 <outb>
 1002d7c:	83 c4 10             	add    $0x10,%esp
 1002d7f:	5e                   	pop    %esi
 1002d80:	5f                   	pop    %edi
 1002d81:	5d                   	pop    %ebp
 1002d82:	c3                   	ret    
 1002d83:	8d b6 00 00 00 00    	lea    0x0(%esi),%esi
 1002d89:	8d bc 27 00 00 00 00 	lea    0x0(%edi,%eiz,1),%edi

01002d90 <CMOS_GetRegister>:
 1002d90:	55                   	push   %ebp
 1002d91:	89 e5                	mov    %esp,%ebp
 1002d93:	83 ec 10             	sub    $0x10,%esp
 1002d96:	8a 45 0c             	mov    0xc(%ebp),%al
 1002d99:	8a 4d 08             	mov    0x8(%ebp),%cl
 1002d9c:	88 4d ff             	mov    %cl,-0x1(%ebp)
 1002d9f:	88 45 fe             	mov    %al,-0x2(%ebp)
 1002da2:	8a 45 ff             	mov    -0x1(%ebp),%al
 1002da5:	0f b6 d0             	movzbl %al,%edx
 1002da8:	89 14 24             	mov    %edx,(%esp)
 1002dab:	0f b6 55 fe          	movzbl -0x2(%ebp),%edx
 1002daf:	89 54 24 04          	mov    %edx,0x4(%esp)
 1002db3:	e8 28 ff ff ff       	call   1002ce0 <CMOS_SelectRegister>
 1002db8:	ba 71 00 00 00       	mov    $0x71,%edx
 1002dbd:	c7 04 24 71 00 00 00 	movl   $0x71,(%esp)
 1002dc4:	89 55 f8             	mov    %edx,-0x8(%ebp)
 1002dc7:	e8 94 08 00 00       	call   1003660 <inb>
 1002dcc:	0f b6 c0             	movzbl %al,%eax
 1002dcf:	83 c4 10             	add    $0x10,%esp
 1002dd2:	5d                   	pop    %ebp
 1002dd3:	c3                   	ret    
 1002dd4:	8d b6 00 00 00 00    	lea    0x0(%esi),%esi
 1002dda:	8d bf 00 00 00 00    	lea    0x0(%edi),%edi

01002de0 <CMOS_UpdateInProgress>:
 1002de0:	55                   	push   %ebp
 1002de1:	89 e5                	mov    %esp,%ebp
 1002de3:	83 ec 10             	sub    $0x10,%esp
 1002de6:	b8 01 00 00 00       	mov    $0x1,%eax
 1002deb:	b9 0a 00 00 00       	mov    $0xa,%ecx
 1002df0:	c7 04 24 01 00 00 00 	movl   $0x1,(%esp)
 1002df7:	c7 44 24 04 0a 00 00 	movl   $0xa,0x4(%esp)
 1002dfe:	00 
 1002dff:	89 45 fc             	mov    %eax,-0x4(%ebp)
 1002e02:	89 4d f8             	mov    %ecx,-0x8(%ebp)
 1002e05:	e8 86 ff ff ff       	call   1002d90 <CMOS_GetRegister>
 1002e0a:	0f b6 c8             	movzbl %al,%ecx
 1002e0d:	81 e1 80 00 00 00    	and    $0x80,%ecx
 1002e13:	88 c8                	mov    %cl,%al
 1002e15:	0f b6 c0             	movzbl %al,%eax
 1002e18:	83 c4 10             	add    $0x10,%esp
 1002e1b:	5d                   	pop    %ebp
 1002e1c:	c3                   	ret    
 1002e1d:	8d 76 00             	lea    0x0(%esi),%esi

01002e20 <CMOS_GetRTCTime>:
 1002e20:	55                   	push   %ebp
 1002e21:	89 e5                	mov    %esp,%ebp
 1002e23:	53                   	push   %ebx
 1002e24:	57                   	push   %edi
 1002e25:	56                   	push   %esi
 1002e26:	83 ec 58             	sub    $0x58,%esp
 1002e29:	8b 45 08             	mov    0x8(%ebp),%eax
 1002e2c:	89 45 f0             	mov    %eax,-0x10(%ebp)
 1002e2f:	c6 45 e7 00          	movb   $0x0,-0x19(%ebp)
 1002e33:	e8 a8 ff ff ff       	call   1002de0 <CMOS_UpdateInProgress>
 1002e38:	3c 00                	cmp    $0x0,%al
 1002e3a:	74 02                	je     1002e3e <CMOS_GetRTCTime+0x1e>
 1002e3c:	eb f5                	jmp    1002e33 <CMOS_GetRTCTime+0x13>
 1002e3e:	89 e0                	mov    %esp,%eax
 1002e40:	c7 40 04 00 00 00 00 	movl   $0x0,0x4(%eax)
 1002e47:	c7 00 01 00 00 00    	movl   $0x1,(%eax)
 1002e4d:	e8 3e ff ff ff       	call   1002d90 <CMOS_GetRegister>
 1002e52:	88 45 ef             	mov    %al,-0x11(%ebp)
 1002e55:	89 e1                	mov    %esp,%ecx
 1002e57:	c7 41 04 02 00 00 00 	movl   $0x2,0x4(%ecx)
 1002e5e:	c7 01 01 00 00 00    	movl   $0x1,(%ecx)
 1002e64:	e8 27 ff ff ff       	call   1002d90 <CMOS_GetRegister>
 1002e69:	88 45 ee             	mov    %al,-0x12(%ebp)
 1002e6c:	89 e1                	mov    %esp,%ecx
 1002e6e:	c7 41 04 04 00 00 00 	movl   $0x4,0x4(%ecx)
 1002e75:	c7 01 01 00 00 00    	movl   $0x1,(%ecx)
 1002e7b:	e8 10 ff ff ff       	call   1002d90 <CMOS_GetRegister>
 1002e80:	88 45 ed             	mov    %al,-0x13(%ebp)
 1002e83:	89 e1                	mov    %esp,%ecx
 1002e85:	c7 41 04 07 00 00 00 	movl   $0x7,0x4(%ecx)
 1002e8c:	c7 01 01 00 00 00    	movl   $0x1,(%ecx)
 1002e92:	e8 f9 fe ff ff       	call   1002d90 <CMOS_GetRegister>
 1002e97:	88 45 ec             	mov    %al,-0x14(%ebp)
 1002e9a:	89 e1                	mov    %esp,%ecx
 1002e9c:	c7 41 04 08 00 00 00 	movl   $0x8,0x4(%ecx)
 1002ea3:	c7 01 01 00 00 00    	movl   $0x1,(%ecx)
 1002ea9:	e8 e2 fe ff ff       	call   1002d90 <CMOS_GetRegister>
 1002eae:	88 45 eb             	mov    %al,-0x15(%ebp)
 1002eb1:	89 e1                	mov    %esp,%ecx
 1002eb3:	c7 41 04 09 00 00 00 	movl   $0x9,0x4(%ecx)
 1002eba:	c7 01 01 00 00 00    	movl   $0x1,(%ecx)
 1002ec0:	e8 cb fe ff ff       	call   1002d90 <CMOS_GetRegister>
 1002ec5:	88 c2                	mov    %al,%dl
 1002ec7:	0f b6 c8             	movzbl %al,%ecx
 1002eca:	66 89 ce             	mov    %cx,%si
 1002ecd:	66 89 75 e8          	mov    %si,-0x18(%ebp)
 1002ed1:	83 3d 70 f0 a8 04 00 	cmpl   $0x0,0x4a8f070
 1002ed8:	88 55 de             	mov    %dl,-0x22(%ebp)
 1002edb:	74 26                	je     1002f03 <CMOS_GetRTCTime+0xe3>
 1002edd:	b8 01 00 00 00       	mov    $0x1,%eax
 1002ee2:	8b 0d 70 f0 a8 04    	mov    0x4a8f070,%ecx
 1002ee8:	88 ca                	mov    %cl,%dl
 1002eea:	c7 04 24 01 00 00 00 	movl   $0x1,(%esp)
 1002ef1:	0f b6 ca             	movzbl %dl,%ecx
 1002ef4:	89 4c 24 04          	mov    %ecx,0x4(%esp)
 1002ef8:	89 45 d8             	mov    %eax,-0x28(%ebp)
 1002efb:	e8 90 fe ff ff       	call   1002d90 <CMOS_GetRegister>
 1002f00:	88 45 e7             	mov    %al,-0x19(%ebp)
 1002f03:	eb 00                	jmp    1002f05 <CMOS_GetRTCTime+0xe5>
 1002f05:	8a 45 ef             	mov    -0x11(%ebp),%al
 1002f08:	88 45 e6             	mov    %al,-0x1a(%ebp)
 1002f0b:	8a 45 ee             	mov    -0x12(%ebp),%al
 1002f0e:	88 45 e5             	mov    %al,-0x1b(%ebp)
 1002f11:	8a 45 ed             	mov    -0x13(%ebp),%al
 1002f14:	88 45 e4             	mov    %al,-0x1c(%ebp)
 1002f17:	8a 45 ec             	mov    -0x14(%ebp),%al
 1002f1a:	88 45 e3             	mov    %al,-0x1d(%ebp)
 1002f1d:	8a 45 eb             	mov    -0x15(%ebp),%al
 1002f20:	88 45 e2             	mov    %al,-0x1e(%ebp)
 1002f23:	66 8b 4d e8          	mov    -0x18(%ebp),%cx
 1002f27:	88 c8                	mov    %cl,%al
 1002f29:	88 45 e1             	mov    %al,-0x1f(%ebp)
 1002f2c:	8a 45 e7             	mov    -0x19(%ebp),%al
 1002f2f:	88 45 e0             	mov    %al,-0x20(%ebp)
 1002f32:	e8 a9 fe ff ff       	call   1002de0 <CMOS_UpdateInProgress>
 1002f37:	3c 00                	cmp    $0x0,%al
 1002f39:	74 02                	je     1002f3d <CMOS_GetRTCTime+0x11d>
 1002f3b:	eb f5                	jmp    1002f32 <CMOS_GetRTCTime+0x112>
 1002f3d:	89 e0                	mov    %esp,%eax
 1002f3f:	c7 40 04 00 00 00 00 	movl   $0x0,0x4(%eax)
 1002f46:	c7 00 01 00 00 00    	movl   $0x1,(%eax)
 1002f4c:	e8 3f fe ff ff       	call   1002d90 <CMOS_GetRegister>
 1002f51:	88 45 ef             	mov    %al,-0x11(%ebp)
 1002f54:	89 e1                	mov    %esp,%ecx
 1002f56:	c7 41 04 02 00 00 00 	movl   $0x2,0x4(%ecx)
 1002f5d:	c7 01 01 00 00 00    	movl   $0x1,(%ecx)
 1002f63:	e8 28 fe ff ff       	call   1002d90 <CMOS_GetRegister>
 1002f68:	88 45 ee             	mov    %al,-0x12(%ebp)
 1002f6b:	89 e1                	mov    %esp,%ecx
 1002f6d:	c7 41 04 04 00 00 00 	movl   $0x4,0x4(%ecx)
 1002f74:	c7 01 01 00 00 00    	movl   $0x1,(%ecx)
 1002f7a:	e8 11 fe ff ff       	call   1002d90 <CMOS_GetRegister>
 1002f7f:	88 45 ed             	mov    %al,-0x13(%ebp)
 1002f82:	89 e1                	mov    %esp,%ecx
 1002f84:	c7 41 04 07 00 00 00 	movl   $0x7,0x4(%ecx)
 1002f8b:	c7 01 01 00 00 00    	movl   $0x1,(%ecx)
 1002f91:	e8 fa fd ff ff       	call   1002d90 <CMOS_GetRegister>
 1002f96:	88 45 ec             	mov    %al,-0x14(%ebp)
 1002f99:	89 e1                	mov    %esp,%ecx
 1002f9b:	c7 41 04 08 00 00 00 	movl   $0x8,0x4(%ecx)
 1002fa2:	c7 01 01 00 00 00    	movl   $0x1,(%ecx)
 1002fa8:	e8 e3 fd ff ff       	call   1002d90 <CMOS_GetRegister>
 1002fad:	88 45 eb             	mov    %al,-0x15(%ebp)
 1002fb0:	89 e1                	mov    %esp,%ecx
 1002fb2:	c7 41 04 09 00 00 00 	movl   $0x9,0x4(%ecx)
 1002fb9:	c7 01 01 00 00 00    	movl   $0x1,(%ecx)
 1002fbf:	e8 cc fd ff ff       	call   1002d90 <CMOS_GetRegister>
 1002fc4:	88 c2                	mov    %al,%dl
 1002fc6:	0f b6 c8             	movzbl %al,%ecx
 1002fc9:	66 89 ce             	mov    %cx,%si
 1002fcc:	66 89 75 e8          	mov    %si,-0x18(%ebp)
 1002fd0:	83 3d 70 f0 a8 04 00 	cmpl   $0x0,0x4a8f070
 1002fd7:	88 55 d7             	mov    %dl,-0x29(%ebp)
 1002fda:	74 26                	je     1003002 <CMOS_GetRTCTime+0x1e2>
 1002fdc:	b8 01 00 00 00       	mov    $0x1,%eax
 1002fe1:	8b 0d 70 f0 a8 04    	mov    0x4a8f070,%ecx
 1002fe7:	88 ca                	mov    %cl,%dl
 1002fe9:	c7 04 24 01 00 00 00 	movl   $0x1,(%esp)
 1002ff0:	0f b6 ca             	movzbl %dl,%ecx
 1002ff3:	89 4c 24 04          	mov    %ecx,0x4(%esp)
 1002ff7:	89 45 d0             	mov    %eax,-0x30(%ebp)
 1002ffa:	e8 91 fd ff ff       	call   1002d90 <CMOS_GetRegister>
 1002fff:	88 45 e7             	mov    %al,-0x19(%ebp)
 1003002:	eb 00                	jmp    1003004 <CMOS_GetRTCTime+0x1e4>
 1003004:	b0 01                	mov    $0x1,%al
 1003006:	0f b6 4d e6          	movzbl -0x1a(%ebp),%ecx
 100300a:	0f b6 55 ef          	movzbl -0x11(%ebp),%edx
 100300e:	39 d1                	cmp    %edx,%ecx
 1003010:	88 45 cf             	mov    %al,-0x31(%ebp)
 1003013:	75 65                	jne    100307a <CMOS_GetRTCTime+0x25a>
 1003015:	b0 01                	mov    $0x1,%al
 1003017:	0f b6 4d e5          	movzbl -0x1b(%ebp),%ecx
 100301b:	0f b6 55 ee          	movzbl -0x12(%ebp),%edx
 100301f:	39 d1                	cmp    %edx,%ecx
 1003021:	88 45 cf             	mov    %al,-0x31(%ebp)
 1003024:	75 54                	jne    100307a <CMOS_GetRTCTime+0x25a>
 1003026:	b0 01                	mov    $0x1,%al
 1003028:	0f b6 4d e4          	movzbl -0x1c(%ebp),%ecx
 100302c:	0f b6 55 ed          	movzbl -0x13(%ebp),%edx
 1003030:	39 d1                	cmp    %edx,%ecx
 1003032:	88 45 cf             	mov    %al,-0x31(%ebp)
 1003035:	75 43                	jne    100307a <CMOS_GetRTCTime+0x25a>
 1003037:	b0 01                	mov    $0x1,%al
 1003039:	0f b6 4d e3          	movzbl -0x1d(%ebp),%ecx
 100303d:	0f b6 55 ec          	movzbl -0x14(%ebp),%edx
 1003041:	39 d1                	cmp    %edx,%ecx
 1003043:	88 45 cf             	mov    %al,-0x31(%ebp)
 1003046:	75 32                	jne    100307a <CMOS_GetRTCTime+0x25a>
 1003048:	b0 01                	mov    $0x1,%al
 100304a:	0f b6 4d e2          	movzbl -0x1e(%ebp),%ecx
 100304e:	0f b6 55 eb          	movzbl -0x15(%ebp),%edx
 1003052:	39 d1                	cmp    %edx,%ecx
 1003054:	88 45 cf             	mov    %al,-0x31(%ebp)
 1003057:	75 21                	jne    100307a <CMOS_GetRTCTime+0x25a>
 1003059:	b0 01                	mov    $0x1,%al
 100305b:	0f b6 4d e1          	movzbl -0x1f(%ebp),%ecx
 100305f:	0f b7 55 e8          	movzwl -0x18(%ebp),%edx
 1003063:	39 d1                	cmp    %edx,%ecx
 1003065:	88 45 cf             	mov    %al,-0x31(%ebp)
 1003068:	75 10                	jne    100307a <CMOS_GetRTCTime+0x25a>
 100306a:	0f b6 45 e0          	movzbl -0x20(%ebp),%eax
 100306e:	0f b6 4d e7          	movzbl -0x19(%ebp),%ecx
 1003072:	39 c8                	cmp    %ecx,%eax
 1003074:	0f 95 c2             	setne  %dl
 1003077:	88 55 cf             	mov    %dl,-0x31(%ebp)
 100307a:	8a 45 cf             	mov    -0x31(%ebp),%al
 100307d:	a8 01                	test   $0x1,%al
 100307f:	0f 85 80 fe ff ff    	jne    1002f05 <CMOS_GetRTCTime+0xe5>
 1003085:	b8 01 00 00 00       	mov    $0x1,%eax
 100308a:	b9 0b 00 00 00       	mov    $0xb,%ecx
 100308f:	c7 04 24 01 00 00 00 	movl   $0x1,(%esp)
 1003096:	c7 44 24 04 0b 00 00 	movl   $0xb,0x4(%esp)
 100309d:	00 
 100309e:	89 45 c8             	mov    %eax,-0x38(%ebp)
 10030a1:	89 4d c4             	mov    %ecx,-0x3c(%ebp)
 10030a4:	e8 e7 fc ff ff       	call   1002d90 <CMOS_GetRegister>
 10030a9:	88 45 df             	mov    %al,-0x21(%ebp)
 10030ac:	0f b6 4d df          	movzbl -0x21(%ebp),%ecx
 10030b0:	83 e1 04             	and    $0x4,%ecx
 10030b3:	83 f9 00             	cmp    $0x0,%ecx
 10030b6:	0f 85 05 01 00 00    	jne    10031c1 <CMOS_GetRTCTime+0x3a1>
 10030bc:	b8 10 00 00 00       	mov    $0x10,%eax
 10030c1:	0f b6 4d ef          	movzbl -0x11(%ebp),%ecx
 10030c5:	83 e1 0f             	and    $0xf,%ecx
 10030c8:	0f b6 55 ef          	movzbl -0x11(%ebp),%edx
 10030cc:	89 45 c0             	mov    %eax,-0x40(%ebp)
 10030cf:	89 d0                	mov    %edx,%eax
 10030d1:	99                   	cltd   
 10030d2:	8b 75 c0             	mov    -0x40(%ebp),%esi
 10030d5:	f7 fe                	idiv   %esi
 10030d7:	6b c0 0a             	imul   $0xa,%eax,%eax
 10030da:	01 c1                	add    %eax,%ecx
 10030dc:	88 cb                	mov    %cl,%bl
 10030de:	88 5d ef             	mov    %bl,-0x11(%ebp)
 10030e1:	0f b6 45 ee          	movzbl -0x12(%ebp),%eax
 10030e5:	83 e0 0f             	and    $0xf,%eax
 10030e8:	0f b6 4d ee          	movzbl -0x12(%ebp),%ecx
 10030ec:	89 45 bc             	mov    %eax,-0x44(%ebp)
 10030ef:	89 c8                	mov    %ecx,%eax
 10030f1:	99                   	cltd   
 10030f2:	f7 fe                	idiv   %esi
 10030f4:	6b c0 0a             	imul   $0xa,%eax,%eax
 10030f7:	8b 4d bc             	mov    -0x44(%ebp),%ecx
 10030fa:	01 c1                	add    %eax,%ecx
 10030fc:	88 cb                	mov    %cl,%bl
 10030fe:	88 5d ee             	mov    %bl,-0x12(%ebp)
 1003101:	0f b6 45 ed          	movzbl -0x13(%ebp),%eax
 1003105:	83 e0 0f             	and    $0xf,%eax
 1003108:	0f b6 4d ed          	movzbl -0x13(%ebp),%ecx
 100310c:	83 e1 70             	and    $0x70,%ecx
 100310f:	89 45 b8             	mov    %eax,-0x48(%ebp)
 1003112:	89 c8                	mov    %ecx,%eax
 1003114:	99                   	cltd   
 1003115:	f7 fe                	idiv   %esi
 1003117:	6b c0 0a             	imul   $0xa,%eax,%eax
 100311a:	8b 4d b8             	mov    -0x48(%ebp),%ecx
 100311d:	01 c1                	add    %eax,%ecx
 100311f:	0f b6 45 ed          	movzbl -0x13(%ebp),%eax
 1003123:	25 80 00 00 00       	and    $0x80,%eax
 1003128:	09 c1                	or     %eax,%ecx
 100312a:	88 cb                	mov    %cl,%bl
 100312c:	88 5d ed             	mov    %bl,-0x13(%ebp)
 100312f:	0f b6 45 ec          	movzbl -0x14(%ebp),%eax
 1003133:	83 e0 0f             	and    $0xf,%eax
 1003136:	0f b6 4d ec          	movzbl -0x14(%ebp),%ecx
 100313a:	89 45 b4             	mov    %eax,-0x4c(%ebp)
 100313d:	89 c8                	mov    %ecx,%eax
 100313f:	99                   	cltd   
 1003140:	f7 fe                	idiv   %esi
 1003142:	6b c0 0a             	imul   $0xa,%eax,%eax
 1003145:	8b 4d b4             	mov    -0x4c(%ebp),%ecx
 1003148:	01 c1                	add    %eax,%ecx
 100314a:	88 cb                	mov    %cl,%bl
 100314c:	88 5d ec             	mov    %bl,-0x14(%ebp)
 100314f:	0f b6 45 eb          	movzbl -0x15(%ebp),%eax
 1003153:	83 e0 0f             	and    $0xf,%eax
 1003156:	0f b6 4d eb          	movzbl -0x15(%ebp),%ecx
 100315a:	89 45 b0             	mov    %eax,-0x50(%ebp)
 100315d:	89 c8                	mov    %ecx,%eax
 100315f:	99                   	cltd   
 1003160:	f7 fe                	idiv   %esi
 1003162:	6b c0 0a             	imul   $0xa,%eax,%eax
 1003165:	8b 4d b0             	mov    -0x50(%ebp),%ecx
 1003168:	01 c1                	add    %eax,%ecx
 100316a:	88 cb                	mov    %cl,%bl
 100316c:	88 5d eb             	mov    %bl,-0x15(%ebp)
 100316f:	0f b7 45 e8          	movzwl -0x18(%ebp),%eax
 1003173:	83 e0 0f             	and    $0xf,%eax
 1003176:	0f b7 4d e8          	movzwl -0x18(%ebp),%ecx
 100317a:	89 45 ac             	mov    %eax,-0x54(%ebp)
 100317d:	89 c8                	mov    %ecx,%eax
 100317f:	99                   	cltd   
 1003180:	f7 fe                	idiv   %esi
 1003182:	6b c0 0a             	imul   $0xa,%eax,%eax
 1003185:	8b 4d ac             	mov    -0x54(%ebp),%ecx
 1003188:	01 c1                	add    %eax,%ecx
 100318a:	66 89 cf             	mov    %cx,%di
 100318d:	66 89 7d e8          	mov    %di,-0x18(%ebp)
 1003191:	83 3d 70 f0 a8 04 00 	cmpl   $0x0,0x4a8f070
 1003198:	74 25                	je     10031bf <CMOS_GetRTCTime+0x39f>
 100319a:	b8 10 00 00 00       	mov    $0x10,%eax
 100319f:	0f b6 4d e7          	movzbl -0x19(%ebp),%ecx
 10031a3:	83 e1 0f             	and    $0xf,%ecx
 10031a6:	0f b6 55 e7          	movzbl -0x19(%ebp),%edx
 10031aa:	89 45 a8             	mov    %eax,-0x58(%ebp)
 10031ad:	89 d0                	mov    %edx,%eax
 10031af:	99                   	cltd   
 10031b0:	8b 75 a8             	mov    -0x58(%ebp),%esi
 10031b3:	f7 fe                	idiv   %esi
 10031b5:	6b c0 0a             	imul   $0xa,%eax,%eax
 10031b8:	01 c1                	add    %eax,%ecx
 10031ba:	88 cb                	mov    %cl,%bl
 10031bc:	88 5d e7             	mov    %bl,-0x19(%ebp)
 10031bf:	eb 00                	jmp    10031c1 <CMOS_GetRTCTime+0x3a1>
 10031c1:	0f b6 45 df          	movzbl -0x21(%ebp),%eax
 10031c5:	83 e0 02             	and    $0x2,%eax
 10031c8:	83 f8 00             	cmp    $0x0,%eax
 10031cb:	75 2d                	jne    10031fa <CMOS_GetRTCTime+0x3da>
 10031cd:	0f b6 45 ed          	movzbl -0x13(%ebp),%eax
 10031d1:	25 80 00 00 00       	and    $0x80,%eax
 10031d6:	83 f8 00             	cmp    $0x0,%eax
 10031d9:	74 1f                	je     10031fa <CMOS_GetRTCTime+0x3da>
 10031db:	b8 18 00 00 00       	mov    $0x18,%eax
 10031e0:	0f b6 4d ed          	movzbl -0x13(%ebp),%ecx
 10031e4:	83 e1 7f             	and    $0x7f,%ecx
 10031e7:	83 c1 0c             	add    $0xc,%ecx
 10031ea:	89 45 a4             	mov    %eax,-0x5c(%ebp)
 10031ed:	89 c8                	mov    %ecx,%eax
 10031ef:	99                   	cltd   
 10031f0:	8b 4d a4             	mov    -0x5c(%ebp),%ecx
 10031f3:	f7 f9                	idiv   %ecx
 10031f5:	88 d3                	mov    %dl,%bl
 10031f7:	88 5d ed             	mov    %bl,-0x13(%ebp)
 10031fa:	83 3d 70 f0 a8 04 00 	cmpl   $0x0,0x4a8f070
 1003201:	74 16                	je     1003219 <CMOS_GetRTCTime+0x3f9>
 1003203:	0f b6 45 e7          	movzbl -0x19(%ebp),%eax
 1003207:	6b c0 64             	imul   $0x64,%eax,%eax
 100320a:	0f b7 4d e8          	movzwl -0x18(%ebp),%ecx
 100320e:	01 c1                	add    %eax,%ecx
 1003210:	66 89 ca             	mov    %cx,%dx
 1003213:	66 89 55 e8          	mov    %dx,-0x18(%ebp)
 1003217:	eb 2b                	jmp    1003244 <CMOS_GetRTCTime+0x424>
 1003219:	0f b7 45 e8          	movzwl -0x18(%ebp),%eax
 100321d:	05 d0 07 00 00       	add    $0x7d0,%eax
 1003222:	66 89 c1             	mov    %ax,%cx
 1003225:	66 89 4d e8          	mov    %cx,-0x18(%ebp)
 1003229:	0f b7 45 e8          	movzwl -0x18(%ebp),%eax
 100322d:	3d df 07 00 00       	cmp    $0x7df,%eax
 1003232:	7d 0e                	jge    1003242 <CMOS_GetRTCTime+0x422>
 1003234:	0f b7 45 e8          	movzwl -0x18(%ebp),%eax
 1003238:	83 c0 64             	add    $0x64,%eax
 100323b:	66 89 c1             	mov    %ax,%cx
 100323e:	66 89 4d e8          	mov    %cx,-0x18(%ebp)
 1003242:	eb 00                	jmp    1003244 <CMOS_GetRTCTime+0x424>
 1003244:	8a 45 ef             	mov    -0x11(%ebp),%al
 1003247:	8b 4d f0             	mov    -0x10(%ebp),%ecx
 100324a:	88 01                	mov    %al,(%ecx)
 100324c:	8a 45 ee             	mov    -0x12(%ebp),%al
 100324f:	8b 4d f0             	mov    -0x10(%ebp),%ecx
 1003252:	88 41 01             	mov    %al,0x1(%ecx)
 1003255:	8a 45 ed             	mov    -0x13(%ebp),%al
 1003258:	8b 4d f0             	mov    -0x10(%ebp),%ecx
 100325b:	88 41 02             	mov    %al,0x2(%ecx)
 100325e:	8a 45 ec             	mov    -0x14(%ebp),%al
 1003261:	8b 4d f0             	mov    -0x10(%ebp),%ecx
 1003264:	88 41 03             	mov    %al,0x3(%ecx)
 1003267:	8a 45 eb             	mov    -0x15(%ebp),%al
 100326a:	8b 4d f0             	mov    -0x10(%ebp),%ecx
 100326d:	88 41 04             	mov    %al,0x4(%ecx)
 1003270:	66 8b 55 e8          	mov    -0x18(%ebp),%dx
 1003274:	8b 4d f0             	mov    -0x10(%ebp),%ecx
 1003277:	66 89 51 06          	mov    %dx,0x6(%ecx)
 100327b:	8a 45 e7             	mov    -0x19(%ebp),%al
 100327e:	8b 4d f0             	mov    -0x10(%ebp),%ecx
 1003281:	88 41 08             	mov    %al,0x8(%ecx)
 1003284:	83 c4 58             	add    $0x58,%esp
 1003287:	5e                   	pop    %esi
 1003288:	5f                   	pop    %edi
 1003289:	5b                   	pop    %ebx
 100328a:	5d                   	pop    %ebp
 100328b:	c3                   	ret    
 100328c:	66 90                	xchg   %ax,%ax
 100328e:	66 90                	xchg   %ax,%ax

01003290 <FPU_Initialize>:
 1003290:	55                   	push   %ebp
 1003291:	89 e5                	mov    %esp,%ebp
 1003293:	83 ec 2c             	sub    $0x2c,%esp
 1003296:	b8 01 00 00 00       	mov    $0x1,%eax
 100329b:	c7 04 24 01 00 00 00 	movl   $0x1,(%esp)
 10032a2:	c7 44 24 04 01 00 00 	movl   $0x1,0x4(%esp)
 10032a9:	00 
 10032aa:	89 45 f8             	mov    %eax,-0x8(%ebp)
 10032ad:	e8 6e d8 ff ff       	call   1000b20 <CPUID_FeatureIsAvailable>
 10032b2:	3c 00                	cmp    $0x0,%al
 10032b4:	75 0b                	jne    10032c1 <FPU_Initialize+0x31>
 10032b6:	b8 00 00 00 00       	mov    $0x0,%eax
 10032bb:	f4                   	hlt    
 10032bc:	e9 f1 00 00 00       	jmp    10033b2 <FPU_Initialize+0x122>
 10032c1:	b8 01 00 00 00       	mov    $0x1,%eax
 10032c6:	b9 00 00 00 02       	mov    $0x2000000,%ecx
 10032cb:	c7 04 24 01 00 00 00 	movl   $0x1,(%esp)
 10032d2:	c7 44 24 04 00 00 00 	movl   $0x2000000,0x4(%esp)
 10032d9:	02 
 10032da:	89 45 f4             	mov    %eax,-0xc(%ebp)
 10032dd:	89 4d f0             	mov    %ecx,-0x10(%ebp)
 10032e0:	e8 3b d8 ff ff       	call   1000b20 <CPUID_FeatureIsAvailable>
 10032e5:	3c 00                	cmp    $0x0,%al
 10032e7:	75 0b                	jne    10032f4 <FPU_Initialize+0x64>
 10032e9:	b8 01 00 00 00       	mov    $0x1,%eax
 10032ee:	f4                   	hlt    
 10032ef:	e9 be 00 00 00       	jmp    10033b2 <FPU_Initialize+0x122>
 10032f4:	b8 01 00 00 00       	mov    $0x1,%eax
 10032f9:	b9 00 00 00 01       	mov    $0x1000000,%ecx
 10032fe:	c7 04 24 01 00 00 00 	movl   $0x1,(%esp)
 1003305:	c7 44 24 04 00 00 00 	movl   $0x1000000,0x4(%esp)
 100330c:	01 
 100330d:	89 45 ec             	mov    %eax,-0x14(%ebp)
 1003310:	89 4d e8             	mov    %ecx,-0x18(%ebp)
 1003313:	e8 08 d8 ff ff       	call   1000b20 <CPUID_FeatureIsAvailable>
 1003318:	3c 00                	cmp    $0x0,%al
 100331a:	75 0b                	jne    1003327 <FPU_Initialize+0x97>
 100331c:	b8 02 00 00 00       	mov    $0x2,%eax
 1003321:	f4                   	hlt    
 1003322:	e9 8b 00 00 00       	jmp    10033b2 <FPU_Initialize+0x122>
 1003327:	c7 45 fc 00 00 00 00 	movl   $0x0,-0x4(%ebp)
 100332e:	0f 20 c0             	mov    %cr0,%eax
 1003331:	89 45 fc             	mov    %eax,-0x4(%ebp)
 1003334:	8b 45 fc             	mov    -0x4(%ebp),%eax
 1003337:	83 e0 fb             	and    $0xfffffffb,%eax
 100333a:	89 45 fc             	mov    %eax,-0x4(%ebp)
 100333d:	8b 45 fc             	mov    -0x4(%ebp),%eax
 1003340:	83 c8 20             	or     $0x20,%eax
 1003343:	89 45 fc             	mov    %eax,-0x4(%ebp)
 1003346:	8b 45 fc             	mov    -0x4(%ebp),%eax
 1003349:	83 c8 02             	or     $0x2,%eax
 100334c:	89 45 fc             	mov    %eax,-0x4(%ebp)
 100334f:	8b 45 fc             	mov    -0x4(%ebp),%eax
 1003352:	0f 22 c0             	mov    %eax,%cr0
 1003355:	0f 20 e0             	mov    %cr4,%eax
 1003358:	89 45 fc             	mov    %eax,-0x4(%ebp)
 100335b:	8b 45 fc             	mov    -0x4(%ebp),%eax
 100335e:	0d 00 02 00 00       	or     $0x200,%eax
 1003363:	89 45 fc             	mov    %eax,-0x4(%ebp)
 1003366:	8b 45 fc             	mov    -0x4(%ebp),%eax
 1003369:	0d 00 04 00 00       	or     $0x400,%eax
 100336e:	89 45 fc             	mov    %eax,-0x4(%ebp)
 1003371:	8b 45 fc             	mov    -0x4(%ebp),%eax
 1003374:	0d 00 00 04 00       	or     $0x40000,%eax
 1003379:	89 45 fc             	mov    %eax,-0x4(%ebp)
 100337c:	8b 45 fc             	mov    -0x4(%ebp),%eax
 100337f:	0f 22 e0             	mov    %eax,%cr4
 1003382:	b8 07 00 00 00       	mov    $0x7,%eax
 1003387:	b9 00 00 00 00       	mov    $0x0,%ecx
 100338c:	8d 15 c0 33 00 01    	lea    0x10033c0,%edx
 1003392:	c7 04 24 07 00 00 00 	movl   $0x7,(%esp)
 1003399:	c7 44 24 04 00 00 00 	movl   $0x0,0x4(%esp)
 10033a0:	00 
 10033a1:	89 54 24 08          	mov    %edx,0x8(%esp)
 10033a5:	89 45 e4             	mov    %eax,-0x1c(%ebp)
 10033a8:	89 4d e0             	mov    %ecx,-0x20(%ebp)
 10033ab:	e8 80 f6 ff ff       	call   1002a30 <Interrupts_RegisterHandler>
 10033b0:	db e3                	fninit 
 10033b2:	83 c4 2c             	add    $0x2c,%esp
 10033b5:	5d                   	pop    %ebp
 10033b6:	c3                   	ret    
 10033b7:	89 f6                	mov    %esi,%esi
 10033b9:	8d bc 27 00 00 00 00 	lea    0x0(%edi,%eiz,1),%edi

010033c0 <FPU_StateHandler>:
 10033c0:	55                   	push   %ebp
 10033c1:	89 e5                	mov    %esp,%ebp
 10033c3:	50                   	push   %eax
 10033c4:	8b 45 08             	mov    0x8(%ebp),%eax
 10033c7:	89 45 fc             	mov    %eax,-0x4(%ebp)
 10033ca:	0f 06                	clts   
 10033cc:	b8 00 00 00 00       	mov    $0x0,%eax
 10033d1:	83 c4 04             	add    $0x4,%esp
 10033d4:	5d                   	pop    %ebp
 10033d5:	c3                   	ret    
 10033d6:	8d 76 00             	lea    0x0(%esi),%esi
 10033d9:	8d bc 27 00 00 00 00 	lea    0x0(%edi,%eiz,1),%edi

010033e0 <FPU_EnableInterrupts>:
 10033e0:	55                   	push   %ebp
 10033e1:	89 e5                	mov    %esp,%ebp
 10033e3:	50                   	push   %eax
 10033e4:	c7 45 fc 00 00 00 00 	movl   $0x0,-0x4(%ebp)
 10033eb:	0f 20 c0             	mov    %cr0,%eax
 10033ee:	89 45 fc             	mov    %eax,-0x4(%ebp)
 10033f1:	8b 45 fc             	mov    -0x4(%ebp),%eax
 10033f4:	83 c8 08             	or     $0x8,%eax
 10033f7:	89 45 fc             	mov    %eax,-0x4(%ebp)
 10033fa:	8b 45 fc             	mov    -0x4(%ebp),%eax
 10033fd:	0f 22 c0             	mov    %eax,%cr0
 1003400:	83 c4 04             	add    $0x4,%esp
 1003403:	5d                   	pop    %ebp
 1003404:	c3                   	ret    
 1003405:	66 90                	xchg   %ax,%ax
 1003407:	66 90                	xchg   %ax,%ax
 1003409:	66 90                	xchg   %ax,%ax
 100340b:	66 90                	xchg   %ax,%ax
 100340d:	66 90                	xchg   %ax,%ax
 100340f:	90                   	nop

01003410 <MessageMan_Add>:
 1003410:	55                   	push   %ebp
 1003411:	89 e5                	mov    %esp,%ebp
 1003413:	53                   	push   %ebx
 1003414:	57                   	push   %edi
 1003415:	56                   	push   %esi
 1003416:	83 e4 f8             	and    $0xfffffff8,%esp
 1003419:	81 ec 50 01 00 00    	sub    $0x150,%esp
 100341f:	8b 45 08             	mov    0x8(%ebp),%eax
 1003422:	89 84 24 48 01 00 00 	mov    %eax,0x148(%esp)
 1003429:	83 bc 24 48 01 00 00 	cmpl   $0x0,0x148(%esp)
 1003430:	00 
 1003431:	75 05                	jne    1003438 <MessageMan_Add+0x28>
 1003433:	e9 e5 01 00 00       	jmp    100361d <MessageMan_Add+0x20d>
 1003438:	8b 84 24 48 01 00 00 	mov    0x148(%esp),%eax
 100343f:	8b 88 80 00 00 00    	mov    0x80(%eax),%ecx
 1003445:	8b 80 84 00 00 00    	mov    0x84(%eax),%eax
 100344b:	89 e2                	mov    %esp,%edx
 100344d:	8d 74 24 28          	lea    0x28(%esp),%esi
 1003451:	89 72 08             	mov    %esi,0x8(%edx)
 1003454:	89 42 04             	mov    %eax,0x4(%edx)
 1003457:	89 0a                	mov    %ecx,(%edx)
 1003459:	e8 62 11 00 00       	call   10045c0 <SysMan_GetSystemData>
 100345e:	c7 44 24 24 05 43 7f 	movl   $0x17f4305,0x24(%esp)
 1003465:	01 
 1003466:	8b 84 24 3c 01 00 00 	mov    0x13c(%esp),%eax
 100346d:	8b 8c 24 40 01 00 00 	mov    0x140(%esp),%ecx
 1003474:	8b 94 24 48 01 00 00 	mov    0x148(%esp),%edx
 100347b:	8b b2 80 00 00 00    	mov    0x80(%edx),%esi
 1003481:	8b 92 84 00 00 00    	mov    0x84(%edx),%edx
 1003487:	31 d1                	xor    %edx,%ecx
 1003489:	31 f0                	xor    %esi,%eax
 100348b:	09 c8                	or     %ecx,%eax
 100348d:	89 44 24 1c          	mov    %eax,0x1c(%esp)
 1003491:	74 1d                	je     10034b0 <MessageMan_Add+0xa0>
 1003493:	eb 00                	jmp    1003495 <MessageMan_Add+0x85>
 1003495:	8d 05 0d 43 7f 01    	lea    0x17f430d,%eax
 100349b:	8b 8c 24 48 01 00 00 	mov    0x148(%esp),%ecx
 10034a2:	89 04 24             	mov    %eax,(%esp)
 10034a5:	89 4c 24 04          	mov    %ecx,0x4(%esp)
 10034a9:	e8 72 d8 ff ff       	call   1000d20 <COM_WriteStr>
 10034ae:	eb 08                	jmp    10034b8 <MessageMan_Add+0xa8>
 10034b0:	8d 44 24 28          	lea    0x28(%esp),%eax
 10034b4:	89 44 24 24          	mov    %eax,0x24(%esp)
 10034b8:	8b 84 24 48 01 00 00 	mov    0x148(%esp),%eax
 10034bf:	8b 88 9c 00 00 00    	mov    0x9c(%eax),%ecx
 10034c5:	8b 90 94 00 00 00    	mov    0x94(%eax),%edx
 10034cb:	8b b0 98 00 00 00    	mov    0x98(%eax),%esi
 10034d1:	8b 7c 24 24          	mov    0x24(%esp),%edi
 10034d5:	89 e3                	mov    %esp,%ebx
 10034d7:	89 43 14             	mov    %eax,0x14(%ebx)
 10034da:	89 7b 10             	mov    %edi,0x10(%ebx)
 10034dd:	89 53 0c             	mov    %edx,0xc(%ebx)
 10034e0:	89 73 08             	mov    %esi,0x8(%ebx)
 10034e3:	89 4b 04             	mov    %ecx,0x4(%ebx)
 10034e6:	c7 03 4d 43 7f 01    	movl   $0x17f434d,(%ebx)
 10034ec:	e8 2f d8 ff ff       	call   1000d20 <COM_WriteStr>
 10034f1:	8b 84 24 3c 01 00 00 	mov    0x13c(%esp),%eax
 10034f8:	8b 8c 24 40 01 00 00 	mov    0x140(%esp),%ecx
 10034ff:	8b 94 24 48 01 00 00 	mov    0x148(%esp),%edx
 1003506:	8b b2 80 00 00 00    	mov    0x80(%edx),%esi
 100350c:	8b 92 84 00 00 00    	mov    0x84(%edx),%edx
 1003512:	31 d1                	xor    %edx,%ecx
 1003514:	31 f0                	xor    %esi,%eax
 1003516:	09 c8                	or     %ecx,%eax
 1003518:	89 44 24 18          	mov    %eax,0x18(%esp)
 100351c:	0f 85 c1 00 00 00    	jne    10035e3 <MessageMan_Add+0x1d3>
 1003522:	eb 00                	jmp    1003524 <MessageMan_Add+0x114>
 1003524:	83 bc 24 38 01 00 00 	cmpl   $0x0,0x138(%esp)
 100352b:	00 
 100352c:	74 5a                	je     1003588 <MessageMan_Add+0x178>
 100352e:	8b 84 24 38 01 00 00 	mov    0x138(%esp),%eax
 1003535:	8b 8c 24 48 01 00 00 	mov    0x148(%esp),%ecx
 100353c:	89 0c 24             	mov    %ecx,(%esp)
 100353f:	ff d0                	call   *%eax
 1003541:	88 44 24 23          	mov    %al,0x23(%esp)
 1003545:	0f b6 4c 24 23       	movzbl 0x23(%esp),%ecx
 100354a:	83 f9 00             	cmp    $0x0,%ecx
 100354d:	75 18                	jne    1003567 <MessageMan_Add+0x157>
 100354f:	8d 05 76 43 7f 01    	lea    0x17f4376,%eax
 1003555:	8b 4c 24 24          	mov    0x24(%esp),%ecx
 1003559:	89 04 24             	mov    %eax,(%esp)
 100355c:	89 4c 24 04          	mov    %ecx,0x4(%esp)
 1003560:	e8 bb d7 ff ff       	call   1000d20 <COM_WriteStr>
 1003565:	eb 1f                	jmp    1003586 <MessageMan_Add+0x176>
 1003567:	8d 05 8e 43 7f 01    	lea    0x17f438e,%eax
 100356d:	8b 4c 24 24          	mov    0x24(%esp),%ecx
 1003571:	0f b6 54 24 23       	movzbl 0x23(%esp),%edx
 1003576:	89 04 24             	mov    %eax,(%esp)
 1003579:	89 4c 24 04          	mov    %ecx,0x4(%esp)
 100357d:	89 54 24 08          	mov    %edx,0x8(%esp)
 1003581:	e8 9a d7 ff ff       	call   1000d20 <COM_WriteStr>
 1003586:	eb 59                	jmp    10035e1 <MessageMan_Add+0x1d1>
 1003588:	8b 84 24 48 01 00 00 	mov    0x148(%esp),%eax
 100358f:	83 b8 9c 00 00 00 01 	cmpl   $0x1,0x9c(%eax)
 1003596:	74 18                	je     10035b0 <MessageMan_Add+0x1a0>
 1003598:	8d 05 bc 43 7f 01    	lea    0x17f43bc,%eax
 100359e:	8b 4c 24 24          	mov    0x24(%esp),%ecx
 10035a2:	89 04 24             	mov    %eax,(%esp)
 10035a5:	89 4c 24 04          	mov    %ecx,0x4(%esp)
 10035a9:	e8 72 d7 ff ff       	call   1000d20 <COM_WriteStr>
 10035ae:	eb 2f                	jmp    10035df <MessageMan_Add+0x1cf>
 10035b0:	8b 44 24 24          	mov    0x24(%esp),%eax
 10035b4:	8b 8c 24 48 01 00 00 	mov    0x148(%esp),%ecx
 10035bb:	8b 91 80 00 00 00    	mov    0x80(%ecx),%edx
 10035c1:	8b 89 84 00 00 00    	mov    0x84(%ecx),%ecx
 10035c7:	89 e6                	mov    %esp,%esi
 10035c9:	89 4e 0c             	mov    %ecx,0xc(%esi)
 10035cc:	89 56 08             	mov    %edx,0x8(%esi)
 10035cf:	89 46 04             	mov    %eax,0x4(%esi)
 10035d2:	c7 06 26 44 7f 01    	movl   $0x17f4426,(%esi)
 10035d8:	e8 43 d7 ff ff       	call   1000d20 <COM_WriteStr>
 10035dd:	eb fe                	jmp    10035dd <MessageMan_Add+0x1cd>
 10035df:	eb 00                	jmp    10035e1 <MessageMan_Add+0x1d1>
 10035e1:	eb 3a                	jmp    100361d <MessageMan_Add+0x20d>
 10035e3:	8b 84 24 48 01 00 00 	mov    0x148(%esp),%eax
 10035ea:	83 b8 9c 00 00 00 01 	cmpl   $0x1,0x9c(%eax)
 10035f1:	75 28                	jne    100361b <MessageMan_Add+0x20b>
 10035f3:	8b 84 24 48 01 00 00 	mov    0x148(%esp),%eax
 10035fa:	8b 88 80 00 00 00    	mov    0x80(%eax),%ecx
 1003600:	8b 80 84 00 00 00    	mov    0x84(%eax),%eax
 1003606:	89 e2                	mov    %esp,%edx
 1003608:	89 42 08             	mov    %eax,0x8(%edx)
 100360b:	89 4a 04             	mov    %ecx,0x4(%edx)
 100360e:	c7 02 94 44 7f 01    	movl   $0x17f4494,(%edx)
 1003614:	e8 07 d7 ff ff       	call   1000d20 <COM_WriteStr>
 1003619:	eb fe                	jmp    1003619 <MessageMan_Add+0x209>
 100361b:	eb 00                	jmp    100361d <MessageMan_Add+0x20d>
 100361d:	8d 65 f4             	lea    -0xc(%ebp),%esp
 1003620:	5e                   	pop    %esi
 1003621:	5f                   	pop    %edi
 1003622:	5b                   	pop    %ebx
 1003623:	5d                   	pop    %ebp
 1003624:	c3                   	ret    
 1003625:	66 90                	xchg   %ax,%ax
 1003627:	66 90                	xchg   %ax,%ax
 1003629:	66 90                	xchg   %ax,%ax
 100362b:	66 90                	xchg   %ax,%ax
 100362d:	66 90                	xchg   %ax,%ax
 100362f:	90                   	nop

01003630 <outb>:
 1003630:	55                   	push   %ebp
 1003631:	89 e5                	mov    %esp,%ebp
 1003633:	50                   	push   %eax
 1003634:	0f b7 45 08          	movzwl 0x8(%ebp),%eax
 1003638:	66 89 c1             	mov    %ax,%cx
 100363b:	8a 55 0c             	mov    0xc(%ebp),%dl
 100363e:	66 89 4d fe          	mov    %cx,-0x2(%ebp)
 1003642:	88 55 fd             	mov    %dl,-0x3(%ebp)
 1003645:	66 8b 55 fe          	mov    -0x2(%ebp),%dx
 1003649:	8a 45 fd             	mov    -0x3(%ebp),%al
 100364c:	ee                   	out    %al,(%dx)
 100364d:	83 c4 04             	add    $0x4,%esp
 1003650:	5d                   	pop    %ebp
 1003651:	c3                   	ret    
 1003652:	8d b4 26 00 00 00 00 	lea    0x0(%esi,%eiz,1),%esi
 1003659:	8d bc 27 00 00 00 00 	lea    0x0(%edi,%eiz,1),%edi

01003660 <inb>:
 1003660:	55                   	push   %ebp
 1003661:	89 e5                	mov    %esp,%ebp
 1003663:	50                   	push   %eax
 1003664:	0f b7 45 08          	movzwl 0x8(%ebp),%eax
 1003668:	66 89 c1             	mov    %ax,%cx
 100366b:	66 89 4d fe          	mov    %cx,-0x2(%ebp)
 100366f:	66 8b 55 fe          	mov    -0x2(%ebp),%dx
 1003673:	ec                   	in     (%dx),%al
 1003674:	88 45 fd             	mov    %al,-0x3(%ebp)
 1003677:	0f b6 45 fd          	movzbl -0x3(%ebp),%eax
 100367b:	83 c4 04             	add    $0x4,%esp
 100367e:	5d                   	pop    %ebp
 100367f:	c3                   	ret    

01003680 <outw>:
 1003680:	55                   	push   %ebp
 1003681:	89 e5                	mov    %esp,%ebp
 1003683:	50                   	push   %eax
 1003684:	0f b7 45 0c          	movzwl 0xc(%ebp),%eax
 1003688:	66 89 c1             	mov    %ax,%cx
 100368b:	0f b7 45 08          	movzwl 0x8(%ebp),%eax
 100368f:	66 89 c2             	mov    %ax,%dx
 1003692:	66 89 55 fe          	mov    %dx,-0x2(%ebp)
 1003696:	66 89 4d fc          	mov    %cx,-0x4(%ebp)
 100369a:	66 8b 55 fe          	mov    -0x2(%ebp),%dx
 100369e:	66 8b 45 fc          	mov    -0x4(%ebp),%ax
 10036a2:	66 ef                	out    %ax,(%dx)
 10036a4:	83 c4 04             	add    $0x4,%esp
 10036a7:	5d                   	pop    %ebp
 10036a8:	c3                   	ret    
 10036a9:	8d b4 26 00 00 00 00 	lea    0x0(%esi,%eiz,1),%esi

010036b0 <inw>:
 10036b0:	55                   	push   %ebp
 10036b1:	89 e5                	mov    %esp,%ebp
 10036b3:	50                   	push   %eax
 10036b4:	0f b7 45 08          	movzwl 0x8(%ebp),%eax
 10036b8:	66 89 c1             	mov    %ax,%cx
 10036bb:	66 89 4d fe          	mov    %cx,-0x2(%ebp)
 10036bf:	66 8b 55 fe          	mov    -0x2(%ebp),%dx
 10036c3:	66 ed                	in     (%dx),%ax
 10036c5:	66 89 45 fc          	mov    %ax,-0x4(%ebp)
 10036c9:	0f b7 45 fc          	movzwl -0x4(%ebp),%eax
 10036cd:	83 c4 04             	add    $0x4,%esp
 10036d0:	5d                   	pop    %ebp
 10036d1:	c3                   	ret    
 10036d2:	8d b4 26 00 00 00 00 	lea    0x0(%esi,%eiz,1),%esi
 10036d9:	8d bc 27 00 00 00 00 	lea    0x0(%edi,%eiz,1),%edi

010036e0 <outl>:
 10036e0:	55                   	push   %ebp
 10036e1:	89 e5                	mov    %esp,%ebp
 10036e3:	83 ec 08             	sub    $0x8,%esp
 10036e6:	0f b7 45 08          	movzwl 0x8(%ebp),%eax
 10036ea:	66 89 c1             	mov    %ax,%cx
 10036ed:	8b 45 0c             	mov    0xc(%ebp),%eax
 10036f0:	66 89 4d fe          	mov    %cx,-0x2(%ebp)
 10036f4:	89 45 f8             	mov    %eax,-0x8(%ebp)
 10036f7:	66 8b 55 fe          	mov    -0x2(%ebp),%dx
 10036fb:	8b 45 f8             	mov    -0x8(%ebp),%eax
 10036fe:	ef                   	out    %eax,(%dx)
 10036ff:	83 c4 08             	add    $0x8,%esp
 1003702:	5d                   	pop    %ebp
 1003703:	c3                   	ret    
 1003704:	8d b6 00 00 00 00    	lea    0x0(%esi),%esi
 100370a:	8d bf 00 00 00 00    	lea    0x0(%edi),%edi

01003710 <inl>:
 1003710:	55                   	push   %ebp
 1003711:	89 e5                	mov    %esp,%ebp
 1003713:	83 ec 08             	sub    $0x8,%esp
 1003716:	0f b7 45 08          	movzwl 0x8(%ebp),%eax
 100371a:	66 89 c1             	mov    %ax,%cx
 100371d:	66 89 4d fe          	mov    %cx,-0x2(%ebp)
 1003721:	66 8b 55 fe          	mov    -0x2(%ebp),%dx
 1003725:	ed                   	in     (%dx),%eax
 1003726:	89 45 f8             	mov    %eax,-0x8(%ebp)
 1003729:	8b 45 f8             	mov    -0x8(%ebp),%eax
 100372c:	83 c4 08             	add    $0x8,%esp
 100372f:	5d                   	pop    %ebp
 1003730:	c3                   	ret    
 1003731:	eb 0d                	jmp    1003740 <wrmsr>
 1003733:	90                   	nop
 1003734:	90                   	nop
 1003735:	90                   	nop
 1003736:	90                   	nop
 1003737:	90                   	nop
 1003738:	90                   	nop
 1003739:	90                   	nop
 100373a:	90                   	nop
 100373b:	90                   	nop
 100373c:	90                   	nop
 100373d:	90                   	nop
 100373e:	90                   	nop
 100373f:	90                   	nop

01003740 <wrmsr>:
 1003740:	55                   	push   %ebp
 1003741:	89 e5                	mov    %esp,%ebp
 1003743:	83 e4 f8             	and    $0xfffffff8,%esp
 1003746:	83 ec 18             	sub    $0x18,%esp
 1003749:	8b 45 10             	mov    0x10(%ebp),%eax
 100374c:	8b 4d 0c             	mov    0xc(%ebp),%ecx
 100374f:	8b 55 08             	mov    0x8(%ebp),%edx
 1003752:	89 54 24 14          	mov    %edx,0x14(%esp)
 1003756:	89 44 24 0c          	mov    %eax,0xc(%esp)
 100375a:	89 4c 24 08          	mov    %ecx,0x8(%esp)
 100375e:	8b 44 24 08          	mov    0x8(%esp),%eax
 1003762:	89 44 24 04          	mov    %eax,0x4(%esp)
 1003766:	8b 44 24 0c          	mov    0xc(%esp),%eax
 100376a:	89 04 24             	mov    %eax,(%esp)
 100376d:	8b 44 24 04          	mov    0x4(%esp),%eax
 1003771:	8b 14 24             	mov    (%esp),%edx
 1003774:	8b 4c 24 14          	mov    0x14(%esp),%ecx
 1003778:	0f 30                	wrmsr  
 100377a:	89 ec                	mov    %ebp,%esp
 100377c:	5d                   	pop    %ebp
 100377d:	c3                   	ret    
 100377e:	66 90                	xchg   %ax,%ax

01003780 <rdmsr>:
 1003780:	55                   	push   %ebp
 1003781:	89 e5                	mov    %esp,%ebp
 1003783:	83 ec 0c             	sub    $0xc,%esp
 1003786:	8b 45 08             	mov    0x8(%ebp),%eax
 1003789:	89 45 fc             	mov    %eax,-0x4(%ebp)
 100378c:	c7 45 f8 00 00 00 00 	movl   $0x0,-0x8(%ebp)
 1003793:	c7 45 f4 00 00 00 00 	movl   $0x0,-0xc(%ebp)
 100379a:	8b 4d fc             	mov    -0x4(%ebp),%ecx
 100379d:	0f 32                	rdmsr  
 100379f:	89 45 f8             	mov    %eax,-0x8(%ebp)
 10037a2:	89 55 f4             	mov    %edx,-0xc(%ebp)
 10037a5:	8b 45 f8             	mov    -0x8(%ebp),%eax
 10037a8:	83 c4 0c             	add    $0xc,%esp
 10037ab:	5d                   	pop    %ebp
 10037ac:	c3                   	ret    
 10037ad:	66 90                	xchg   %ax,%ax
 10037af:	90                   	nop

010037b0 <memcpy>:
 10037b0:	55                   	push   %ebp
 10037b1:	89 e5                	mov    %esp,%ebp
 10037b3:	57                   	push   %edi
 10037b4:	56                   	push   %esi
 10037b5:	83 ec 1c             	sub    $0x1c,%esp
 10037b8:	8b 45 10             	mov    0x10(%ebp),%eax
 10037bb:	8b 4d 0c             	mov    0xc(%ebp),%ecx
 10037be:	8b 55 08             	mov    0x8(%ebp),%edx
 10037c1:	89 55 f4             	mov    %edx,-0xc(%ebp)
 10037c4:	89 4d f0             	mov    %ecx,-0x10(%ebp)
 10037c7:	89 45 ec             	mov    %eax,-0x14(%ebp)
 10037ca:	8b 45 ec             	mov    -0x14(%ebp),%eax
 10037cd:	c1 e8 02             	shr    $0x2,%eax
 10037d0:	8b 4d ec             	mov    -0x14(%ebp),%ecx
 10037d3:	83 e1 03             	and    $0x3,%ecx
 10037d6:	8b 55 f4             	mov    -0xc(%ebp),%edx
 10037d9:	8b 75 f0             	mov    -0x10(%ebp),%esi
 10037dc:	89 4d dc             	mov    %ecx,-0x24(%ebp)
 10037df:	89 d7                	mov    %edx,%edi
 10037e1:	89 c1                	mov    %eax,%ecx
 10037e3:	f3 a5                	rep movsl %ds:(%esi),%es:(%edi)
 10037e5:	8b 4d dc             	mov    -0x24(%ebp),%ecx
 10037e8:	f3 a4                	rep movsb %ds:(%esi),%es:(%edi)
 10037ea:	89 4d e8             	mov    %ecx,-0x18(%ebp)
 10037ed:	89 7d e4             	mov    %edi,-0x1c(%ebp)
 10037f0:	89 75 e0             	mov    %esi,-0x20(%ebp)
 10037f3:	8b 45 f4             	mov    -0xc(%ebp),%eax
 10037f6:	83 c4 1c             	add    $0x1c,%esp
 10037f9:	5e                   	pop    %esi
 10037fa:	5f                   	pop    %edi
 10037fb:	5d                   	pop    %ebp
 10037fc:	c3                   	ret    
 10037fd:	8d 76 00             	lea    0x0(%esi),%esi

01003800 <memset>:
 1003800:	55                   	push   %ebp
 1003801:	89 e5                	mov    %esp,%ebp
 1003803:	53                   	push   %ebx
 1003804:	57                   	push   %edi
 1003805:	83 ec 24             	sub    $0x24,%esp
 1003808:	8b 45 10             	mov    0x10(%ebp),%eax
 100380b:	8b 4d 0c             	mov    0xc(%ebp),%ecx
 100380e:	8b 55 08             	mov    0x8(%ebp),%edx
 1003811:	89 55 f4             	mov    %edx,-0xc(%ebp)
 1003814:	89 4d f0             	mov    %ecx,-0x10(%ebp)
 1003817:	89 45 ec             	mov    %eax,-0x14(%ebp)
 100381a:	8b 45 f4             	mov    -0xc(%ebp),%eax
 100381d:	89 45 e4             	mov    %eax,-0x1c(%ebp)
 1003820:	8b 45 f0             	mov    -0x10(%ebp),%eax
 1003823:	88 c3                	mov    %al,%bl
 1003825:	0f b6 c3             	movzbl %bl,%eax
 1003828:	89 45 e0             	mov    %eax,-0x20(%ebp)
 100382b:	fc                   	cld    
 100382c:	83 7d ec 0c          	cmpl   $0xc,-0x14(%ebp)
 1003830:	72 74                	jb     10038a6 <memset+0xa6>
 1003832:	b8 00 00 00 00       	mov    $0x0,%eax
 1003837:	8b 4d e0             	mov    -0x20(%ebp),%ecx
 100383a:	c1 e1 08             	shl    $0x8,%ecx
 100383d:	8b 55 e0             	mov    -0x20(%ebp),%edx
 1003840:	09 ca                	or     %ecx,%edx
 1003842:	89 55 e0             	mov    %edx,-0x20(%ebp)
 1003845:	8b 4d e0             	mov    -0x20(%ebp),%ecx
 1003848:	c1 e1 10             	shl    $0x10,%ecx
 100384b:	8b 55 e0             	mov    -0x20(%ebp),%edx
 100384e:	09 ca                	or     %ecx,%edx
 1003850:	89 55 e0             	mov    %edx,-0x20(%ebp)
 1003853:	89 c1                	mov    %eax,%ecx
 1003855:	2b 4d e4             	sub    -0x1c(%ebp),%ecx
 1003858:	83 e1 03             	and    $0x3,%ecx
 100385b:	8b 55 ec             	mov    -0x14(%ebp),%edx
 100385e:	29 ca                	sub    %ecx,%edx
 1003860:	89 55 ec             	mov    %edx,-0x14(%ebp)
 1003863:	8b 4d e4             	mov    -0x1c(%ebp),%ecx
 1003866:	2b 45 e4             	sub    -0x1c(%ebp),%eax
 1003869:	83 e0 03             	and    $0x3,%eax
 100386c:	8b 55 e0             	mov    -0x20(%ebp),%edx
 100386f:	89 45 dc             	mov    %eax,-0x24(%ebp)
 1003872:	89 d0                	mov    %edx,%eax
 1003874:	89 cf                	mov    %ecx,%edi
 1003876:	8b 4d dc             	mov    -0x24(%ebp),%ecx
 1003879:	f3 aa                	rep stos %al,%es:(%edi)
 100387b:	89 7d e4             	mov    %edi,-0x1c(%ebp)
 100387e:	89 4d e8             	mov    %ecx,-0x18(%ebp)
 1003881:	8b 45 e4             	mov    -0x1c(%ebp),%eax
 1003884:	8b 4d ec             	mov    -0x14(%ebp),%ecx
 1003887:	c1 e9 02             	shr    $0x2,%ecx
 100388a:	8b 55 e0             	mov    -0x20(%ebp),%edx
 100388d:	89 45 d8             	mov    %eax,-0x28(%ebp)
 1003890:	89 d0                	mov    %edx,%eax
 1003892:	8b 7d d8             	mov    -0x28(%ebp),%edi
 1003895:	f3 ab                	rep stos %eax,%es:(%edi)
 1003897:	89 7d e4             	mov    %edi,-0x1c(%ebp)
 100389a:	89 4d e8             	mov    %ecx,-0x18(%ebp)
 100389d:	8b 45 ec             	mov    -0x14(%ebp),%eax
 10038a0:	83 e0 03             	and    $0x3,%eax
 10038a3:	89 45 ec             	mov    %eax,-0x14(%ebp)
 10038a6:	8b 45 e4             	mov    -0x1c(%ebp),%eax
 10038a9:	8b 4d ec             	mov    -0x14(%ebp),%ecx
 10038ac:	8b 55 e0             	mov    -0x20(%ebp),%edx
 10038af:	89 45 d4             	mov    %eax,-0x2c(%ebp)
 10038b2:	89 d0                	mov    %edx,%eax
 10038b4:	8b 7d d4             	mov    -0x2c(%ebp),%edi
 10038b7:	f3 aa                	rep stos %al,%es:(%edi)
 10038b9:	89 7d e4             	mov    %edi,-0x1c(%ebp)
 10038bc:	89 4d e8             	mov    %ecx,-0x18(%ebp)
 10038bf:	8b 45 f4             	mov    -0xc(%ebp),%eax
 10038c2:	83 c4 24             	add    $0x24,%esp
 10038c5:	5f                   	pop    %edi
 10038c6:	5b                   	pop    %ebx
 10038c7:	5d                   	pop    %ebp
 10038c8:	c3                   	ret    
 10038c9:	8d b4 26 00 00 00 00 	lea    0x0(%esi,%eiz,1),%esi

010038d0 <strrev>:
 10038d0:	55                   	push   %ebp
 10038d1:	89 e5                	mov    %esp,%ebp
 10038d3:	83 ec 14             	sub    $0x14,%esp
 10038d6:	8b 45 08             	mov    0x8(%ebp),%eax
 10038d9:	89 45 fc             	mov    %eax,-0x4(%ebp)
 10038dc:	83 7d fc 00          	cmpl   $0x0,-0x4(%ebp)
 10038e0:	74 08                	je     10038ea <strrev+0x1a>
 10038e2:	8b 45 fc             	mov    -0x4(%ebp),%eax
 10038e5:	80 38 00             	cmpb   $0x0,(%eax)
 10038e8:	75 02                	jne    10038ec <strrev+0x1c>
 10038ea:	eb 52                	jmp    100393e <strrev+0x6e>
 10038ec:	8b 45 fc             	mov    -0x4(%ebp),%eax
 10038ef:	8b 4d fc             	mov    -0x4(%ebp),%ecx
 10038f2:	89 0c 24             	mov    %ecx,(%esp)
 10038f5:	89 45 f0             	mov    %eax,-0x10(%ebp)
 10038f8:	e8 53 00 00 00       	call   1003950 <strlen>
 10038fd:	8b 4d f0             	mov    -0x10(%ebp),%ecx
 1003900:	01 c1                	add    %eax,%ecx
 1003902:	83 c1 ff             	add    $0xffffffff,%ecx
 1003905:	89 4d f4             	mov    %ecx,-0xc(%ebp)
 1003908:	8b 45 f4             	mov    -0xc(%ebp),%eax
 100390b:	3b 45 fc             	cmp    -0x4(%ebp),%eax
 100390e:	76 2e                	jbe    100393e <strrev+0x6e>
 1003910:	8b 45 fc             	mov    -0x4(%ebp),%eax
 1003913:	8a 08                	mov    (%eax),%cl
 1003915:	88 4d fb             	mov    %cl,-0x5(%ebp)
 1003918:	8b 45 f4             	mov    -0xc(%ebp),%eax
 100391b:	8a 08                	mov    (%eax),%cl
 100391d:	8b 45 fc             	mov    -0x4(%ebp),%eax
 1003920:	88 08                	mov    %cl,(%eax)
 1003922:	8a 4d fb             	mov    -0x5(%ebp),%cl
 1003925:	8b 45 f4             	mov    -0xc(%ebp),%eax
 1003928:	88 08                	mov    %cl,(%eax)
 100392a:	8b 45 fc             	mov    -0x4(%ebp),%eax
 100392d:	83 c0 01             	add    $0x1,%eax
 1003930:	89 45 fc             	mov    %eax,-0x4(%ebp)
 1003933:	8b 45 f4             	mov    -0xc(%ebp),%eax
 1003936:	83 c0 ff             	add    $0xffffffff,%eax
 1003939:	89 45 f4             	mov    %eax,-0xc(%ebp)
 100393c:	eb ca                	jmp    1003908 <strrev+0x38>
 100393e:	83 c4 14             	add    $0x14,%esp
 1003941:	5d                   	pop    %ebp
 1003942:	c3                   	ret    
 1003943:	8d b6 00 00 00 00    	lea    0x0(%esi),%esi
 1003949:	8d bc 27 00 00 00 00 	lea    0x0(%edi,%eiz,1),%edi

01003950 <strlen>:
 1003950:	55                   	push   %ebp
 1003951:	89 e5                	mov    %esp,%ebp
 1003953:	83 ec 08             	sub    $0x8,%esp
 1003956:	8b 45 08             	mov    0x8(%ebp),%eax
 1003959:	89 45 fc             	mov    %eax,-0x4(%ebp)
 100395c:	c7 45 f8 00 00 00 00 	movl   $0x0,-0x8(%ebp)
 1003963:	8b 45 f8             	mov    -0x8(%ebp),%eax
 1003966:	8b 4d fc             	mov    -0x4(%ebp),%ecx
 1003969:	0f be 04 01          	movsbl (%ecx,%eax,1),%eax
 100396d:	83 f8 00             	cmp    $0x0,%eax
 1003970:	74 0b                	je     100397d <strlen+0x2d>
 1003972:	8b 45 f8             	mov    -0x8(%ebp),%eax
 1003975:	83 c0 01             	add    $0x1,%eax
 1003978:	89 45 f8             	mov    %eax,-0x8(%ebp)
 100397b:	eb e6                	jmp    1003963 <strlen+0x13>
 100397d:	8b 45 f8             	mov    -0x8(%ebp),%eax
 1003980:	83 c4 08             	add    $0x8,%esp
 1003983:	5d                   	pop    %ebp
 1003984:	c3                   	ret    
 1003985:	8d 74 26 00          	lea    0x0(%esi,%eiz,1),%esi
 1003989:	8d bc 27 00 00 00 00 	lea    0x0(%edi,%eiz,1),%edi

01003990 <strncmp>:
 1003990:	55                   	push   %ebp
 1003991:	89 e5                	mov    %esp,%ebp
 1003993:	83 ec 10             	sub    $0x10,%esp
 1003996:	8b 45 10             	mov    0x10(%ebp),%eax
 1003999:	8b 4d 0c             	mov    0xc(%ebp),%ecx
 100399c:	8b 55 08             	mov    0x8(%ebp),%edx
 100399f:	89 55 f8             	mov    %edx,-0x8(%ebp)
 10039a2:	89 4d f4             	mov    %ecx,-0xc(%ebp)
 10039a5:	89 45 f0             	mov    %eax,-0x10(%ebp)
 10039a8:	8b 45 f0             	mov    -0x10(%ebp),%eax
 10039ab:	89 c1                	mov    %eax,%ecx
 10039ad:	83 c1 ff             	add    $0xffffffff,%ecx
 10039b0:	89 4d f0             	mov    %ecx,-0x10(%ebp)
 10039b3:	83 f8 00             	cmp    $0x0,%eax
 10039b6:	74 37                	je     10039ef <strncmp+0x5f>
 10039b8:	8b 45 f8             	mov    -0x8(%ebp),%eax
 10039bb:	89 c1                	mov    %eax,%ecx
 10039bd:	83 c1 01             	add    $0x1,%ecx
 10039c0:	89 4d f8             	mov    %ecx,-0x8(%ebp)
 10039c3:	0f be 00             	movsbl (%eax),%eax
 10039c6:	8b 4d f4             	mov    -0xc(%ebp),%ecx
 10039c9:	89 ca                	mov    %ecx,%edx
 10039cb:	83 c2 01             	add    $0x1,%edx
 10039ce:	89 55 f4             	mov    %edx,-0xc(%ebp)
 10039d1:	0f be 09             	movsbl (%ecx),%ecx
 10039d4:	39 c8                	cmp    %ecx,%eax
 10039d6:	74 15                	je     10039ed <strncmp+0x5d>
 10039d8:	8b 45 f8             	mov    -0x8(%ebp),%eax
 10039db:	0f b6 40 ff          	movzbl -0x1(%eax),%eax
 10039df:	8b 4d f4             	mov    -0xc(%ebp),%ecx
 10039e2:	0f b6 49 ff          	movzbl -0x1(%ecx),%ecx
 10039e6:	29 c8                	sub    %ecx,%eax
 10039e8:	89 45 fc             	mov    %eax,-0x4(%ebp)
 10039eb:	eb 09                	jmp    10039f6 <strncmp+0x66>
 10039ed:	eb b9                	jmp    10039a8 <strncmp+0x18>
 10039ef:	c7 45 fc 00 00 00 00 	movl   $0x0,-0x4(%ebp)
 10039f6:	8b 45 fc             	mov    -0x4(%ebp),%eax
 10039f9:	83 c4 10             	add    $0x10,%esp
 10039fc:	5d                   	pop    %ebp
 10039fd:	c3                   	ret    
 10039fe:	66 90                	xchg   %ax,%ax

01003a00 <strcpy>:
 1003a00:	55                   	push   %ebp
 1003a01:	89 e5                	mov    %esp,%ebp
 1003a03:	83 ec 1c             	sub    $0x1c,%esp
 1003a06:	8b 45 0c             	mov    0xc(%ebp),%eax
 1003a09:	8b 4d 08             	mov    0x8(%ebp),%ecx
 1003a0c:	89 4d fc             	mov    %ecx,-0x4(%ebp)
 1003a0f:	89 45 f8             	mov    %eax,-0x8(%ebp)
 1003a12:	8b 45 fc             	mov    -0x4(%ebp),%eax
 1003a15:	8b 4d f8             	mov    -0x8(%ebp),%ecx
 1003a18:	8b 55 f8             	mov    -0x8(%ebp),%edx
 1003a1b:	89 14 24             	mov    %edx,(%esp)
 1003a1e:	89 45 f4             	mov    %eax,-0xc(%ebp)
 1003a21:	89 4d f0             	mov    %ecx,-0x10(%ebp)
 1003a24:	e8 27 ff ff ff       	call   1003950 <strlen>
 1003a29:	8b 4d f4             	mov    -0xc(%ebp),%ecx
 1003a2c:	89 0c 24             	mov    %ecx,(%esp)
 1003a2f:	8b 4d f0             	mov    -0x10(%ebp),%ecx
 1003a32:	89 4c 24 04          	mov    %ecx,0x4(%esp)
 1003a36:	89 44 24 08          	mov    %eax,0x8(%esp)
 1003a3a:	e8 71 fd ff ff       	call   10037b0 <memcpy>
 1003a3f:	83 c4 1c             	add    $0x1c,%esp
 1003a42:	5d                   	pop    %ebp
 1003a43:	c3                   	ret    
 1003a44:	66 90                	xchg   %ax,%ax
 1003a46:	66 90                	xchg   %ax,%ax
 1003a48:	66 90                	xchg   %ax,%ax
 1003a4a:	66 90                	xchg   %ax,%ax
 1003a4c:	66 90                	xchg   %ax,%ax
 1003a4e:	66 90                	xchg   %ax,%ax

01003a50 <itoa>:
 1003a50:	55                   	push   %ebp
 1003a51:	89 e5                	mov    %esp,%ebp
 1003a53:	53                   	push   %ebx
 1003a54:	57                   	push   %edi
 1003a55:	56                   	push   %esi
 1003a56:	83 e4 f8             	and    $0xfffffff8,%esp
 1003a59:	81 ec 58 02 00 00    	sub    $0x258,%esp
 1003a5f:	8b 45 0c             	mov    0xc(%ebp),%eax
 1003a62:	8b 4d 08             	mov    0x8(%ebp),%ecx
 1003a65:	8b 55 14             	mov    0x14(%ebp),%edx
 1003a68:	8b 75 10             	mov    0x10(%ebp),%esi
 1003a6b:	8d 3d 05 45 7f 01    	lea    0x17f4505,%edi
 1003a71:	89 8c 24 48 02 00 00 	mov    %ecx,0x248(%esp)
 1003a78:	89 84 24 4c 02 00 00 	mov    %eax,0x24c(%esp)
 1003a7f:	89 b4 24 44 02 00 00 	mov    %esi,0x244(%esp)
 1003a86:	89 94 24 40 02 00 00 	mov    %edx,0x240(%esp)
 1003a8d:	89 7c 24 3c          	mov    %edi,0x3c(%esp)
 1003a91:	83 bc 24 40 02 00 00 	cmpl   $0x10,0x240(%esp)
 1003a98:	10 
 1003a99:	75 6c                	jne    1003b07 <itoa+0xb7>
 1003a9b:	c7 44 24 38 00 00 00 	movl   $0x0,0x38(%esp)
 1003aa2:	00 
 1003aa3:	83 7c 24 38 10       	cmpl   $0x10,0x38(%esp)
 1003aa8:	7d 53                	jge    1003afd <itoa+0xad>
 1003aaa:	b8 0f 00 00 00       	mov    $0xf,%eax
 1003aaf:	8b 8c 24 48 02 00 00 	mov    0x248(%esp),%ecx
 1003ab6:	8b 94 24 4c 02 00 00 	mov    0x24c(%esp),%edx
 1003abd:	8a 5c 24 38          	mov    0x38(%esp),%bl
 1003ac1:	c0 e3 02             	shl    $0x2,%bl
 1003ac4:	89 4c 24 28          	mov    %ecx,0x28(%esp)
 1003ac8:	88 d9                	mov    %bl,%cl
 1003aca:	8b 74 24 28          	mov    0x28(%esp),%esi
 1003ace:	0f ad d6             	shrd   %cl,%edx,%esi
 1003ad1:	88 d9                	mov    %bl,%cl
 1003ad3:	80 e1 1c             	and    $0x1c,%cl
 1003ad6:	d3 fa                	sar    %cl,%edx
 1003ad8:	f6 c3 20             	test   $0x20,%bl
 1003adb:	0f 45 f2             	cmovne %edx,%esi
 1003ade:	83 e6 0f             	and    $0xf,%esi
 1003ae1:	8b 54 24 3c          	mov    0x3c(%esp),%edx
 1003ae5:	8a 0c 32             	mov    (%edx,%esi,1),%cl
 1003ae8:	2b 44 24 38          	sub    0x38(%esp),%eax
 1003aec:	88 4c 04 40          	mov    %cl,0x40(%esp,%eax,1)
 1003af0:	8b 44 24 38          	mov    0x38(%esp),%eax
 1003af4:	83 c0 01             	add    $0x1,%eax
 1003af7:	89 44 24 38          	mov    %eax,0x38(%esp)
 1003afb:	eb a6                	jmp    1003aa3 <itoa+0x53>
 1003afd:	c6 44 24 50 00       	movb   $0x0,0x50(%esp)
 1003b02:	e9 9d 01 00 00       	jmp    1003ca4 <itoa+0x254>
 1003b07:	83 bc 24 40 02 00 00 	cmpl   $0x2,0x240(%esp)
 1003b0e:	02 
 1003b0f:	75 6b                	jne    1003b7c <itoa+0x12c>
 1003b11:	c7 44 24 34 00 00 00 	movl   $0x0,0x34(%esp)
 1003b18:	00 
 1003b19:	83 7c 24 34 40       	cmpl   $0x40,0x34(%esp)
 1003b1e:	7d 4f                	jge    1003b6f <itoa+0x11f>
 1003b20:	b8 3f 00 00 00       	mov    $0x3f,%eax
 1003b25:	8b 8c 24 48 02 00 00 	mov    0x248(%esp),%ecx
 1003b2c:	8b 94 24 4c 02 00 00 	mov    0x24c(%esp),%edx
 1003b33:	8a 5c 24 34          	mov    0x34(%esp),%bl
 1003b37:	89 4c 24 24          	mov    %ecx,0x24(%esp)
 1003b3b:	88 d9                	mov    %bl,%cl
 1003b3d:	89 d6                	mov    %edx,%esi
 1003b3f:	d3 ee                	shr    %cl,%esi
 1003b41:	88 d9                	mov    %bl,%cl
 1003b43:	8b 7c 24 24          	mov    0x24(%esp),%edi
 1003b47:	0f ad d7             	shrd   %cl,%edx,%edi
 1003b4a:	f6 c3 20             	test   $0x20,%bl
 1003b4d:	0f 45 fe             	cmovne %esi,%edi
 1003b50:	83 e7 01             	and    $0x1,%edi
 1003b53:	8b 54 24 3c          	mov    0x3c(%esp),%edx
 1003b57:	8a 0c 3a             	mov    (%edx,%edi,1),%cl
 1003b5a:	2b 44 24 34          	sub    0x34(%esp),%eax
 1003b5e:	88 4c 04 40          	mov    %cl,0x40(%esp,%eax,1)
 1003b62:	8b 44 24 34          	mov    0x34(%esp),%eax
 1003b66:	83 c0 01             	add    $0x1,%eax
 1003b69:	89 44 24 34          	mov    %eax,0x34(%esp)
 1003b6d:	eb aa                	jmp    1003b19 <itoa+0xc9>
 1003b6f:	c6 84 24 80 00 00 00 	movb   $0x0,0x80(%esp)
 1003b76:	00 
 1003b77:	e9 26 01 00 00       	jmp    1003ca2 <itoa+0x252>
 1003b7c:	83 bc 24 40 02 00 00 	cmpl   $0x10,0x240(%esp)
 1003b83:	10 
 1003b84:	0f 8d 11 01 00 00    	jge    1003c9b <itoa+0x24b>
 1003b8a:	c7 44 24 30 00 00 00 	movl   $0x0,0x30(%esp)
 1003b91:	00 
 1003b92:	c7 44 24 2c 00 00 00 	movl   $0x0,0x2c(%esp)
 1003b99:	00 
 1003b9a:	8b 84 24 4c 02 00 00 	mov    0x24c(%esp),%eax
 1003ba1:	85 c0                	test   %eax,%eax
 1003ba3:	79 2c                	jns    1003bd1 <itoa+0x181>
 1003ba5:	eb 00                	jmp    1003ba7 <itoa+0x157>
 1003ba7:	c7 44 24 2c 01 00 00 	movl   $0x1,0x2c(%esp)
 1003bae:	00 
 1003baf:	8b 84 24 48 02 00 00 	mov    0x248(%esp),%eax
 1003bb6:	8b 8c 24 4c 02 00 00 	mov    0x24c(%esp),%ecx
 1003bbd:	31 d2                	xor    %edx,%edx
 1003bbf:	f7 d8                	neg    %eax
 1003bc1:	19 ca                	sbb    %ecx,%edx
 1003bc3:	89 84 24 48 02 00 00 	mov    %eax,0x248(%esp)
 1003bca:	89 94 24 4c 02 00 00 	mov    %edx,0x24c(%esp)
 1003bd1:	eb 00                	jmp    1003bd3 <itoa+0x183>
 1003bd3:	8b 84 24 48 02 00 00 	mov    0x248(%esp),%eax
 1003bda:	8b 8c 24 4c 02 00 00 	mov    0x24c(%esp),%ecx
 1003be1:	8b 94 24 40 02 00 00 	mov    0x240(%esp),%edx
 1003be8:	89 d6                	mov    %edx,%esi
 1003bea:	c1 fe 1f             	sar    $0x1f,%esi
 1003bed:	89 e7                	mov    %esp,%edi
 1003bef:	89 77 0c             	mov    %esi,0xc(%edi)
 1003bf2:	89 57 08             	mov    %edx,0x8(%edi)
 1003bf5:	89 4f 04             	mov    %ecx,0x4(%edi)
 1003bf8:	89 07                	mov    %eax,(%edi)
 1003bfa:	e8 a1 69 00 00       	call   100a5a0 <__moddi3>
 1003bff:	8b 4c 24 3c          	mov    0x3c(%esp),%ecx
 1003c03:	8a 1c 01             	mov    (%ecx,%eax,1),%bl
 1003c06:	8b 44 24 30          	mov    0x30(%esp),%eax
 1003c0a:	89 c1                	mov    %eax,%ecx
 1003c0c:	41                   	inc    %ecx
 1003c0d:	89 4c 24 30          	mov    %ecx,0x30(%esp)
 1003c11:	88 5c 04 40          	mov    %bl,0x40(%esp,%eax,1)
 1003c15:	8b 84 24 40 02 00 00 	mov    0x240(%esp),%eax
 1003c1c:	89 c1                	mov    %eax,%ecx
 1003c1e:	c1 f9 1f             	sar    $0x1f,%ecx
 1003c21:	8b 94 24 48 02 00 00 	mov    0x248(%esp),%edx
 1003c28:	8b b4 24 4c 02 00 00 	mov    0x24c(%esp),%esi
 1003c2f:	89 e7                	mov    %esp,%edi
 1003c31:	89 47 08             	mov    %eax,0x8(%edi)
 1003c34:	89 77 04             	mov    %esi,0x4(%edi)
 1003c37:	89 17                	mov    %edx,(%edi)
 1003c39:	89 4f 0c             	mov    %ecx,0xc(%edi)
 1003c3c:	e8 cf 67 00 00       	call   100a410 <__divdi3>
 1003c41:	89 94 24 4c 02 00 00 	mov    %edx,0x24c(%esp)
 1003c48:	89 84 24 48 02 00 00 	mov    %eax,0x248(%esp)
 1003c4f:	8b 84 24 48 02 00 00 	mov    0x248(%esp),%eax
 1003c56:	8b 8c 24 4c 02 00 00 	mov    0x24c(%esp),%ecx
 1003c5d:	09 c8                	or     %ecx,%eax
 1003c5f:	89 44 24 20          	mov    %eax,0x20(%esp)
 1003c63:	0f 85 6a ff ff ff    	jne    1003bd3 <itoa+0x183>
 1003c69:	eb 00                	jmp    1003c6b <itoa+0x21b>
 1003c6b:	83 7c 24 2c 00       	cmpl   $0x0,0x2c(%esp)
 1003c70:	74 12                	je     1003c84 <itoa+0x234>
 1003c72:	8b 44 24 30          	mov    0x30(%esp),%eax
 1003c76:	89 c1                	mov    %eax,%ecx
 1003c78:	83 c1 01             	add    $0x1,%ecx
 1003c7b:	89 4c 24 30          	mov    %ecx,0x30(%esp)
 1003c7f:	c6 44 04 40 2d       	movb   $0x2d,0x40(%esp,%eax,1)
 1003c84:	8d 44 24 40          	lea    0x40(%esp),%eax
 1003c88:	8b 4c 24 30          	mov    0x30(%esp),%ecx
 1003c8c:	c6 44 0c 40 00       	movb   $0x0,0x40(%esp,%ecx,1)
 1003c91:	89 04 24             	mov    %eax,(%esp)
 1003c94:	e8 37 fc ff ff       	call   10038d0 <strrev>
 1003c99:	eb 05                	jmp    1003ca0 <itoa+0x250>
 1003c9b:	c6 44 24 40 00       	movb   $0x0,0x40(%esp)
 1003ca0:	eb 00                	jmp    1003ca2 <itoa+0x252>
 1003ca2:	eb 00                	jmp    1003ca4 <itoa+0x254>
 1003ca4:	8d 44 24 40          	lea    0x40(%esp),%eax
 1003ca8:	8b 8c 24 44 02 00 00 	mov    0x244(%esp),%ecx
 1003caf:	89 04 24             	mov    %eax,(%esp)
 1003cb2:	89 44 24 1c          	mov    %eax,0x1c(%esp)
 1003cb6:	89 4c 24 18          	mov    %ecx,0x18(%esp)
 1003cba:	e8 91 fc ff ff       	call   1003950 <strlen>
 1003cbf:	8b 4c 24 18          	mov    0x18(%esp),%ecx
 1003cc3:	89 0c 24             	mov    %ecx,(%esp)
 1003cc6:	8b 4c 24 1c          	mov    0x1c(%esp),%ecx
 1003cca:	89 4c 24 04          	mov    %ecx,0x4(%esp)
 1003cce:	89 44 24 08          	mov    %eax,0x8(%esp)
 1003cd2:	e8 d9 fa ff ff       	call   10037b0 <memcpy>
 1003cd7:	8d 4c 24 40          	lea    0x40(%esp),%ecx
 1003cdb:	8b 94 24 44 02 00 00 	mov    0x244(%esp),%edx
 1003ce2:	89 0c 24             	mov    %ecx,(%esp)
 1003ce5:	89 44 24 14          	mov    %eax,0x14(%esp)
 1003ce9:	89 54 24 10          	mov    %edx,0x10(%esp)
 1003ced:	e8 5e fc ff ff       	call   1003950 <strlen>
 1003cf2:	8b 4c 24 10          	mov    0x10(%esp),%ecx
 1003cf6:	01 c1                	add    %eax,%ecx
 1003cf8:	89 c8                	mov    %ecx,%eax
 1003cfa:	8d 65 f4             	lea    -0xc(%ebp),%esp
 1003cfd:	5e                   	pop    %esi
 1003cfe:	5f                   	pop    %edi
 1003cff:	5b                   	pop    %ebx
 1003d00:	5d                   	pop    %ebp
 1003d01:	c3                   	ret    
 1003d02:	8d b4 26 00 00 00 00 	lea    0x0(%esi,%eiz,1),%esi
 1003d09:	8d bc 27 00 00 00 00 	lea    0x0(%edi,%eiz,1),%edi

01003d10 <utoa>:
 1003d10:	55                   	push   %ebp
 1003d11:	89 e5                	mov    %esp,%ebp
 1003d13:	53                   	push   %ebx
 1003d14:	57                   	push   %edi
 1003d15:	56                   	push   %esi
 1003d16:	83 e4 f8             	and    $0xfffffff8,%esp
 1003d19:	81 ec 60 02 00 00    	sub    $0x260,%esp
 1003d1f:	8b 45 0c             	mov    0xc(%ebp),%eax
 1003d22:	8b 4d 08             	mov    0x8(%ebp),%ecx
 1003d25:	8b 55 14             	mov    0x14(%ebp),%edx
 1003d28:	8b 75 10             	mov    0x10(%ebp),%esi
 1003d2b:	8d 3d 05 45 7f 01    	lea    0x17f4505,%edi
 1003d31:	89 8c 24 50 02 00 00 	mov    %ecx,0x250(%esp)
 1003d38:	89 84 24 54 02 00 00 	mov    %eax,0x254(%esp)
 1003d3f:	89 b4 24 4c 02 00 00 	mov    %esi,0x24c(%esp)
 1003d46:	89 94 24 48 02 00 00 	mov    %edx,0x248(%esp)
 1003d4d:	89 7c 24 44          	mov    %edi,0x44(%esp)
 1003d51:	83 bc 24 48 02 00 00 	cmpl   $0x10,0x248(%esp)
 1003d58:	10 
 1003d59:	75 6c                	jne    1003dc7 <utoa+0xb7>
 1003d5b:	c7 44 24 40 00 00 00 	movl   $0x0,0x40(%esp)
 1003d62:	00 
 1003d63:	83 7c 24 40 10       	cmpl   $0x10,0x40(%esp)
 1003d68:	7d 53                	jge    1003dbd <utoa+0xad>
 1003d6a:	b8 0f 00 00 00       	mov    $0xf,%eax
 1003d6f:	8b 8c 24 50 02 00 00 	mov    0x250(%esp),%ecx
 1003d76:	8b 94 24 54 02 00 00 	mov    0x254(%esp),%edx
 1003d7d:	8a 5c 24 40          	mov    0x40(%esp),%bl
 1003d81:	c0 e3 02             	shl    $0x2,%bl
 1003d84:	89 4c 24 34          	mov    %ecx,0x34(%esp)
 1003d88:	88 d9                	mov    %bl,%cl
 1003d8a:	8b 74 24 34          	mov    0x34(%esp),%esi
 1003d8e:	0f ad d6             	shrd   %cl,%edx,%esi
 1003d91:	88 d9                	mov    %bl,%cl
 1003d93:	80 e1 1c             	and    $0x1c,%cl
 1003d96:	d3 ea                	shr    %cl,%edx
 1003d98:	f6 c3 20             	test   $0x20,%bl
 1003d9b:	0f 45 f2             	cmovne %edx,%esi
 1003d9e:	83 e6 0f             	and    $0xf,%esi
 1003da1:	8b 54 24 44          	mov    0x44(%esp),%edx
 1003da5:	8a 0c 32             	mov    (%edx,%esi,1),%cl
 1003da8:	2b 44 24 40          	sub    0x40(%esp),%eax
 1003dac:	88 4c 04 48          	mov    %cl,0x48(%esp,%eax,1)
 1003db0:	8b 44 24 40          	mov    0x40(%esp),%eax
 1003db4:	83 c0 01             	add    $0x1,%eax
 1003db7:	89 44 24 40          	mov    %eax,0x40(%esp)
 1003dbb:	eb a6                	jmp    1003d63 <utoa+0x53>
 1003dbd:	c6 44 24 58 00       	movb   $0x0,0x58(%esp)
 1003dc2:	e9 68 01 00 00       	jmp    1003f2f <utoa+0x21f>
 1003dc7:	83 bc 24 48 02 00 00 	cmpl   $0x2,0x248(%esp)
 1003dce:	02 
 1003dcf:	75 6b                	jne    1003e3c <utoa+0x12c>
 1003dd1:	c7 44 24 3c 00 00 00 	movl   $0x0,0x3c(%esp)
 1003dd8:	00 
 1003dd9:	83 7c 24 3c 40       	cmpl   $0x40,0x3c(%esp)
 1003dde:	7d 4f                	jge    1003e2f <utoa+0x11f>
 1003de0:	b8 3f 00 00 00       	mov    $0x3f,%eax
 1003de5:	8b 8c 24 50 02 00 00 	mov    0x250(%esp),%ecx
 1003dec:	8b 94 24 54 02 00 00 	mov    0x254(%esp),%edx
 1003df3:	8a 5c 24 3c          	mov    0x3c(%esp),%bl
 1003df7:	89 4c 24 30          	mov    %ecx,0x30(%esp)
 1003dfb:	88 d9                	mov    %bl,%cl
 1003dfd:	89 d6                	mov    %edx,%esi
 1003dff:	d3 ee                	shr    %cl,%esi
 1003e01:	88 d9                	mov    %bl,%cl
 1003e03:	8b 7c 24 30          	mov    0x30(%esp),%edi
 1003e07:	0f ad d7             	shrd   %cl,%edx,%edi
 1003e0a:	f6 c3 20             	test   $0x20,%bl
 1003e0d:	0f 45 fe             	cmovne %esi,%edi
 1003e10:	83 e7 01             	and    $0x1,%edi
 1003e13:	8b 54 24 44          	mov    0x44(%esp),%edx
 1003e17:	8a 0c 3a             	mov    (%edx,%edi,1),%cl
 1003e1a:	2b 44 24 3c          	sub    0x3c(%esp),%eax
 1003e1e:	88 4c 04 48          	mov    %cl,0x48(%esp,%eax,1)
 1003e22:	8b 44 24 3c          	mov    0x3c(%esp),%eax
 1003e26:	83 c0 01             	add    $0x1,%eax
 1003e29:	89 44 24 3c          	mov    %eax,0x3c(%esp)
 1003e2d:	eb aa                	jmp    1003dd9 <utoa+0xc9>
 1003e2f:	c6 84 24 88 00 00 00 	movb   $0x0,0x88(%esp)
 1003e36:	00 
 1003e37:	e9 f1 00 00 00       	jmp    1003f2d <utoa+0x21d>
 1003e3c:	83 bc 24 48 02 00 00 	cmpl   $0x10,0x248(%esp)
 1003e43:	10 
 1003e44:	0f 8d dc 00 00 00    	jge    1003f26 <utoa+0x216>
 1003e4a:	c7 44 24 38 00 00 00 	movl   $0x0,0x38(%esp)
 1003e51:	00 
 1003e52:	8b 84 24 50 02 00 00 	mov    0x250(%esp),%eax
 1003e59:	8b 8c 24 54 02 00 00 	mov    0x254(%esp),%ecx
 1003e60:	8b 94 24 48 02 00 00 	mov    0x248(%esp),%edx
 1003e67:	89 d6                	mov    %edx,%esi
 1003e69:	c1 fe 1f             	sar    $0x1f,%esi
 1003e6c:	89 e7                	mov    %esp,%edi
 1003e6e:	89 77 0c             	mov    %esi,0xc(%edi)
 1003e71:	89 57 08             	mov    %edx,0x8(%edi)
 1003e74:	89 4f 04             	mov    %ecx,0x4(%edi)
 1003e77:	89 07                	mov    %eax,(%edi)
 1003e79:	e8 22 6a 00 00       	call   100a8a0 <__umoddi3>
 1003e7e:	8b 4c 24 44          	mov    0x44(%esp),%ecx
 1003e82:	8a 1c 01             	mov    (%ecx,%eax,1),%bl
 1003e85:	8b 44 24 38          	mov    0x38(%esp),%eax
 1003e89:	89 c1                	mov    %eax,%ecx
 1003e8b:	41                   	inc    %ecx
 1003e8c:	89 4c 24 38          	mov    %ecx,0x38(%esp)
 1003e90:	88 5c 04 48          	mov    %bl,0x48(%esp,%eax,1)
 1003e94:	8b 84 24 48 02 00 00 	mov    0x248(%esp),%eax
 1003e9b:	89 c1                	mov    %eax,%ecx
 1003e9d:	c1 f9 1f             	sar    $0x1f,%ecx
 1003ea0:	8b 94 24 50 02 00 00 	mov    0x250(%esp),%edx
 1003ea7:	8b b4 24 54 02 00 00 	mov    0x254(%esp),%esi
 1003eae:	89 e7                	mov    %esp,%edi
 1003eb0:	89 47 08             	mov    %eax,0x8(%edi)
 1003eb3:	89 77 04             	mov    %esi,0x4(%edi)
 1003eb6:	89 17                	mov    %edx,(%edi)
 1003eb8:	89 4f 0c             	mov    %ecx,0xc(%edi)
 1003ebb:	e8 b0 68 00 00       	call   100a770 <__udivdi3>
 1003ec0:	89 94 24 54 02 00 00 	mov    %edx,0x254(%esp)
 1003ec7:	89 84 24 50 02 00 00 	mov    %eax,0x250(%esp)
 1003ece:	b0 00                	mov    $0x0,%al
 1003ed0:	8b 8c 24 50 02 00 00 	mov    0x250(%esp),%ecx
 1003ed7:	8b 94 24 54 02 00 00 	mov    0x254(%esp),%edx
 1003ede:	31 db                	xor    %ebx,%ebx
 1003ee0:	88 dc                	mov    %bl,%ah
 1003ee2:	09 d1                	or     %edx,%ecx
 1003ee4:	88 44 24 2f          	mov    %al,0x2f(%esp)
 1003ee8:	89 4c 24 28          	mov    %ecx,0x28(%esp)
 1003eec:	88 64 24 27          	mov    %ah,0x27(%esp)
 1003ef0:	74 11                	je     1003f03 <utoa+0x1f3>
 1003ef2:	eb 00                	jmp    1003ef4 <utoa+0x1e4>
 1003ef4:	81 7c 24 38 ff 01 00 	cmpl   $0x1ff,0x38(%esp)
 1003efb:	00 
 1003efc:	0f 9c c0             	setl   %al
 1003eff:	88 44 24 27          	mov    %al,0x27(%esp)
 1003f03:	8a 44 24 27          	mov    0x27(%esp),%al
 1003f07:	a8 01                	test   $0x1,%al
 1003f09:	0f 85 43 ff ff ff    	jne    1003e52 <utoa+0x142>
 1003f0f:	8d 44 24 48          	lea    0x48(%esp),%eax
 1003f13:	8b 4c 24 38          	mov    0x38(%esp),%ecx
 1003f17:	c6 44 0c 48 00       	movb   $0x0,0x48(%esp,%ecx,1)
 1003f1c:	89 04 24             	mov    %eax,(%esp)
 1003f1f:	e8 ac f9 ff ff       	call   10038d0 <strrev>
 1003f24:	eb 05                	jmp    1003f2b <utoa+0x21b>
 1003f26:	c6 44 24 48 00       	movb   $0x0,0x48(%esp)
 1003f2b:	eb 00                	jmp    1003f2d <utoa+0x21d>
 1003f2d:	eb 00                	jmp    1003f2f <utoa+0x21f>
 1003f2f:	8d 44 24 48          	lea    0x48(%esp),%eax
 1003f33:	8b 8c 24 4c 02 00 00 	mov    0x24c(%esp),%ecx
 1003f3a:	89 04 24             	mov    %eax,(%esp)
 1003f3d:	89 44 24 20          	mov    %eax,0x20(%esp)
 1003f41:	89 4c 24 1c          	mov    %ecx,0x1c(%esp)
 1003f45:	e8 06 fa ff ff       	call   1003950 <strlen>
 1003f4a:	8b 4c 24 1c          	mov    0x1c(%esp),%ecx
 1003f4e:	89 0c 24             	mov    %ecx,(%esp)
 1003f51:	8b 4c 24 20          	mov    0x20(%esp),%ecx
 1003f55:	89 4c 24 04          	mov    %ecx,0x4(%esp)
 1003f59:	89 44 24 08          	mov    %eax,0x8(%esp)
 1003f5d:	e8 4e f8 ff ff       	call   10037b0 <memcpy>
 1003f62:	8d 4c 24 48          	lea    0x48(%esp),%ecx
 1003f66:	8b 94 24 4c 02 00 00 	mov    0x24c(%esp),%edx
 1003f6d:	89 0c 24             	mov    %ecx,(%esp)
 1003f70:	89 44 24 18          	mov    %eax,0x18(%esp)
 1003f74:	89 54 24 14          	mov    %edx,0x14(%esp)
 1003f78:	e8 d3 f9 ff ff       	call   1003950 <strlen>
 1003f7d:	8b 4c 24 14          	mov    0x14(%esp),%ecx
 1003f81:	01 c1                	add    %eax,%ecx
 1003f83:	89 c8                	mov    %ecx,%eax
 1003f85:	8d 65 f4             	lea    -0xc(%ebp),%esp
 1003f88:	5e                   	pop    %esi
 1003f89:	5f                   	pop    %edi
 1003f8a:	5b                   	pop    %ebx
 1003f8b:	5d                   	pop    %ebp
 1003f8c:	c3                   	ret    
 1003f8d:	8d 76 00             	lea    0x0(%esi),%esi

01003f90 <vsnprintf>:
 1003f90:	55                   	push   %ebp
 1003f91:	89 e5                	mov    %esp,%ebp
 1003f93:	56                   	push   %esi
 1003f94:	81 ec 88 00 00 00    	sub    $0x88,%esp
 1003f9a:	8b 45 10             	mov    0x10(%ebp),%eax
 1003f9d:	8b 4d 0c             	mov    0xc(%ebp),%ecx
 1003fa0:	8b 55 08             	mov    0x8(%ebp),%edx
 1003fa3:	89 55 f8             	mov    %edx,-0x8(%ebp)
 1003fa6:	89 4d f4             	mov    %ecx,-0xc(%ebp)
 1003fa9:	89 45 f0             	mov    %eax,-0x10(%ebp)
 1003fac:	c7 45 ec 00 00 00 00 	movl   $0x0,-0x14(%ebp)
 1003fb3:	c7 45 e8 00 00 00 00 	movl   $0x0,-0x18(%ebp)
 1003fba:	8b 45 e8             	mov    -0x18(%ebp),%eax
 1003fbd:	8b 4d f4             	mov    -0xc(%ebp),%ecx
 1003fc0:	89 0c 24             	mov    %ecx,(%esp)
 1003fc3:	89 45 c8             	mov    %eax,-0x38(%ebp)
 1003fc6:	e8 85 f9 ff ff       	call   1003950 <strlen>
 1003fcb:	8b 4d c8             	mov    -0x38(%ebp),%ecx
 1003fce:	39 c1                	cmp    %eax,%ecx
 1003fd0:	73 35                	jae    1004007 <vsnprintf+0x77>
 1003fd2:	8b 45 e8             	mov    -0x18(%ebp),%eax
 1003fd5:	8b 4d f4             	mov    -0xc(%ebp),%ecx
 1003fd8:	0f be 04 01          	movsbl (%ecx,%eax,1),%eax
 1003fdc:	83 f8 25             	cmp    $0x25,%eax
 1003fdf:	75 19                	jne    1003ffa <vsnprintf+0x6a>
 1003fe1:	8b 45 e8             	mov    -0x18(%ebp),%eax
 1003fe4:	8b 4d f4             	mov    -0xc(%ebp),%ecx
 1003fe7:	0f be 44 01 01       	movsbl 0x1(%ecx,%eax,1),%eax
 1003fec:	83 f8 25             	cmp    $0x25,%eax
 1003fef:	74 09                	je     1003ffa <vsnprintf+0x6a>
 1003ff1:	8b 45 ec             	mov    -0x14(%ebp),%eax
 1003ff4:	83 c0 01             	add    $0x1,%eax
 1003ff7:	89 45 ec             	mov    %eax,-0x14(%ebp)
 1003ffa:	eb 00                	jmp    1003ffc <vsnprintf+0x6c>
 1003ffc:	8b 45 e8             	mov    -0x18(%ebp),%eax
 1003fff:	83 c0 01             	add    $0x1,%eax
 1004002:	89 45 e8             	mov    %eax,-0x18(%ebp)
 1004005:	eb b3                	jmp    1003fba <vsnprintf+0x2a>
 1004007:	c7 45 e4 00 00 00 00 	movl   $0x0,-0x1c(%ebp)
 100400e:	8b 45 e4             	mov    -0x1c(%ebp),%eax
 1004011:	8b 4d f4             	mov    -0xc(%ebp),%ecx
 1004014:	89 0c 24             	mov    %ecx,(%esp)
 1004017:	89 45 c4             	mov    %eax,-0x3c(%ebp)
 100401a:	e8 31 f9 ff ff       	call   1003950 <strlen>
 100401f:	8b 4d c4             	mov    -0x3c(%ebp),%ecx
 1004022:	39 c1                	cmp    %eax,%ecx
 1004024:	0f 83 4c 04 00 00    	jae    1004476 <vsnprintf+0x4e6>
 100402a:	8b 45 e4             	mov    -0x1c(%ebp),%eax
 100402d:	8b 4d f4             	mov    -0xc(%ebp),%ecx
 1004030:	0f be 04 01          	movsbl (%ecx,%eax,1),%eax
 1004034:	83 f8 25             	cmp    $0x25,%eax
 1004037:	74 1c                	je     1004055 <vsnprintf+0xc5>
 1004039:	8b 45 e4             	mov    -0x1c(%ebp),%eax
 100403c:	8b 4d f4             	mov    -0xc(%ebp),%ecx
 100403f:	8a 14 01             	mov    (%ecx,%eax,1),%dl
 1004042:	8b 45 f8             	mov    -0x8(%ebp),%eax
 1004045:	88 10                	mov    %dl,(%eax)
 1004047:	8b 45 f8             	mov    -0x8(%ebp),%eax
 100404a:	83 c0 01             	add    $0x1,%eax
 100404d:	89 45 f8             	mov    %eax,-0x8(%ebp)
 1004050:	e9 11 04 00 00       	jmp    1004466 <vsnprintf+0x4d6>
 1004055:	8b 45 e4             	mov    -0x1c(%ebp),%eax
 1004058:	83 c0 01             	add    $0x1,%eax
 100405b:	89 45 e4             	mov    %eax,-0x1c(%ebp)
 100405e:	c7 45 e0 01 00 00 00 	movl   $0x1,-0x20(%ebp)
 1004065:	c6 45 df 20          	movb   $0x20,-0x21(%ebp)
 1004069:	c7 45 d8 00 00 00 00 	movl   $0x0,-0x28(%ebp)
 1004070:	c7 45 d4 00 00 00 00 	movl   $0x0,-0x2c(%ebp)
 1004077:	83 7d e0 00          	cmpl   $0x0,-0x20(%ebp)
 100407b:	0f 84 e3 03 00 00    	je     1004464 <vsnprintf+0x4d4>
 1004081:	8b 45 e4             	mov    -0x1c(%ebp),%eax
 1004084:	8b 4d f4             	mov    -0xc(%ebp),%ecx
 1004087:	0f be 04 01          	movsbl (%ecx,%eax,1),%eax
 100408b:	89 c1                	mov    %eax,%ecx
 100408d:	83 e9 57             	sub    $0x57,%ecx
 1004090:	89 45 c0             	mov    %eax,-0x40(%ebp)
 1004093:	89 4d bc             	mov    %ecx,-0x44(%ebp)
 1004096:	7f 25                	jg     10040bd <vsnprintf+0x12d>
 1004098:	eb 00                	jmp    100409a <vsnprintf+0x10a>
 100409a:	8b 45 c0             	mov    -0x40(%ebp),%eax
 100409d:	83 c0 dd             	add    $0xffffffdd,%eax
 10040a0:	89 c1                	mov    %eax,%ecx
 10040a2:	83 e9 23             	sub    $0x23,%ecx
 10040a5:	89 45 b8             	mov    %eax,-0x48(%ebp)
 10040a8:	89 4d b4             	mov    %ecx,-0x4c(%ebp)
 10040ab:	0f 87 ae 03 00 00    	ja     100445f <vsnprintf+0x4cf>
 10040b1:	8b 45 b8             	mov    -0x48(%ebp),%eax
 10040b4:	8b 0c 85 60 b0 00 01 	mov    0x100b060(,%eax,4),%ecx
 10040bb:	ff e1                	jmp    *%ecx
 10040bd:	8b 45 c0             	mov    -0x40(%ebp),%eax
 10040c0:	83 e8 61             	sub    $0x61,%eax
 10040c3:	89 45 b0             	mov    %eax,-0x50(%ebp)
 10040c6:	7f 16                	jg     10040de <vsnprintf+0x14e>
 10040c8:	eb 00                	jmp    10040ca <vsnprintf+0x13a>
 10040ca:	8b 45 c0             	mov    -0x40(%ebp),%eax
 10040cd:	83 e8 58             	sub    $0x58,%eax
 10040d0:	89 45 ac             	mov    %eax,-0x54(%ebp)
 10040d3:	0f 84 96 02 00 00    	je     100436f <vsnprintf+0x3df>
 10040d9:	e9 81 03 00 00       	jmp    100445f <vsnprintf+0x4cf>
 10040de:	8b 45 c0             	mov    -0x40(%ebp),%eax
 10040e1:	83 e8 77             	sub    $0x77,%eax
 10040e4:	89 45 a8             	mov    %eax,-0x58(%ebp)
 10040e7:	7f 25                	jg     100410e <vsnprintf+0x17e>
 10040e9:	eb 00                	jmp    10040eb <vsnprintf+0x15b>
 10040eb:	8b 45 c0             	mov    -0x40(%ebp),%eax
 10040ee:	83 c0 9e             	add    $0xffffff9e,%eax
 10040f1:	89 c1                	mov    %eax,%ecx
 10040f3:	83 e9 13             	sub    $0x13,%ecx
 10040f6:	89 45 a4             	mov    %eax,-0x5c(%ebp)
 10040f9:	89 4d a0             	mov    %ecx,-0x60(%ebp)
 10040fc:	0f 87 5d 03 00 00    	ja     100445f <vsnprintf+0x4cf>
 1004102:	8b 45 a4             	mov    -0x5c(%ebp),%eax
 1004105:	8b 0c 85 10 b0 00 01 	mov    0x100b010(,%eax,4),%ecx
 100410c:	ff e1                	jmp    *%ecx
 100410e:	8b 45 c0             	mov    -0x40(%ebp),%eax
 1004111:	83 e8 78             	sub    $0x78,%eax
 1004114:	89 45 9c             	mov    %eax,-0x64(%ebp)
 1004117:	0f 84 52 02 00 00    	je     100436f <vsnprintf+0x3df>
 100411d:	e9 3d 03 00 00       	jmp    100445f <vsnprintf+0x4cf>
 1004122:	c6 45 df 30          	movb   $0x30,-0x21(%ebp)
 1004126:	e9 34 03 00 00       	jmp    100445f <vsnprintf+0x4cf>
 100412b:	8b 45 f8             	mov    -0x8(%ebp),%eax
 100412e:	89 c1                	mov    %eax,%ecx
 1004130:	83 c1 01             	add    $0x1,%ecx
 1004133:	89 4d f8             	mov    %ecx,-0x8(%ebp)
 1004136:	c6 00 30             	movb   $0x30,(%eax)
 1004139:	8b 45 f8             	mov    -0x8(%ebp),%eax
 100413c:	89 c1                	mov    %eax,%ecx
 100413e:	83 c1 01             	add    $0x1,%ecx
 1004141:	89 4d f8             	mov    %ecx,-0x8(%ebp)
 1004144:	c6 00 78             	movb   $0x78,(%eax)
 1004147:	8b 45 e4             	mov    -0x1c(%ebp),%eax
 100414a:	83 c0 01             	add    $0x1,%eax
 100414d:	89 45 e4             	mov    %eax,-0x1c(%ebp)
 1004150:	e9 0a 03 00 00       	jmp    100445f <vsnprintf+0x4cf>
 1004155:	eb 00                	jmp    1004157 <vsnprintf+0x1c7>
 1004157:	b0 00                	mov    $0x0,%al
 1004159:	8b 4d e4             	mov    -0x1c(%ebp),%ecx
 100415c:	8b 55 f4             	mov    -0xc(%ebp),%edx
 100415f:	0f be 0c 0a          	movsbl (%edx,%ecx,1),%ecx
 1004163:	83 e9 30             	sub    $0x30,%ecx
 1004166:	83 f9 09             	cmp    $0x9,%ecx
 1004169:	88 45 9b             	mov    %al,-0x65(%ebp)
 100416c:	7f 16                	jg     1004184 <vsnprintf+0x1f4>
 100416e:	8b 45 e4             	mov    -0x1c(%ebp),%eax
 1004171:	8b 4d f4             	mov    -0xc(%ebp),%ecx
 1004174:	0f be 04 01          	movsbl (%ecx,%eax,1),%eax
 1004178:	83 e8 30             	sub    $0x30,%eax
 100417b:	83 f8 00             	cmp    $0x0,%eax
 100417e:	0f 9d c2             	setge  %dl
 1004181:	88 55 9b             	mov    %dl,-0x65(%ebp)
 1004184:	8a 45 9b             	mov    -0x65(%ebp),%al
 1004187:	a8 01                	test   $0x1,%al
 1004189:	75 02                	jne    100418d <vsnprintf+0x1fd>
 100418b:	eb 21                	jmp    10041ae <vsnprintf+0x21e>
 100418d:	6b 45 d8 0a          	imul   $0xa,-0x28(%ebp),%eax
 1004191:	8b 4d e4             	mov    -0x1c(%ebp),%ecx
 1004194:	8b 55 f4             	mov    -0xc(%ebp),%edx
 1004197:	0f be 0c 0a          	movsbl (%edx,%ecx,1),%ecx
 100419b:	83 e9 30             	sub    $0x30,%ecx
 100419e:	01 c8                	add    %ecx,%eax
 10041a0:	89 45 d8             	mov    %eax,-0x28(%ebp)
 10041a3:	8b 45 e4             	mov    -0x1c(%ebp),%eax
 10041a6:	83 c0 01             	add    $0x1,%eax
 10041a9:	89 45 e4             	mov    %eax,-0x1c(%ebp)
 10041ac:	eb a9                	jmp    1004157 <vsnprintf+0x1c7>
 10041ae:	e9 ac 02 00 00       	jmp    100445f <vsnprintf+0x4cf>
 10041b3:	8b 45 f0             	mov    -0x10(%ebp),%eax
 10041b6:	89 c1                	mov    %eax,%ecx
 10041b8:	83 c1 04             	add    $0x4,%ecx
 10041bb:	89 4d f0             	mov    %ecx,-0x10(%ebp)
 10041be:	8b 00                	mov    (%eax),%eax
 10041c0:	89 45 d8             	mov    %eax,-0x28(%ebp)
 10041c3:	e9 97 02 00 00       	jmp    100445f <vsnprintf+0x4cf>
 10041c8:	8b 45 e4             	mov    -0x1c(%ebp),%eax
 10041cb:	89 c1                	mov    %eax,%ecx
 10041cd:	41                   	inc    %ecx
 10041ce:	89 4d e4             	mov    %ecx,-0x1c(%ebp)
 10041d1:	8b 4d f4             	mov    -0xc(%ebp),%ecx
 10041d4:	0f be 44 01 01       	movsbl 0x1(%ecx,%eax,1),%eax
 10041d9:	83 e8 2a             	sub    $0x2a,%eax
 10041dc:	89 45 94             	mov    %eax,-0x6c(%ebp)
 10041df:	75 14                	jne    10041f5 <vsnprintf+0x265>
 10041e1:	eb 00                	jmp    10041e3 <vsnprintf+0x253>
 10041e3:	8b 45 f0             	mov    -0x10(%ebp),%eax
 10041e6:	89 c1                	mov    %eax,%ecx
 10041e8:	83 c1 04             	add    $0x4,%ecx
 10041eb:	89 4d f0             	mov    %ecx,-0x10(%ebp)
 10041ee:	8b 00                	mov    (%eax),%eax
 10041f0:	89 45 d4             	mov    %eax,-0x2c(%ebp)
 10041f3:	eb 5b                	jmp    1004250 <vsnprintf+0x2c0>
 10041f5:	eb 00                	jmp    10041f7 <vsnprintf+0x267>
 10041f7:	b0 00                	mov    $0x0,%al
 10041f9:	8b 4d e4             	mov    -0x1c(%ebp),%ecx
 10041fc:	8b 55 f4             	mov    -0xc(%ebp),%edx
 10041ff:	0f be 0c 0a          	movsbl (%edx,%ecx,1),%ecx
 1004203:	83 e9 30             	sub    $0x30,%ecx
 1004206:	83 f9 09             	cmp    $0x9,%ecx
 1004209:	88 45 93             	mov    %al,-0x6d(%ebp)
 100420c:	7f 16                	jg     1004224 <vsnprintf+0x294>
 100420e:	8b 45 e4             	mov    -0x1c(%ebp),%eax
 1004211:	8b 4d f4             	mov    -0xc(%ebp),%ecx
 1004214:	0f be 04 01          	movsbl (%ecx,%eax,1),%eax
 1004218:	83 e8 30             	sub    $0x30,%eax
 100421b:	83 f8 00             	cmp    $0x0,%eax
 100421e:	0f 9d c2             	setge  %dl
 1004221:	88 55 93             	mov    %dl,-0x6d(%ebp)
 1004224:	8a 45 93             	mov    -0x6d(%ebp),%al
 1004227:	a8 01                	test   $0x1,%al
 1004229:	75 02                	jne    100422d <vsnprintf+0x29d>
 100422b:	eb 21                	jmp    100424e <vsnprintf+0x2be>
 100422d:	6b 45 d8 0a          	imul   $0xa,-0x28(%ebp),%eax
 1004231:	8b 4d e4             	mov    -0x1c(%ebp),%ecx
 1004234:	8b 55 f4             	mov    -0xc(%ebp),%edx
 1004237:	0f be 0c 0a          	movsbl (%edx,%ecx,1),%ecx
 100423b:	83 e9 30             	sub    $0x30,%ecx
 100423e:	01 c8                	add    %ecx,%eax
 1004240:	89 45 d8             	mov    %eax,-0x28(%ebp)
 1004243:	8b 45 e4             	mov    -0x1c(%ebp),%eax
 1004246:	83 c0 01             	add    $0x1,%eax
 1004249:	89 45 e4             	mov    %eax,-0x1c(%ebp)
 100424c:	eb a9                	jmp    10041f7 <vsnprintf+0x267>
 100424e:	eb 00                	jmp    1004250 <vsnprintf+0x2c0>
 1004250:	e9 0a 02 00 00       	jmp    100445f <vsnprintf+0x4cf>
 1004255:	8b 45 f0             	mov    -0x10(%ebp),%eax
 1004258:	89 c1                	mov    %eax,%ecx
 100425a:	83 c1 04             	add    $0x4,%ecx
 100425d:	89 4d f0             	mov    %ecx,-0x10(%ebp)
 1004260:	8b 00                	mov    (%eax),%eax
 1004262:	89 c1                	mov    %eax,%ecx
 1004264:	c1 f9 1f             	sar    $0x1f,%ecx
 1004267:	8b 55 f8             	mov    -0x8(%ebp),%edx
 100426a:	89 d6                	mov    %edx,%esi
 100426c:	83 c6 01             	add    $0x1,%esi
 100426f:	89 75 f8             	mov    %esi,-0x8(%ebp)
 1004272:	89 e6                	mov    %esp,%esi
 1004274:	89 56 08             	mov    %edx,0x8(%esi)
 1004277:	89 4e 04             	mov    %ecx,0x4(%esi)
 100427a:	89 06                	mov    %eax,(%esi)
 100427c:	c7 46 0c 0a 00 00 00 	movl   $0xa,0xc(%esi)
 1004283:	e8 c8 f7 ff ff       	call   1003a50 <itoa>
 1004288:	8b 4d f8             	mov    -0x8(%ebp),%ecx
 100428b:	29 c8                	sub    %ecx,%eax
 100428d:	89 45 d0             	mov    %eax,-0x30(%ebp)
 1004290:	8b 45 d0             	mov    -0x30(%ebp),%eax
 1004293:	8b 4d f8             	mov    -0x8(%ebp),%ecx
 1004296:	01 c1                	add    %eax,%ecx
 1004298:	89 4d f8             	mov    %ecx,-0x8(%ebp)
 100429b:	8b 45 d0             	mov    -0x30(%ebp),%eax
 100429e:	3b 45 d8             	cmp    -0x28(%ebp),%eax
 10042a1:	7d 1b                	jge    10042be <vsnprintf+0x32e>
 10042a3:	8a 45 df             	mov    -0x21(%ebp),%al
 10042a6:	8b 4d f8             	mov    -0x8(%ebp),%ecx
 10042a9:	89 ca                	mov    %ecx,%edx
 10042ab:	83 c2 01             	add    $0x1,%edx
 10042ae:	89 55 f8             	mov    %edx,-0x8(%ebp)
 10042b1:	88 01                	mov    %al,(%ecx)
 10042b3:	8b 4d d0             	mov    -0x30(%ebp),%ecx
 10042b6:	83 c1 01             	add    $0x1,%ecx
 10042b9:	89 4d d0             	mov    %ecx,-0x30(%ebp)
 10042bc:	eb dd                	jmp    100429b <vsnprintf+0x30b>
 10042be:	c7 45 e0 00 00 00 00 	movl   $0x0,-0x20(%ebp)
 10042c5:	e9 95 01 00 00       	jmp    100445f <vsnprintf+0x4cf>
 10042ca:	8b 45 f0             	mov    -0x10(%ebp),%eax
 10042cd:	89 c1                	mov    %eax,%ecx
 10042cf:	83 c1 04             	add    $0x4,%ecx
 10042d2:	89 4d f0             	mov    %ecx,-0x10(%ebp)
 10042d5:	8b 00                	mov    (%eax),%eax
 10042d7:	31 c9                	xor    %ecx,%ecx
 10042d9:	8b 55 f8             	mov    -0x8(%ebp),%edx
 10042dc:	89 e6                	mov    %esp,%esi
 10042de:	89 56 08             	mov    %edx,0x8(%esi)
 10042e1:	89 4e 04             	mov    %ecx,0x4(%esi)
 10042e4:	89 06                	mov    %eax,(%esi)
 10042e6:	c7 46 0c 0a 00 00 00 	movl   $0xa,0xc(%esi)
 10042ed:	e8 1e fa ff ff       	call   1003d10 <utoa>
 10042f2:	89 45 f8             	mov    %eax,-0x8(%ebp)
 10042f5:	c7 45 e0 00 00 00 00 	movl   $0x0,-0x20(%ebp)
 10042fc:	e9 5e 01 00 00       	jmp    100445f <vsnprintf+0x4cf>
 1004301:	8b 45 f0             	mov    -0x10(%ebp),%eax
 1004304:	89 c1                	mov    %eax,%ecx
 1004306:	83 c1 04             	add    $0x4,%ecx
 1004309:	89 4d f0             	mov    %ecx,-0x10(%ebp)
 100430c:	8b 00                	mov    (%eax),%eax
 100430e:	31 c9                	xor    %ecx,%ecx
 1004310:	8b 55 f8             	mov    -0x8(%ebp),%edx
 1004313:	89 e6                	mov    %esp,%esi
 1004315:	89 56 08             	mov    %edx,0x8(%esi)
 1004318:	89 4e 04             	mov    %ecx,0x4(%esi)
 100431b:	89 06                	mov    %eax,(%esi)
 100431d:	c7 46 0c 02 00 00 00 	movl   $0x2,0xc(%esi)
 1004324:	e8 e7 f9 ff ff       	call   1003d10 <utoa>
 1004329:	89 45 f8             	mov    %eax,-0x8(%ebp)
 100432c:	c7 45 e0 00 00 00 00 	movl   $0x0,-0x20(%ebp)
 1004333:	e9 27 01 00 00       	jmp    100445f <vsnprintf+0x4cf>
 1004338:	8b 45 f0             	mov    -0x10(%ebp),%eax
 100433b:	89 c1                	mov    %eax,%ecx
 100433d:	83 c1 04             	add    $0x4,%ecx
 1004340:	89 4d f0             	mov    %ecx,-0x10(%ebp)
 1004343:	8b 00                	mov    (%eax),%eax
 1004345:	31 c9                	xor    %ecx,%ecx
 1004347:	8b 55 f8             	mov    -0x8(%ebp),%edx
 100434a:	89 e6                	mov    %esp,%esi
 100434c:	89 56 08             	mov    %edx,0x8(%esi)
 100434f:	89 4e 04             	mov    %ecx,0x4(%esi)
 1004352:	89 06                	mov    %eax,(%esi)
 1004354:	c7 46 0c 08 00 00 00 	movl   $0x8,0xc(%esi)
 100435b:	e8 b0 f9 ff ff       	call   1003d10 <utoa>
 1004360:	89 45 f8             	mov    %eax,-0x8(%ebp)
 1004363:	c7 45 e0 00 00 00 00 	movl   $0x0,-0x20(%ebp)
 100436a:	e9 f0 00 00 00       	jmp    100445f <vsnprintf+0x4cf>
 100436f:	8b 45 f0             	mov    -0x10(%ebp),%eax
 1004372:	89 c1                	mov    %eax,%ecx
 1004374:	83 c1 04             	add    $0x4,%ecx
 1004377:	89 4d f0             	mov    %ecx,-0x10(%ebp)
 100437a:	8b 00                	mov    (%eax),%eax
 100437c:	31 c9                	xor    %ecx,%ecx
 100437e:	8b 55 f8             	mov    -0x8(%ebp),%edx
 1004381:	89 e6                	mov    %esp,%esi
 1004383:	89 56 08             	mov    %edx,0x8(%esi)
 1004386:	89 4e 04             	mov    %ecx,0x4(%esi)
 1004389:	89 06                	mov    %eax,(%esi)
 100438b:	c7 46 0c 10 00 00 00 	movl   $0x10,0xc(%esi)
 1004392:	e8 79 f9 ff ff       	call   1003d10 <utoa>
 1004397:	89 45 f8             	mov    %eax,-0x8(%ebp)
 100439a:	8b 45 f8             	mov    -0x8(%ebp),%eax
 100439d:	83 c0 01             	add    $0x1,%eax
 10043a0:	89 45 f8             	mov    %eax,-0x8(%ebp)
 10043a3:	c7 45 e0 00 00 00 00 	movl   $0x0,-0x20(%ebp)
 10043aa:	e9 b0 00 00 00       	jmp    100445f <vsnprintf+0x4cf>
 10043af:	8b 45 f8             	mov    -0x8(%ebp),%eax
 10043b2:	83 c0 01             	add    $0x1,%eax
 10043b5:	89 45 f8             	mov    %eax,-0x8(%ebp)
 10043b8:	c7 45 e0 00 00 00 00 	movl   $0x0,-0x20(%ebp)
 10043bf:	e9 9b 00 00 00       	jmp    100445f <vsnprintf+0x4cf>
 10043c4:	8b 45 f0             	mov    -0x10(%ebp),%eax
 10043c7:	89 c1                	mov    %eax,%ecx
 10043c9:	83 c1 04             	add    $0x4,%ecx
 10043cc:	89 4d f0             	mov    %ecx,-0x10(%ebp)
 10043cf:	8b 00                	mov    (%eax),%eax
 10043d1:	25 ff 00 00 00       	and    $0xff,%eax
 10043d6:	88 c2                	mov    %al,%dl
 10043d8:	8b 45 f8             	mov    -0x8(%ebp),%eax
 10043db:	89 c1                	mov    %eax,%ecx
 10043dd:	83 c1 01             	add    $0x1,%ecx
 10043e0:	89 4d f8             	mov    %ecx,-0x8(%ebp)
 10043e3:	88 10                	mov    %dl,(%eax)
 10043e5:	c7 45 e0 00 00 00 00 	movl   $0x0,-0x20(%ebp)
 10043ec:	eb 71                	jmp    100445f <vsnprintf+0x4cf>
 10043ee:	8b 45 f0             	mov    -0x10(%ebp),%eax
 10043f1:	89 c1                	mov    %eax,%ecx
 10043f3:	83 c1 04             	add    $0x4,%ecx
 10043f6:	89 4d f0             	mov    %ecx,-0x10(%ebp)
 10043f9:	8b 00                	mov    (%eax),%eax
 10043fb:	89 45 cc             	mov    %eax,-0x34(%ebp)
 10043fe:	8b 45 f8             	mov    -0x8(%ebp),%eax
 1004401:	8b 4d cc             	mov    -0x34(%ebp),%ecx
 1004404:	8b 55 cc             	mov    -0x34(%ebp),%edx
 1004407:	89 14 24             	mov    %edx,(%esp)
 100440a:	89 45 8c             	mov    %eax,-0x74(%ebp)
 100440d:	89 4d 88             	mov    %ecx,-0x78(%ebp)
 1004410:	e8 3b f5 ff ff       	call   1003950 <strlen>
 1004415:	8b 4d 8c             	mov    -0x74(%ebp),%ecx
 1004418:	89 0c 24             	mov    %ecx,(%esp)
 100441b:	8b 4d 88             	mov    -0x78(%ebp),%ecx
 100441e:	89 4c 24 04          	mov    %ecx,0x4(%esp)
 1004422:	89 44 24 08          	mov    %eax,0x8(%esp)
 1004426:	e8 85 f3 ff ff       	call   10037b0 <memcpy>
 100442b:	8b 4d cc             	mov    -0x34(%ebp),%ecx
 100442e:	89 0c 24             	mov    %ecx,(%esp)
 1004431:	89 45 84             	mov    %eax,-0x7c(%ebp)
 1004434:	e8 17 f5 ff ff       	call   1003950 <strlen>
 1004439:	8b 4d f8             	mov    -0x8(%ebp),%ecx
 100443c:	01 c1                	add    %eax,%ecx
 100443e:	89 4d f8             	mov    %ecx,-0x8(%ebp)
 1004441:	c7 45 e0 00 00 00 00 	movl   $0x0,-0x20(%ebp)
 1004448:	eb 15                	jmp    100445f <vsnprintf+0x4cf>
 100444a:	8b 45 f8             	mov    -0x8(%ebp),%eax
 100444d:	89 c1                	mov    %eax,%ecx
 100444f:	83 c1 01             	add    $0x1,%ecx
 1004452:	89 4d f8             	mov    %ecx,-0x8(%ebp)
 1004455:	c6 00 25             	movb   $0x25,(%eax)
 1004458:	c7 45 e0 00 00 00 00 	movl   $0x0,-0x20(%ebp)
 100445f:	e9 13 fc ff ff       	jmp    1004077 <vsnprintf+0xe7>
 1004464:	eb 00                	jmp    1004466 <vsnprintf+0x4d6>
 1004466:	eb 00                	jmp    1004468 <vsnprintf+0x4d8>
 1004468:	8b 45 e4             	mov    -0x1c(%ebp),%eax
 100446b:	83 c0 01             	add    $0x1,%eax
 100446e:	89 45 e4             	mov    %eax,-0x1c(%ebp)
 1004471:	e9 98 fb ff ff       	jmp    100400e <vsnprintf+0x7e>
 1004476:	b8 00 00 00 00       	mov    $0x0,%eax
 100447b:	8b 4d f8             	mov    -0x8(%ebp),%ecx
 100447e:	c6 01 00             	movb   $0x0,(%ecx)
 1004481:	81 c4 88 00 00 00    	add    $0x88,%esp
 1004487:	5e                   	pop    %esi
 1004488:	5d                   	pop    %ebp
 1004489:	c3                   	ret    
 100448a:	8d b6 00 00 00 00    	lea    0x0(%esi),%esi

01004490 <sprintf>:
 1004490:	55                   	push   %ebp
 1004491:	89 e5                	mov    %esp,%ebp
 1004493:	56                   	push   %esi
 1004494:	83 ec 1c             	sub    $0x1c,%esp
 1004497:	8b 45 0c             	mov    0xc(%ebp),%eax
 100449a:	8b 4d 08             	mov    0x8(%ebp),%ecx
 100449d:	89 4d f8             	mov    %ecx,-0x8(%ebp)
 10044a0:	89 45 f4             	mov    %eax,-0xc(%ebp)
 10044a3:	8d 45 10             	lea    0x10(%ebp),%eax
 10044a6:	89 45 f0             	mov    %eax,-0x10(%ebp)
 10044a9:	8b 4d f8             	mov    -0x8(%ebp),%ecx
 10044ac:	8b 55 f4             	mov    -0xc(%ebp),%edx
 10044af:	89 e6                	mov    %esp,%esi
 10044b1:	89 46 08             	mov    %eax,0x8(%esi)
 10044b4:	89 56 04             	mov    %edx,0x4(%esi)
 10044b7:	89 0e                	mov    %ecx,(%esi)
 10044b9:	e8 d2 fa ff ff       	call   1003f90 <vsnprintf>
 10044be:	31 c9                	xor    %ecx,%ecx
 10044c0:	89 45 ec             	mov    %eax,-0x14(%ebp)
 10044c3:	89 c8                	mov    %ecx,%eax
 10044c5:	83 c4 1c             	add    $0x1c,%esp
 10044c8:	5e                   	pop    %esi
 10044c9:	5d                   	pop    %ebp
 10044ca:	c3                   	ret    
 10044cb:	66 90                	xchg   %ax,%ax
 10044cd:	66 90                	xchg   %ax,%ax
 10044cf:	90                   	nop

010044d0 <SysMan_RegisterSystem>:
 10044d0:	55                   	push   %ebp
 10044d1:	89 e5                	mov    %esp,%ebp
 10044d3:	56                   	push   %esi
 10044d4:	83 ec 24             	sub    $0x24,%esp
 10044d7:	a1 14 e0 82 01       	mov    0x182e014,%eax
 10044dc:	8b 0d 10 e0 82 01    	mov    0x182e010,%ecx
 10044e2:	83 c1 ff             	add    $0xffffffff,%ecx
 10044e5:	83 d0 ff             	adc    $0xffffffff,%eax
 10044e8:	83 e9 1f             	sub    $0x1f,%ecx
 10044eb:	0f 97 c2             	seta   %dl
 10044ee:	85 c0                	test   %eax,%eax
 10044f0:	0f 95 c6             	setne  %dh
 10044f3:	88 75 f7             	mov    %dh,-0x9(%ebp)
 10044f6:	89 4d f0             	mov    %ecx,-0x10(%ebp)
 10044f9:	88 55 ef             	mov    %dl,-0x11(%ebp)
 10044fc:	74 06                	je     1004504 <SysMan_RegisterSystem+0x34>
 10044fe:	8a 45 f7             	mov    -0x9(%ebp),%al
 1004501:	88 45 ef             	mov    %al,-0x11(%ebp)
 1004504:	8a 45 ef             	mov    -0x11(%ebp),%al
 1004507:	84 c0                	test   %al,%al
 1004509:	0f 85 93 00 00 00    	jne    10045a2 <SysMan_RegisterSystem+0xd2>
 100450f:	eb 00                	jmp    1004511 <SysMan_RegisterSystem+0x41>
 1004511:	8d 05 84 00 87 03    	lea    0x3870084,%eax
 1004517:	8b 0d 10 e0 82 01    	mov    0x182e010,%ecx
 100451d:	69 c9 1c 01 00 00    	imul   $0x11c,%ecx,%ecx
 1004523:	8d 89 68 ff 86 03    	lea    0x386ff68(%ecx),%ecx
 1004529:	89 e2                	mov    %esp,%edx
 100452b:	89 0a                	mov    %ecx,(%edx)
 100452d:	c7 42 08 1c 01 00 00 	movl   $0x11c,0x8(%edx)
 1004534:	c7 42 04 00 00 00 00 	movl   $0x0,0x4(%edx)
 100453b:	89 45 e8             	mov    %eax,-0x18(%ebp)
 100453e:	e8 bd f2 ff ff       	call   1003800 <memset>
 1004543:	8b 0d 14 e0 82 01    	mov    0x182e014,%ecx
 1004549:	8b 15 10 e0 82 01    	mov    0x182e010,%edx
 100454f:	69 f2 1c 01 00 00    	imul   $0x11c,%edx,%esi
 1004555:	89 8e 80 00 87 03    	mov    %ecx,0x3870080(%esi)
 100455b:	89 96 7c 00 87 03    	mov    %edx,0x387007c(%esi)
 1004561:	8b 0d 10 e0 82 01    	mov    0x182e010,%ecx
 1004567:	c6 81 63 00 87 03 00 	movb   $0x0,0x3870063(%ecx)
 100456e:	8b 0d 14 e0 82 01    	mov    0x182e014,%ecx
 1004574:	8b 15 10 e0 82 01    	mov    0x182e010,%edx
 100457a:	89 d6                	mov    %edx,%esi
 100457c:	83 c6 01             	add    $0x1,%esi
 100457f:	83 d1 00             	adc    $0x0,%ecx
 1004582:	89 35 10 e0 82 01    	mov    %esi,0x182e010
 1004588:	89 0d 14 e0 82 01    	mov    %ecx,0x182e014
 100458e:	4a                   	dec    %edx
 100458f:	69 ca 1c 01 00 00    	imul   $0x11c,%edx,%ecx
 1004595:	8b 55 e8             	mov    -0x18(%ebp),%edx
 1004598:	01 ca                	add    %ecx,%edx
 100459a:	89 55 f8             	mov    %edx,-0x8(%ebp)
 100459d:	89 45 e4             	mov    %eax,-0x1c(%ebp)
 10045a0:	eb 07                	jmp    10045a9 <SysMan_RegisterSystem+0xd9>
 10045a2:	c7 45 f8 00 00 00 00 	movl   $0x0,-0x8(%ebp)
 10045a9:	8b 45 f8             	mov    -0x8(%ebp),%eax
 10045ac:	83 c4 24             	add    $0x24,%esp
 10045af:	5e                   	pop    %esi
 10045b0:	5d                   	pop    %ebp
 10045b1:	c3                   	ret    
 10045b2:	8d b4 26 00 00 00 00 	lea    0x0(%esi,%eiz,1),%esi
 10045b9:	8d bc 27 00 00 00 00 	lea    0x0(%edi,%eiz,1),%edi

010045c0 <SysMan_GetSystemData>:
 10045c0:	55                   	push   %ebp
 10045c1:	89 e5                	mov    %esp,%ebp
 10045c3:	53                   	push   %ebx
 10045c4:	56                   	push   %esi
 10045c5:	83 e4 f8             	and    $0xfffffff8,%esp
 10045c8:	83 ec 40             	sub    $0x40,%esp
 10045cb:	8b 45 0c             	mov    0xc(%ebp),%eax
 10045ce:	8b 4d 08             	mov    0x8(%ebp),%ecx
 10045d1:	8b 55 10             	mov    0x10(%ebp),%edx
 10045d4:	89 4c 24 38          	mov    %ecx,0x38(%esp)
 10045d8:	89 44 24 3c          	mov    %eax,0x3c(%esp)
 10045dc:	89 54 24 34          	mov    %edx,0x34(%esp)
 10045e0:	83 7c 24 34 00       	cmpl   $0x0,0x34(%esp)
 10045e5:	74 7c                	je     1004663 <SysMan_GetSystemData+0xa3>
 10045e7:	8b 44 24 38          	mov    0x38(%esp),%eax
 10045eb:	8b 4c 24 3c          	mov    0x3c(%esp),%ecx
 10045ef:	8b 15 14 e0 82 01    	mov    0x182e014,%edx
 10045f5:	8b 35 10 e0 82 01    	mov    0x182e010,%esi
 10045fb:	29 f0                	sub    %esi,%eax
 10045fd:	0f 93 c3             	setae  %bl
 1004600:	29 d1                	sub    %edx,%ecx
 1004602:	0f 93 c7             	setae  %bh
 1004605:	89 44 24 30          	mov    %eax,0x30(%esp)
 1004609:	88 7c 24 2f          	mov    %bh,0x2f(%esp)
 100460d:	89 4c 24 28          	mov    %ecx,0x28(%esp)
 1004611:	88 5c 24 27          	mov    %bl,0x27(%esp)
 1004615:	74 08                	je     100461f <SysMan_GetSystemData+0x5f>
 1004617:	8a 44 24 2f          	mov    0x2f(%esp),%al
 100461b:	88 44 24 27          	mov    %al,0x27(%esp)
 100461f:	8a 44 24 27          	mov    0x27(%esp),%al
 1004623:	84 c0                	test   %al,%al
 1004625:	75 3c                	jne    1004663 <SysMan_GetSystemData+0xa3>
 1004627:	eb 00                	jmp    1004629 <SysMan_GetSystemData+0x69>
 1004629:	b8 1c 01 00 00       	mov    $0x11c,%eax
 100462e:	8d 0d 84 00 87 03    	lea    0x3870084,%ecx
 1004634:	8b 54 24 34          	mov    0x34(%esp),%edx
 1004638:	8b 74 24 38          	mov    0x38(%esp),%esi
 100463c:	4e                   	dec    %esi
 100463d:	69 f6 1c 01 00 00    	imul   $0x11c,%esi,%esi
 1004643:	01 f1                	add    %esi,%ecx
 1004645:	89 14 24             	mov    %edx,(%esp)
 1004648:	89 4c 24 04          	mov    %ecx,0x4(%esp)
 100464c:	c7 44 24 08 1c 01 00 	movl   $0x11c,0x8(%esp)
 1004653:	00 
 1004654:	89 44 24 20          	mov    %eax,0x20(%esp)
 1004658:	e8 53 f1 ff ff       	call   10037b0 <memcpy>
 100465d:	89 44 24 1c          	mov    %eax,0x1c(%esp)
 1004661:	eb 3b                	jmp    100469e <SysMan_GetSystemData+0xde>
 1004663:	83 7c 24 34 00       	cmpl   $0x0,0x34(%esp)
 1004668:	74 32                	je     100469c <SysMan_GetSystemData+0xdc>
 100466a:	b8 ff ff ff ff       	mov    $0xffffffff,%eax
 100466f:	b9 1c 01 00 00       	mov    $0x11c,%ecx
 1004674:	8b 54 24 34          	mov    0x34(%esp),%edx
 1004678:	89 14 24             	mov    %edx,(%esp)
 100467b:	c7 44 24 04 ff ff ff 	movl   $0xffffffff,0x4(%esp)
 1004682:	ff 
 1004683:	c7 44 24 08 1c 01 00 	movl   $0x11c,0x8(%esp)
 100468a:	00 
 100468b:	89 44 24 18          	mov    %eax,0x18(%esp)
 100468f:	89 4c 24 14          	mov    %ecx,0x14(%esp)
 1004693:	e8 68 f1 ff ff       	call   1003800 <memset>
 1004698:	89 44 24 10          	mov    %eax,0x10(%esp)
 100469c:	eb 00                	jmp    100469e <SysMan_GetSystemData+0xde>
 100469e:	8d 65 f8             	lea    -0x8(%ebp),%esp
 10046a1:	5e                   	pop    %esi
 10046a2:	5b                   	pop    %ebx
 10046a3:	5d                   	pop    %ebp
 10046a4:	c3                   	ret    
 10046a5:	8d 74 26 00          	lea    0x0(%esi,%eiz,1),%esi
 10046a9:	8d bc 27 00 00 00 00 	lea    0x0(%edi,%eiz,1),%edi

010046b0 <SysMan_StartSystem>:
 10046b0:	55                   	push   %ebp
 10046b1:	89 e5                	mov    %esp,%ebp
 10046b3:	53                   	push   %ebx
 10046b4:	56                   	push   %esi
 10046b5:	83 e4 f8             	and    $0xfffffff8,%esp
 10046b8:	83 ec 58             	sub    $0x58,%esp
 10046bb:	8b 45 0c             	mov    0xc(%ebp),%eax
 10046be:	8b 4d 08             	mov    0x8(%ebp),%ecx
 10046c1:	89 4c 24 50          	mov    %ecx,0x50(%esp)
 10046c5:	89 44 24 54          	mov    %eax,0x54(%esp)
 10046c9:	c7 44 24 4c 00 00 00 	movl   $0x0,0x4c(%esp)
 10046d0:	00 
 10046d1:	c7 44 24 48 00 00 00 	movl   $0x0,0x48(%esp)
 10046d8:	00 
 10046d9:	c7 44 24 44 00 00 00 	movl   $0x0,0x44(%esp)
 10046e0:	00 
 10046e1:	c7 44 24 40 00 00 00 	movl   $0x0,0x40(%esp)
 10046e8:	00 
 10046e9:	c7 44 24 3c ff ff ff 	movl   $0xffffffff,0x3c(%esp)
 10046f0:	ff 
 10046f1:	c7 44 24 38 ff ff ff 	movl   $0xffffffff,0x38(%esp)
 10046f8:	ff 
 10046f9:	8b 44 24 50          	mov    0x50(%esp),%eax
 10046fd:	8b 4c 24 54          	mov    0x54(%esp),%ecx
 1004701:	83 c0 ff             	add    $0xffffffff,%eax
 1004704:	83 d1 ff             	adc    $0xffffffff,%ecx
 1004707:	89 44 24 50          	mov    %eax,0x50(%esp)
 100470b:	89 4c 24 54          	mov    %ecx,0x54(%esp)
 100470f:	8b 44 24 50          	mov    0x50(%esp),%eax
 1004713:	c6 04 05 64 00 87 03 	movb   $0x1,0x3870064(,%eax,1)
 100471a:	01 
 100471b:	b0 00                	mov    $0x0,%al
 100471d:	8b 4c 24 48          	mov    0x48(%esp),%ecx
 1004721:	8b 54 24 50          	mov    0x50(%esp),%edx
 1004725:	69 d2 1c 01 00 00    	imul   $0x11c,%edx,%edx
 100472b:	8b b4 ca 98 00 87 03 	mov    0x3870098(%edx,%ecx,8),%esi
 1004732:	8b 8c ca 94 00 87 03 	mov    0x3870094(%edx,%ecx,8),%ecx
 1004739:	31 d2                	xor    %edx,%edx
 100473b:	88 d4                	mov    %dl,%ah
 100473d:	09 f1                	or     %esi,%ecx
 100473f:	88 44 24 2b          	mov    %al,0x2b(%esp)
 1004743:	89 4c 24 24          	mov    %ecx,0x24(%esp)
 1004747:	88 64 24 23          	mov    %ah,0x23(%esp)
 100474b:	74 34                	je     1004781 <SysMan_StartSystem+0xd1>
 100474d:	eb 00                	jmp    100474f <SysMan_StartSystem+0x9f>
 100474f:	8b 44 24 48          	mov    0x48(%esp),%eax
 1004753:	8b 4c 24 4c          	mov    0x4c(%esp),%ecx
 1004757:	83 e8 1f             	sub    $0x1f,%eax
 100475a:	0f 92 c2             	setb   %dl
 100475d:	31 db                	xor    %ebx,%ebx
 100475f:	85 c9                	test   %ecx,%ecx
 1004761:	88 de                	mov    %bl,%dh
 1004763:	88 74 24 22          	mov    %dh,0x22(%esp)
 1004767:	89 44 24 1c          	mov    %eax,0x1c(%esp)
 100476b:	88 54 24 1b          	mov    %dl,0x1b(%esp)
 100476f:	74 08                	je     1004779 <SysMan_StartSystem+0xc9>
 1004771:	8a 44 24 22          	mov    0x22(%esp),%al
 1004775:	88 44 24 1b          	mov    %al,0x1b(%esp)
 1004779:	8a 44 24 1b          	mov    0x1b(%esp),%al
 100477d:	88 44 24 23          	mov    %al,0x23(%esp)
 1004781:	8a 44 24 23          	mov    0x23(%esp),%al
 1004785:	a8 01                	test   $0x1,%al
 1004787:	75 05                	jne    100478e <SysMan_StartSystem+0xde>
 1004789:	e9 ff 00 00 00       	jmp    100488d <SysMan_StartSystem+0x1dd>
 100478e:	8b 44 24 48          	mov    0x48(%esp),%eax
 1004792:	8b 4c 24 50          	mov    0x50(%esp),%ecx
 1004796:	69 c9 1c 01 00 00    	imul   $0x11c,%ecx,%ecx
 100479c:	8b 94 c1 98 00 87 03 	mov    0x3870098(%ecx,%eax,8),%edx
 10047a3:	8b 84 c1 94 00 87 03 	mov    0x3870094(%ecx,%eax,8),%eax
 10047aa:	83 c0 ff             	add    $0xffffffff,%eax
 10047ad:	83 d2 ff             	adc    $0xffffffff,%edx
 10047b0:	89 44 24 30          	mov    %eax,0x30(%esp)
 10047b4:	89 54 24 34          	mov    %edx,0x34(%esp)
 10047b8:	8b 44 24 30          	mov    0x30(%esp),%eax
 10047bc:	0f b6 04 05 64 00 87 	movzbl 0x3870064(,%eax,1),%eax
 10047c3:	03 
 10047c4:	83 f8 00             	cmp    $0x0,%eax
 10047c7:	74 33                	je     10047fc <SysMan_StartSystem+0x14c>
 10047c9:	8d 05 84 00 87 03    	lea    0x3870084,%eax
 10047cf:	8b 4c 24 30          	mov    0x30(%esp),%ecx
 10047d3:	69 c9 1c 01 00 00    	imul   $0x11c,%ecx,%ecx
 10047d9:	01 c8                	add    %ecx,%eax
 10047db:	83 b8 08 01 00 00 00 	cmpl   $0x0,0x108(%eax)
 10047e2:	75 18                	jne    10047fc <SysMan_StartSystem+0x14c>
 10047e4:	8b 44 24 40          	mov    0x40(%esp),%eax
 10047e8:	8b 4c 24 44          	mov    0x44(%esp),%ecx
 10047ec:	83 c0 01             	add    $0x1,%eax
 10047ef:	83 d1 00             	adc    $0x0,%ecx
 10047f2:	89 44 24 40          	mov    %eax,0x40(%esp)
 10047f6:	89 4c 24 44          	mov    %ecx,0x44(%esp)
 10047fa:	eb 74                	jmp    1004870 <SysMan_StartSystem+0x1c0>
 10047fc:	8b 44 24 30          	mov    0x30(%esp),%eax
 1004800:	80 3c 05 64 00 87 03 	cmpb   $0x0,0x3870064(,%eax,1)
 1004807:	00 
 1004808:	74 62                	je     100486c <SysMan_StartSystem+0x1bc>
 100480a:	8b 44 24 30          	mov    0x30(%esp),%eax
 100480e:	8b 4c 24 34          	mov    0x34(%esp),%ecx
 1004812:	8b 54 24 38          	mov    0x38(%esp),%edx
 1004816:	8b 74 24 3c          	mov    0x3c(%esp),%esi
 100481a:	31 f1                	xor    %esi,%ecx
 100481c:	31 d0                	xor    %edx,%eax
 100481e:	09 c8                	or     %ecx,%eax
 1004820:	89 44 24 14          	mov    %eax,0x14(%esp)
 1004824:	75 04                	jne    100482a <SysMan_StartSystem+0x17a>
 1004826:	eb 00                	jmp    1004828 <SysMan_StartSystem+0x178>
 1004828:	eb 63                	jmp    100488d <SysMan_StartSystem+0x1dd>
 100482a:	8b 44 24 30          	mov    0x30(%esp),%eax
 100482e:	8b 4c 24 34          	mov    0x34(%esp),%ecx
 1004832:	83 c0 01             	add    $0x1,%eax
 1004835:	83 d1 00             	adc    $0x0,%ecx
 1004838:	89 e2                	mov    %esp,%edx
 100483a:	89 4a 04             	mov    %ecx,0x4(%edx)
 100483d:	89 02                	mov    %eax,(%edx)
 100483f:	e8 6c fe ff ff       	call   10046b0 <SysMan_StartSystem>
 1004844:	8b 44 24 30          	mov    0x30(%esp),%eax
 1004848:	8b 4c 24 34          	mov    0x34(%esp),%ecx
 100484c:	89 4c 24 3c          	mov    %ecx,0x3c(%esp)
 1004850:	89 44 24 38          	mov    %eax,0x38(%esp)
 1004854:	8b 44 24 48          	mov    0x48(%esp),%eax
 1004858:	8b 4c 24 4c          	mov    0x4c(%esp),%ecx
 100485c:	83 c0 ff             	add    $0xffffffff,%eax
 100485f:	83 d1 ff             	adc    $0xffffffff,%ecx
 1004862:	89 44 24 48          	mov    %eax,0x48(%esp)
 1004866:	89 4c 24 4c          	mov    %ecx,0x4c(%esp)
 100486a:	eb 02                	jmp    100486e <SysMan_StartSystem+0x1be>
 100486c:	eb 1f                	jmp    100488d <SysMan_StartSystem+0x1dd>
 100486e:	eb 00                	jmp    1004870 <SysMan_StartSystem+0x1c0>
 1004870:	eb 00                	jmp    1004872 <SysMan_StartSystem+0x1c2>
 1004872:	8b 44 24 48          	mov    0x48(%esp),%eax
 1004876:	8b 4c 24 4c          	mov    0x4c(%esp),%ecx
 100487a:	83 c0 01             	add    $0x1,%eax
 100487d:	83 d1 00             	adc    $0x0,%ecx
 1004880:	89 44 24 48          	mov    %eax,0x48(%esp)
 1004884:	89 4c 24 4c          	mov    %ecx,0x4c(%esp)
 1004888:	e9 8e fe ff ff       	jmp    100471b <SysMan_StartSystem+0x6b>
 100488d:	8b 44 24 40          	mov    0x40(%esp),%eax
 1004891:	8b 4c 24 44          	mov    0x44(%esp),%ecx
 1004895:	8b 54 24 48          	mov    0x48(%esp),%edx
 1004899:	8b 74 24 4c          	mov    0x4c(%esp),%esi
 100489d:	31 f1                	xor    %esi,%ecx
 100489f:	31 d0                	xor    %edx,%eax
 10048a1:	09 c8                	or     %ecx,%eax
 10048a3:	89 44 24 10          	mov    %eax,0x10(%esp)
 10048a7:	0f 85 98 00 00 00    	jne    1004945 <SysMan_StartSystem+0x295>
 10048ad:	eb 00                	jmp    10048af <SysMan_StartSystem+0x1ff>
 10048af:	8d 05 84 00 87 03    	lea    0x3870084,%eax
 10048b5:	8b 4c 24 50          	mov    0x50(%esp),%ecx
 10048b9:	69 c9 1c 01 00 00    	imul   $0x11c,%ecx,%ecx
 10048bf:	8b 89 8c 01 87 03    	mov    0x387018c(%ecx),%ecx
 10048c5:	89 44 24 0c          	mov    %eax,0xc(%esp)
 10048c9:	ff d1                	call   *%ecx
 10048cb:	89 44 24 2c          	mov    %eax,0x2c(%esp)
 10048cf:	8b 44 24 50          	mov    0x50(%esp),%eax
 10048d3:	69 c0 1c 01 00 00    	imul   $0x11c,%eax,%eax
 10048d9:	8b 4c 24 0c          	mov    0xc(%esp),%ecx
 10048dd:	01 c1                	add    %eax,%ecx
 10048df:	83 b9 0c 01 00 00 00 	cmpl   $0x0,0x10c(%ecx)
 10048e6:	74 21                	je     1004909 <SysMan_StartSystem+0x259>
 10048e8:	8d 05 84 00 87 03    	lea    0x3870084,%eax
 10048ee:	8b 4c 24 50          	mov    0x50(%esp),%ecx
 10048f2:	69 c9 1c 01 00 00    	imul   $0x11c,%ecx,%ecx
 10048f8:	01 c8                	add    %ecx,%eax
 10048fa:	8b 80 0c 01 00 00    	mov    0x10c(%eax),%eax
 1004900:	8b 4c 24 2c          	mov    0x2c(%esp),%ecx
 1004904:	89 0c 24             	mov    %ecx,(%esp)
 1004907:	ff d0                	call   *%eax
 1004909:	8d 05 16 45 7f 01    	lea    0x17f4516,%eax
 100490f:	8d 0d 84 00 87 03    	lea    0x3870084,%ecx
 1004915:	8b 54 24 50          	mov    0x50(%esp),%edx
 1004919:	69 d2 1c 01 00 00    	imul   $0x11c,%edx,%edx
 100491f:	c7 82 8c 01 87 03 00 	movl   $0x0,0x387018c(%edx)
 1004926:	00 00 00 
 1004929:	8b 54 24 50          	mov    0x50(%esp),%edx
 100492d:	69 d2 1c 01 00 00    	imul   $0x11c,%edx,%edx
 1004933:	01 d1                	add    %edx,%ecx
 1004935:	89 04 24             	mov    %eax,(%esp)
 1004938:	89 4c 24 04          	mov    %ecx,0x4(%esp)
 100493c:	e8 df c3 ff ff       	call   1000d20 <COM_WriteStr>
 1004941:	89 44 24 08          	mov    %eax,0x8(%esp)
 1004945:	8d 65 f8             	lea    -0x8(%ebp),%esp
 1004948:	5e                   	pop    %esi
 1004949:	5b                   	pop    %ebx
 100494a:	5d                   	pop    %ebp
 100494b:	c3                   	ret    
 100494c:	66 90                	xchg   %ax,%ax
 100494e:	66 90                	xchg   %ax,%ax

01004950 <PIC_Initialize>:
 1004950:	55                   	push   %ebp
 1004951:	89 e5                	mov    %esp,%ebp
 1004953:	53                   	push   %ebx
 1004954:	57                   	push   %edi
 1004955:	56                   	push   %esi
 1004956:	83 ec 24             	sub    $0x24,%esp
 1004959:	b8 20 00 00 00       	mov    $0x20,%eax
 100495e:	b9 28 00 00 00       	mov    $0x28,%ecx
 1004963:	c7 04 24 20 00 00 00 	movl   $0x20,(%esp)
 100496a:	c7 44 24 04 28 00 00 	movl   $0x28,0x4(%esp)
 1004971:	00 
 1004972:	89 45 ec             	mov    %eax,-0x14(%ebp)
 1004975:	89 4d e8             	mov    %ecx,-0x18(%ebp)
 1004978:	e8 a3 00 00 00       	call   1004a20 <PIC_SetOffset>
 100497d:	c7 45 f0 20 00 00 00 	movl   $0x20,-0x10(%ebp)
 1004984:	83 7d f0 30          	cmpl   $0x30,-0x10(%ebp)
 1004988:	7d 7f                	jge    1004a09 <PIC_Initialize+0xb9>
 100498a:	8d 05 58 b0 84 01    	lea    0x184b058,%eax
 1004990:	6b 4d f0 30          	imul   $0x30,-0x10(%ebp),%ecx
 1004994:	01 c8                	add    %ecx,%eax
 1004996:	8b 4d f0             	mov    -0x10(%ebp),%ecx
 1004999:	88 ca                	mov    %cl,%dl
 100499b:	8b 4d f0             	mov    -0x10(%ebp),%ecx
 100499e:	83 e9 20             	sub    $0x20,%ecx
 10049a1:	88 ce                	mov    %cl,%dh
 10049a3:	89 04 24             	mov    %eax,(%esp)
 10049a6:	0f b6 c2             	movzbl %dl,%eax
 10049a9:	89 44 24 04          	mov    %eax,0x4(%esp)
 10049ad:	0f b6 c6             	movzbl %dh,%eax
 10049b0:	89 44 24 08          	mov    %eax,0x8(%esp)
 10049b4:	e8 07 02 00 00       	call   1004bc0 <PIC_FillHWInterruptHandler>
 10049b9:	b8 08 00 00 00       	mov    $0x8,%eax
 10049be:	b9 8e 00 00 00       	mov    $0x8e,%ecx
 10049c3:	8d 35 58 b0 84 01    	lea    0x184b058,%esi
 10049c9:	8b 7d f0             	mov    -0x10(%ebp),%edi
 10049cc:	89 fb                	mov    %edi,%ebx
 10049ce:	88 da                	mov    %bl,%dl
 10049d0:	6b 7d f0 30          	imul   $0x30,-0x10(%ebp),%edi
 10049d4:	01 fe                	add    %edi,%esi
 10049d6:	0f b6 fa             	movzbl %dl,%edi
 10049d9:	89 3c 24             	mov    %edi,(%esp)
 10049dc:	89 74 24 04          	mov    %esi,0x4(%esp)
 10049e0:	c7 44 24 08 08 00 00 	movl   $0x8,0x8(%esp)
 10049e7:	00 
 10049e8:	c7 44 24 0c 8e 00 00 	movl   $0x8e,0xc(%esp)
 10049ef:	00 
 10049f0:	89 45 e4             	mov    %eax,-0x1c(%ebp)
 10049f3:	89 4d e0             	mov    %ecx,-0x20(%ebp)
 10049f6:	e8 85 be ff ff       	call   1000880 <IDT_SetEntry>
 10049fb:	8b 45 f0             	mov    -0x10(%ebp),%eax
 10049fe:	83 c0 01             	add    $0x1,%eax
 1004a01:	89 45 f0             	mov    %eax,-0x10(%ebp)
 1004a04:	e9 7b ff ff ff       	jmp    1004984 <PIC_Initialize+0x34>
 1004a09:	b8 00 00 00 00       	mov    $0x0,%eax
 1004a0e:	83 c4 24             	add    $0x24,%esp
 1004a11:	5e                   	pop    %esi
 1004a12:	5f                   	pop    %edi
 1004a13:	5b                   	pop    %ebx
 1004a14:	5d                   	pop    %ebp
 1004a15:	c3                   	ret    
 1004a16:	8d 76 00             	lea    0x0(%esi),%esi
 1004a19:	8d bc 27 00 00 00 00 	lea    0x0(%edi,%eiz,1),%edi

01004a20 <PIC_SetOffset>:
 1004a20:	55                   	push   %ebp
 1004a21:	89 e5                	mov    %esp,%ebp
 1004a23:	83 ec 5c             	sub    $0x5c,%esp
 1004a26:	8b 45 0c             	mov    0xc(%ebp),%eax
 1004a29:	8b 4d 08             	mov    0x8(%ebp),%ecx
 1004a2c:	ba 21 00 00 00       	mov    $0x21,%edx
 1004a31:	89 4d fc             	mov    %ecx,-0x4(%ebp)
 1004a34:	89 45 f8             	mov    %eax,-0x8(%ebp)
 1004a37:	c7 04 24 21 00 00 00 	movl   $0x21,(%esp)
 1004a3e:	89 55 f0             	mov    %edx,-0x10(%ebp)
 1004a41:	e8 1a ec ff ff       	call   1003660 <inb>
 1004a46:	b9 a1 00 00 00       	mov    $0xa1,%ecx
 1004a4b:	88 45 f7             	mov    %al,-0x9(%ebp)
 1004a4e:	c7 04 24 a1 00 00 00 	movl   $0xa1,(%esp)
 1004a55:	89 4d ec             	mov    %ecx,-0x14(%ebp)
 1004a58:	e8 03 ec ff ff       	call   1003660 <inb>
 1004a5d:	b9 20 00 00 00       	mov    $0x20,%ecx
 1004a62:	ba 11 00 00 00       	mov    $0x11,%edx
 1004a67:	88 45 f6             	mov    %al,-0xa(%ebp)
 1004a6a:	c7 04 24 20 00 00 00 	movl   $0x20,(%esp)
 1004a71:	c7 44 24 04 11 00 00 	movl   $0x11,0x4(%esp)
 1004a78:	00 
 1004a79:	89 55 e8             	mov    %edx,-0x18(%ebp)
 1004a7c:	89 4d e4             	mov    %ecx,-0x1c(%ebp)
 1004a7f:	e8 ac eb ff ff       	call   1003630 <outb>
 1004a84:	b9 a0 00 00 00       	mov    $0xa0,%ecx
 1004a89:	ba 11 00 00 00       	mov    $0x11,%edx
 1004a8e:	c7 04 24 a0 00 00 00 	movl   $0xa0,(%esp)
 1004a95:	c7 44 24 04 11 00 00 	movl   $0x11,0x4(%esp)
 1004a9c:	00 
 1004a9d:	89 4d e0             	mov    %ecx,-0x20(%ebp)
 1004aa0:	89 55 dc             	mov    %edx,-0x24(%ebp)
 1004aa3:	e8 88 eb ff ff       	call   1003630 <outb>
 1004aa8:	b9 21 00 00 00       	mov    $0x21,%ecx
 1004aad:	8b 55 fc             	mov    -0x4(%ebp),%edx
 1004ab0:	88 d0                	mov    %dl,%al
 1004ab2:	c7 04 24 21 00 00 00 	movl   $0x21,(%esp)
 1004ab9:	0f b6 d0             	movzbl %al,%edx
 1004abc:	89 54 24 04          	mov    %edx,0x4(%esp)
 1004ac0:	89 4d d8             	mov    %ecx,-0x28(%ebp)
 1004ac3:	e8 68 eb ff ff       	call   1003630 <outb>
 1004ac8:	b9 a1 00 00 00       	mov    $0xa1,%ecx
 1004acd:	8b 55 f8             	mov    -0x8(%ebp),%edx
 1004ad0:	88 d0                	mov    %dl,%al
 1004ad2:	c7 04 24 a1 00 00 00 	movl   $0xa1,(%esp)
 1004ad9:	0f b6 d0             	movzbl %al,%edx
 1004adc:	89 54 24 04          	mov    %edx,0x4(%esp)
 1004ae0:	89 4d d4             	mov    %ecx,-0x2c(%ebp)
 1004ae3:	e8 48 eb ff ff       	call   1003630 <outb>
 1004ae8:	b9 21 00 00 00       	mov    $0x21,%ecx
 1004aed:	ba 04 00 00 00       	mov    $0x4,%edx
 1004af2:	c7 04 24 21 00 00 00 	movl   $0x21,(%esp)
 1004af9:	c7 44 24 04 04 00 00 	movl   $0x4,0x4(%esp)
 1004b00:	00 
 1004b01:	89 4d d0             	mov    %ecx,-0x30(%ebp)
 1004b04:	89 55 cc             	mov    %edx,-0x34(%ebp)
 1004b07:	e8 24 eb ff ff       	call   1003630 <outb>
 1004b0c:	b9 a1 00 00 00       	mov    $0xa1,%ecx
 1004b11:	ba 02 00 00 00       	mov    $0x2,%edx
 1004b16:	c7 04 24 a1 00 00 00 	movl   $0xa1,(%esp)
 1004b1d:	c7 44 24 04 02 00 00 	movl   $0x2,0x4(%esp)
 1004b24:	00 
 1004b25:	89 4d c8             	mov    %ecx,-0x38(%ebp)
 1004b28:	89 55 c4             	mov    %edx,-0x3c(%ebp)
 1004b2b:	e8 00 eb ff ff       	call   1003630 <outb>
 1004b30:	b9 21 00 00 00       	mov    $0x21,%ecx
 1004b35:	ba 01 00 00 00       	mov    $0x1,%edx
 1004b3a:	c7 04 24 21 00 00 00 	movl   $0x21,(%esp)
 1004b41:	c7 44 24 04 01 00 00 	movl   $0x1,0x4(%esp)
 1004b48:	00 
 1004b49:	89 4d c0             	mov    %ecx,-0x40(%ebp)
 1004b4c:	89 55 bc             	mov    %edx,-0x44(%ebp)
 1004b4f:	e8 dc ea ff ff       	call   1003630 <outb>
 1004b54:	b9 a1 00 00 00       	mov    $0xa1,%ecx
 1004b59:	ba 01 00 00 00       	mov    $0x1,%edx
 1004b5e:	c7 04 24 a1 00 00 00 	movl   $0xa1,(%esp)
 1004b65:	c7 44 24 04 01 00 00 	movl   $0x1,0x4(%esp)
 1004b6c:	00 
 1004b6d:	89 4d b8             	mov    %ecx,-0x48(%ebp)
 1004b70:	89 55 b4             	mov    %edx,-0x4c(%ebp)
 1004b73:	e8 b8 ea ff ff       	call   1003630 <outb>
 1004b78:	b9 21 00 00 00       	mov    $0x21,%ecx
 1004b7d:	c7 04 24 21 00 00 00 	movl   $0x21,(%esp)
 1004b84:	0f b6 55 f7          	movzbl -0x9(%ebp),%edx
 1004b88:	89 54 24 04          	mov    %edx,0x4(%esp)
 1004b8c:	89 4d b0             	mov    %ecx,-0x50(%ebp)
 1004b8f:	e8 9c ea ff ff       	call   1003630 <outb>
 1004b94:	b9 a1 00 00 00       	mov    $0xa1,%ecx
 1004b99:	c7 04 24 a1 00 00 00 	movl   $0xa1,(%esp)
 1004ba0:	0f b6 55 f6          	movzbl -0xa(%ebp),%edx
 1004ba4:	89 54 24 04          	mov    %edx,0x4(%esp)
 1004ba8:	89 4d ac             	mov    %ecx,-0x54(%ebp)
 1004bab:	e8 80 ea ff ff       	call   1003630 <outb>
 1004bb0:	83 c4 5c             	add    $0x5c,%esp
 1004bb3:	5d                   	pop    %ebp
 1004bb4:	c3                   	ret    
 1004bb5:	8d 74 26 00          	lea    0x0(%esi,%eiz,1),%esi
 1004bb9:	8d bc 27 00 00 00 00 	lea    0x0(%edi,%eiz,1),%edi

01004bc0 <PIC_FillHWInterruptHandler>:
 1004bc0:	55                   	push   %ebp
 1004bc1:	89 e5                	mov    %esp,%ebp
 1004bc3:	53                   	push   %ebx
 1004bc4:	57                   	push   %edi
 1004bc5:	56                   	push   %esi
 1004bc6:	83 ec 10             	sub    $0x10,%esp
 1004bc9:	8a 45 10             	mov    0x10(%ebp),%al
 1004bcc:	8a 4d 0c             	mov    0xc(%ebp),%cl
 1004bcf:	8b 55 08             	mov    0x8(%ebp),%edx
 1004bd2:	8d 35 20 4f 00 01    	lea    0x1004f20,%esi
 1004bd8:	c1 fe 18             	sar    $0x18,%esi
 1004bdb:	81 e6 ff 00 00 00    	and    $0xff,%esi
 1004be1:	89 55 f0             	mov    %edx,-0x10(%ebp)
 1004be4:	88 4d ef             	mov    %cl,-0x11(%ebp)
 1004be7:	88 45 ee             	mov    %al,-0x12(%ebp)
 1004bea:	c7 45 e8 00 00 00 00 	movl   $0x0,-0x18(%ebp)
 1004bf1:	c7 45 e8 01 00 00 00 	movl   $0x1,-0x18(%ebp)
 1004bf8:	8b 55 f0             	mov    -0x10(%ebp),%edx
 1004bfb:	c6 02 68             	movb   $0x68,(%edx)
 1004bfe:	8a 45 ee             	mov    -0x12(%ebp),%al
 1004c01:	8b 55 e8             	mov    -0x18(%ebp),%edx
 1004c04:	89 d7                	mov    %edx,%edi
 1004c06:	47                   	inc    %edi
 1004c07:	89 7d e8             	mov    %edi,-0x18(%ebp)
 1004c0a:	8b 7d f0             	mov    -0x10(%ebp),%edi
 1004c0d:	88 04 17             	mov    %al,(%edi,%edx,1)
 1004c10:	8b 55 e8             	mov    -0x18(%ebp),%edx
 1004c13:	89 d7                	mov    %edx,%edi
 1004c15:	47                   	inc    %edi
 1004c16:	89 7d e8             	mov    %edi,-0x18(%ebp)
 1004c19:	8b 7d f0             	mov    -0x10(%ebp),%edi
 1004c1c:	c6 04 17 00          	movb   $0x0,(%edi,%edx,1)
 1004c20:	8b 55 e8             	mov    -0x18(%ebp),%edx
 1004c23:	89 d7                	mov    %edx,%edi
 1004c25:	47                   	inc    %edi
 1004c26:	89 7d e8             	mov    %edi,-0x18(%ebp)
 1004c29:	8b 7d f0             	mov    -0x10(%ebp),%edi
 1004c2c:	c6 04 17 00          	movb   $0x0,(%edi,%edx,1)
 1004c30:	8b 55 e8             	mov    -0x18(%ebp),%edx
 1004c33:	89 d7                	mov    %edx,%edi
 1004c35:	47                   	inc    %edi
 1004c36:	89 7d e8             	mov    %edi,-0x18(%ebp)
 1004c39:	8b 7d f0             	mov    -0x10(%ebp),%edi
 1004c3c:	c6 04 17 00          	movb   $0x0,(%edi,%edx,1)
 1004c40:	8b 55 e8             	mov    -0x18(%ebp),%edx
 1004c43:	89 d7                	mov    %edx,%edi
 1004c45:	47                   	inc    %edi
 1004c46:	89 7d e8             	mov    %edi,-0x18(%ebp)
 1004c49:	8b 7d f0             	mov    -0x10(%ebp),%edi
 1004c4c:	c6 04 17 68          	movb   $0x68,(%edi,%edx,1)
 1004c50:	8a 45 ef             	mov    -0x11(%ebp),%al
 1004c53:	8b 55 e8             	mov    -0x18(%ebp),%edx
 1004c56:	89 d7                	mov    %edx,%edi
 1004c58:	47                   	inc    %edi
 1004c59:	89 7d e8             	mov    %edi,-0x18(%ebp)
 1004c5c:	8b 7d f0             	mov    -0x10(%ebp),%edi
 1004c5f:	88 04 17             	mov    %al,(%edi,%edx,1)
 1004c62:	8b 55 e8             	mov    -0x18(%ebp),%edx
 1004c65:	89 d7                	mov    %edx,%edi
 1004c67:	47                   	inc    %edi
 1004c68:	89 7d e8             	mov    %edi,-0x18(%ebp)
 1004c6b:	8b 7d f0             	mov    -0x10(%ebp),%edi
 1004c6e:	c6 04 17 00          	movb   $0x0,(%edi,%edx,1)
 1004c72:	8b 55 e8             	mov    -0x18(%ebp),%edx
 1004c75:	89 d7                	mov    %edx,%edi
 1004c77:	47                   	inc    %edi
 1004c78:	89 7d e8             	mov    %edi,-0x18(%ebp)
 1004c7b:	8b 7d f0             	mov    -0x10(%ebp),%edi
 1004c7e:	c6 04 17 00          	movb   $0x0,(%edi,%edx,1)
 1004c82:	8b 55 e8             	mov    -0x18(%ebp),%edx
 1004c85:	89 d7                	mov    %edx,%edi
 1004c87:	47                   	inc    %edi
 1004c88:	89 7d e8             	mov    %edi,-0x18(%ebp)
 1004c8b:	8b 7d f0             	mov    -0x10(%ebp),%edi
 1004c8e:	c6 04 17 00          	movb   $0x0,(%edi,%edx,1)
 1004c92:	8b 55 e8             	mov    -0x18(%ebp),%edx
 1004c95:	89 d7                	mov    %edx,%edi
 1004c97:	47                   	inc    %edi
 1004c98:	89 7d e8             	mov    %edi,-0x18(%ebp)
 1004c9b:	8b 7d f0             	mov    -0x10(%ebp),%edi
 1004c9e:	c6 04 17 68          	movb   $0x68,(%edi,%edx,1)
 1004ca2:	8b 55 e8             	mov    -0x18(%ebp),%edx
 1004ca5:	89 d7                	mov    %edx,%edi
 1004ca7:	47                   	inc    %edi
 1004ca8:	89 7d e8             	mov    %edi,-0x18(%ebp)
 1004cab:	8b 7d f0             	mov    -0x10(%ebp),%edi
 1004cae:	bb 20 4f 00 01       	mov    $0x1004f20,%ebx
 1004cb3:	89 d8                	mov    %ebx,%eax
 1004cb5:	88 c1                	mov    %al,%cl
 1004cb7:	88 0c 17             	mov    %cl,(%edi,%edx,1)
 1004cba:	8b 55 e8             	mov    -0x18(%ebp),%edx
 1004cbd:	89 d7                	mov    %edx,%edi
 1004cbf:	47                   	inc    %edi
 1004cc0:	89 7d e8             	mov    %edi,-0x18(%ebp)
 1004cc3:	8b 7d f0             	mov    -0x10(%ebp),%edi
 1004cc6:	88 e1                	mov    %ah,%cl
 1004cc8:	88 0c 17             	mov    %cl,(%edi,%edx,1)
 1004ccb:	8b 45 e8             	mov    -0x18(%ebp),%eax
 1004cce:	89 c2                	mov    %eax,%edx
 1004cd0:	42                   	inc    %edx
 1004cd1:	89 55 e8             	mov    %edx,-0x18(%ebp)
 1004cd4:	8b 55 f0             	mov    -0x10(%ebp),%edx
 1004cd7:	89 df                	mov    %ebx,%edi
 1004cd9:	c1 ef 10             	shr    $0x10,%edi
 1004cdc:	89 f9                	mov    %edi,%ecx
 1004cde:	88 0c 02             	mov    %cl,(%edx,%eax,1)
 1004ce1:	8b 45 e8             	mov    -0x18(%ebp),%eax
 1004ce4:	89 c2                	mov    %eax,%edx
 1004ce6:	42                   	inc    %edx
 1004ce7:	89 55 e8             	mov    %edx,-0x18(%ebp)
 1004cea:	8b 55 f0             	mov    -0x10(%ebp),%edx
 1004ced:	c1 eb 18             	shr    $0x18,%ebx
 1004cf0:	88 d9                	mov    %bl,%cl
 1004cf2:	88 0c 02             	mov    %cl,(%edx,%eax,1)
 1004cf5:	8b 45 e8             	mov    -0x18(%ebp),%eax
 1004cf8:	89 c2                	mov    %eax,%edx
 1004cfa:	83 c2 01             	add    $0x1,%edx
 1004cfd:	89 55 e8             	mov    %edx,-0x18(%ebp)
 1004d00:	8b 55 f0             	mov    -0x10(%ebp),%edx
 1004d03:	c6 04 02 c3          	movb   $0xc3,(%edx,%eax,1)
 1004d07:	89 75 e4             	mov    %esi,-0x1c(%ebp)
 1004d0a:	83 c4 10             	add    $0x10,%esp
 1004d0d:	5e                   	pop    %esi
 1004d0e:	5f                   	pop    %edi
 1004d0f:	5b                   	pop    %ebx
 1004d10:	5d                   	pop    %ebp
 1004d11:	c3                   	ret    
 1004d12:	8d b4 26 00 00 00 00 	lea    0x0(%esi,%eiz,1),%esi
 1004d19:	8d bc 27 00 00 00 00 	lea    0x0(%edi,%eiz,1),%edi

01004d20 <PIC_MaskAll>:
 1004d20:	55                   	push   %ebp
 1004d21:	89 e5                	mov    %esp,%ebp
 1004d23:	83 ec 18             	sub    $0x18,%esp
 1004d26:	b8 a1 00 00 00       	mov    $0xa1,%eax
 1004d2b:	b9 ff 00 00 00       	mov    $0xff,%ecx
 1004d30:	c7 04 24 a1 00 00 00 	movl   $0xa1,(%esp)
 1004d37:	c7 44 24 04 ff 00 00 	movl   $0xff,0x4(%esp)
 1004d3e:	00 
 1004d3f:	89 45 fc             	mov    %eax,-0x4(%ebp)
 1004d42:	89 4d f8             	mov    %ecx,-0x8(%ebp)
 1004d45:	e8 e6 e8 ff ff       	call   1003630 <outb>
 1004d4a:	b8 21 00 00 00       	mov    $0x21,%eax
 1004d4f:	b9 ff 00 00 00       	mov    $0xff,%ecx
 1004d54:	c7 04 24 21 00 00 00 	movl   $0x21,(%esp)
 1004d5b:	c7 44 24 04 ff 00 00 	movl   $0xff,0x4(%esp)
 1004d62:	00 
 1004d63:	89 45 f4             	mov    %eax,-0xc(%ebp)
 1004d66:	89 4d f0             	mov    %ecx,-0x10(%ebp)
 1004d69:	e8 c2 e8 ff ff       	call   1003630 <outb>
 1004d6e:	83 c4 18             	add    $0x18,%esp
 1004d71:	5d                   	pop    %ebp
 1004d72:	c3                   	ret    
 1004d73:	8d b6 00 00 00 00    	lea    0x0(%esi),%esi
 1004d79:	8d bc 27 00 00 00 00 	lea    0x0(%edi,%eiz,1),%edi

01004d80 <PIC_MaskIRQ>:
 1004d80:	55                   	push   %ebp
 1004d81:	89 e5                	mov    %esp,%ebp
 1004d83:	57                   	push   %edi
 1004d84:	56                   	push   %esi
 1004d85:	83 ec 14             	sub    $0x14,%esp
 1004d88:	8a 45 08             	mov    0x8(%ebp),%al
 1004d8b:	88 45 f7             	mov    %al,-0x9(%ebp)
 1004d8e:	66 c7 45 f4 21 00    	movw   $0x21,-0xc(%ebp)
 1004d94:	0f b6 4d f7          	movzbl -0x9(%ebp),%ecx
 1004d98:	83 f9 28             	cmp    $0x28,%ecx
 1004d9b:	7c 12                	jl     1004daf <PIC_MaskIRQ+0x2f>
 1004d9d:	66 c7 45 f4 a1 00    	movw   $0xa1,-0xc(%ebp)
 1004da3:	0f b6 45 f7          	movzbl -0x9(%ebp),%eax
 1004da7:	83 e8 28             	sub    $0x28,%eax
 1004daa:	88 c1                	mov    %al,%cl
 1004dac:	88 4d f7             	mov    %cl,-0x9(%ebp)
 1004daf:	66 8b 45 f4          	mov    -0xc(%ebp),%ax
 1004db3:	0f b7 4d f4          	movzwl -0xc(%ebp),%ecx
 1004db7:	89 0c 24             	mov    %ecx,(%esp)
 1004dba:	66 89 45 f2          	mov    %ax,-0xe(%ebp)
 1004dbe:	e8 9d e8 ff ff       	call   1003660 <inb>
 1004dc3:	b9 01 00 00 00       	mov    $0x1,%ecx
 1004dc8:	0f b6 d0             	movzbl %al,%edx
 1004dcb:	0f b6 75 f7          	movzbl -0x9(%ebp),%esi
 1004dcf:	83 ee 20             	sub    $0x20,%esi
 1004dd2:	89 4d ec             	mov    %ecx,-0x14(%ebp)
 1004dd5:	89 f1                	mov    %esi,%ecx
 1004dd7:	8b 75 ec             	mov    -0x14(%ebp),%esi
 1004dda:	d3 e6                	shl    %cl,%esi
 1004ddc:	09 f2                	or     %esi,%edx
 1004dde:	88 d0                	mov    %dl,%al
 1004de0:	66 8b 7d f2          	mov    -0xe(%ebp),%di
 1004de4:	0f b7 d7             	movzwl %di,%edx
 1004de7:	89 14 24             	mov    %edx,(%esp)
 1004dea:	0f b6 d0             	movzbl %al,%edx
 1004ded:	89 54 24 04          	mov    %edx,0x4(%esp)
 1004df1:	e8 3a e8 ff ff       	call   1003630 <outb>
 1004df6:	83 c4 14             	add    $0x14,%esp
 1004df9:	5e                   	pop    %esi
 1004dfa:	5f                   	pop    %edi
 1004dfb:	5d                   	pop    %ebp
 1004dfc:	c3                   	ret    
 1004dfd:	8d 76 00             	lea    0x0(%esi),%esi

01004e00 <PIC_UnMaskIRQ>:
 1004e00:	55                   	push   %ebp
 1004e01:	89 e5                	mov    %esp,%ebp
 1004e03:	57                   	push   %edi
 1004e04:	56                   	push   %esi
 1004e05:	83 ec 14             	sub    $0x14,%esp
 1004e08:	8a 45 08             	mov    0x8(%ebp),%al
 1004e0b:	88 45 f7             	mov    %al,-0x9(%ebp)
 1004e0e:	66 c7 45 f4 21 00    	movw   $0x21,-0xc(%ebp)
 1004e14:	0f b6 4d f7          	movzbl -0x9(%ebp),%ecx
 1004e18:	83 f9 28             	cmp    $0x28,%ecx
 1004e1b:	7c 12                	jl     1004e2f <PIC_UnMaskIRQ+0x2f>
 1004e1d:	66 c7 45 f4 a1 00    	movw   $0xa1,-0xc(%ebp)
 1004e23:	0f b6 45 f7          	movzbl -0x9(%ebp),%eax
 1004e27:	83 e8 28             	sub    $0x28,%eax
 1004e2a:	88 c1                	mov    %al,%cl
 1004e2c:	88 4d f7             	mov    %cl,-0x9(%ebp)
 1004e2f:	66 8b 45 f4          	mov    -0xc(%ebp),%ax
 1004e33:	0f b7 4d f4          	movzwl -0xc(%ebp),%ecx
 1004e37:	89 0c 24             	mov    %ecx,(%esp)
 1004e3a:	66 89 45 f2          	mov    %ax,-0xe(%ebp)
 1004e3e:	e8 1d e8 ff ff       	call   1003660 <inb>
 1004e43:	b9 01 00 00 00       	mov    $0x1,%ecx
 1004e48:	0f b6 d0             	movzbl %al,%edx
 1004e4b:	0f b6 75 f7          	movzbl -0x9(%ebp),%esi
 1004e4f:	83 ee 20             	sub    $0x20,%esi
 1004e52:	89 4d ec             	mov    %ecx,-0x14(%ebp)
 1004e55:	89 f1                	mov    %esi,%ecx
 1004e57:	8b 75 ec             	mov    -0x14(%ebp),%esi
 1004e5a:	d3 e6                	shl    %cl,%esi
 1004e5c:	83 f6 ff             	xor    $0xffffffff,%esi
 1004e5f:	21 f2                	and    %esi,%edx
 1004e61:	88 d0                	mov    %dl,%al
 1004e63:	66 8b 7d f2          	mov    -0xe(%ebp),%di
 1004e67:	0f b7 d7             	movzwl %di,%edx
 1004e6a:	89 14 24             	mov    %edx,(%esp)
 1004e6d:	0f b6 d0             	movzbl %al,%edx
 1004e70:	89 54 24 04          	mov    %edx,0x4(%esp)
 1004e74:	e8 b7 e7 ff ff       	call   1003630 <outb>
 1004e79:	83 c4 14             	add    $0x14,%esp
 1004e7c:	5e                   	pop    %esi
 1004e7d:	5f                   	pop    %edi
 1004e7e:	5d                   	pop    %ebp
 1004e7f:	c3                   	ret    

01004e80 <PIC_GetReg>:
 1004e80:	55                   	push   %ebp
 1004e81:	89 e5                	mov    %esp,%ebp
 1004e83:	57                   	push   %edi
 1004e84:	56                   	push   %esi
 1004e85:	83 ec 20             	sub    $0x20,%esp
 1004e88:	8b 45 08             	mov    0x8(%ebp),%eax
 1004e8b:	b9 20 00 00 00       	mov    $0x20,%ecx
 1004e90:	89 45 f4             	mov    %eax,-0xc(%ebp)
 1004e93:	8b 45 f4             	mov    -0xc(%ebp),%eax
 1004e96:	88 c2                	mov    %al,%dl
 1004e98:	c7 04 24 20 00 00 00 	movl   $0x20,(%esp)
 1004e9f:	0f b6 c2             	movzbl %dl,%eax
 1004ea2:	89 44 24 04          	mov    %eax,0x4(%esp)
 1004ea6:	89 4d f0             	mov    %ecx,-0x10(%ebp)
 1004ea9:	e8 82 e7 ff ff       	call   1003630 <outb>
 1004eae:	b8 a0 00 00 00       	mov    $0xa0,%eax
 1004eb3:	8b 4d f4             	mov    -0xc(%ebp),%ecx
 1004eb6:	88 ca                	mov    %cl,%dl
 1004eb8:	c7 04 24 a0 00 00 00 	movl   $0xa0,(%esp)
 1004ebf:	0f b6 ca             	movzbl %dl,%ecx
 1004ec2:	89 4c 24 04          	mov    %ecx,0x4(%esp)
 1004ec6:	89 45 ec             	mov    %eax,-0x14(%ebp)
 1004ec9:	e8 62 e7 ff ff       	call   1003630 <outb>
 1004ece:	b8 a0 00 00 00       	mov    $0xa0,%eax
 1004ed3:	c7 04 24 a0 00 00 00 	movl   $0xa0,(%esp)
 1004eda:	89 45 e8             	mov    %eax,-0x18(%ebp)
 1004edd:	e8 7e e7 ff ff       	call   1003660 <inb>
 1004ee2:	b9 20 00 00 00       	mov    $0x20,%ecx
 1004ee7:	0f b6 f0             	movzbl %al,%esi
 1004eea:	c1 e6 08             	shl    $0x8,%esi
 1004eed:	c7 04 24 20 00 00 00 	movl   $0x20,(%esp)
 1004ef4:	89 4d e4             	mov    %ecx,-0x1c(%ebp)
 1004ef7:	89 75 e0             	mov    %esi,-0x20(%ebp)
 1004efa:	e8 61 e7 ff ff       	call   1003660 <inb>
 1004eff:	0f b6 c8             	movzbl %al,%ecx
 1004f02:	8b 75 e0             	mov    -0x20(%ebp),%esi
 1004f05:	09 ce                	or     %ecx,%esi
 1004f07:	66 89 f7             	mov    %si,%di
 1004f0a:	0f b7 c7             	movzwl %di,%eax
 1004f0d:	83 c4 20             	add    $0x20,%esp
 1004f10:	5e                   	pop    %esi
 1004f11:	5f                   	pop    %edi
 1004f12:	5d                   	pop    %ebp
 1004f13:	c3                   	ret    
 1004f14:	8d b6 00 00 00 00    	lea    0x0(%esi),%esi
 1004f1a:	8d bf 00 00 00 00    	lea    0x0(%edi),%edi

01004f20 <PIC_DefaultHandler>:
 1004f20:	60                   	pusha  
 1004f21:	66 8c d8             	mov    %ds,%ax
 1004f24:	50                   	push   %eax
 1004f25:	66 b8 10 00          	mov    $0x10,%ax
 1004f29:	8e d8                	mov    %eax,%ds
 1004f2b:	8e c0                	mov    %eax,%es
 1004f2d:	8e e0                	mov    %eax,%fs
 1004f2f:	8e e8                	mov    %eax,%gs
 1004f31:	54                   	push   %esp
 1004f32:	e8 a9 00 00 00       	call   1004fe0 <PIC_MainHandler>
 1004f37:	5b                   	pop    %ebx
 1004f38:	5b                   	pop    %ebx
 1004f39:	8e db                	mov    %ebx,%ds
 1004f3b:	8e c3                	mov    %ebx,%es
 1004f3d:	8e e3                	mov    %ebx,%fs
 1004f3f:	8e eb                	mov    %ebx,%gs
 1004f41:	61                   	popa   
 1004f42:	83 c4 08             	add    $0x8,%esp
 1004f45:	cf                   	iret   
 1004f46:	c3                   	ret    
 1004f47:	89 f6                	mov    %esi,%esi
 1004f49:	8d bc 27 00 00 00 00 	lea    0x0(%edi,%eiz,1),%edi

01004f50 <PIC_SendEOI>:
 1004f50:	55                   	push   %ebp
 1004f51:	89 e5                	mov    %esp,%ebp
 1004f53:	83 ec 20             	sub    $0x20,%esp
 1004f56:	8a 45 08             	mov    0x8(%ebp),%al
 1004f59:	b9 0b 00 00 00       	mov    $0xb,%ecx
 1004f5e:	88 45 ff             	mov    %al,-0x1(%ebp)
 1004f61:	c7 04 24 0b 00 00 00 	movl   $0xb,(%esp)
 1004f68:	89 4d f8             	mov    %ecx,-0x8(%ebp)
 1004f6b:	e8 10 ff ff ff       	call   1004e80 <PIC_GetReg>
 1004f70:	0f b7 c8             	movzwl %ax,%ecx
 1004f73:	0f b6 55 ff          	movzbl -0x1(%ebp),%edx
 1004f77:	89 4d f4             	mov    %ecx,-0xc(%ebp)
 1004f7a:	89 d1                	mov    %edx,%ecx
 1004f7c:	8b 55 f4             	mov    -0xc(%ebp),%edx
 1004f7f:	d3 fa                	sar    %cl,%edx
 1004f81:	83 e2 01             	and    $0x1,%edx
 1004f84:	83 fa 01             	cmp    $0x1,%edx
 1004f87:	75 49                	jne    1004fd2 <PIC_SendEOI+0x82>
 1004f89:	0f b6 45 ff          	movzbl -0x1(%ebp),%eax
 1004f8d:	83 f8 28             	cmp    $0x28,%eax
 1004f90:	7c 24                	jl     1004fb6 <PIC_SendEOI+0x66>
 1004f92:	b8 a0 00 00 00       	mov    $0xa0,%eax
 1004f97:	b9 20 00 00 00       	mov    $0x20,%ecx
 1004f9c:	c7 04 24 a0 00 00 00 	movl   $0xa0,(%esp)
 1004fa3:	c7 44 24 04 20 00 00 	movl   $0x20,0x4(%esp)
 1004faa:	00 
 1004fab:	89 45 f0             	mov    %eax,-0x10(%ebp)
 1004fae:	89 4d ec             	mov    %ecx,-0x14(%ebp)
 1004fb1:	e8 7a e6 ff ff       	call   1003630 <outb>
 1004fb6:	b8 20 00 00 00       	mov    $0x20,%eax
 1004fbb:	c7 04 24 20 00 00 00 	movl   $0x20,(%esp)
 1004fc2:	c7 44 24 04 20 00 00 	movl   $0x20,0x4(%esp)
 1004fc9:	00 
 1004fca:	89 45 e8             	mov    %eax,-0x18(%ebp)
 1004fcd:	e8 5e e6 ff ff       	call   1003630 <outb>
 1004fd2:	83 c4 20             	add    $0x20,%esp
 1004fd5:	5d                   	pop    %ebp
 1004fd6:	c3                   	ret    
 1004fd7:	89 f6                	mov    %esi,%esi
 1004fd9:	8d bc 27 00 00 00 00 	lea    0x0(%edi,%eiz,1),%edi

01004fe0 <PIC_MainHandler>:
 1004fe0:	55                   	push   %ebp
 1004fe1:	89 e5                	mov    %esp,%ebp
 1004fe3:	83 ec 10             	sub    $0x10,%esp
 1004fe6:	8b 45 08             	mov    0x8(%ebp),%eax
 1004fe9:	b9 0b 00 00 00       	mov    $0xb,%ecx
 1004fee:	89 45 fc             	mov    %eax,-0x4(%ebp)
 1004ff1:	c7 04 24 0b 00 00 00 	movl   $0xb,(%esp)
 1004ff8:	89 4d f8             	mov    %ecx,-0x8(%ebp)
 1004ffb:	e8 80 fe ff ff       	call   1004e80 <PIC_GetReg>
 1005000:	0f b7 c8             	movzwl %ax,%ecx
 1005003:	8b 55 fc             	mov    -0x4(%ebp),%edx
 1005006:	8b 52 24             	mov    0x24(%edx),%edx
 1005009:	89 4d f4             	mov    %ecx,-0xc(%ebp)
 100500c:	89 d1                	mov    %edx,%ecx
 100500e:	8b 55 f4             	mov    -0xc(%ebp),%edx
 1005011:	d3 fa                	sar    %cl,%edx
 1005013:	83 e2 01             	and    $0x1,%edx
 1005016:	83 fa 01             	cmp    $0x1,%edx
 1005019:	75 0b                	jne    1005026 <PIC_MainHandler+0x46>
 100501b:	8b 45 fc             	mov    -0x4(%ebp),%eax
 100501e:	89 04 24             	mov    %eax,(%esp)
 1005021:	e8 8a ba ff ff       	call   1000ab0 <IDT_MainHandler>
 1005026:	83 c4 10             	add    $0x10,%esp
 1005029:	5d                   	pop    %ebp
 100502a:	c3                   	ret    
 100502b:	66 90                	xchg   %ax,%ax
 100502d:	66 90                	xchg   %ax,%ax
 100502f:	90                   	nop

01005030 <graphics_Initialize>:
 1005030:	55                   	push   %ebp
 1005031:	89 e5                	mov    %esp,%ebp
 1005033:	53                   	push   %ebx
 1005034:	57                   	push   %edi
 1005035:	56                   	push   %esi
 1005036:	83 ec 38             	sub    $0x38,%esp
 1005039:	a1 1c b0 84 01       	mov    0x184b01c,%eax
 100503e:	8b 40 60             	mov    0x60(%eax),%eax
 1005041:	c1 e8 02             	shr    $0x2,%eax
 1005044:	a3 40 34 87 03       	mov    %eax,0x3873440
 1005049:	a1 1c b0 84 01       	mov    0x184b01c,%eax
 100504e:	8b 40 64             	mov    0x64(%eax),%eax
 1005051:	a3 48 34 87 03       	mov    %eax,0x3873448
 1005056:	a1 1c b0 84 01       	mov    0x184b01c,%eax
 100505b:	8b 40 68             	mov    0x68(%eax),%eax
 100505e:	a3 44 34 87 03       	mov    %eax,0x3873444
 1005063:	a1 1c b0 84 01       	mov    0x184b01c,%eax
 1005068:	8a 48 6c             	mov    0x6c(%eax),%cl
 100506b:	88 0d 18 34 87 03    	mov    %cl,0x3873418
 1005071:	a1 48 34 87 03       	mov    0x3873448,%eax
 1005076:	ba cd cc cc cc       	mov    $0xcccccccd,%edx
 100507b:	89 55 e8             	mov    %edx,-0x18(%ebp)
 100507e:	f7 e2                	mul    %edx
 1005080:	c1 ea 03             	shr    $0x3,%edx
 1005083:	89 15 74 f0 a8 04    	mov    %edx,0x4a8f074
 1005089:	a1 44 34 87 03       	mov    0x3873444,%eax
 100508e:	8b 55 e8             	mov    -0x18(%ebp),%edx
 1005091:	f7 e2                	mul    %edx
 1005093:	c1 ea 04             	shr    $0x4,%edx
 1005096:	89 15 78 f0 a8 04    	mov    %edx,0x4a8f078
 100509c:	a1 40 34 87 03       	mov    0x3873440,%eax
 10050a1:	8b 15 44 34 87 03    	mov    0x3873444,%edx
 10050a7:	0f af c2             	imul   %edx,%eax
 10050aa:	c1 e0 02             	shl    $0x2,%eax
 10050ad:	a3 20 34 87 03       	mov    %eax,0x3873420
 10050b2:	a1 1c b0 84 01       	mov    0x184b01c,%eax
 10050b7:	8b 40 58             	mov    0x58(%eax),%eax
 10050ba:	a3 1c 34 87 03       	mov    %eax,0x387341c
 10050bf:	a1 20 34 87 03       	mov    0x3873420,%eax
 10050c4:	83 e8 80             	sub    $0xffffff80,%eax
 10050c7:	89 e2                	mov    %esp,%edx
 10050c9:	89 02                	mov    %eax,(%edx)
 10050cb:	e8 a0 d3 ff ff       	call   1002470 <bootstrap_malloc>
 10050d0:	a3 10 34 87 03       	mov    %eax,0x3873410
 10050d5:	83 c0 10             	add    $0x10,%eax
 10050d8:	a3 10 34 87 03       	mov    %eax,0x3873410
 10050dd:	8a 0d 10 34 87 03    	mov    0x3873410,%cl
 10050e3:	80 e1 f0             	and    $0xf0,%cl
 10050e6:	88 0d 10 34 87 03    	mov    %cl,0x3873410
 10050ec:	a1 20 34 87 03       	mov    0x3873420,%eax
 10050f1:	89 e2                	mov    %esp,%edx
 10050f3:	89 02                	mov    %eax,(%edx)
 10050f5:	c7 42 04 00 00 00 00 	movl   $0x0,0x4(%edx)
 10050fc:	e8 3f 35 00 00       	call   1008640 <virtMemMan_FindEmptyAddress>
 1005101:	89 45 f0             	mov    %eax,-0x10(%ebp)
 1005104:	31 d2                	xor    %edx,%edx
 1005106:	8b 35 1c 34 87 03    	mov    0x387341c,%esi
 100510c:	8b 3d 20 34 87 03    	mov    0x3873420,%edi
 1005112:	83 c7 70             	add    $0x70,%edi
 1005115:	89 e3                	mov    %esp,%ebx
 1005117:	89 7b 0c             	mov    %edi,0xc(%ebx)
 100511a:	89 53 08             	mov    %edx,0x8(%ebx)
 100511d:	89 73 04             	mov    %esi,0x4(%ebx)
 1005120:	89 03                	mov    %eax,(%ebx)
 1005122:	c7 43 18 00 00 00 00 	movl   $0x0,0x18(%ebx)
 1005129:	c7 43 14 01 00 00 00 	movl   $0x1,0x14(%ebx)
 1005130:	c7 43 10 03 00 00 00 	movl   $0x3,0x10(%ebx)
 1005137:	e8 04 2a 00 00       	call   1007b40 <virtMemMan_Map>
 100513c:	ba 00 00 00 00       	mov    $0x0,%edx
 1005141:	89 45 ec             	mov    %eax,-0x14(%ebp)
 1005144:	8b 45 f0             	mov    -0x10(%ebp),%eax
 1005147:	a3 1c 34 87 03       	mov    %eax,0x387341c
 100514c:	a1 10 34 87 03       	mov    0x3873410,%eax
 1005151:	a3 14 34 87 03       	mov    %eax,0x3873414
 1005156:	a1 1c 34 87 03       	mov    0x387341c,%eax
 100515b:	8b 35 20 34 87 03    	mov    0x3873420,%esi
 1005161:	89 04 24             	mov    %eax,(%esp)
 1005164:	c7 44 24 04 00 00 00 	movl   $0x0,0x4(%esp)
 100516b:	00 
 100516c:	89 74 24 08          	mov    %esi,0x8(%esp)
 1005170:	89 55 e4             	mov    %edx,-0x1c(%ebp)
 1005173:	e8 88 e6 ff ff       	call   1003800 <memset>
 1005178:	ba 00 00 00 00       	mov    $0x0,%edx
 100517d:	8b 35 10 34 87 03    	mov    0x3873410,%esi
 1005183:	8b 3d 20 34 87 03    	mov    0x3873420,%edi
 1005189:	89 34 24             	mov    %esi,(%esp)
 100518c:	c7 44 24 04 00 00 00 	movl   $0x0,0x4(%esp)
 1005193:	00 
 1005194:	89 7c 24 08          	mov    %edi,0x8(%esp)
 1005198:	89 45 e0             	mov    %eax,-0x20(%ebp)
 100519b:	89 55 dc             	mov    %edx,-0x24(%ebp)
 100519e:	e8 5d e6 ff ff       	call   1003800 <memset>
 10051a3:	89 45 d8             	mov    %eax,-0x28(%ebp)
 10051a6:	83 c4 38             	add    $0x38,%esp
 10051a9:	5e                   	pop    %esi
 10051aa:	5f                   	pop    %edi
 10051ab:	5b                   	pop    %ebx
 10051ac:	5d                   	pop    %ebp
 10051ad:	c3                   	ret    
 10051ae:	66 90                	xchg   %ax,%ax

010051b0 <graphics_SwapBuffer>:
 10051b0:	55                   	push   %ebp
 10051b1:	89 e5                	mov    %esp,%ebp
 10051b3:	53                   	push   %ebx
 10051b4:	83 ec 0c             	sub    $0xc,%esp
 10051b7:	a1 1c 34 87 03       	mov    0x387341c,%eax
 10051bc:	89 45 f8             	mov    %eax,-0x8(%ebp)
 10051bf:	a1 10 34 87 03       	mov    0x3873410,%eax
 10051c4:	89 45 f4             	mov    %eax,-0xc(%ebp)
 10051c7:	c7 45 f0 00 00 00 00 	movl   $0x0,-0x10(%ebp)
 10051ce:	8b 45 f0             	mov    -0x10(%ebp),%eax
 10051d1:	3b 05 20 34 87 03    	cmp    0x3873420,%eax
 10051d7:	73 67                	jae    1005240 <graphics_SwapBuffer+0x90>
 10051d9:	8b 5d f4             	mov    -0xc(%ebp),%ebx
 10051dc:	0f 28 0b             	movaps (%ebx),%xmm1
 10051df:	0f 28 53 10          	movaps 0x10(%ebx),%xmm2
 10051e3:	0f 28 5b 20          	movaps 0x20(%ebx),%xmm3
 10051e7:	0f 28 63 30          	movaps 0x30(%ebx),%xmm4
 10051eb:	0f 28 6b 40          	movaps 0x40(%ebx),%xmm5
 10051ef:	0f 28 73 50          	movaps 0x50(%ebx),%xmm6
 10051f3:	0f 28 43 70          	movaps 0x70(%ebx),%xmm0
 10051f7:	0f 28 7b 60          	movaps 0x60(%ebx),%xmm7
 10051fb:	0f 29 40 70          	movaps %xmm0,0x70(%eax)
 10051ff:	0f 29 08             	movaps %xmm1,(%eax)
 1005202:	0f 29 50 10          	movaps %xmm2,0x10(%eax)
 1005206:	0f 29 58 20          	movaps %xmm3,0x20(%eax)
 100520a:	0f 29 60 30          	movaps %xmm4,0x30(%eax)
 100520e:	0f 29 68 40          	movaps %xmm5,0x40(%eax)
 1005212:	0f 29 70 50          	movaps %xmm6,0x50(%eax)
 1005216:	0f 29 78 60          	movaps %xmm7,0x60(%eax)
 100521a:	89 45 f8             	mov    %eax,-0x8(%ebp)
 100521d:	8b 45 f4             	mov    -0xc(%ebp),%eax
 1005220:	05 80 00 00 00       	add    $0x80,%eax
 1005225:	89 45 f4             	mov    %eax,-0xc(%ebp)
 1005228:	8b 45 f8             	mov    -0x8(%ebp),%eax
 100522b:	05 80 00 00 00       	add    $0x80,%eax
 1005230:	89 45 f8             	mov    %eax,-0x8(%ebp)
 1005233:	8b 45 f0             	mov    -0x10(%ebp),%eax
 1005236:	05 80 00 00 00       	add    $0x80,%eax
 100523b:	89 45 f0             	mov    %eax,-0x10(%ebp)
 100523e:	eb 8e                	jmp    10051ce <graphics_SwapBuffer+0x1e>
 1005240:	83 c4 0c             	add    $0xc,%esp
 1005243:	5b                   	pop    %ebx
 1005244:	5d                   	pop    %ebp
 1005245:	c3                   	ret    
 1005246:	8d 76 00             	lea    0x0(%esi),%esi
 1005249:	8d bc 27 00 00 00 00 	lea    0x0(%edi,%eiz,1),%edi

01005250 <graphics_Clear>:
 1005250:	55                   	push   %ebp
 1005251:	89 e5                	mov    %esp,%ebp
 1005253:	56                   	push   %esi
 1005254:	83 ec 20             	sub    $0x20,%esp
 1005257:	8d 05 30 34 87 03    	lea    0x3873430,%eax
 100525d:	b9 ff 00 00 00       	mov    $0xff,%ecx
 1005262:	ba 10 00 00 00       	mov    $0x10,%edx
 1005267:	8b 35 10 34 87 03    	mov    0x3873410,%esi
 100526d:	89 75 f8             	mov    %esi,-0x8(%ebp)
 1005270:	89 04 24             	mov    %eax,(%esp)
 1005273:	c7 44 24 04 ff 00 00 	movl   $0xff,0x4(%esp)
 100527a:	00 
 100527b:	c7 44 24 08 10 00 00 	movl   $0x10,0x8(%esp)
 1005282:	00 
 1005283:	89 55 f0             	mov    %edx,-0x10(%ebp)
 1005286:	89 4d ec             	mov    %ecx,-0x14(%ebp)
 1005289:	e8 72 e5 ff ff       	call   1003800 <memset>
 100528e:	b9 30 34 87 03       	mov    $0x3873430,%ecx
 1005293:	0f 28 09             	movaps (%ecx),%xmm1
 1005296:	c7 45 f4 00 00 00 00 	movl   $0x0,-0xc(%ebp)
 100529d:	89 45 e8             	mov    %eax,-0x18(%ebp)
 10052a0:	8b 45 f4             	mov    -0xc(%ebp),%eax
 10052a3:	3b 05 20 34 87 03    	cmp    0x3873420,%eax
 10052a9:	73 1a                	jae    10052c5 <graphics_Clear+0x75>
 10052ab:	0f 29 08             	movaps %xmm1,(%eax)
 10052ae:	89 45 f8             	mov    %eax,-0x8(%ebp)
 10052b1:	8b 45 f8             	mov    -0x8(%ebp),%eax
 10052b4:	83 c0 10             	add    $0x10,%eax
 10052b7:	89 45 f8             	mov    %eax,-0x8(%ebp)
 10052ba:	8b 45 f4             	mov    -0xc(%ebp),%eax
 10052bd:	83 c0 10             	add    $0x10,%eax
 10052c0:	89 45 f4             	mov    %eax,-0xc(%ebp)
 10052c3:	eb db                	jmp    10052a0 <graphics_Clear+0x50>
 10052c5:	83 c4 20             	add    $0x20,%esp
 10052c8:	5e                   	pop    %esi
 10052c9:	5d                   	pop    %ebp
 10052ca:	c3                   	ret    
 10052cb:	90                   	nop
 10052cc:	8d 74 26 00          	lea    0x0(%esi,%eiz,1),%esi

010052d0 <graphics_WriteStr>:
 10052d0:	55                   	push   %ebp
 10052d1:	89 e5                	mov    %esp,%ebp
 10052d3:	53                   	push   %ebx
 10052d4:	57                   	push   %edi
 10052d5:	56                   	push   %esi
 10052d6:	83 ec 20             	sub    $0x20,%esp
 10052d9:	8b 45 10             	mov    0x10(%ebp),%eax
 10052dc:	8b 4d 0c             	mov    0xc(%ebp),%ecx
 10052df:	8b 55 08             	mov    0x8(%ebp),%edx
 10052e2:	89 55 f0             	mov    %edx,-0x10(%ebp)
 10052e5:	89 4d ec             	mov    %ecx,-0x14(%ebp)
 10052e8:	89 45 e8             	mov    %eax,-0x18(%ebp)
 10052eb:	c7 45 e4 00 00 00 00 	movl   $0x0,-0x1c(%ebp)
 10052f2:	c7 45 e0 00 00 00 00 	movl   $0x0,-0x20(%ebp)
 10052f9:	8b 45 e0             	mov    -0x20(%ebp),%eax
 10052fc:	8b 4d f0             	mov    -0x10(%ebp),%ecx
 10052ff:	0f be 04 01          	movsbl (%ecx,%eax,1),%eax
 1005303:	83 f8 00             	cmp    $0x0,%eax
 1005306:	0f 84 e4 00 00 00    	je     10053f0 <graphics_WriteStr+0x120>
 100530c:	c7 45 dc 00 00 00 00 	movl   $0x0,-0x24(%ebp)
 1005313:	83 7d dc 08          	cmpl   $0x8,-0x24(%ebp)
 1005317:	0f 8d bc 00 00 00    	jge    10053d9 <graphics_WriteStr+0x109>
 100531d:	8b 45 e8             	mov    -0x18(%ebp),%eax
 1005320:	89 45 d8             	mov    %eax,-0x28(%ebp)
 1005323:	8b 45 d8             	mov    -0x28(%ebp),%eax
 1005326:	8b 4d e8             	mov    -0x18(%ebp),%ecx
 1005329:	83 c1 0d             	add    $0xd,%ecx
 100532c:	39 c8                	cmp    %ecx,%eax
 100532e:	0f 8d 95 00 00 00    	jge    10053c9 <graphics_WriteStr+0xf9>
 1005334:	b8 08 00 00 00       	mov    $0x8,%eax
 1005339:	b9 01 00 00 00       	mov    $0x1,%ecx
 100533e:	8d 15 18 e0 82 01    	lea    0x182e018,%edx
 1005344:	be 0d 00 00 00       	mov    $0xd,%esi
 1005349:	8b 7d ec             	mov    -0x14(%ebp),%edi
 100534c:	89 c3                	mov    %eax,%ebx
 100534e:	2b 5d dc             	sub    -0x24(%ebp),%ebx
 1005351:	01 df                	add    %ebx,%edi
 1005353:	8b 5d d8             	mov    -0x28(%ebp),%ebx
 1005356:	0f af 1d 40 34 87 03 	imul   0x3873440,%ebx
 100535d:	01 df                	add    %ebx,%edi
 100535f:	8b 1d 14 34 87 03    	mov    0x3873414,%ebx
 1005365:	8b 3c bb             	mov    (%ebx,%edi,4),%edi
 1005368:	89 7d e4             	mov    %edi,-0x1c(%ebp)
 100536b:	8b 7d d8             	mov    -0x28(%ebp),%edi
 100536e:	2b 7d e8             	sub    -0x18(%ebp),%edi
 1005371:	29 fe                	sub    %edi,%esi
 1005373:	8b 7d e0             	mov    -0x20(%ebp),%edi
 1005376:	8b 5d f0             	mov    -0x10(%ebp),%ebx
 1005379:	0f be 3c 3b          	movsbl (%ebx,%edi,1),%edi
 100537d:	83 ef 20             	sub    $0x20,%edi
 1005380:	6b ff 0d             	imul   $0xd,%edi,%edi
 1005383:	01 fa                	add    %edi,%edx
 1005385:	0f b6 14 32          	movzbl (%edx,%esi,1),%edx
 1005389:	8b 75 dc             	mov    -0x24(%ebp),%esi
 100538c:	89 4d d4             	mov    %ecx,-0x2c(%ebp)
 100538f:	89 f1                	mov    %esi,%ecx
 1005391:	d3 fa                	sar    %cl,%edx
 1005393:	83 e2 01             	and    $0x1,%edx
 1005396:	8b 75 d4             	mov    -0x2c(%ebp),%esi
 1005399:	29 d6                	sub    %edx,%esi
 100539b:	0f af 75 e4          	imul   -0x1c(%ebp),%esi
 100539f:	8b 55 ec             	mov    -0x14(%ebp),%edx
 10053a2:	2b 45 dc             	sub    -0x24(%ebp),%eax
 10053a5:	01 c2                	add    %eax,%edx
 10053a7:	8b 45 d8             	mov    -0x28(%ebp),%eax
 10053aa:	0f af 05 40 34 87 03 	imul   0x3873440,%eax
 10053b1:	01 c2                	add    %eax,%edx
 10053b3:	a1 14 34 87 03       	mov    0x3873414,%eax
 10053b8:	89 34 90             	mov    %esi,(%eax,%edx,4)
 10053bb:	8b 45 d8             	mov    -0x28(%ebp),%eax
 10053be:	83 c0 01             	add    $0x1,%eax
 10053c1:	89 45 d8             	mov    %eax,-0x28(%ebp)
 10053c4:	e9 5a ff ff ff       	jmp    1005323 <graphics_WriteStr+0x53>
 10053c9:	eb 00                	jmp    10053cb <graphics_WriteStr+0xfb>
 10053cb:	8b 45 dc             	mov    -0x24(%ebp),%eax
 10053ce:	83 c0 01             	add    $0x1,%eax
 10053d1:	89 45 dc             	mov    %eax,-0x24(%ebp)
 10053d4:	e9 3a ff ff ff       	jmp    1005313 <graphics_WriteStr+0x43>
 10053d9:	8b 45 ec             	mov    -0x14(%ebp),%eax
 10053dc:	83 c0 08             	add    $0x8,%eax
 10053df:	89 45 ec             	mov    %eax,-0x14(%ebp)
 10053e2:	8b 45 e0             	mov    -0x20(%ebp),%eax
 10053e5:	83 c0 01             	add    $0x1,%eax
 10053e8:	89 45 e0             	mov    %eax,-0x20(%ebp)
 10053eb:	e9 09 ff ff ff       	jmp    10052f9 <graphics_WriteStr+0x29>
 10053f0:	83 c4 20             	add    $0x20,%esp
 10053f3:	5e                   	pop    %esi
 10053f4:	5f                   	pop    %edi
 10053f5:	5b                   	pop    %ebx
 10053f6:	5d                   	pop    %ebp
 10053f7:	c3                   	ret    
 10053f8:	90                   	nop
 10053f9:	8d b4 26 00 00 00 00 	lea    0x0(%esi,%eiz,1),%esi

01005400 <graphics_WriteUInt32>:
 1005400:	55                   	push   %ebp
 1005401:	89 e5                	mov    %esp,%ebp
 1005403:	56                   	push   %esi
 1005404:	81 ec a8 00 00 00    	sub    $0xa8,%esp
 100540a:	8b 45 14             	mov    0x14(%ebp),%eax
 100540d:	8b 4d 10             	mov    0x10(%ebp),%ecx
 1005410:	8b 55 0c             	mov    0xc(%ebp),%edx
 1005413:	8b 75 08             	mov    0x8(%ebp),%esi
 1005416:	89 75 f8             	mov    %esi,-0x8(%ebp)
 1005419:	89 55 f4             	mov    %edx,-0xc(%ebp)
 100541c:	89 4d f0             	mov    %ecx,-0x10(%ebp)
 100541f:	89 45 ec             	mov    %eax,-0x14(%ebp)
 1005422:	83 7d f4 0a          	cmpl   $0xa,-0xc(%ebp)
 1005426:	75 27                	jne    100544f <graphics_WriteUInt32+0x4f>
 1005428:	8d 05 27 45 7f 01    	lea    0x17f4527,%eax
 100542e:	8d 8d 6c ff ff ff    	lea    -0x94(%ebp),%ecx
 1005434:	8b 55 f8             	mov    -0x8(%ebp),%edx
 1005437:	89 0c 24             	mov    %ecx,(%esp)
 100543a:	89 44 24 04          	mov    %eax,0x4(%esp)
 100543e:	89 54 24 08          	mov    %edx,0x8(%esp)
 1005442:	e8 49 f0 ff ff       	call   1004490 <sprintf>
 1005447:	89 85 68 ff ff ff    	mov    %eax,-0x98(%ebp)
 100544d:	eb 5c                	jmp    10054ab <graphics_WriteUInt32+0xab>
 100544f:	83 7d f4 10          	cmpl   $0x10,-0xc(%ebp)
 1005453:	75 27                	jne    100547c <graphics_WriteUInt32+0x7c>
 1005455:	8d 05 2a 45 7f 01    	lea    0x17f452a,%eax
 100545b:	8d 8d 6c ff ff ff    	lea    -0x94(%ebp),%ecx
 1005461:	8b 55 f8             	mov    -0x8(%ebp),%edx
 1005464:	89 0c 24             	mov    %ecx,(%esp)
 1005467:	89 44 24 04          	mov    %eax,0x4(%esp)
 100546b:	89 54 24 08          	mov    %edx,0x8(%esp)
 100546f:	e8 1c f0 ff ff       	call   1004490 <sprintf>
 1005474:	89 85 64 ff ff ff    	mov    %eax,-0x9c(%ebp)
 100547a:	eb 2d                	jmp    10054a9 <graphics_WriteUInt32+0xa9>
 100547c:	83 7d f4 02          	cmpl   $0x2,-0xc(%ebp)
 1005480:	75 25                	jne    10054a7 <graphics_WriteUInt32+0xa7>
 1005482:	8d 05 2e 45 7f 01    	lea    0x17f452e,%eax
 1005488:	8d 8d 6c ff ff ff    	lea    -0x94(%ebp),%ecx
 100548e:	8b 55 f8             	mov    -0x8(%ebp),%edx
 1005491:	89 0c 24             	mov    %ecx,(%esp)
 1005494:	89 44 24 04          	mov    %eax,0x4(%esp)
 1005498:	89 54 24 08          	mov    %edx,0x8(%esp)
 100549c:	e8 ef ef ff ff       	call   1004490 <sprintf>
 10054a1:	89 85 60 ff ff ff    	mov    %eax,-0xa0(%ebp)
 10054a7:	eb 00                	jmp    10054a9 <graphics_WriteUInt32+0xa9>
 10054a9:	eb 00                	jmp    10054ab <graphics_WriteUInt32+0xab>
 10054ab:	8d 85 6c ff ff ff    	lea    -0x94(%ebp),%eax
 10054b1:	8b 4d f0             	mov    -0x10(%ebp),%ecx
 10054b4:	8b 55 ec             	mov    -0x14(%ebp),%edx
 10054b7:	89 04 24             	mov    %eax,(%esp)
 10054ba:	89 4c 24 04          	mov    %ecx,0x4(%esp)
 10054be:	89 54 24 08          	mov    %edx,0x8(%esp)
 10054c2:	e8 09 fe ff ff       	call   10052d0 <graphics_WriteStr>
 10054c7:	81 c4 a8 00 00 00    	add    $0xa8,%esp
 10054cd:	5e                   	pop    %esi
 10054ce:	5d                   	pop    %ebp
 10054cf:	c3                   	ret    

010054d0 <graphics_WriteUInt64>:
 10054d0:	55                   	push   %ebp
 10054d1:	89 e5                	mov    %esp,%ebp
 10054d3:	57                   	push   %edi
 10054d4:	56                   	push   %esi
 10054d5:	83 e4 f8             	and    $0xfffffff8,%esp
 10054d8:	81 ec 30 02 00 00    	sub    $0x230,%esp
 10054de:	8b 45 0c             	mov    0xc(%ebp),%eax
 10054e1:	8b 4d 08             	mov    0x8(%ebp),%ecx
 10054e4:	8b 55 18             	mov    0x18(%ebp),%edx
 10054e7:	8b 75 14             	mov    0x14(%ebp),%esi
 10054ea:	8b 7d 10             	mov    0x10(%ebp),%edi
 10054ed:	89 8c 24 28 02 00 00 	mov    %ecx,0x228(%esp)
 10054f4:	89 84 24 2c 02 00 00 	mov    %eax,0x22c(%esp)
 10054fb:	89 bc 24 24 02 00 00 	mov    %edi,0x224(%esp)
 1005502:	89 b4 24 20 02 00 00 	mov    %esi,0x220(%esp)
 1005509:	89 94 24 1c 02 00 00 	mov    %edx,0x21c(%esp)
 1005510:	83 bc 24 24 02 00 00 	cmpl   $0xa,0x224(%esp)
 1005517:	0a 
 1005518:	75 2e                	jne    1005548 <graphics_WriteUInt64+0x78>
 100551a:	8d 44 24 1c          	lea    0x1c(%esp),%eax
 100551e:	8b 8c 24 28 02 00 00 	mov    0x228(%esp),%ecx
 1005525:	8b 94 24 2c 02 00 00 	mov    0x22c(%esp),%edx
 100552c:	89 e6                	mov    %esp,%esi
 100552e:	89 56 0c             	mov    %edx,0xc(%esi)
 1005531:	89 4e 08             	mov    %ecx,0x8(%esi)
 1005534:	89 06                	mov    %eax,(%esi)
 1005536:	c7 46 04 27 45 7f 01 	movl   $0x17f4527,0x4(%esi)
 100553d:	e8 4e ef ff ff       	call   1004490 <sprintf>
 1005542:	89 44 24 18          	mov    %eax,0x18(%esp)
 1005546:	eb 72                	jmp    10055ba <graphics_WriteUInt64+0xea>
 1005548:	83 bc 24 24 02 00 00 	cmpl   $0x10,0x224(%esp)
 100554f:	10 
 1005550:	75 2e                	jne    1005580 <graphics_WriteUInt64+0xb0>
 1005552:	8d 44 24 1c          	lea    0x1c(%esp),%eax
 1005556:	8b 8c 24 28 02 00 00 	mov    0x228(%esp),%ecx
 100555d:	8b 94 24 2c 02 00 00 	mov    0x22c(%esp),%edx
 1005564:	89 e6                	mov    %esp,%esi
 1005566:	89 56 0c             	mov    %edx,0xc(%esi)
 1005569:	89 4e 08             	mov    %ecx,0x8(%esi)
 100556c:	89 06                	mov    %eax,(%esi)
 100556e:	c7 46 04 2a 45 7f 01 	movl   $0x17f452a,0x4(%esi)
 1005575:	e8 16 ef ff ff       	call   1004490 <sprintf>
 100557a:	89 44 24 14          	mov    %eax,0x14(%esp)
 100557e:	eb 38                	jmp    10055b8 <graphics_WriteUInt64+0xe8>
 1005580:	83 bc 24 24 02 00 00 	cmpl   $0x2,0x224(%esp)
 1005587:	02 
 1005588:	75 2c                	jne    10055b6 <graphics_WriteUInt64+0xe6>
 100558a:	8d 44 24 1c          	lea    0x1c(%esp),%eax
 100558e:	8b 8c 24 28 02 00 00 	mov    0x228(%esp),%ecx
 1005595:	8b 94 24 2c 02 00 00 	mov    0x22c(%esp),%edx
 100559c:	89 e6                	mov    %esp,%esi
 100559e:	89 56 0c             	mov    %edx,0xc(%esi)
 10055a1:	89 4e 08             	mov    %ecx,0x8(%esi)
 10055a4:	89 06                	mov    %eax,(%esi)
 10055a6:	c7 46 04 2e 45 7f 01 	movl   $0x17f452e,0x4(%esi)
 10055ad:	e8 de ee ff ff       	call   1004490 <sprintf>
 10055b2:	89 44 24 10          	mov    %eax,0x10(%esp)
 10055b6:	eb 00                	jmp    10055b8 <graphics_WriteUInt64+0xe8>
 10055b8:	eb 00                	jmp    10055ba <graphics_WriteUInt64+0xea>
 10055ba:	8d 44 24 1c          	lea    0x1c(%esp),%eax
 10055be:	8b 8c 24 20 02 00 00 	mov    0x220(%esp),%ecx
 10055c5:	8b 94 24 1c 02 00 00 	mov    0x21c(%esp),%edx
 10055cc:	89 04 24             	mov    %eax,(%esp)
 10055cf:	89 4c 24 04          	mov    %ecx,0x4(%esp)
 10055d3:	89 54 24 08          	mov    %edx,0x8(%esp)
 10055d7:	e8 f4 fc ff ff       	call   10052d0 <graphics_WriteStr>
 10055dc:	8d 65 f8             	lea    -0x8(%ebp),%esp
 10055df:	5e                   	pop    %esi
 10055e0:	5f                   	pop    %edi
 10055e1:	5d                   	pop    %ebp
 10055e2:	c3                   	ret    
 10055e3:	8d b6 00 00 00 00    	lea    0x0(%esi),%esi
 10055e9:	8d bc 27 00 00 00 00 	lea    0x0(%edi,%eiz,1),%edi

010055f0 <graphics_WriteFloat>:
 10055f0:	55                   	push   %ebp
 10055f1:	89 e5                	mov    %esp,%ebp
 10055f3:	53                   	push   %ebx
 10055f4:	56                   	push   %esi
 10055f5:	83 e4 f8             	and    $0xfffffff8,%esp
 10055f8:	81 ec 78 01 00 00    	sub    $0x178,%esp
 10055fe:	8b 45 14             	mov    0x14(%ebp),%eax
 1005601:	8b 4d 10             	mov    0x10(%ebp),%ecx
 1005604:	8b 55 0c             	mov    0xc(%ebp),%edx
 1005607:	f3 0f 10 45 08       	movss  0x8(%ebp),%xmm0
 100560c:	f3 0f 11 84 24 74 01 	movss  %xmm0,0x174(%esp)
 1005613:	00 00 
 1005615:	89 94 24 70 01 00 00 	mov    %edx,0x170(%esp)
 100561c:	89 8c 24 6c 01 00 00 	mov    %ecx,0x16c(%esp)
 1005623:	89 84 24 68 01 00 00 	mov    %eax,0x168(%esp)
 100562a:	c6 44 24 66 00       	movb   $0x0,0x66(%esp)
 100562f:	66 c7 44 24 64 38 39 	movw   $0x3938,0x64(%esp)
 1005636:	c7 44 24 60 34 35 36 	movl   $0x37363534,0x60(%esp)
 100563d:	37 
 100563e:	c7 44 24 5c 30 31 32 	movl   $0x33323130,0x5c(%esp)
 1005645:	33 
 1005646:	f3 0f 10 84 24 74 01 	movss  0x174(%esp),%xmm0
 100564d:	00 00 
 100564f:	f3 0f 11 44 24 38    	movss  %xmm0,0x38(%esp)
 1005655:	d9 44 24 38          	flds   0x38(%esp)
 1005659:	d9 7c 24 1e          	fnstcw 0x1e(%esp)
 100565d:	66 8b 74 24 1e       	mov    0x1e(%esp),%si
 1005662:	66 c7 44 24 1e 7f 0c 	movw   $0xc7f,0x1e(%esp)
 1005669:	d9 6c 24 1e          	fldcw  0x1e(%esp)
 100566d:	66 89 74 24 1e       	mov    %si,0x1e(%esp)
 1005672:	df 7c 24 30          	fistpll 0x30(%esp)
 1005676:	d9 6c 24 1e          	fldcw  0x1e(%esp)
 100567a:	8b 44 24 30          	mov    0x30(%esp),%eax
 100567e:	8b 4c 24 34          	mov    0x34(%esp),%ecx
 1005682:	89 4c 24 54          	mov    %ecx,0x54(%esp)
 1005686:	89 44 24 50          	mov    %eax,0x50(%esp)
 100568a:	f3 0f 10 84 24 74 01 	movss  0x174(%esp),%xmm0
 1005691:	00 00 
 1005693:	8b 84 24 70 01 00 00 	mov    0x170(%esp),%eax
 100569a:	f2 0f 10 0d 50 d8 82 	movsd  0x182d850,%xmm1
 10056a1:	01 
 10056a2:	0f 28 d1             	movaps %xmm1,%xmm2
 10056a5:	66 0f 6e d8          	movd   %eax,%xmm3
 10056a9:	66 0f eb da          	por    %xmm2,%xmm3
 10056ad:	f2 0f 5c d9          	subsd  %xmm1,%xmm3
 10056b1:	f2 0f 5a cb          	cvtsd2ss %xmm3,%xmm1
 10056b5:	f3 0f 59 c1          	mulss  %xmm1,%xmm0
 10056b9:	df 6c 24 50          	fildll 0x50(%esp)
 10056bd:	d9 5c 24 40          	fstps  0x40(%esp)
 10056c1:	f3 0f 10 4c 24 40    	movss  0x40(%esp),%xmm1
 10056c7:	f3 0f 5c c1          	subss  %xmm1,%xmm0
 10056cb:	f3 0f 11 44 24 28    	movss  %xmm0,0x28(%esp)
 10056d1:	d9 44 24 28          	flds   0x28(%esp)
 10056d5:	d9 7c 24 1c          	fnstcw 0x1c(%esp)
 10056d9:	66 8b 74 24 1c       	mov    0x1c(%esp),%si
 10056de:	66 c7 44 24 1c 7f 0c 	movw   $0xc7f,0x1c(%esp)
 10056e5:	d9 6c 24 1c          	fldcw  0x1c(%esp)
 10056e9:	66 89 74 24 1c       	mov    %si,0x1c(%esp)
 10056ee:	df 7c 24 20          	fistpll 0x20(%esp)
 10056f2:	d9 6c 24 1c          	fldcw  0x1c(%esp)
 10056f6:	8b 44 24 20          	mov    0x20(%esp),%eax
 10056fa:	8b 4c 24 24          	mov    0x24(%esp),%ecx
 10056fe:	89 4c 24 4c          	mov    %ecx,0x4c(%esp)
 1005702:	89 44 24 48          	mov    %eax,0x48(%esp)
 1005706:	c7 44 24 44 00 00 00 	movl   $0x0,0x44(%esp)
 100570d:	00 
 100570e:	8b 44 24 50          	mov    0x50(%esp),%eax
 1005712:	8b 4c 24 54          	mov    0x54(%esp),%ecx
 1005716:	89 e2                	mov    %esp,%edx
 1005718:	89 4a 04             	mov    %ecx,0x4(%edx)
 100571b:	89 02                	mov    %eax,(%edx)
 100571d:	c7 42 0c 00 00 00 00 	movl   $0x0,0xc(%edx)
 1005724:	c7 42 08 0a 00 00 00 	movl   $0xa,0x8(%edx)
 100572b:	e8 70 4e 00 00       	call   100a5a0 <__moddi3>
 1005730:	8a 5c 04 5c          	mov    0x5c(%esp,%eax,1),%bl
 1005734:	8b 44 24 44          	mov    0x44(%esp),%eax
 1005738:	89 c1                	mov    %eax,%ecx
 100573a:	41                   	inc    %ecx
 100573b:	89 4c 24 44          	mov    %ecx,0x44(%esp)
 100573f:	88 5c 04 68          	mov    %bl,0x68(%esp,%eax,1)
 1005743:	8b 44 24 50          	mov    0x50(%esp),%eax
 1005747:	8b 4c 24 54          	mov    0x54(%esp),%ecx
 100574b:	89 e2                	mov    %esp,%edx
 100574d:	89 4a 04             	mov    %ecx,0x4(%edx)
 1005750:	89 02                	mov    %eax,(%edx)
 1005752:	c7 42 0c 00 00 00 00 	movl   $0x0,0xc(%edx)
 1005759:	c7 42 08 0a 00 00 00 	movl   $0xa,0x8(%edx)
 1005760:	e8 ab 4c 00 00       	call   100a410 <__divdi3>
 1005765:	89 54 24 54          	mov    %edx,0x54(%esp)
 1005769:	89 44 24 50          	mov    %eax,0x50(%esp)
 100576d:	8b 44 24 50          	mov    0x50(%esp),%eax
 1005771:	8b 4c 24 54          	mov    0x54(%esp),%ecx
 1005775:	09 c8                	or     %ecx,%eax
 1005777:	89 44 24 18          	mov    %eax,0x18(%esp)
 100577b:	75 91                	jne    100570e <graphics_WriteFloat+0x11e>
 100577d:	eb 00                	jmp    100577f <graphics_WriteFloat+0x18f>
 100577f:	8d 44 24 68          	lea    0x68(%esp),%eax
 1005783:	8b 4c 24 44          	mov    0x44(%esp),%ecx
 1005787:	c6 44 0c 68 00       	movb   $0x0,0x68(%esp,%ecx,1)
 100578c:	89 04 24             	mov    %eax,(%esp)
 100578f:	e8 3c e1 ff ff       	call   10038d0 <strrev>
 1005794:	8b 44 24 44          	mov    0x44(%esp),%eax
 1005798:	89 c1                	mov    %eax,%ecx
 100579a:	83 c1 01             	add    $0x1,%ecx
 100579d:	89 4c 24 44          	mov    %ecx,0x44(%esp)
 10057a1:	c6 44 04 68 2e       	movb   $0x2e,0x68(%esp,%eax,1)
 10057a6:	8b 44 24 48          	mov    0x48(%esp),%eax
 10057aa:	8b 4c 24 4c          	mov    0x4c(%esp),%ecx
 10057ae:	89 e2                	mov    %esp,%edx
 10057b0:	89 4a 04             	mov    %ecx,0x4(%edx)
 10057b3:	89 02                	mov    %eax,(%edx)
 10057b5:	c7 42 0c 00 00 00 00 	movl   $0x0,0xc(%edx)
 10057bc:	c7 42 08 0a 00 00 00 	movl   $0xa,0x8(%edx)
 10057c3:	e8 d8 4d 00 00       	call   100a5a0 <__moddi3>
 10057c8:	8a 5c 04 5c          	mov    0x5c(%esp,%eax,1),%bl
 10057cc:	8b 44 24 44          	mov    0x44(%esp),%eax
 10057d0:	89 c1                	mov    %eax,%ecx
 10057d2:	41                   	inc    %ecx
 10057d3:	89 4c 24 44          	mov    %ecx,0x44(%esp)
 10057d7:	88 5c 04 68          	mov    %bl,0x68(%esp,%eax,1)
 10057db:	8b 44 24 48          	mov    0x48(%esp),%eax
 10057df:	8b 4c 24 4c          	mov    0x4c(%esp),%ecx
 10057e3:	89 e2                	mov    %esp,%edx
 10057e5:	89 4a 04             	mov    %ecx,0x4(%edx)
 10057e8:	89 02                	mov    %eax,(%edx)
 10057ea:	c7 42 0c 00 00 00 00 	movl   $0x0,0xc(%edx)
 10057f1:	c7 42 08 0a 00 00 00 	movl   $0xa,0x8(%edx)
 10057f8:	e8 13 4c 00 00       	call   100a410 <__divdi3>
 10057fd:	89 54 24 4c          	mov    %edx,0x4c(%esp)
 1005801:	89 44 24 48          	mov    %eax,0x48(%esp)
 1005805:	8b 44 24 48          	mov    0x48(%esp),%eax
 1005809:	8b 4c 24 4c          	mov    0x4c(%esp),%ecx
 100580d:	09 c8                	or     %ecx,%eax
 100580f:	89 44 24 14          	mov    %eax,0x14(%esp)
 1005813:	75 91                	jne    10057a6 <graphics_WriteFloat+0x1b6>
 1005815:	eb 00                	jmp    1005817 <graphics_WriteFloat+0x227>
 1005817:	8d 44 24 68          	lea    0x68(%esp),%eax
 100581b:	8b 4c 24 44          	mov    0x44(%esp),%ecx
 100581f:	c6 44 0c 68 00       	movb   $0x0,0x68(%esp,%ecx,1)
 1005824:	8b 8c 24 6c 01 00 00 	mov    0x16c(%esp),%ecx
 100582b:	8b 94 24 68 01 00 00 	mov    0x168(%esp),%edx
 1005832:	89 04 24             	mov    %eax,(%esp)
 1005835:	89 4c 24 04          	mov    %ecx,0x4(%esp)
 1005839:	89 54 24 08          	mov    %edx,0x8(%esp)
 100583d:	e8 8e fa ff ff       	call   10052d0 <graphics_WriteStr>
 1005842:	8d 65 f8             	lea    -0x8(%ebp),%esp
 1005845:	5e                   	pop    %esi
 1005846:	5b                   	pop    %ebx
 1005847:	5d                   	pop    %ebp
 1005848:	c3                   	ret    
 1005849:	8d b4 26 00 00 00 00 	lea    0x0(%esi,%eiz,1),%esi

01005850 <graphics_SetPixel>:
 1005850:	55                   	push   %ebp
 1005851:	89 e5                	mov    %esp,%ebp
 1005853:	83 ec 0c             	sub    $0xc,%esp
 1005856:	8b 45 10             	mov    0x10(%ebp),%eax
 1005859:	8b 4d 0c             	mov    0xc(%ebp),%ecx
 100585c:	8b 55 08             	mov    0x8(%ebp),%edx
 100585f:	89 55 fc             	mov    %edx,-0x4(%ebp)
 1005862:	89 4d f8             	mov    %ecx,-0x8(%ebp)
 1005865:	89 45 f4             	mov    %eax,-0xc(%ebp)
 1005868:	8b 45 f4             	mov    -0xc(%ebp),%eax
 100586b:	8b 4d fc             	mov    -0x4(%ebp),%ecx
 100586e:	8b 55 f8             	mov    -0x8(%ebp),%edx
 1005871:	0f af 15 40 34 87 03 	imul   0x3873440,%edx
 1005878:	01 d1                	add    %edx,%ecx
 100587a:	8b 15 14 34 87 03    	mov    0x3873414,%edx
 1005880:	89 04 8a             	mov    %eax,(%edx,%ecx,4)
 1005883:	83 c4 0c             	add    $0xc,%esp
 1005886:	5d                   	pop    %ebp
 1005887:	c3                   	ret    
 1005888:	90                   	nop
 1005889:	8d b4 26 00 00 00 00 	lea    0x0(%esi,%eiz,1),%esi

01005890 <graphics_DrawBuffer>:
 1005890:	55                   	push   %ebp
 1005891:	89 e5                	mov    %esp,%ebp
 1005893:	53                   	push   %ebx
 1005894:	57                   	push   %edi
 1005895:	56                   	push   %esi
 1005896:	83 e4 f8             	and    $0xfffffff8,%esp
 1005899:	83 ec 40             	sub    $0x40,%esp
 100589c:	8b 45 18             	mov    0x18(%ebp),%eax
 100589f:	8b 4d 14             	mov    0x14(%ebp),%ecx
 10058a2:	8b 55 10             	mov    0x10(%ebp),%edx
 10058a5:	8b 75 0c             	mov    0xc(%ebp),%esi
 10058a8:	8b 7d 08             	mov    0x8(%ebp),%edi
 10058ab:	89 7c 24 38          	mov    %edi,0x38(%esp)
 10058af:	89 74 24 34          	mov    %esi,0x34(%esp)
 10058b3:	89 54 24 30          	mov    %edx,0x30(%esp)
 10058b7:	89 4c 24 2c          	mov    %ecx,0x2c(%esp)
 10058bb:	89 44 24 28          	mov    %eax,0x28(%esp)
 10058bf:	8b 44 24 34          	mov    0x34(%esp),%eax
 10058c3:	8b 4c 24 30          	mov    0x30(%esp),%ecx
 10058c7:	8b 15 40 34 87 03    	mov    0x3873440,%edx
 10058cd:	0f af ca             	imul   %edx,%ecx
 10058d0:	01 c8                	add    %ecx,%eax
 10058d2:	8b 0d 14 34 87 03    	mov    0x3873414,%ecx
 10058d8:	8d 04 81             	lea    (%ecx,%eax,4),%eax
 10058db:	89 44 24 24          	mov    %eax,0x24(%esp)
 10058df:	8b 44 24 38          	mov    0x38(%esp),%eax
 10058e3:	89 44 24 20          	mov    %eax,0x20(%esp)
 10058e7:	c7 44 24 1c 00 00 00 	movl   $0x0,0x1c(%esp)
 10058ee:	00 
 10058ef:	c7 44 24 18 00 00 00 	movl   $0x0,0x18(%esp)
 10058f6:	00 
 10058f7:	c7 44 24 14 00 00 00 	movl   $0x0,0x14(%esp)
 10058fe:	00 
 10058ff:	c7 44 24 10 00 00 00 	movl   $0x0,0x10(%esp)
 1005906:	00 
 1005907:	8b 44 24 34          	mov    0x34(%esp),%eax
 100590b:	03 44 24 2c          	add    0x2c(%esp),%eax
 100590f:	3b 05 48 34 87 03    	cmp    0x3873448,%eax
 1005915:	76 0d                	jbe    1005924 <graphics_DrawBuffer+0x94>
 1005917:	a1 48 34 87 03       	mov    0x3873448,%eax
 100591c:	2b 44 24 34          	sub    0x34(%esp),%eax
 1005920:	89 44 24 2c          	mov    %eax,0x2c(%esp)
 1005924:	8b 44 24 30          	mov    0x30(%esp),%eax
 1005928:	03 44 24 28          	add    0x28(%esp),%eax
 100592c:	3b 05 44 34 87 03    	cmp    0x3873444,%eax
 1005932:	76 0d                	jbe    1005941 <graphics_DrawBuffer+0xb1>
 1005934:	a1 44 34 87 03       	mov    0x3873444,%eax
 1005939:	2b 44 24 30          	sub    0x30(%esp),%eax
 100593d:	89 44 24 28          	mov    %eax,0x28(%esp)
 1005941:	eb 00                	jmp    1005943 <graphics_DrawBuffer+0xb3>
 1005943:	8b 44 24 10          	mov    0x10(%esp),%eax
 1005947:	8b 4c 24 14          	mov    0x14(%esp),%ecx
 100594b:	8b 54 24 28          	mov    0x28(%esp),%edx
 100594f:	29 d0                	sub    %edx,%eax
 1005951:	0f 93 c3             	setae  %bl
 1005954:	85 c9                	test   %ecx,%ecx
 1005956:	b7 01                	mov    $0x1,%bh
 1005958:	89 44 24 0c          	mov    %eax,0xc(%esp)
 100595c:	88 7c 24 0b          	mov    %bh,0xb(%esp)
 1005960:	88 5c 24 0a          	mov    %bl,0xa(%esp)
 1005964:	74 08                	je     100596e <graphics_DrawBuffer+0xde>
 1005966:	8a 44 24 0b          	mov    0xb(%esp),%al
 100596a:	88 44 24 0a          	mov    %al,0xa(%esp)
 100596e:	8a 44 24 0a          	mov    0xa(%esp),%al
 1005972:	84 c0                	test   %al,%al
 1005974:	0f 85 d4 00 00 00    	jne    1005a4e <graphics_DrawBuffer+0x1be>
 100597a:	eb 00                	jmp    100597c <graphics_DrawBuffer+0xec>
 100597c:	8b 44 24 20          	mov    0x20(%esp),%eax
 1005980:	f2 0f 10 00          	movsd  (%eax),%xmm0
 1005984:	8b 44 24 24          	mov    0x24(%esp),%eax
 1005988:	f2 0f 11 00          	movsd  %xmm0,(%eax)
 100598c:	8b 44 24 20          	mov    0x20(%esp),%eax
 1005990:	f2 0f 10 40 08       	movsd  0x8(%eax),%xmm0
 1005995:	8b 44 24 24          	mov    0x24(%esp),%eax
 1005999:	f2 0f 11 40 08       	movsd  %xmm0,0x8(%eax)
 100599e:	8b 44 24 24          	mov    0x24(%esp),%eax
 10059a2:	83 c0 10             	add    $0x10,%eax
 10059a5:	89 44 24 24          	mov    %eax,0x24(%esp)
 10059a9:	8b 44 24 18          	mov    0x18(%esp),%eax
 10059ad:	8b 4c 24 1c          	mov    0x1c(%esp),%ecx
 10059b1:	83 c0 04             	add    $0x4,%eax
 10059b4:	83 d1 00             	adc    $0x0,%ecx
 10059b7:	89 44 24 18          	mov    %eax,0x18(%esp)
 10059bb:	89 4c 24 1c          	mov    %ecx,0x1c(%esp)
 10059bf:	8b 44 24 20          	mov    0x20(%esp),%eax
 10059c3:	83 c0 10             	add    $0x10,%eax
 10059c6:	89 44 24 20          	mov    %eax,0x20(%esp)
 10059ca:	8b 44 24 18          	mov    0x18(%esp),%eax
 10059ce:	8b 4c 24 1c          	mov    0x1c(%esp),%ecx
 10059d2:	8b 54 24 2c          	mov    0x2c(%esp),%edx
 10059d6:	29 d0                	sub    %edx,%eax
 10059d8:	0f 92 c3             	setb   %bl
 10059db:	31 d2                	xor    %edx,%edx
 10059dd:	85 c9                	test   %ecx,%ecx
 10059df:	88 d7                	mov    %dl,%bh
 10059e1:	89 44 24 04          	mov    %eax,0x4(%esp)
 10059e5:	88 7c 24 03          	mov    %bh,0x3(%esp)
 10059e9:	88 5c 24 02          	mov    %bl,0x2(%esp)
 10059ed:	74 08                	je     10059f7 <graphics_DrawBuffer+0x167>
 10059ef:	8a 44 24 03          	mov    0x3(%esp),%al
 10059f3:	88 44 24 02          	mov    %al,0x2(%esp)
 10059f7:	8a 44 24 02          	mov    0x2(%esp),%al
 10059fb:	84 c0                	test   %al,%al
 10059fd:	75 4a                	jne    1005a49 <graphics_DrawBuffer+0x1b9>
 10059ff:	eb 00                	jmp    1005a01 <graphics_DrawBuffer+0x171>
 1005a01:	c7 44 24 1c 00 00 00 	movl   $0x0,0x1c(%esp)
 1005a08:	00 
 1005a09:	c7 44 24 18 00 00 00 	movl   $0x0,0x18(%esp)
 1005a10:	00 
 1005a11:	8b 44 24 10          	mov    0x10(%esp),%eax
 1005a15:	8b 4c 24 14          	mov    0x14(%esp),%ecx
 1005a19:	83 c0 01             	add    $0x1,%eax
 1005a1c:	83 d1 00             	adc    $0x0,%ecx
 1005a1f:	89 44 24 10          	mov    %eax,0x10(%esp)
 1005a23:	89 4c 24 14          	mov    %ecx,0x14(%esp)
 1005a27:	8b 4c 24 34          	mov    0x34(%esp),%ecx
 1005a2b:	8b 54 24 30          	mov    0x30(%esp),%edx
 1005a2f:	01 c2                	add    %eax,%edx
 1005a31:	a1 40 34 87 03       	mov    0x3873440,%eax
 1005a36:	0f af d0             	imul   %eax,%edx
 1005a39:	01 d1                	add    %edx,%ecx
 1005a3b:	a1 14 34 87 03       	mov    0x3873414,%eax
 1005a40:	c1 e1 02             	shl    $0x2,%ecx
 1005a43:	01 c8                	add    %ecx,%eax
 1005a45:	89 44 24 24          	mov    %eax,0x24(%esp)
 1005a49:	e9 f5 fe ff ff       	jmp    1005943 <graphics_DrawBuffer+0xb3>
 1005a4e:	8d 65 f4             	lea    -0xc(%ebp),%esp
 1005a51:	5e                   	pop    %esi
 1005a52:	5f                   	pop    %edi
 1005a53:	5b                   	pop    %ebx
 1005a54:	5d                   	pop    %ebp
 1005a55:	c3                   	ret    
 1005a56:	66 90                	xchg   %ax,%ax
 1005a58:	66 90                	xchg   %ax,%ax
 1005a5a:	66 90                	xchg   %ax,%ax
 1005a5c:	66 90                	xchg   %ax,%ax
 1005a5e:	66 90                	xchg   %ax,%ax

01005a60 <Keyboard_Setup>:
 1005a60:	55                   	push   %ebp
 1005a61:	89 e5                	mov    %esp,%ebp
 1005a63:	83 ec 0c             	sub    $0xc,%esp
 1005a66:	e8 65 ea ff ff       	call   10044d0 <SysMan_RegisterSystem>
 1005a6b:	a3 7c f0 a8 04       	mov    %eax,0x4a8f07c
 1005a70:	89 e1                	mov    %esp,%ecx
 1005a72:	89 01                	mov    %eax,(%ecx)
 1005a74:	c7 41 04 3d 45 7f 01 	movl   $0x17f453d,0x4(%ecx)
 1005a7b:	e8 80 df ff ff       	call   1003a00 <strcpy>
 1005a80:	89 45 fc             	mov    %eax,-0x4(%ebp)
 1005a83:	e8 78 d1 ff ff       	call   1002c00 <Interrupts_GetSysID>
 1005a88:	8b 0d 7c f0 a8 04    	mov    0x4a8f07c,%ecx
 1005a8e:	89 51 14             	mov    %edx,0x14(%ecx)
 1005a91:	89 41 10             	mov    %eax,0x10(%ecx)
 1005a94:	a1 7c f0 a8 04       	mov    0x4a8f07c,%eax
 1005a99:	c7 40 1c 00 00 00 00 	movl   $0x0,0x1c(%eax)
 1005aa0:	c7 40 18 00 00 00 00 	movl   $0x0,0x18(%eax)
 1005aa7:	a1 7c f0 a8 04       	mov    0x4a8f07c,%eax
 1005aac:	c7 80 08 01 00 00 90 	movl   $0x1005b90,0x108(%eax)
 1005ab3:	5b 00 01 
 1005ab6:	a1 7c f0 a8 04       	mov    0x4a8f07c,%eax
 1005abb:	c7 80 0c 01 00 00 00 	movl   $0x1005b00,0x10c(%eax)
 1005ac2:	5b 00 01 
 1005ac5:	a1 7c f0 a8 04       	mov    0x4a8f07c,%eax
 1005aca:	c7 80 10 01 00 00 10 	movl   $0x1005b10,0x110(%eax)
 1005ad1:	5b 00 01 
 1005ad4:	a1 7c f0 a8 04       	mov    0x4a8f07c,%eax
 1005ad9:	8b 88 14 01 00 00    	mov    0x114(%eax),%ecx
 1005adf:	8b 80 18 01 00 00    	mov    0x118(%eax),%eax
 1005ae5:	89 e2                	mov    %esp,%edx
 1005ae7:	89 42 04             	mov    %eax,0x4(%edx)
 1005aea:	89 0a                	mov    %ecx,(%edx)
 1005aec:	e8 bf eb ff ff       	call   10046b0 <SysMan_StartSystem>
 1005af1:	83 c4 0c             	add    $0xc,%esp
 1005af4:	5d                   	pop    %ebp
 1005af5:	c3                   	ret    
 1005af6:	8d 76 00             	lea    0x0(%esi),%esi
 1005af9:	8d bc 27 00 00 00 00 	lea    0x0(%edi,%eiz,1),%edi

01005b00 <kbd_callback>:
 1005b00:	55                   	push   %ebp
 1005b01:	89 e5                	mov    %esp,%ebp
 1005b03:	50                   	push   %eax
 1005b04:	8b 45 08             	mov    0x8(%ebp),%eax
 1005b07:	89 45 fc             	mov    %eax,-0x4(%ebp)
 1005b0a:	83 c4 04             	add    $0x4,%esp
 1005b0d:	5d                   	pop    %ebp
 1005b0e:	c3                   	ret    
 1005b0f:	90                   	nop

01005b10 <kbd_messageHandler>:
 1005b10:	55                   	push   %ebp
 1005b11:	89 e5                	mov    %esp,%ebp
 1005b13:	83 ec 08             	sub    $0x8,%esp
 1005b16:	8b 45 08             	mov    0x8(%ebp),%eax
 1005b19:	89 45 f8             	mov    %eax,-0x8(%ebp)
 1005b1c:	0f b6 45 ff          	movzbl -0x1(%ebp),%eax
 1005b20:	83 c4 08             	add    $0x8,%esp
 1005b23:	5d                   	pop    %ebp
 1005b24:	c3                   	ret    
 1005b25:	8d 74 26 00          	lea    0x0(%esi,%eiz,1),%esi
 1005b29:	8d bc 27 00 00 00 00 	lea    0x0(%edi,%eiz,1),%edi

01005b30 <keyboard_test>:
 1005b30:	55                   	push   %ebp
 1005b31:	89 e5                	mov    %esp,%ebp
 1005b33:	83 ec 14             	sub    $0x14,%esp
 1005b36:	8b 45 08             	mov    0x8(%ebp),%eax
 1005b39:	8d 0d 49 45 7f 01    	lea    0x17f4549,%ecx
 1005b3f:	89 45 fc             	mov    %eax,-0x4(%ebp)
 1005b42:	89 0c 24             	mov    %ecx,(%esp)
 1005b45:	e8 d6 b1 ff ff       	call   1000d20 <COM_WriteStr>
 1005b4a:	b8 64 00 00 00       	mov    $0x64,%eax
 1005b4f:	c7 04 24 64 00 00 00 	movl   $0x64,(%esp)
 1005b56:	89 45 f8             	mov    %eax,-0x8(%ebp)
 1005b59:	e8 02 db ff ff       	call   1003660 <inb>
 1005b5e:	83 e0 01             	and    $0x1,%eax
 1005b61:	83 f8 00             	cmp    $0x0,%eax
 1005b64:	74 19                	je     1005b7f <keyboard_test+0x4f>
 1005b66:	b8 60 00 00 00       	mov    $0x60,%eax
 1005b6b:	c7 04 24 60 00 00 00 	movl   $0x60,(%esp)
 1005b72:	89 45 f4             	mov    %eax,-0xc(%ebp)
 1005b75:	e8 e6 da ff ff       	call   1003660 <inb>
 1005b7a:	89 45 f0             	mov    %eax,-0x10(%ebp)
 1005b7d:	eb cb                	jmp    1005b4a <keyboard_test+0x1a>
 1005b7f:	83 c4 14             	add    $0x14,%esp
 1005b82:	5d                   	pop    %ebp
 1005b83:	c3                   	ret    
 1005b84:	8d b6 00 00 00 00    	lea    0x0(%esi),%esi
 1005b8a:	8d bf 00 00 00 00    	lea    0x0(%edi),%edi

01005b90 <kbd_Initialize>:
 1005b90:	55                   	push   %ebp
 1005b91:	89 e5                	mov    %esp,%ebp
 1005b93:	56                   	push   %esi
 1005b94:	83 ec 34             	sub    $0x34,%esp
 1005b97:	e8 94 bc ff ff       	call   1001830 <APIC_GetID>
 1005b9c:	0f b6 c8             	movzbl %al,%ecx
 1005b9f:	31 d2                	xor    %edx,%edx
 1005ba1:	89 e6                	mov    %esp,%esi
 1005ba3:	89 56 0c             	mov    %edx,0xc(%esi)
 1005ba6:	89 4e 08             	mov    %ecx,0x8(%esi)
 1005ba9:	c7 46 18 00 00 00 00 	movl   $0x0,0x18(%esi)
 1005bb0:	c7 46 14 00 00 00 00 	movl   $0x0,0x14(%esi)
 1005bb7:	c7 46 10 00 00 00 00 	movl   $0x0,0x10(%esi)
 1005bbe:	c7 46 04 21 00 00 00 	movl   $0x21,0x4(%esi)
 1005bc5:	c7 06 01 00 00 00    	movl   $0x1,(%esi)
 1005bcb:	e8 70 c4 ff ff       	call   1002040 <IOAPIC_MapIRQ>
 1005bd0:	b9 21 00 00 00       	mov    $0x21,%ecx
 1005bd5:	ba 01 00 00 00       	mov    $0x1,%edx
 1005bda:	c7 04 24 21 00 00 00 	movl   $0x21,(%esp)
 1005be1:	c7 44 24 04 01 00 00 	movl   $0x1,0x4(%esp)
 1005be8:	00 
 1005be9:	89 4d f4             	mov    %ecx,-0xc(%ebp)
 1005bec:	89 55 f0             	mov    %edx,-0x10(%ebp)
 1005bef:	e8 8c c6 ff ff       	call   1002280 <IOAPIC_SetEnableMode>
 1005bf4:	b9 21 00 00 00       	mov    $0x21,%ecx
 1005bf9:	ba 00 00 00 00       	mov    $0x0,%edx
 1005bfe:	8d 35 30 5b 00 01    	lea    0x1005b30,%esi
 1005c04:	c7 04 24 21 00 00 00 	movl   $0x21,(%esp)
 1005c0b:	c7 44 24 04 00 00 00 	movl   $0x0,0x4(%esp)
 1005c12:	00 
 1005c13:	89 74 24 08          	mov    %esi,0x8(%esp)
 1005c17:	89 4d ec             	mov    %ecx,-0x14(%ebp)
 1005c1a:	89 55 e8             	mov    %edx,-0x18(%ebp)
 1005c1d:	e8 0e ce ff ff       	call   1002a30 <Interrupts_RegisterHandler>
 1005c22:	e8 79 3e 00 00       	call   1009aa0 <PS2_Initialize>
 1005c27:	88 45 e7             	mov    %al,-0x19(%ebp)
 1005c2a:	e8 71 43 00 00       	call   1009fa0 <PS2Keyboard_Initialize>
 1005c2f:	8b 4d f8             	mov    -0x8(%ebp),%ecx
 1005c32:	88 45 e6             	mov    %al,-0x1a(%ebp)
 1005c35:	89 c8                	mov    %ecx,%eax
 1005c37:	83 c4 34             	add    $0x34,%esp
 1005c3a:	5e                   	pop    %esi
 1005c3b:	5d                   	pop    %ebp
 1005c3c:	c3                   	ret    
 1005c3d:	66 90                	xchg   %ax,%ax
 1005c3f:	90                   	nop

01005c40 <physMemMan_Setup>:
 1005c40:	55                   	push   %ebp
 1005c41:	89 e5                	mov    %esp,%ebp
 1005c43:	56                   	push   %esi
 1005c44:	83 ec 0c             	sub    $0xc,%esp
 1005c47:	e8 84 e8 ff ff       	call   10044d0 <SysMan_RegisterSystem>
 1005c4c:	a3 80 f0 a8 04       	mov    %eax,0x4a8f080
 1005c51:	89 e1                	mov    %esp,%ecx
 1005c53:	89 01                	mov    %eax,(%ecx)
 1005c55:	c7 41 04 64 45 7f 01 	movl   $0x17f4564,0x4(%ecx)
 1005c5c:	e8 9f dd ff ff       	call   1003a00 <strcpy>
 1005c61:	8b 0d 80 f0 a8 04    	mov    0x4a8f080,%ecx
 1005c67:	c7 41 14 00 00 00 00 	movl   $0x0,0x14(%ecx)
 1005c6e:	c7 41 10 00 00 00 00 	movl   $0x0,0x10(%ecx)
 1005c75:	8b 0d 80 f0 a8 04    	mov    0x4a8f080,%ecx
 1005c7b:	c7 81 08 01 00 00 00 	movl   $0x1005d00,0x108(%ecx)
 1005c82:	5d 00 01 
 1005c85:	8b 0d 80 f0 a8 04    	mov    0x4a8f080,%ecx
 1005c8b:	c7 81 0c 01 00 00 d0 	movl   $0x1005cd0,0x10c(%ecx)
 1005c92:	5c 00 01 
 1005c95:	8b 0d 80 f0 a8 04    	mov    0x4a8f080,%ecx
 1005c9b:	c7 81 10 01 00 00 e0 	movl   $0x1005ce0,0x110(%ecx)
 1005ca2:	5c 00 01 
 1005ca5:	8b 0d 80 f0 a8 04    	mov    0x4a8f080,%ecx
 1005cab:	8b 91 14 01 00 00    	mov    0x114(%ecx),%edx
 1005cb1:	8b 89 18 01 00 00    	mov    0x118(%ecx),%ecx
 1005cb7:	89 e6                	mov    %esp,%esi
 1005cb9:	89 4e 04             	mov    %ecx,0x4(%esi)
 1005cbc:	89 16                	mov    %edx,(%esi)
 1005cbe:	89 45 f8             	mov    %eax,-0x8(%ebp)
 1005cc1:	e8 ea e9 ff ff       	call   10046b0 <SysMan_StartSystem>
 1005cc6:	83 c4 0c             	add    $0xc,%esp
 1005cc9:	5e                   	pop    %esi
 1005cca:	5d                   	pop    %ebp
 1005ccb:	c3                   	ret    
 1005ccc:	8d 74 26 00          	lea    0x0(%esi,%eiz,1),%esi

01005cd0 <pmem_callback>:
 1005cd0:	55                   	push   %ebp
 1005cd1:	89 e5                	mov    %esp,%ebp
 1005cd3:	50                   	push   %eax
 1005cd4:	8b 45 08             	mov    0x8(%ebp),%eax
 1005cd7:	89 45 fc             	mov    %eax,-0x4(%ebp)
 1005cda:	83 c4 04             	add    $0x4,%esp
 1005cdd:	5d                   	pop    %ebp
 1005cde:	c3                   	ret    
 1005cdf:	90                   	nop

01005ce0 <pmem_messageHandler>:
 1005ce0:	55                   	push   %ebp
 1005ce1:	89 e5                	mov    %esp,%ebp
 1005ce3:	83 ec 08             	sub    $0x8,%esp
 1005ce6:	8b 45 08             	mov    0x8(%ebp),%eax
 1005ce9:	89 45 f8             	mov    %eax,-0x8(%ebp)
 1005cec:	0f b6 45 ff          	movzbl -0x1(%ebp),%eax
 1005cf0:	83 c4 08             	add    $0x8,%esp
 1005cf3:	5d                   	pop    %ebp
 1005cf4:	c3                   	ret    
 1005cf5:	8d 74 26 00          	lea    0x0(%esi,%eiz,1),%esi
 1005cf9:	8d bc 27 00 00 00 00 	lea    0x0(%edi,%eiz,1),%edi

01005d00 <pmem_Initialize>:
 1005d00:	55                   	push   %ebp
 1005d01:	89 e5                	mov    %esp,%ebp
 1005d03:	53                   	push   %ebx
 1005d04:	57                   	push   %edi
 1005d05:	56                   	push   %esi
 1005d06:	83 ec 54             	sub    $0x54,%esp
 1005d09:	b8 00 00 00 00       	mov    $0x0,%eax
 1005d0e:	8b 0d 1c b0 84 01    	mov    0x184b01c,%ecx
 1005d14:	8b 51 04             	mov    0x4(%ecx),%edx
 1005d17:	8b 49 08             	mov    0x8(%ecx),%ecx
 1005d1a:	01 ca                	add    %ecx,%edx
 1005d1c:	c1 e2 0a             	shl    $0xa,%edx
 1005d1f:	89 15 88 f0 a8 04    	mov    %edx,0x4a8f088
 1005d25:	c7 05 8c f0 a8 04 00 	movl   $0x0,0x4a8f08c
 1005d2c:	00 00 00 
 1005d2f:	c1 ea 0c             	shr    $0xc,%edx
 1005d32:	89 15 58 34 87 03    	mov    %edx,0x3873458
 1005d38:	c7 05 5c 34 87 03 00 	movl   $0x0,0x387345c
 1005d3f:	00 00 00 
 1005d42:	89 15 70 34 87 03    	mov    %edx,0x3873470
 1005d48:	c7 05 74 34 87 03 00 	movl   $0x0,0x3873474
 1005d4f:	00 00 00 
 1005d52:	89 15 60 34 87 03    	mov    %edx,0x3873460
 1005d58:	c7 05 64 34 87 03 00 	movl   $0x0,0x3873464
 1005d5f:	00 00 00 
 1005d62:	c7 05 8c 34 87 03 00 	movl   $0x0,0x387348c
 1005d69:	00 00 00 
 1005d6c:	c7 05 88 34 87 03 00 	movl   $0x0,0x3873488
 1005d73:	00 00 00 
 1005d76:	8b 0d 88 f0 a8 04    	mov    0x4a8f088,%ecx
 1005d7c:	8b 15 8c f0 a8 04    	mov    0x4a8f08c,%edx
 1005d82:	89 d6                	mov    %edx,%esi
 1005d84:	0f a4 ce 0f          	shld   $0xf,%ecx,%esi
 1005d88:	c1 ea 11             	shr    $0x11,%edx
 1005d8b:	89 15 6c 34 87 03    	mov    %edx,0x387346c
 1005d91:	89 35 68 34 87 03    	mov    %esi,0x3873468
 1005d97:	c1 e6 02             	shl    $0x2,%esi
 1005d9a:	89 e1                	mov    %esp,%ecx
 1005d9c:	89 31                	mov    %esi,(%ecx)
 1005d9e:	89 45 dc             	mov    %eax,-0x24(%ebp)
 1005da1:	e8 ca c6 ff ff       	call   1002470 <bootstrap_malloc>
 1005da6:	a3 7c 34 87 03       	mov    %eax,0x387347c
 1005dab:	a1 68 34 87 03       	mov    0x3873468,%eax
 1005db0:	8b 0d 6c 34 87 03    	mov    0x387346c,%ecx
 1005db6:	89 e2                	mov    %esp,%edx
 1005db8:	89 4a 04             	mov    %ecx,0x4(%edx)
 1005dbb:	89 02                	mov    %eax,(%edx)
 1005dbd:	c7 42 0c 00 00 00 00 	movl   $0x0,0xc(%edx)
 1005dc4:	c7 42 08 05 00 00 00 	movl   $0x5,0x8(%edx)
 1005dcb:	e8 a0 49 00 00       	call   100a770 <__udivdi3>
 1005dd0:	89 15 84 34 87 03    	mov    %edx,0x3873484
 1005dd6:	a3 80 34 87 03       	mov    %eax,0x3873480
 1005ddb:	c1 e0 02             	shl    $0x2,%eax
 1005dde:	89 e1                	mov    %esp,%ecx
 1005de0:	89 01                	mov    %eax,(%ecx)
 1005de2:	e8 89 c6 ff ff       	call   1002470 <bootstrap_malloc>
 1005de7:	a3 78 34 87 03       	mov    %eax,0x3873478
 1005dec:	a1 7c 34 87 03       	mov    0x387347c,%eax
 1005df1:	8b 0d 68 34 87 03    	mov    0x3873468,%ecx
 1005df7:	c1 e1 02             	shl    $0x2,%ecx
 1005dfa:	89 04 24             	mov    %eax,(%esp)
 1005dfd:	c7 44 24 04 00 00 00 	movl   $0x0,0x4(%esp)
 1005e04:	00 
 1005e05:	89 4c 24 08          	mov    %ecx,0x8(%esp)
 1005e09:	e8 f2 d9 ff ff       	call   1003800 <memset>
 1005e0e:	c7 45 f0 00 00 00 00 	movl   $0x0,-0x10(%ebp)
 1005e15:	89 45 d8             	mov    %eax,-0x28(%ebp)
 1005e18:	8b 45 f0             	mov    -0x10(%ebp),%eax
 1005e1b:	89 c1                	mov    %eax,%ecx
 1005e1d:	c1 f9 1f             	sar    $0x1f,%ecx
 1005e20:	8b 15 6c 34 87 03    	mov    0x387346c,%edx
 1005e26:	8b 35 68 34 87 03    	mov    0x3873468,%esi
 1005e2c:	29 f0                	sub    %esi,%eax
 1005e2e:	0f 93 c3             	setae  %bl
 1005e31:	29 d1                	sub    %edx,%ecx
 1005e33:	0f 93 c7             	setae  %bh
 1005e36:	89 45 d4             	mov    %eax,-0x2c(%ebp)
 1005e39:	88 7d d3             	mov    %bh,-0x2d(%ebp)
 1005e3c:	89 4d cc             	mov    %ecx,-0x34(%ebp)
 1005e3f:	88 5d cb             	mov    %bl,-0x35(%ebp)
 1005e42:	74 06                	je     1005e4a <pmem_Initialize+0x14a>
 1005e44:	8a 45 d3             	mov    -0x2d(%ebp),%al
 1005e47:	88 45 cb             	mov    %al,-0x35(%ebp)
 1005e4a:	8a 45 cb             	mov    -0x35(%ebp),%al
 1005e4d:	84 c0                	test   %al,%al
 1005e4f:	0f 85 84 00 00 00    	jne    1005ed9 <pmem_Initialize+0x1d9>
 1005e55:	eb 00                	jmp    1005e57 <pmem_Initialize+0x157>
 1005e57:	b8 05 00 00 00       	mov    $0x5,%eax
 1005e5c:	b9 20 00 00 00       	mov    $0x20,%ecx
 1005e61:	ba 3f 00 00 00       	mov    $0x3f,%edx
 1005e66:	8b 75 f0             	mov    -0x10(%ebp),%esi
 1005e69:	89 45 c4             	mov    %eax,-0x3c(%ebp)
 1005e6c:	89 f0                	mov    %esi,%eax
 1005e6e:	89 55 c0             	mov    %edx,-0x40(%ebp)
 1005e71:	99                   	cltd   
 1005e72:	8b 75 c4             	mov    -0x3c(%ebp),%esi
 1005e75:	f7 fe                	idiv   %esi
 1005e77:	8b 15 78 34 87 03    	mov    0x3873478,%edx
 1005e7d:	8b 04 82             	mov    (%edx,%eax,4),%eax
 1005e80:	8b 55 f0             	mov    -0x10(%ebp),%edx
 1005e83:	89 45 bc             	mov    %eax,-0x44(%ebp)
 1005e86:	89 d0                	mov    %edx,%eax
 1005e88:	99                   	cltd   
 1005e89:	f7 fe                	idiv   %esi
 1005e8b:	6b c2 06             	imul   $0x6,%edx,%eax
 1005e8e:	89 4d b8             	mov    %ecx,-0x48(%ebp)
 1005e91:	89 c1                	mov    %eax,%ecx
 1005e93:	8b 45 c0             	mov    -0x40(%ebp),%eax
 1005e96:	d3 e0                	shl    %cl,%eax
 1005e98:	83 f0 ff             	xor    $0xffffffff,%eax
 1005e9b:	8b 55 bc             	mov    -0x44(%ebp),%edx
 1005e9e:	21 c2                	and    %eax,%edx
 1005ea0:	8b 45 f0             	mov    -0x10(%ebp),%eax
 1005ea3:	89 55 b4             	mov    %edx,-0x4c(%ebp)
 1005ea6:	99                   	cltd   
 1005ea7:	f7 fe                	idiv   %esi
 1005ea9:	6b ca 06             	imul   $0x6,%edx,%ecx
 1005eac:	8b 45 b8             	mov    -0x48(%ebp),%eax
 1005eaf:	d3 e0                	shl    %cl,%eax
 1005eb1:	8b 55 b4             	mov    -0x4c(%ebp),%edx
 1005eb4:	09 c2                	or     %eax,%edx
 1005eb6:	8b 45 f0             	mov    -0x10(%ebp),%eax
 1005eb9:	89 55 b0             	mov    %edx,-0x50(%ebp)
 1005ebc:	99                   	cltd   
 1005ebd:	f7 fe                	idiv   %esi
 1005ebf:	8b 15 78 34 87 03    	mov    0x3873478,%edx
 1005ec5:	8b 7d b0             	mov    -0x50(%ebp),%edi
 1005ec8:	89 3c 82             	mov    %edi,(%edx,%eax,4)
 1005ecb:	8b 45 f0             	mov    -0x10(%ebp),%eax
 1005ece:	83 c0 01             	add    $0x1,%eax
 1005ed1:	89 45 f0             	mov    %eax,-0x10(%ebp)
 1005ed4:	e9 3f ff ff ff       	jmp    1005e18 <pmem_Initialize+0x118>
 1005ed9:	a1 1c b0 84 01       	mov    0x184b01c,%eax
 1005ede:	83 c0 1c             	add    $0x1c,%eax
 1005ee1:	89 45 ec             	mov    %eax,-0x14(%ebp)
 1005ee4:	8b 45 ec             	mov    -0x14(%ebp),%eax
 1005ee7:	8b 40 08             	mov    0x8(%eax),%eax
 1005eea:	89 45 e8             	mov    %eax,-0x18(%ebp)
 1005eed:	c7 45 e4 00 00 00 00 	movl   $0x0,-0x1c(%ebp)
 1005ef4:	8b 45 e4             	mov    -0x1c(%ebp),%eax
 1005ef7:	8b 4d ec             	mov    -0x14(%ebp),%ecx
 1005efa:	3b 01                	cmp    (%ecx),%eax
 1005efc:	73 3c                	jae    1005f3a <pmem_Initialize+0x23a>
 1005efe:	8b 45 e8             	mov    -0x18(%ebp),%eax
 1005f01:	83 78 14 00          	cmpl   $0x0,0x14(%eax)
 1005f05:	74 1f                	je     1005f26 <pmem_Initialize+0x226>
 1005f07:	8b 45 e8             	mov    -0x18(%ebp),%eax
 1005f0a:	31 c9                	xor    %ecx,%ecx
 1005f0c:	89 ca                	mov    %ecx,%edx
 1005f0e:	8b 70 0c             	mov    0xc(%eax),%esi
 1005f11:	8b 40 14             	mov    0x14(%eax),%eax
 1005f14:	89 e7                	mov    %esp,%edi
 1005f16:	89 4f 0c             	mov    %ecx,0xc(%edi)
 1005f19:	89 47 08             	mov    %eax,0x8(%edi)
 1005f1c:	89 57 04             	mov    %edx,0x4(%edi)
 1005f1f:	89 37                	mov    %esi,(%edi)
 1005f21:	e8 8a 00 00 00       	call   1005fb0 <MemMan_MarkUsed>
 1005f26:	8b 45 e8             	mov    -0x18(%ebp),%eax
 1005f29:	83 c0 28             	add    $0x28,%eax
 1005f2c:	89 45 e8             	mov    %eax,-0x18(%ebp)
 1005f2f:	8b 45 e4             	mov    -0x1c(%ebp),%eax
 1005f32:	83 c0 01             	add    $0x1,%eax
 1005f35:	89 45 e4             	mov    %eax,-0x1c(%ebp)
 1005f38:	eb ba                	jmp    1005ef4 <pmem_Initialize+0x1f4>
 1005f3a:	a1 14 b0 84 01       	mov    0x184b014,%eax
 1005f3f:	89 45 e0             	mov    %eax,-0x20(%ebp)
 1005f42:	8b 45 e0             	mov    -0x20(%ebp),%eax
 1005f45:	8b 0d 14 b0 84 01    	mov    0x184b014,%ecx
 1005f4b:	03 0d 18 b0 84 01    	add    0x184b018,%ecx
 1005f51:	39 c8                	cmp    %ecx,%eax
 1005f53:	73 43                	jae    1005f98 <pmem_Initialize+0x298>
 1005f55:	8b 45 e0             	mov    -0x20(%ebp),%eax
 1005f58:	83 78 14 01          	cmpl   $0x1,0x14(%eax)
 1005f5c:	74 2a                	je     1005f88 <pmem_Initialize+0x288>
 1005f5e:	8b 45 e0             	mov    -0x20(%ebp),%eax
 1005f61:	83 78 14 03          	cmpl   $0x3,0x14(%eax)
 1005f65:	74 21                	je     1005f88 <pmem_Initialize+0x288>
 1005f67:	8b 45 e0             	mov    -0x20(%ebp),%eax
 1005f6a:	8b 48 04             	mov    0x4(%eax),%ecx
 1005f6d:	8b 50 08             	mov    0x8(%eax),%edx
 1005f70:	8b 70 10             	mov    0x10(%eax),%esi
 1005f73:	8b 40 0c             	mov    0xc(%eax),%eax
 1005f76:	89 e7                	mov    %esp,%edi
 1005f78:	89 77 0c             	mov    %esi,0xc(%edi)
 1005f7b:	89 47 08             	mov    %eax,0x8(%edi)
 1005f7e:	89 57 04             	mov    %edx,0x4(%edi)
 1005f81:	89 0f                	mov    %ecx,(%edi)
 1005f83:	e8 28 00 00 00       	call   1005fb0 <MemMan_MarkUsed>
 1005f88:	8b 45 e0             	mov    -0x20(%ebp),%eax
 1005f8b:	8b 4d e0             	mov    -0x20(%ebp),%ecx
 1005f8e:	03 01                	add    (%ecx),%eax
 1005f90:	83 c0 04             	add    $0x4,%eax
 1005f93:	89 45 e0             	mov    %eax,-0x20(%ebp)
 1005f96:	eb aa                	jmp    1005f42 <pmem_Initialize+0x242>
 1005f98:	b8 00 00 00 00       	mov    $0x0,%eax
 1005f9d:	83 c4 54             	add    $0x54,%esp
 1005fa0:	5e                   	pop    %esi
 1005fa1:	5f                   	pop    %edi
 1005fa2:	5b                   	pop    %ebx
 1005fa3:	5d                   	pop    %ebp
 1005fa4:	c3                   	ret    
 1005fa5:	8d 74 26 00          	lea    0x0(%esi,%eiz,1),%esi
 1005fa9:	8d bc 27 00 00 00 00 	lea    0x0(%edi,%eiz,1),%edi

01005fb0 <MemMan_MarkUsed>:
 1005fb0:	55                   	push   %ebp
 1005fb1:	89 e5                	mov    %esp,%ebp
 1005fb3:	57                   	push   %edi
 1005fb4:	56                   	push   %esi
 1005fb5:	83 e4 f8             	and    $0xfffffff8,%esp
 1005fb8:	83 ec 20             	sub    $0x20,%esp
 1005fbb:	8b 45 14             	mov    0x14(%ebp),%eax
 1005fbe:	8b 4d 10             	mov    0x10(%ebp),%ecx
 1005fc1:	8b 55 0c             	mov    0xc(%ebp),%edx
 1005fc4:	8b 75 08             	mov    0x8(%ebp),%esi
 1005fc7:	89 74 24 18          	mov    %esi,0x18(%esp)
 1005fcb:	89 54 24 1c          	mov    %edx,0x1c(%esp)
 1005fcf:	89 44 24 14          	mov    %eax,0x14(%esp)
 1005fd3:	89 4c 24 10          	mov    %ecx,0x10(%esp)
 1005fd7:	8b 54 24 18          	mov    0x18(%esp),%edx
 1005fdb:	8b 74 24 1c          	mov    0x1c(%esp),%esi
 1005fdf:	89 e7                	mov    %esp,%edi
 1005fe1:	89 47 0c             	mov    %eax,0xc(%edi)
 1005fe4:	89 4f 08             	mov    %ecx,0x8(%edi)
 1005fe7:	89 77 04             	mov    %esi,0x4(%edi)
 1005fea:	89 17                	mov    %edx,(%edi)
 1005fec:	e8 5f 00 00 00       	call   1006050 <MemMan_MarkKB4Used>
 1005ff1:	8d 65 f8             	lea    -0x8(%ebp),%esp
 1005ff4:	5e                   	pop    %esi
 1005ff5:	5f                   	pop    %edi
 1005ff6:	5d                   	pop    %ebp
 1005ff7:	c3                   	ret    
 1005ff8:	90                   	nop
 1005ff9:	8d b4 26 00 00 00 00 	lea    0x0(%esi,%eiz,1),%esi

01006000 <MemMan_CalculateBitmapIndex>:
 1006000:	55                   	push   %ebp
 1006001:	89 e5                	mov    %esp,%ebp
 1006003:	56                   	push   %esi
 1006004:	83 e4 f8             	and    $0xfffffff8,%esp
 1006007:	83 ec 28             	sub    $0x28,%esp
 100600a:	8b 45 0c             	mov    0xc(%ebp),%eax
 100600d:	8b 4d 08             	mov    0x8(%ebp),%ecx
 1006010:	8b 55 10             	mov    0x10(%ebp),%edx
 1006013:	89 4c 24 18          	mov    %ecx,0x18(%esp)
 1006017:	89 44 24 1c          	mov    %eax,0x1c(%esp)
 100601b:	89 54 24 14          	mov    %edx,0x14(%esp)
 100601f:	8b 44 24 18          	mov    0x18(%esp),%eax
 1006023:	8b 4c 24 1c          	mov    0x1c(%esp),%ecx
 1006027:	89 e6                	mov    %esp,%esi
 1006029:	89 56 08             	mov    %edx,0x8(%esi)
 100602c:	89 4e 04             	mov    %ecx,0x4(%esi)
 100602f:	89 06                	mov    %eax,(%esi)
 1006031:	c7 46 0c 00 00 00 00 	movl   $0x0,0xc(%esi)
 1006038:	e8 33 47 00 00       	call   100a770 <__udivdi3>
 100603d:	89 54 24 1c          	mov    %edx,0x1c(%esp)
 1006041:	89 44 24 18          	mov    %eax,0x18(%esp)
 1006045:	8d 65 fc             	lea    -0x4(%ebp),%esp
 1006048:	5e                   	pop    %esi
 1006049:	5d                   	pop    %ebp
 100604a:	c3                   	ret    
 100604b:	90                   	nop
 100604c:	8d 74 26 00          	lea    0x0(%esi,%eiz,1),%esi

01006050 <MemMan_MarkKB4Used>:
 1006050:	55                   	push   %ebp
 1006051:	89 e5                	mov    %esp,%ebp
 1006053:	53                   	push   %ebx
 1006054:	57                   	push   %edi
 1006055:	56                   	push   %esi
 1006056:	83 e4 f8             	and    $0xfffffff8,%esp
 1006059:	81 ec a0 00 00 00    	sub    $0xa0,%esp
 100605f:	8b 45 14             	mov    0x14(%ebp),%eax
 1006062:	8b 4d 10             	mov    0x10(%ebp),%ecx
 1006065:	8b 55 0c             	mov    0xc(%ebp),%edx
 1006068:	8b 75 08             	mov    0x8(%ebp),%esi
 100606b:	89 b4 24 90 00 00 00 	mov    %esi,0x90(%esp)
 1006072:	89 94 24 94 00 00 00 	mov    %edx,0x94(%esp)
 1006079:	89 84 24 8c 00 00 00 	mov    %eax,0x8c(%esp)
 1006080:	89 8c 24 88 00 00 00 	mov    %ecx,0x88(%esp)
 1006087:	09 c1                	or     %eax,%ecx
 1006089:	89 4c 24 64          	mov    %ecx,0x64(%esp)
 100608d:	75 07                	jne    1006096 <MemMan_MarkKB4Used+0x46>
 100608f:	eb 00                	jmp    1006091 <MemMan_MarkKB4Used+0x41>
 1006091:	e9 59 03 00 00       	jmp    10063ef <MemMan_MarkKB4Used+0x39f>
 1006096:	8b 84 24 90 00 00 00 	mov    0x90(%esp),%eax
 100609d:	8b 8c 24 94 00 00 00 	mov    0x94(%esp),%ecx
 10060a4:	25 00 f0 ff ff       	and    $0xfffff000,%eax
 10060a9:	89 8c 24 84 00 00 00 	mov    %ecx,0x84(%esp)
 10060b0:	89 84 24 80 00 00 00 	mov    %eax,0x80(%esp)
 10060b7:	8b 94 24 90 00 00 00 	mov    0x90(%esp),%edx
 10060be:	8b b4 24 94 00 00 00 	mov    0x94(%esp),%esi
 10060c5:	29 c2                	sub    %eax,%edx
 10060c7:	19 ce                	sbb    %ecx,%esi
 10060c9:	8b 84 24 88 00 00 00 	mov    0x88(%esp),%eax
 10060d0:	8b 8c 24 8c 00 00 00 	mov    0x8c(%esp),%ecx
 10060d7:	01 d0                	add    %edx,%eax
 10060d9:	11 f1                	adc    %esi,%ecx
 10060db:	89 84 24 88 00 00 00 	mov    %eax,0x88(%esp)
 10060e2:	89 8c 24 8c 00 00 00 	mov    %ecx,0x8c(%esp)
 10060e9:	8b 84 24 80 00 00 00 	mov    0x80(%esp),%eax
 10060f0:	8b 8c 24 84 00 00 00 	mov    0x84(%esp),%ecx
 10060f7:	89 ca                	mov    %ecx,%edx
 10060f9:	0f a4 c2 14          	shld   $0x14,%eax,%edx
 10060fd:	c1 e9 0c             	shr    $0xc,%ecx
 1006100:	89 4c 24 7c          	mov    %ecx,0x7c(%esp)
 1006104:	89 54 24 78          	mov    %edx,0x78(%esp)
 1006108:	8b 84 24 88 00 00 00 	mov    0x88(%esp),%eax
 100610f:	8b 8c 24 8c 00 00 00 	mov    0x8c(%esp),%ecx
 1006116:	89 ca                	mov    %ecx,%edx
 1006118:	0f a4 c2 14          	shld   $0x14,%eax,%edx
 100611c:	c1 e9 0c             	shr    $0xc,%ecx
 100611f:	89 4c 24 74          	mov    %ecx,0x74(%esp)
 1006123:	89 54 24 70          	mov    %edx,0x70(%esp)
 1006127:	f2 0f 10 44 24 78    	movsd  0x78(%esp),%xmm0
 100612d:	f2 0f 11 44 24 68    	movsd  %xmm0,0x68(%esp)
 1006133:	8b 44 24 68          	mov    0x68(%esp),%eax
 1006137:	8b 4c 24 6c          	mov    0x6c(%esp),%ecx
 100613b:	8b 54 24 78          	mov    0x78(%esp),%edx
 100613f:	8b 74 24 7c          	mov    0x7c(%esp),%esi
 1006143:	8b 7c 24 70          	mov    0x70(%esp),%edi
 1006147:	8b 5c 24 74          	mov    0x74(%esp),%ebx
 100614b:	01 fa                	add    %edi,%edx
 100614d:	11 de                	adc    %ebx,%esi
 100614f:	29 d0                	sub    %edx,%eax
 1006151:	0f 93 c2             	setae  %dl
 1006154:	29 f1                	sub    %esi,%ecx
 1006156:	0f 93 c6             	setae  %dh
 1006159:	89 44 24 60          	mov    %eax,0x60(%esp)
 100615d:	88 74 24 5f          	mov    %dh,0x5f(%esp)
 1006161:	89 4c 24 58          	mov    %ecx,0x58(%esp)
 1006165:	88 54 24 57          	mov    %dl,0x57(%esp)
 1006169:	74 08                	je     1006173 <MemMan_MarkKB4Used+0x123>
 100616b:	8a 44 24 5f          	mov    0x5f(%esp),%al
 100616f:	88 44 24 57          	mov    %al,0x57(%esp)
 1006173:	8a 44 24 57          	mov    0x57(%esp),%al
 1006177:	84 c0                	test   %al,%al
 1006179:	0f 85 70 02 00 00    	jne    10063ef <MemMan_MarkKB4Used+0x39f>
 100617f:	eb 00                	jmp    1006181 <MemMan_MarkKB4Used+0x131>
 1006181:	8a 44 24 68          	mov    0x68(%esp),%al
 1006185:	a8 1f                	test   $0x1f,%al
 1006187:	0f 85 38 01 00 00    	jne    10062c5 <MemMan_MarkKB4Used+0x275>
 100618d:	eb 00                	jmp    100618f <MemMan_MarkKB4Used+0x13f>
 100618f:	8b 44 24 68          	mov    0x68(%esp),%eax
 1006193:	8b 4c 24 6c          	mov    0x6c(%esp),%ecx
 1006197:	83 c0 20             	add    $0x20,%eax
 100619a:	83 d1 00             	adc    $0x0,%ecx
 100619d:	8b 54 24 78          	mov    0x78(%esp),%edx
 10061a1:	8b 74 24 7c          	mov    0x7c(%esp),%esi
 10061a5:	8b 7c 24 70          	mov    0x70(%esp),%edi
 10061a9:	8b 5c 24 74          	mov    0x74(%esp),%ebx
 10061ad:	01 fa                	add    %edi,%edx
 10061af:	11 de                	adc    %ebx,%esi
 10061b1:	29 d0                	sub    %edx,%eax
 10061b3:	0f 93 c2             	setae  %dl
 10061b6:	29 f1                	sub    %esi,%ecx
 10061b8:	0f 93 c6             	setae  %dh
 10061bb:	89 44 24 50          	mov    %eax,0x50(%esp)
 10061bf:	88 74 24 4f          	mov    %dh,0x4f(%esp)
 10061c3:	89 4c 24 48          	mov    %ecx,0x48(%esp)
 10061c7:	88 54 24 47          	mov    %dl,0x47(%esp)
 10061cb:	74 08                	je     10061d5 <MemMan_MarkKB4Used+0x185>
 10061cd:	8a 44 24 4f          	mov    0x4f(%esp),%al
 10061d1:	88 44 24 47          	mov    %al,0x47(%esp)
 10061d5:	8a 44 24 47          	mov    0x47(%esp),%al
 10061d9:	84 c0                	test   %al,%al
 10061db:	0f 85 e4 00 00 00    	jne    10062c5 <MemMan_MarkKB4Used+0x275>
 10061e1:	eb 00                	jmp    10061e3 <MemMan_MarkKB4Used+0x193>
 10061e3:	8b 44 24 68          	mov    0x68(%esp),%eax
 10061e7:	8b 4c 24 6c          	mov    0x6c(%esp),%ecx
 10061eb:	0f a4 c1 1b          	shld   $0x1b,%eax,%ecx
 10061ef:	a1 7c 34 87 03       	mov    0x387347c,%eax
 10061f4:	c7 04 88 ff ff ff ff 	movl   $0xffffffff,(%eax,%ecx,4)
 10061fb:	8b 44 24 68          	mov    0x68(%esp),%eax
 10061ff:	8b 4c 24 6c          	mov    0x6c(%esp),%ecx
 1006203:	89 ca                	mov    %ecx,%edx
 1006205:	0f a4 c2 1b          	shld   $0x1b,%eax,%edx
 1006209:	c1 e9 05             	shr    $0x5,%ecx
 100620c:	89 e0                	mov    %esp,%eax
 100620e:	89 48 04             	mov    %ecx,0x4(%eax)
 1006211:	89 10                	mov    %edx,(%eax)
 1006213:	c7 40 0c 00 00 00 00 	movl   $0x0,0xc(%eax)
 100621a:	c7 40 08 05 00 00 00 	movl   $0x5,0x8(%eax)
 1006221:	89 54 24 40          	mov    %edx,0x40(%esp)
 1006225:	89 4c 24 3c          	mov    %ecx,0x3c(%esp)
 1006229:	e8 42 45 00 00       	call   100a770 <__udivdi3>
 100622e:	8b 0d 78 34 87 03    	mov    0x3873478,%ecx
 1006234:	8b 14 81             	mov    (%ecx,%eax,4),%edx
 1006237:	89 e6                	mov    %esp,%esi
 1006239:	8b 7c 24 3c          	mov    0x3c(%esp),%edi
 100623d:	89 7e 04             	mov    %edi,0x4(%esi)
 1006240:	8b 5c 24 40          	mov    0x40(%esp),%ebx
 1006244:	89 1e                	mov    %ebx,(%esi)
 1006246:	c7 46 0c 00 00 00 00 	movl   $0x0,0xc(%esi)
 100624d:	c7 46 08 05 00 00 00 	movl   $0x5,0x8(%esi)
 1006254:	89 44 24 38          	mov    %eax,0x38(%esp)
 1006258:	89 4c 24 34          	mov    %ecx,0x34(%esp)
 100625c:	89 54 24 30          	mov    %edx,0x30(%esp)
 1006260:	e8 3b 46 00 00       	call   100a8a0 <__umoddi3>
 1006265:	6b c0 06             	imul   $0x6,%eax,%eax
 1006268:	b9 3f 00 00 00       	mov    $0x3f,%ecx
 100626d:	89 4c 24 2c          	mov    %ecx,0x2c(%esp)
 1006271:	88 c1                	mov    %al,%cl
 1006273:	8b 54 24 2c          	mov    0x2c(%esp),%edx
 1006277:	d3 e2                	shl    %cl,%edx
 1006279:	f7 d2                	not    %edx
 100627b:	8b 74 24 30          	mov    0x30(%esp),%esi
 100627f:	21 d6                	and    %edx,%esi
 1006281:	8b 54 24 34          	mov    0x34(%esp),%edx
 1006285:	8b 7c 24 38          	mov    0x38(%esp),%edi
 1006289:	89 34 ba             	mov    %esi,(%edx,%edi,4)
 100628c:	8b 35 64 34 87 03    	mov    0x3873464,%esi
 1006292:	8b 1d 60 34 87 03    	mov    0x3873460,%ebx
 1006298:	83 c3 e0             	add    $0xffffffe0,%ebx
 100629b:	83 d6 ff             	adc    $0xffffffff,%esi
 100629e:	89 1d 60 34 87 03    	mov    %ebx,0x3873460
 10062a4:	89 35 64 34 87 03    	mov    %esi,0x3873464
 10062aa:	8b 74 24 68          	mov    0x68(%esp),%esi
 10062ae:	8b 5c 24 6c          	mov    0x6c(%esp),%ebx
 10062b2:	83 c6 1f             	add    $0x1f,%esi
 10062b5:	83 d3 00             	adc    $0x0,%ebx
 10062b8:	89 74 24 68          	mov    %esi,0x68(%esp)
 10062bc:	89 5c 24 6c          	mov    %ebx,0x6c(%esp)
 10062c0:	e9 0d 01 00 00       	jmp    10063d2 <MemMan_MarkKB4Used+0x382>
 10062c5:	8b 44 24 68          	mov    0x68(%esp),%eax
 10062c9:	8b 4c 24 6c          	mov    0x6c(%esp),%ecx
 10062cd:	0f a4 c1 1b          	shld   $0x1b,%eax,%ecx
 10062d1:	8b 15 7c 34 87 03    	mov    0x387347c,%edx
 10062d7:	8b 34 8a             	mov    (%edx,%ecx,4),%esi
 10062da:	88 c3                	mov    %al,%bl
 10062dc:	b8 01 00 00 00       	mov    $0x1,%eax
 10062e1:	89 4c 24 28          	mov    %ecx,0x28(%esp)
 10062e5:	88 d9                	mov    %bl,%cl
 10062e7:	d3 e0                	shl    %cl,%eax
 10062e9:	09 c6                	or     %eax,%esi
 10062eb:	8b 44 24 28          	mov    0x28(%esp),%eax
 10062ef:	89 34 82             	mov    %esi,(%edx,%eax,4)
 10062f2:	8b 54 24 68          	mov    0x68(%esp),%edx
 10062f6:	8b 74 24 6c          	mov    0x6c(%esp),%esi
 10062fa:	89 f7                	mov    %esi,%edi
 10062fc:	0f a4 d7 1b          	shld   $0x1b,%edx,%edi
 1006300:	c1 ee 05             	shr    $0x5,%esi
 1006303:	89 e2                	mov    %esp,%edx
 1006305:	89 72 04             	mov    %esi,0x4(%edx)
 1006308:	89 3a                	mov    %edi,(%edx)
 100630a:	c7 42 0c 00 00 00 00 	movl   $0x0,0xc(%edx)
 1006311:	c7 42 08 05 00 00 00 	movl   $0x5,0x8(%edx)
 1006318:	89 7c 24 24          	mov    %edi,0x24(%esp)
 100631c:	89 74 24 20          	mov    %esi,0x20(%esp)
 1006320:	e8 4b 44 00 00       	call   100a770 <__udivdi3>
 1006325:	8b 15 78 34 87 03    	mov    0x3873478,%edx
 100632b:	8b 34 82             	mov    (%edx,%eax,4),%esi
 100632e:	89 e7                	mov    %esp,%edi
 1006330:	8b 4c 24 20          	mov    0x20(%esp),%ecx
 1006334:	89 4f 04             	mov    %ecx,0x4(%edi)
 1006337:	8b 4c 24 24          	mov    0x24(%esp),%ecx
 100633b:	89 0f                	mov    %ecx,(%edi)
 100633d:	c7 47 0c 00 00 00 00 	movl   $0x0,0xc(%edi)
 1006344:	c7 47 08 05 00 00 00 	movl   $0x5,0x8(%edi)
 100634b:	89 44 24 1c          	mov    %eax,0x1c(%esp)
 100634f:	89 54 24 18          	mov    %edx,0x18(%esp)
 1006353:	89 74 24 14          	mov    %esi,0x14(%esp)
 1006357:	e8 44 45 00 00       	call   100a8a0 <__umoddi3>
 100635c:	6b c0 06             	imul   $0x6,%eax,%eax
 100635f:	88 c3                	mov    %al,%bl
 1006361:	b8 3f 00 00 00       	mov    $0x3f,%eax
 1006366:	88 d9                	mov    %bl,%cl
 1006368:	d3 e0                	shl    %cl,%eax
 100636a:	f7 d0                	not    %eax
 100636c:	8b 54 24 14          	mov    0x14(%esp),%edx
 1006370:	21 c2                	and    %eax,%edx
 1006372:	88 d9                	mov    %bl,%cl
 1006374:	8b 44 24 14          	mov    0x14(%esp),%eax
 1006378:	d3 e8                	shr    %cl,%eax
 100637a:	48                   	dec    %eax
 100637b:	83 e0 3f             	and    $0x3f,%eax
 100637e:	88 d9                	mov    %bl,%cl
 1006380:	d3 e0                	shl    %cl,%eax
 1006382:	09 c2                	or     %eax,%edx
 1006384:	8b 44 24 18          	mov    0x18(%esp),%eax
 1006388:	8b 74 24 1c          	mov    0x1c(%esp),%esi
 100638c:	89 14 b0             	mov    %edx,(%eax,%esi,4)
 100638f:	8b 15 64 34 87 03    	mov    0x3873464,%edx
 1006395:	8b 3d 60 34 87 03    	mov    0x3873460,%edi
 100639b:	83 c7 ff             	add    $0xffffffff,%edi
 100639e:	83 d2 ff             	adc    $0xffffffff,%edx
 10063a1:	89 3d 60 34 87 03    	mov    %edi,0x3873460
 10063a7:	89 15 64 34 87 03    	mov    %edx,0x3873464
 10063ad:	8b 94 24 80 00 00 00 	mov    0x80(%esp),%edx
 10063b4:	8b bc 24 84 00 00 00 	mov    0x84(%esp),%edi
 10063bb:	81 c2 00 10 00 00    	add    $0x1000,%edx
 10063c1:	83 d7 00             	adc    $0x0,%edi
 10063c4:	89 94 24 80 00 00 00 	mov    %edx,0x80(%esp)
 10063cb:	89 bc 24 84 00 00 00 	mov    %edi,0x84(%esp)
 10063d2:	eb 00                	jmp    10063d4 <MemMan_MarkKB4Used+0x384>
 10063d4:	8b 44 24 68          	mov    0x68(%esp),%eax
 10063d8:	8b 4c 24 6c          	mov    0x6c(%esp),%ecx
 10063dc:	83 c0 01             	add    $0x1,%eax
 10063df:	83 d1 00             	adc    $0x0,%ecx
 10063e2:	89 44 24 68          	mov    %eax,0x68(%esp)
 10063e6:	89 4c 24 6c          	mov    %ecx,0x6c(%esp)
 10063ea:	e9 44 fd ff ff       	jmp    1006133 <MemMan_MarkKB4Used+0xe3>
 10063ef:	8d 65 f4             	lea    -0xc(%ebp),%esp
 10063f2:	5e                   	pop    %esi
 10063f3:	5f                   	pop    %edi
 10063f4:	5b                   	pop    %ebx
 10063f5:	5d                   	pop    %ebp
 10063f6:	c3                   	ret    
 10063f7:	89 f6                	mov    %esi,%esi
 10063f9:	8d bc 27 00 00 00 00 	lea    0x0(%edi,%eiz,1),%edi

01006400 <find_first_zero>:
 1006400:	55                   	push   %ebp
 1006401:	89 e5                	mov    %esp,%ebp
 1006403:	83 ec 0c             	sub    $0xc,%esp
 1006406:	8b 45 08             	mov    0x8(%ebp),%eax
 1006409:	89 45 f8             	mov    %eax,-0x8(%ebp)
 100640c:	c7 45 f4 00 00 00 00 	movl   $0x0,-0xc(%ebp)
 1006413:	83 7d f8 00          	cmpl   $0x0,-0x8(%ebp)
 1006417:	75 09                	jne    1006422 <find_first_zero+0x22>
 1006419:	c7 45 fc 00 00 00 00 	movl   $0x0,-0x4(%ebp)
 1006420:	eb 1f                	jmp    1006441 <find_first_zero+0x41>
 1006422:	8b 45 f8             	mov    -0x8(%ebp),%eax
 1006425:	83 f0 ff             	xor    $0xffffffff,%eax
 1006428:	0f bc c0             	bsf    %eax,%eax
 100642b:	75 05                	jne    1006432 <find_first_zero+0x32>
 100642d:	b8 20 00 00 00       	mov    $0x20,%eax
 1006432:	89 45 f4             	mov    %eax,-0xc(%ebp)
 1006435:	8b 45 f4             	mov    -0xc(%ebp),%eax
 1006438:	66 89 c1             	mov    %ax,%cx
 100643b:	0f b7 c1             	movzwl %cx,%eax
 100643e:	89 45 fc             	mov    %eax,-0x4(%ebp)
 1006441:	8b 45 fc             	mov    -0x4(%ebp),%eax
 1006444:	83 c4 0c             	add    $0xc,%esp
 1006447:	5d                   	pop    %ebp
 1006448:	c3                   	ret    
 1006449:	8d b4 26 00 00 00 00 	lea    0x0(%esi,%eiz,1),%esi

01006450 <physMemMan_Alloc>:
 1006450:	55                   	push   %ebp
 1006451:	89 e5                	mov    %esp,%ebp
 1006453:	53                   	push   %ebx
 1006454:	57                   	push   %edi
 1006455:	56                   	push   %esi
 1006456:	83 e4 f8             	and    $0xfffffff8,%esp
 1006459:	81 ec 80 00 00 00    	sub    $0x80,%esp
 100645f:	c7 44 24 6c 00 00 00 	movl   $0x0,0x6c(%esp)
 1006466:	00 
 1006467:	f2 0f 10 05 88 34 87 	movsd  0x3873488,%xmm0
 100646e:	03 
 100646f:	f2 0f 11 44 24 60    	movsd  %xmm0,0x60(%esp)
 1006475:	8b 44 24 60          	mov    0x60(%esp),%eax
 1006479:	8b 4c 24 64          	mov    0x64(%esp),%ecx
 100647d:	8b 15 6c 34 87 03    	mov    0x387346c,%edx
 1006483:	8b 35 68 34 87 03    	mov    0x3873468,%esi
 1006489:	29 f0                	sub    %esi,%eax
 100648b:	0f 93 c3             	setae  %bl
 100648e:	29 d1                	sub    %edx,%ecx
 1006490:	0f 93 c7             	setae  %bh
 1006493:	89 44 24 54          	mov    %eax,0x54(%esp)
 1006497:	88 7c 24 53          	mov    %bh,0x53(%esp)
 100649b:	89 4c 24 4c          	mov    %ecx,0x4c(%esp)
 100649f:	88 5c 24 4b          	mov    %bl,0x4b(%esp)
 10064a3:	74 08                	je     10064ad <physMemMan_Alloc+0x5d>
 10064a5:	8a 44 24 53          	mov    0x53(%esp),%al
 10064a9:	88 44 24 4b          	mov    %al,0x4b(%esp)
 10064ad:	8a 44 24 4b          	mov    0x4b(%esp),%al
 10064b1:	84 c0                	test   %al,%al
 10064b3:	75 78                	jne    100652d <physMemMan_Alloc+0xdd>
 10064b5:	eb 00                	jmp    10064b7 <physMemMan_Alloc+0x67>
 10064b7:	8b 44 24 60          	mov    0x60(%esp),%eax
 10064bb:	8b 0d 7c 34 87 03    	mov    0x387347c,%ecx
 10064c1:	83 3c 81 ff          	cmpl   $0xffffffff,(%ecx,%eax,4)
 10064c5:	73 49                	jae    1006510 <physMemMan_Alloc+0xc0>
 10064c7:	8b 44 24 60          	mov    0x60(%esp),%eax
 10064cb:	8b 0d 7c 34 87 03    	mov    0x387347c,%ecx
 10064d1:	8b 04 81             	mov    (%ecx,%eax,4),%eax
 10064d4:	89 e1                	mov    %esp,%ecx
 10064d6:	89 01                	mov    %eax,(%ecx)
 10064d8:	e8 23 ff ff ff       	call   1006400 <find_first_zero>
 10064dd:	89 44 24 6c          	mov    %eax,0x6c(%esp)
 10064e1:	8b 44 24 60          	mov    0x60(%esp),%eax
 10064e5:	8b 0d 7c 34 87 03    	mov    0x387347c,%ecx
 10064eb:	8b 0c 81             	mov    (%ecx,%eax,4),%ecx
 10064ee:	8a 54 24 6c          	mov    0x6c(%esp),%dl
 10064f2:	be 01 00 00 00       	mov    $0x1,%esi
 10064f7:	89 4c 24 44          	mov    %ecx,0x44(%esp)
 10064fb:	88 d1                	mov    %dl,%cl
 10064fd:	d3 e6                	shl    %cl,%esi
 10064ff:	8b 7c 24 44          	mov    0x44(%esp),%edi
 1006503:	09 f7                	or     %esi,%edi
 1006505:	8b 35 7c 34 87 03    	mov    0x387347c,%esi
 100650b:	89 3c 86             	mov    %edi,(%esi,%eax,4)
 100650e:	eb 1d                	jmp    100652d <physMemMan_Alloc+0xdd>
 1006510:	eb 00                	jmp    1006512 <physMemMan_Alloc+0xc2>
 1006512:	8b 44 24 60          	mov    0x60(%esp),%eax
 1006516:	8b 4c 24 64          	mov    0x64(%esp),%ecx
 100651a:	83 c0 01             	add    $0x1,%eax
 100651d:	83 d1 00             	adc    $0x0,%ecx
 1006520:	89 44 24 60          	mov    %eax,0x60(%esp)
 1006524:	89 4c 24 64          	mov    %ecx,0x64(%esp)
 1006528:	e9 48 ff ff ff       	jmp    1006475 <physMemMan_Alloc+0x25>
 100652d:	8b 44 24 60          	mov    0x60(%esp),%eax
 1006531:	8b 4c 24 64          	mov    0x64(%esp),%ecx
 1006535:	8b 15 6c 34 87 03    	mov    0x387346c,%edx
 100653b:	8b 35 68 34 87 03    	mov    0x3873468,%esi
 1006541:	29 f0                	sub    %esi,%eax
 1006543:	0f 92 c3             	setb   %bl
 1006546:	29 d1                	sub    %edx,%ecx
 1006548:	0f 92 c7             	setb   %bh
 100654b:	89 44 24 40          	mov    %eax,0x40(%esp)
 100654f:	88 7c 24 3f          	mov    %bh,0x3f(%esp)
 1006553:	89 4c 24 38          	mov    %ecx,0x38(%esp)
 1006557:	88 5c 24 37          	mov    %bl,0x37(%esp)
 100655b:	74 08                	je     1006565 <physMemMan_Alloc+0x115>
 100655d:	8a 44 24 3f          	mov    0x3f(%esp),%al
 1006561:	88 44 24 37          	mov    %al,0x37(%esp)
 1006565:	8a 44 24 37          	mov    0x37(%esp),%al
 1006569:	84 c0                	test   %al,%al
 100656b:	75 17                	jne    1006584 <physMemMan_Alloc+0x134>
 100656d:	eb 00                	jmp    100656f <physMemMan_Alloc+0x11f>
 100656f:	c7 44 24 74 00 00 00 	movl   $0x0,0x74(%esp)
 1006576:	00 
 1006577:	c7 44 24 70 00 00 00 	movl   $0x0,0x70(%esp)
 100657e:	00 
 100657f:	e9 9b 01 00 00       	jmp    100671f <physMemMan_Alloc+0x2cf>
 1006584:	8b 44 24 60          	mov    0x60(%esp),%eax
 1006588:	8b 4c 24 64          	mov    0x64(%esp),%ecx
 100658c:	89 e2                	mov    %esp,%edx
 100658e:	89 4a 04             	mov    %ecx,0x4(%edx)
 1006591:	89 02                	mov    %eax,(%edx)
 1006593:	c7 42 0c 00 00 00 00 	movl   $0x0,0xc(%edx)
 100659a:	c7 42 08 05 00 00 00 	movl   $0x5,0x8(%edx)
 10065a1:	89 44 24 30          	mov    %eax,0x30(%esp)
 10065a5:	89 4c 24 2c          	mov    %ecx,0x2c(%esp)
 10065a9:	e8 c2 41 00 00       	call   100a770 <__udivdi3>
 10065ae:	8b 0d 78 34 87 03    	mov    0x3873478,%ecx
 10065b4:	8b 14 81             	mov    (%ecx,%eax,4),%edx
 10065b7:	89 e6                	mov    %esp,%esi
 10065b9:	8b 7c 24 2c          	mov    0x2c(%esp),%edi
 10065bd:	89 7e 04             	mov    %edi,0x4(%esi)
 10065c0:	8b 5c 24 30          	mov    0x30(%esp),%ebx
 10065c4:	89 1e                	mov    %ebx,(%esi)
 10065c6:	c7 46 0c 00 00 00 00 	movl   $0x0,0xc(%esi)
 10065cd:	c7 46 08 05 00 00 00 	movl   $0x5,0x8(%esi)
 10065d4:	89 44 24 28          	mov    %eax,0x28(%esp)
 10065d8:	89 4c 24 24          	mov    %ecx,0x24(%esp)
 10065dc:	89 54 24 20          	mov    %edx,0x20(%esp)
 10065e0:	e8 bb 42 00 00       	call   100a8a0 <__umoddi3>
 10065e5:	6b c0 06             	imul   $0x6,%eax,%eax
 10065e8:	b9 3f 00 00 00       	mov    $0x3f,%ecx
 10065ed:	89 4c 24 1c          	mov    %ecx,0x1c(%esp)
 10065f1:	88 c1                	mov    %al,%cl
 10065f3:	8b 54 24 1c          	mov    0x1c(%esp),%edx
 10065f7:	d3 e2                	shl    %cl,%edx
 10065f9:	f7 d2                	not    %edx
 10065fb:	8b 74 24 20          	mov    0x20(%esp),%esi
 10065ff:	21 d6                	and    %edx,%esi
 1006601:	88 c1                	mov    %al,%cl
 1006603:	8b 54 24 20          	mov    0x20(%esp),%edx
 1006607:	d3 ea                	shr    %cl,%edx
 1006609:	4a                   	dec    %edx
 100660a:	83 e2 3f             	and    $0x3f,%edx
 100660d:	88 c1                	mov    %al,%cl
 100660f:	d3 e2                	shl    %cl,%edx
 1006611:	09 d6                	or     %edx,%esi
 1006613:	8b 54 24 24          	mov    0x24(%esp),%edx
 1006617:	8b 7c 24 28          	mov    0x28(%esp),%edi
 100661b:	89 34 ba             	mov    %esi,(%edx,%edi,4)
 100661e:	8b 35 64 34 87 03    	mov    0x3873464,%esi
 1006624:	8b 1d 60 34 87 03    	mov    0x3873460,%ebx
 100662a:	83 c3 ff             	add    $0xffffffff,%ebx
 100662d:	83 d6 ff             	adc    $0xffffffff,%esi
 1006630:	89 1d 60 34 87 03    	mov    %ebx,0x3873460
 1006636:	89 35 64 34 87 03    	mov    %esi,0x3873464
 100663c:	8b 74 24 60          	mov    0x60(%esp),%esi
 1006640:	8b 5c 24 64          	mov    0x64(%esp),%ebx
 1006644:	0f a4 f3 05          	shld   $0x5,%esi,%ebx
 1006648:	c1 e6 05             	shl    $0x5,%esi
 100664b:	8b 44 24 6c          	mov    0x6c(%esp),%eax
 100664f:	89 c1                	mov    %eax,%ecx
 1006651:	c1 f9 1f             	sar    $0x1f,%ecx
 1006654:	01 c6                	add    %eax,%esi
 1006656:	11 cb                	adc    %ecx,%ebx
 1006658:	0f a4 f3 0c          	shld   $0xc,%esi,%ebx
 100665c:	c1 e6 0c             	shl    $0xc,%esi
 100665f:	89 74 24 58          	mov    %esi,0x58(%esp)
 1006663:	89 5c 24 5c          	mov    %ebx,0x5c(%esp)
 1006667:	a1 88 34 87 03       	mov    0x3873488,%eax
 100666c:	8b 0d 8c 34 87 03    	mov    0x387348c,%ecx
 1006672:	89 e2                	mov    %esp,%edx
 1006674:	89 4a 04             	mov    %ecx,0x4(%edx)
 1006677:	89 02                	mov    %eax,(%edx)
 1006679:	c7 42 0c 00 00 00 00 	movl   $0x0,0xc(%edx)
 1006680:	c7 42 08 05 00 00 00 	movl   $0x5,0x8(%edx)
 1006687:	89 44 24 18          	mov    %eax,0x18(%esp)
 100668b:	89 4c 24 14          	mov    %ecx,0x14(%esp)
 100668f:	e8 dc 40 00 00       	call   100a770 <__udivdi3>
 1006694:	8b 0d 78 34 87 03    	mov    0x3873478,%ecx
 100669a:	8b 04 81             	mov    (%ecx,%eax,4),%eax
 100669d:	89 e1                	mov    %esp,%ecx
 100669f:	8b 54 24 14          	mov    0x14(%esp),%edx
 10066a3:	89 51 04             	mov    %edx,0x4(%ecx)
 10066a6:	8b 74 24 18          	mov    0x18(%esp),%esi
 10066aa:	89 31                	mov    %esi,(%ecx)
 10066ac:	c7 41 0c 00 00 00 00 	movl   $0x0,0xc(%ecx)
 10066b3:	c7 41 08 05 00 00 00 	movl   $0x5,0x8(%ecx)
 10066ba:	89 44 24 10          	mov    %eax,0x10(%esp)
 10066be:	e8 dd 41 00 00       	call   100a8a0 <__umoddi3>
 10066c3:	6b c8 06             	imul   $0x6,%eax,%ecx
 10066c6:	8b 44 24 10          	mov    0x10(%esp),%eax
 10066ca:	d3 e8                	shr    %cl,%eax
 10066cc:	83 e0 3f             	and    $0x3f,%eax
 10066cf:	83 f8 00             	cmp    $0x0,%eax
 10066d2:	75 3f                	jne    1006713 <physMemMan_Alloc+0x2c3>
 10066d4:	a1 8c 34 87 03       	mov    0x387348c,%eax
 10066d9:	8b 0d 88 34 87 03    	mov    0x3873488,%ecx
 10066df:	83 c1 01             	add    $0x1,%ecx
 10066e2:	83 d0 00             	adc    $0x0,%eax
 10066e5:	8b 15 68 34 87 03    	mov    0x3873468,%edx
 10066eb:	8b 35 6c 34 87 03    	mov    0x387346c,%esi
 10066f1:	89 e7                	mov    %esp,%edi
 10066f3:	89 77 0c             	mov    %esi,0xc(%edi)
 10066f6:	89 57 08             	mov    %edx,0x8(%edi)
 10066f9:	89 0f                	mov    %ecx,(%edi)
 10066fb:	89 47 04             	mov    %eax,0x4(%edi)
 10066fe:	e8 9d 41 00 00       	call   100a8a0 <__umoddi3>
 1006703:	89 15 8c 34 87 03    	mov    %edx,0x387348c
 1006709:	a3 88 34 87 03       	mov    %eax,0x3873488
 100670e:	e9 54 ff ff ff       	jmp    1006667 <physMemMan_Alloc+0x217>
 1006713:	f2 0f 10 44 24 58    	movsd  0x58(%esp),%xmm0
 1006719:	f2 0f 11 44 24 70    	movsd  %xmm0,0x70(%esp)
 100671f:	8b 44 24 70          	mov    0x70(%esp),%eax
 1006723:	8b 54 24 74          	mov    0x74(%esp),%edx
 1006727:	8d 65 f4             	lea    -0xc(%ebp),%esp
 100672a:	5e                   	pop    %esi
 100672b:	5f                   	pop    %edi
 100672c:	5b                   	pop    %ebx
 100672d:	5d                   	pop    %ebp
 100672e:	c3                   	ret    
 100672f:	90                   	nop

01006730 <physMemMan_Free>:
 1006730:	55                   	push   %ebp
 1006731:	89 e5                	mov    %esp,%ebp
 1006733:	53                   	push   %ebx
 1006734:	57                   	push   %edi
 1006735:	56                   	push   %esi
 1006736:	83 e4 f8             	and    $0xfffffff8,%esp
 1006739:	81 ec 90 00 00 00    	sub    $0x90,%esp
 100673f:	8b 45 0c             	mov    0xc(%ebp),%eax
 1006742:	8b 4d 08             	mov    0x8(%ebp),%ecx
 1006745:	89 8c 24 80 00 00 00 	mov    %ecx,0x80(%esp)
 100674c:	89 84 24 84 00 00 00 	mov    %eax,0x84(%esp)
 1006753:	89 44 24 7c          	mov    %eax,0x7c(%esp)
 1006757:	89 4c 24 78          	mov    %ecx,0x78(%esp)
 100675b:	81 e1 00 f0 ff ff    	and    $0xfffff000,%ecx
 1006761:	89 44 24 74          	mov    %eax,0x74(%esp)
 1006765:	89 4c 24 70          	mov    %ecx,0x70(%esp)
 1006769:	89 c2                	mov    %eax,%edx
 100676b:	0f a4 ca 14          	shld   $0x14,%ecx,%edx
 100676f:	c1 e8 0c             	shr    $0xc,%eax
 1006772:	89 44 24 6c          	mov    %eax,0x6c(%esp)
 1006776:	89 54 24 68          	mov    %edx,0x68(%esp)
 100677a:	f2 0f 10 44 24 68    	movsd  0x68(%esp),%xmm0
 1006780:	f2 0f 11 44 24 60    	movsd  %xmm0,0x60(%esp)
 1006786:	8b 44 24 60          	mov    0x60(%esp),%eax
 100678a:	8b 4c 24 64          	mov    0x64(%esp),%ecx
 100678e:	8b 54 24 68          	mov    0x68(%esp),%edx
 1006792:	8b 74 24 6c          	mov    0x6c(%esp),%esi
 1006796:	83 c2 01             	add    $0x1,%edx
 1006799:	83 d6 00             	adc    $0x0,%esi
 100679c:	29 d0                	sub    %edx,%eax
 100679e:	0f 93 c3             	setae  %bl
 10067a1:	29 f1                	sub    %esi,%ecx
 10067a3:	0f 93 c7             	setae  %bh
 10067a6:	89 4c 24 50          	mov    %ecx,0x50(%esp)
 10067aa:	88 7c 24 4f          	mov    %bh,0x4f(%esp)
 10067ae:	89 44 24 48          	mov    %eax,0x48(%esp)
 10067b2:	88 5c 24 47          	mov    %bl,0x47(%esp)
 10067b6:	74 08                	je     10067c0 <physMemMan_Free+0x90>
 10067b8:	8a 44 24 4f          	mov    0x4f(%esp),%al
 10067bc:	88 44 24 47          	mov    %al,0x47(%esp)
 10067c0:	8a 44 24 47          	mov    0x47(%esp),%al
 10067c4:	84 c0                	test   %al,%al
 10067c6:	0f 85 d4 01 00 00    	jne    10069a0 <physMemMan_Free+0x270>
 10067cc:	eb 00                	jmp    10067ce <physMemMan_Free+0x9e>
 10067ce:	8b 44 24 60          	mov    0x60(%esp),%eax
 10067d2:	8b 4c 24 64          	mov    0x64(%esp),%ecx
 10067d6:	0f a4 c1 1b          	shld   $0x1b,%eax,%ecx
 10067da:	8b 15 7c 34 87 03    	mov    0x387347c,%edx
 10067e0:	8b 34 8a             	mov    (%edx,%ecx,4),%esi
 10067e3:	88 c3                	mov    %al,%bl
 10067e5:	b8 01 00 00 00       	mov    $0x1,%eax
 10067ea:	89 4c 24 40          	mov    %ecx,0x40(%esp)
 10067ee:	88 d9                	mov    %bl,%cl
 10067f0:	d3 e0                	shl    %cl,%eax
 10067f2:	f7 d0                	not    %eax
 10067f4:	21 c6                	and    %eax,%esi
 10067f6:	8b 44 24 40          	mov    0x40(%esp),%eax
 10067fa:	89 34 82             	mov    %esi,(%edx,%eax,4)
 10067fd:	8b 54 24 60          	mov    0x60(%esp),%edx
 1006801:	8b 74 24 64          	mov    0x64(%esp),%esi
 1006805:	89 f7                	mov    %esi,%edi
 1006807:	0f a4 d7 1b          	shld   $0x1b,%edx,%edi
 100680b:	c1 ee 05             	shr    $0x5,%esi
 100680e:	89 e2                	mov    %esp,%edx
 1006810:	89 72 04             	mov    %esi,0x4(%edx)
 1006813:	89 3a                	mov    %edi,(%edx)
 1006815:	c7 42 0c 00 00 00 00 	movl   $0x0,0xc(%edx)
 100681c:	c7 42 08 05 00 00 00 	movl   $0x5,0x8(%edx)
 1006823:	89 7c 24 3c          	mov    %edi,0x3c(%esp)
 1006827:	89 74 24 38          	mov    %esi,0x38(%esp)
 100682b:	e8 40 3f 00 00       	call   100a770 <__udivdi3>
 1006830:	8b 15 78 34 87 03    	mov    0x3873478,%edx
 1006836:	8b 34 82             	mov    (%edx,%eax,4),%esi
 1006839:	89 e7                	mov    %esp,%edi
 100683b:	8b 4c 24 38          	mov    0x38(%esp),%ecx
 100683f:	89 4f 04             	mov    %ecx,0x4(%edi)
 1006842:	8b 4c 24 3c          	mov    0x3c(%esp),%ecx
 1006846:	89 0f                	mov    %ecx,(%edi)
 1006848:	c7 47 0c 00 00 00 00 	movl   $0x0,0xc(%edi)
 100684f:	c7 47 08 05 00 00 00 	movl   $0x5,0x8(%edi)
 1006856:	89 44 24 34          	mov    %eax,0x34(%esp)
 100685a:	89 54 24 30          	mov    %edx,0x30(%esp)
 100685e:	89 74 24 2c          	mov    %esi,0x2c(%esp)
 1006862:	e8 39 40 00 00       	call   100a8a0 <__umoddi3>
 1006867:	6b c0 06             	imul   $0x6,%eax,%eax
 100686a:	88 c3                	mov    %al,%bl
 100686c:	b8 3f 00 00 00       	mov    $0x3f,%eax
 1006871:	88 d9                	mov    %bl,%cl
 1006873:	d3 e0                	shl    %cl,%eax
 1006875:	f7 d0                	not    %eax
 1006877:	8b 54 24 2c          	mov    0x2c(%esp),%edx
 100687b:	21 c2                	and    %eax,%edx
 100687d:	88 d9                	mov    %bl,%cl
 100687f:	8b 44 24 2c          	mov    0x2c(%esp),%eax
 1006883:	d3 e8                	shr    %cl,%eax
 1006885:	40                   	inc    %eax
 1006886:	83 e0 3f             	and    $0x3f,%eax
 1006889:	88 d9                	mov    %bl,%cl
 100688b:	d3 e0                	shl    %cl,%eax
 100688d:	09 c2                	or     %eax,%edx
 100688f:	8b 44 24 30          	mov    0x30(%esp),%eax
 1006893:	8b 74 24 34          	mov    0x34(%esp),%esi
 1006897:	89 14 b0             	mov    %edx,(%eax,%esi,4)
 100689a:	8b 15 64 34 87 03    	mov    0x3873464,%edx
 10068a0:	8b 3d 60 34 87 03    	mov    0x3873460,%edi
 10068a6:	83 c7 01             	add    $0x1,%edi
 10068a9:	83 d2 00             	adc    $0x0,%edx
 10068ac:	89 3d 60 34 87 03    	mov    %edi,0x3873460
 10068b2:	89 15 64 34 87 03    	mov    %edx,0x3873464
 10068b8:	8b 54 24 60          	mov    0x60(%esp),%edx
 10068bc:	8b 7c 24 64          	mov    0x64(%esp),%edi
 10068c0:	89 f8                	mov    %edi,%eax
 10068c2:	0f a4 d0 1b          	shld   $0x1b,%edx,%eax
 10068c6:	c1 ef 05             	shr    $0x5,%edi
 10068c9:	89 7c 24 5c          	mov    %edi,0x5c(%esp)
 10068cd:	89 44 24 58          	mov    %eax,0x58(%esp)
 10068d1:	89 e2                	mov    %esp,%edx
 10068d3:	89 7a 04             	mov    %edi,0x4(%edx)
 10068d6:	89 02                	mov    %eax,(%edx)
 10068d8:	c7 42 0c 00 00 00 00 	movl   $0x0,0xc(%edx)
 10068df:	c7 42 08 05 00 00 00 	movl   $0x5,0x8(%edx)
 10068e6:	89 44 24 28          	mov    %eax,0x28(%esp)
 10068ea:	89 7c 24 24          	mov    %edi,0x24(%esp)
 10068ee:	e8 7d 3e 00 00       	call   100a770 <__udivdi3>
 10068f3:	8b 15 78 34 87 03    	mov    0x3873478,%edx
 10068f9:	8b 04 82             	mov    (%edx,%eax,4),%eax
 10068fc:	89 e2                	mov    %esp,%edx
 10068fe:	8b 74 24 24          	mov    0x24(%esp),%esi
 1006902:	89 72 04             	mov    %esi,0x4(%edx)
 1006905:	8b 7c 24 28          	mov    0x28(%esp),%edi
 1006909:	89 3a                	mov    %edi,(%edx)
 100690b:	c7 42 0c 00 00 00 00 	movl   $0x0,0xc(%edx)
 1006912:	c7 42 08 05 00 00 00 	movl   $0x5,0x8(%edx)
 1006919:	89 44 24 20          	mov    %eax,0x20(%esp)
 100691d:	e8 7e 3f 00 00       	call   100a8a0 <__umoddi3>
 1006922:	6b c0 06             	imul   $0x6,%eax,%eax
 1006925:	88 c1                	mov    %al,%cl
 1006927:	8b 44 24 20          	mov    0x20(%esp),%eax
 100692b:	d3 e8                	shr    %cl,%eax
 100692d:	83 e0 3f             	and    $0x3f,%eax
 1006930:	89 44 24 54          	mov    %eax,0x54(%esp)
 1006934:	a1 8c 34 87 03       	mov    0x387348c,%eax
 1006939:	8b 15 88 34 87 03    	mov    0x3873488,%edx
 100693f:	8b 74 24 58          	mov    0x58(%esp),%esi
 1006943:	8b 7c 24 5c          	mov    0x5c(%esp),%edi
 1006947:	29 f2                	sub    %esi,%edx
 1006949:	0f 96 c1             	setbe  %cl
 100694c:	29 f8                	sub    %edi,%eax
 100694e:	0f 96 c3             	setbe  %bl
 1006951:	88 5c 24 1f          	mov    %bl,0x1f(%esp)
 1006955:	89 44 24 18          	mov    %eax,0x18(%esp)
 1006959:	89 54 24 14          	mov    %edx,0x14(%esp)
 100695d:	88 4c 24 13          	mov    %cl,0x13(%esp)
 1006961:	74 08                	je     100696b <physMemMan_Free+0x23b>
 1006963:	8a 44 24 1f          	mov    0x1f(%esp),%al
 1006967:	88 44 24 13          	mov    %al,0x13(%esp)
 100696b:	8a 44 24 13          	mov    0x13(%esp),%al
 100696f:	84 c0                	test   %al,%al
 1006971:	75 10                	jne    1006983 <physMemMan_Free+0x253>
 1006973:	eb 00                	jmp    1006975 <physMemMan_Free+0x245>
 1006975:	f2 0f 10 44 24 58    	movsd  0x58(%esp),%xmm0
 100697b:	f2 0f 11 05 88 34 87 	movsd  %xmm0,0x3873488
 1006982:	03 
 1006983:	eb 00                	jmp    1006985 <physMemMan_Free+0x255>
 1006985:	8b 44 24 60          	mov    0x60(%esp),%eax
 1006989:	8b 4c 24 64          	mov    0x64(%esp),%ecx
 100698d:	83 c0 01             	add    $0x1,%eax
 1006990:	83 d1 00             	adc    $0x0,%ecx
 1006993:	89 44 24 60          	mov    %eax,0x60(%esp)
 1006997:	89 4c 24 64          	mov    %ecx,0x64(%esp)
 100699b:	e9 e6 fd ff ff       	jmp    1006786 <physMemMan_Free+0x56>
 10069a0:	8d 65 f4             	lea    -0xc(%ebp),%esp
 10069a3:	5e                   	pop    %esi
 10069a4:	5f                   	pop    %edi
 10069a5:	5b                   	pop    %ebx
 10069a6:	5d                   	pop    %ebp
 10069a7:	c3                   	ret    
 10069a8:	66 90                	xchg   %ax,%ax
 10069aa:	66 90                	xchg   %ax,%ax
 10069ac:	66 90                	xchg   %ax,%ax
 10069ae:	66 90                	xchg   %ax,%ax

010069b0 <ProcessMan_Setup>:
 10069b0:	55                   	push   %ebp
 10069b1:	89 e5                	mov    %esp,%ebp
 10069b3:	56                   	push   %esi
 10069b4:	83 ec 0c             	sub    $0xc,%esp
 10069b7:	e8 14 db ff ff       	call   10044d0 <SysMan_RegisterSystem>
 10069bc:	a3 94 f0 a8 04       	mov    %eax,0x4a8f094
 10069c1:	89 e1                	mov    %esp,%ecx
 10069c3:	89 01                	mov    %eax,(%ecx)
 10069c5:	c7 41 04 72 45 7f 01 	movl   $0x17f4572,0x4(%ecx)
 10069cc:	e8 2f d0 ff ff       	call   1003a00 <strcpy>
 10069d1:	8b 0d 94 f0 a8 04    	mov    0x4a8f094,%ecx
 10069d7:	c7 41 14 00 00 00 00 	movl   $0x0,0x14(%ecx)
 10069de:	c7 41 10 00 00 00 00 	movl   $0x0,0x10(%ecx)
 10069e5:	8b 0d 94 f0 a8 04    	mov    0x4a8f094,%ecx
 10069eb:	c7 81 08 01 00 00 70 	movl   $0x1006a70,0x108(%ecx)
 10069f2:	6a 00 01 
 10069f5:	8b 0d 94 f0 a8 04    	mov    0x4a8f094,%ecx
 10069fb:	c7 81 0c 01 00 00 40 	movl   $0x1006a40,0x10c(%ecx)
 1006a02:	6a 00 01 
 1006a05:	8b 0d 94 f0 a8 04    	mov    0x4a8f094,%ecx
 1006a0b:	c7 81 10 01 00 00 50 	movl   $0x1006a50,0x110(%ecx)
 1006a12:	6a 00 01 
 1006a15:	8b 0d 94 f0 a8 04    	mov    0x4a8f094,%ecx
 1006a1b:	8b 91 14 01 00 00    	mov    0x114(%ecx),%edx
 1006a21:	8b 89 18 01 00 00    	mov    0x118(%ecx),%ecx
 1006a27:	89 e6                	mov    %esp,%esi
 1006a29:	89 4e 04             	mov    %ecx,0x4(%esi)
 1006a2c:	89 16                	mov    %edx,(%esi)
 1006a2e:	89 45 f8             	mov    %eax,-0x8(%ebp)
 1006a31:	e8 7a dc ff ff       	call   10046b0 <SysMan_StartSystem>
 1006a36:	83 c4 0c             	add    $0xc,%esp
 1006a39:	5e                   	pop    %esi
 1006a3a:	5d                   	pop    %ebp
 1006a3b:	c3                   	ret    
 1006a3c:	8d 74 26 00          	lea    0x0(%esi,%eiz,1),%esi

01006a40 <processMan_callback>:
 1006a40:	55                   	push   %ebp
 1006a41:	89 e5                	mov    %esp,%ebp
 1006a43:	50                   	push   %eax
 1006a44:	8b 45 08             	mov    0x8(%ebp),%eax
 1006a47:	89 45 fc             	mov    %eax,-0x4(%ebp)
 1006a4a:	83 c4 04             	add    $0x4,%esp
 1006a4d:	5d                   	pop    %ebp
 1006a4e:	c3                   	ret    
 1006a4f:	90                   	nop

01006a50 <processMan_messageHandler>:
 1006a50:	55                   	push   %ebp
 1006a51:	89 e5                	mov    %esp,%ebp
 1006a53:	83 ec 08             	sub    $0x8,%esp
 1006a56:	8b 45 08             	mov    0x8(%ebp),%eax
 1006a59:	89 45 f8             	mov    %eax,-0x8(%ebp)
 1006a5c:	0f b6 45 ff          	movzbl -0x1(%ebp),%eax
 1006a60:	83 c4 08             	add    $0x8,%esp
 1006a63:	5d                   	pop    %ebp
 1006a64:	c3                   	ret    
 1006a65:	8d 74 26 00          	lea    0x0(%esi,%eiz,1),%esi
 1006a69:	8d bc 27 00 00 00 00 	lea    0x0(%edi,%eiz,1),%edi

01006a70 <processMan_Initialize>:
 1006a70:	55                   	push   %ebp
 1006a71:	89 e5                	mov    %esp,%ebp
 1006a73:	83 ec 18             	sub    $0x18,%esp
 1006a76:	b8 00 00 00 00       	mov    $0x0,%eax
 1006a7b:	89 e1                	mov    %esp,%ecx
 1006a7d:	c7 41 08 00 08 00 00 	movl   $0x800,0x8(%ecx)
 1006a84:	c7 41 04 00 00 00 00 	movl   $0x0,0x4(%ecx)
 1006a8b:	c7 01 98 34 87 03    	movl   $0x3873498,(%ecx)
 1006a91:	89 45 fc             	mov    %eax,-0x4(%ebp)
 1006a94:	e8 67 cd ff ff       	call   1003800 <memset>
 1006a99:	89 e1                	mov    %esp,%ecx
 1006a9b:	c7 41 08 00 68 00 00 	movl   $0x6800,0x8(%ecx)
 1006aa2:	c7 41 04 00 00 00 00 	movl   $0x0,0x4(%ecx)
 1006aa9:	c7 01 98 3c 87 03    	movl   $0x3873c98,(%ecx)
 1006aaf:	89 45 f8             	mov    %eax,-0x8(%ebp)
 1006ab2:	e8 49 cd ff ff       	call   1003800 <memset>
 1006ab7:	c7 05 f4 e4 82 01 00 	movl   $0x0,0x182e4f4
 1006abe:	00 00 00 
 1006ac1:	c7 05 f0 e4 82 01 01 	movl   $0x1,0x182e4f0
 1006ac8:	00 00 00 
 1006acb:	c7 05 94 34 87 03 00 	movl   $0x0,0x3873494
 1006ad2:	00 00 00 
 1006ad5:	c7 05 9c a4 87 03 00 	movl   $0x0,0x387a49c
 1006adc:	00 00 00 
 1006adf:	c7 05 a0 a4 87 03 00 	movl   $0x0,0x387a4a0
 1006ae6:	00 00 00 
 1006ae9:	c7 05 98 a4 87 03 00 	movl   $0x0,0x387a498
 1006af0:	00 00 00 
 1006af3:	8b 4d fc             	mov    -0x4(%ebp),%ecx
 1006af6:	89 45 f4             	mov    %eax,-0xc(%ebp)
 1006af9:	89 c8                	mov    %ecx,%eax
 1006afb:	83 c4 18             	add    $0x18,%esp
 1006afe:	5d                   	pop    %ebp
 1006aff:	c3                   	ret    

01006b00 <ProcessMan_Create>:
 1006b00:	55                   	push   %ebp
 1006b01:	89 e5                	mov    %esp,%ebp
 1006b03:	53                   	push   %ebx
 1006b04:	57                   	push   %edi
 1006b05:	56                   	push   %esi
 1006b06:	83 e4 f8             	and    $0xfffffff8,%esp
 1006b09:	83 ec 30             	sub    $0x30,%esp
 1006b0c:	8b 45 10             	mov    0x10(%ebp),%eax
 1006b0f:	8b 4d 0c             	mov    0xc(%ebp),%ecx
 1006b12:	8b 55 08             	mov    0x8(%ebp),%edx
 1006b15:	89 54 24 1c          	mov    %edx,0x1c(%esp)
 1006b19:	89 4c 24 18          	mov    %ecx,0x18(%esp)
 1006b1d:	89 44 24 14          	mov    %eax,0x14(%esp)
 1006b21:	c7 44 24 10 00 00 00 	movl   $0x0,0x10(%esp)
 1006b28:	00 
 1006b29:	81 7c 24 10 80 00 00 	cmpl   $0x80,0x10(%esp)
 1006b30:	00 
 1006b31:	0f 8d 2c 02 00 00    	jge    1006d63 <ProcessMan_Create+0x263>
 1006b37:	8b 44 24 10          	mov    0x10(%esp),%eax
 1006b3b:	c1 e0 04             	shl    $0x4,%eax
 1006b3e:	8b 88 9c 34 87 03    	mov    0x387349c(%eax),%ecx
 1006b44:	8b 80 98 34 87 03    	mov    0x3873498(%eax),%eax
 1006b4a:	09 c8                	or     %ecx,%eax
 1006b4c:	89 44 24 08          	mov    %eax,0x8(%esp)
 1006b50:	0f 85 fb 01 00 00    	jne    1006d51 <ProcessMan_Create+0x251>
 1006b56:	eb 00                	jmp    1006b58 <ProcessMan_Create+0x58>
 1006b58:	a1 f4 e4 82 01       	mov    0x182e4f4,%eax
 1006b5d:	8b 0d f0 e4 82 01    	mov    0x182e4f0,%ecx
 1006b63:	89 ca                	mov    %ecx,%edx
 1006b65:	83 c2 01             	add    $0x1,%edx
 1006b68:	89 c6                	mov    %eax,%esi
 1006b6a:	83 d6 00             	adc    $0x0,%esi
 1006b6d:	89 15 f0 e4 82 01    	mov    %edx,0x182e4f0
 1006b73:	89 35 f4 e4 82 01    	mov    %esi,0x182e4f4
 1006b79:	8b 54 24 10          	mov    0x10(%esp),%edx
 1006b7d:	c1 e2 04             	shl    $0x4,%edx
 1006b80:	89 82 9c 34 87 03    	mov    %eax,0x387349c(%edx)
 1006b86:	89 8a 98 34 87 03    	mov    %ecx,0x3873498(%edx)
 1006b8c:	c7 44 24 0c 00 00 00 	movl   $0x0,0xc(%esp)
 1006b93:	00 
 1006b94:	81 7c 24 0c 00 02 00 	cmpl   $0x200,0xc(%esp)
 1006b9b:	00 
 1006b9c:	0f 8d 43 01 00 00    	jge    1006ce5 <ProcessMan_Create+0x1e5>
 1006ba2:	8b 44 24 0c          	mov    0xc(%esp),%eax
 1006ba6:	6b c0 34             	imul   $0x34,%eax,%eax
 1006ba9:	8b 88 9c 3c 87 03    	mov    0x3873c9c(%eax),%ecx
 1006baf:	8b 80 98 3c 87 03    	mov    0x3873c98(%eax),%eax
 1006bb5:	09 c8                	or     %ecx,%eax
 1006bb7:	89 44 24 04          	mov    %eax,0x4(%esp)
 1006bbb:	0f 85 12 01 00 00    	jne    1006cd3 <ProcessMan_Create+0x1d3>
 1006bc1:	eb 00                	jmp    1006bc3 <ProcessMan_Create+0xc3>
 1006bc3:	8d 05 98 34 87 03    	lea    0x3873498,%eax
 1006bc9:	8d 0d 98 3c 87 03    	lea    0x3873c98,%ecx
 1006bcf:	8b 15 f4 e4 82 01    	mov    0x182e4f4,%edx
 1006bd5:	8b 35 f0 e4 82 01    	mov    0x182e4f0,%esi
 1006bdb:	89 f7                	mov    %esi,%edi
 1006bdd:	83 c7 01             	add    $0x1,%edi
 1006be0:	89 d3                	mov    %edx,%ebx
 1006be2:	83 d3 00             	adc    $0x0,%ebx
 1006be5:	89 3d f0 e4 82 01    	mov    %edi,0x182e4f0
 1006beb:	89 1d f4 e4 82 01    	mov    %ebx,0x182e4f4
 1006bf1:	8b 7c 24 0c          	mov    0xc(%esp),%edi
 1006bf5:	6b ff 34             	imul   $0x34,%edi,%edi
 1006bf8:	89 97 9c 3c 87 03    	mov    %edx,0x3873c9c(%edi)
 1006bfe:	89 b7 98 3c 87 03    	mov    %esi,0x3873c98(%edi)
 1006c04:	8b 54 24 1c          	mov    0x1c(%esp),%edx
 1006c08:	6b 74 24 0c 34       	imul   $0x34,0xc(%esp),%esi
 1006c0d:	89 cf                	mov    %ecx,%edi
 1006c0f:	01 f7                	add    %esi,%edi
 1006c11:	89 57 1c             	mov    %edx,0x1c(%edi)
 1006c14:	6b 54 24 0c 34       	imul   $0x34,0xc(%esp),%edx
 1006c19:	89 ce                	mov    %ecx,%esi
 1006c1b:	01 d6                	add    %edx,%esi
 1006c1d:	c7 46 2c 00 00 00 00 	movl   $0x0,0x2c(%esi)
 1006c24:	8b 54 24 18          	mov    0x18(%esp),%edx
 1006c28:	6b 74 24 0c 34       	imul   $0x34,0xc(%esp),%esi
 1006c2d:	89 cf                	mov    %ecx,%edi
 1006c2f:	01 f7                	add    %esi,%edi
 1006c31:	89 57 20             	mov    %edx,0x20(%edi)
 1006c34:	8b 54 24 14          	mov    0x14(%esp),%edx
 1006c38:	6b 74 24 0c 34       	imul   $0x34,0xc(%esp),%esi
 1006c3d:	89 cf                	mov    %ecx,%edi
 1006c3f:	01 f7                	add    %esi,%edi
 1006c41:	89 57 24             	mov    %edx,0x24(%edi)
 1006c44:	6b 54 24 0c 34       	imul   $0x34,0xc(%esp),%edx
 1006c49:	89 ce                	mov    %ecx,%esi
 1006c4b:	01 d6                	add    %edx,%esi
 1006c4d:	c6 46 28 00          	movb   $0x0,0x28(%esi)
 1006c51:	8b 54 24 10          	mov    0x10(%esp),%edx
 1006c55:	c1 e2 04             	shl    $0x4,%edx
 1006c58:	89 c6                	mov    %eax,%esi
 1006c5a:	01 d6                	add    %edx,%esi
 1006c5c:	6b 54 24 0c 34       	imul   $0x34,0xc(%esp),%edx
 1006c61:	89 cf                	mov    %ecx,%edi
 1006c63:	01 d7                	add    %edx,%edi
 1006c65:	89 77 30             	mov    %esi,0x30(%edi)
 1006c68:	6b 54 24 0c 34       	imul   $0x34,0xc(%esp),%edx
 1006c6d:	01 d1                	add    %edx,%ecx
 1006c6f:	8b 54 24 10          	mov    0x10(%esp),%edx
 1006c73:	c1 e2 04             	shl    $0x4,%edx
 1006c76:	01 d0                	add    %edx,%eax
 1006c78:	89 48 08             	mov    %ecx,0x8(%eax)
 1006c7b:	83 3d 98 a4 87 03 00 	cmpl   $0x0,0x387a498
 1006c82:	74 16                	je     1006c9a <ProcessMan_Create+0x19a>
 1006c84:	8d 05 98 3c 87 03    	lea    0x3873c98,%eax
 1006c8a:	6b 4c 24 0c 34       	imul   $0x34,0xc(%esp),%ecx
 1006c8f:	01 c8                	add    %ecx,%eax
 1006c91:	8b 0d 98 a4 87 03    	mov    0x387a498,%ecx
 1006c97:	89 41 2c             	mov    %eax,0x2c(%ecx)
 1006c9a:	83 3d a0 a4 87 03 00 	cmpl   $0x0,0x387a4a0
 1006ca1:	75 12                	jne    1006cb5 <ProcessMan_Create+0x1b5>
 1006ca3:	8d 05 98 3c 87 03    	lea    0x3873c98,%eax
 1006ca9:	6b 4c 24 0c 34       	imul   $0x34,0xc(%esp),%ecx
 1006cae:	01 c8                	add    %ecx,%eax
 1006cb0:	a3 a0 a4 87 03       	mov    %eax,0x387a4a0
 1006cb5:	8d 05 98 3c 87 03    	lea    0x3873c98,%eax
 1006cbb:	6b 4c 24 10 34       	imul   $0x34,0x10(%esp),%ecx
 1006cc0:	01 c8                	add    %ecx,%eax
 1006cc2:	a3 98 a4 87 03       	mov    %eax,0x387a498
 1006cc7:	a1 98 a4 87 03       	mov    0x387a498,%eax
 1006ccc:	c7 40 2c 00 00 00 00 	movl   $0x0,0x2c(%eax)
 1006cd3:	eb 00                	jmp    1006cd5 <ProcessMan_Create+0x1d5>
 1006cd5:	8b 44 24 0c          	mov    0xc(%esp),%eax
 1006cd9:	83 c0 01             	add    $0x1,%eax
 1006cdc:	89 44 24 0c          	mov    %eax,0xc(%esp)
 1006ce0:	e9 af fe ff ff       	jmp    1006b94 <ProcessMan_Create+0x94>
 1006ce5:	83 3d 9c a4 87 03 00 	cmpl   $0x0,0x387a49c
 1006cec:	74 18                	je     1006d06 <ProcessMan_Create+0x206>
 1006cee:	8d 05 98 34 87 03    	lea    0x3873498,%eax
 1006cf4:	8b 4c 24 10          	mov    0x10(%esp),%ecx
 1006cf8:	c1 e1 04             	shl    $0x4,%ecx
 1006cfb:	01 c8                	add    %ecx,%eax
 1006cfd:	8b 0d 9c a4 87 03    	mov    0x387a49c,%ecx
 1006d03:	89 41 0c             	mov    %eax,0xc(%ecx)
 1006d06:	83 3d 94 34 87 03 00 	cmpl   $0x0,0x3873494
 1006d0d:	75 14                	jne    1006d23 <ProcessMan_Create+0x223>
 1006d0f:	8d 05 98 34 87 03    	lea    0x3873498,%eax
 1006d15:	8b 4c 24 10          	mov    0x10(%esp),%ecx
 1006d19:	c1 e1 04             	shl    $0x4,%ecx
 1006d1c:	01 c8                	add    %ecx,%eax
 1006d1e:	a3 94 34 87 03       	mov    %eax,0x3873494
 1006d23:	8b 44 24 10          	mov    0x10(%esp),%eax
 1006d27:	c1 e0 04             	shl    $0x4,%eax
 1006d2a:	8d 88 98 34 87 03    	lea    0x3873498(%eax),%ecx
 1006d30:	89 0d 9c a4 87 03    	mov    %ecx,0x387a49c
 1006d36:	c7 80 a4 34 87 03 00 	movl   $0x0,0x38734a4(%eax)
 1006d3d:	00 00 00 
 1006d40:	a1 9c a4 87 03       	mov    0x387a49c,%eax
 1006d45:	f2 0f 10 00          	movsd  (%eax),%xmm0
 1006d49:	f2 0f 11 44 24 20    	movsd  %xmm0,0x20(%esp)
 1006d4f:	eb 12                	jmp    1006d63 <ProcessMan_Create+0x263>
 1006d51:	eb 00                	jmp    1006d53 <ProcessMan_Create+0x253>
 1006d53:	8b 44 24 10          	mov    0x10(%esp),%eax
 1006d57:	83 c0 01             	add    $0x1,%eax
 1006d5a:	89 44 24 10          	mov    %eax,0x10(%esp)
 1006d5e:	e9 c6 fd ff ff       	jmp    1006b29 <ProcessMan_Create+0x29>
 1006d63:	8b 44 24 20          	mov    0x20(%esp),%eax
 1006d67:	8b 54 24 24          	mov    0x24(%esp),%edx
 1006d6b:	8d 65 f4             	lea    -0xc(%ebp),%esp
 1006d6e:	5e                   	pop    %esi
 1006d6f:	5f                   	pop    %edi
 1006d70:	5b                   	pop    %ebx
 1006d71:	5d                   	pop    %ebp
 1006d72:	c3                   	ret    
 1006d73:	8d b6 00 00 00 00    	lea    0x0(%esi),%esi
 1006d79:	8d bc 27 00 00 00 00 	lea    0x0(%edi,%eiz,1),%edi

01006d80 <ProcessMan_StartProcess>:
 1006d80:	55                   	push   %ebp
 1006d81:	89 e5                	mov    %esp,%ebp
 1006d83:	56                   	push   %esi
 1006d84:	83 e4 f8             	and    $0xfffffff8,%esp
 1006d87:	83 ec 20             	sub    $0x20,%esp
 1006d8a:	8b 45 0c             	mov    0xc(%ebp),%eax
 1006d8d:	8b 4d 08             	mov    0x8(%ebp),%ecx
 1006d90:	89 4c 24 10          	mov    %ecx,0x10(%esp)
 1006d94:	89 44 24 14          	mov    %eax,0x14(%esp)
 1006d98:	a1 94 34 87 03       	mov    0x3873494,%eax
 1006d9d:	89 44 24 0c          	mov    %eax,0xc(%esp)
 1006da1:	8b 44 24 0c          	mov    0xc(%esp),%eax
 1006da5:	83 78 0c 00          	cmpl   $0x0,0xc(%eax)
 1006da9:	74 4a                	je     1006df5 <ProcessMan_StartProcess+0x75>
 1006dab:	8b 44 24 0c          	mov    0xc(%esp),%eax
 1006daf:	8b 08                	mov    (%eax),%ecx
 1006db1:	8b 40 04             	mov    0x4(%eax),%eax
 1006db4:	8b 54 24 10          	mov    0x10(%esp),%edx
 1006db8:	8b 74 24 14          	mov    0x14(%esp),%esi
 1006dbc:	31 f0                	xor    %esi,%eax
 1006dbe:	31 d1                	xor    %edx,%ecx
 1006dc0:	09 c1                	or     %eax,%ecx
 1006dc2:	89 4c 24 08          	mov    %ecx,0x8(%esp)
 1006dc6:	75 20                	jne    1006de8 <ProcessMan_StartProcess+0x68>
 1006dc8:	eb 00                	jmp    1006dca <ProcessMan_StartProcess+0x4a>
 1006dca:	8b 44 24 0c          	mov    0xc(%esp),%eax
 1006dce:	8b 40 08             	mov    0x8(%eax),%eax
 1006dd1:	8b 08                	mov    (%eax),%ecx
 1006dd3:	8b 40 04             	mov    0x4(%eax),%eax
 1006dd6:	89 e2                	mov    %esp,%edx
 1006dd8:	89 42 04             	mov    %eax,0x4(%edx)
 1006ddb:	89 0a                	mov    %ecx,(%edx)
 1006ddd:	e8 2e 00 00 00       	call   1006e10 <ProcessMan_StartThread>
 1006de2:	89 44 24 18          	mov    %eax,0x18(%esp)
 1006de6:	eb 15                	jmp    1006dfd <ProcessMan_StartProcess+0x7d>
 1006de8:	8b 44 24 0c          	mov    0xc(%esp),%eax
 1006dec:	8b 40 0c             	mov    0xc(%eax),%eax
 1006def:	89 44 24 0c          	mov    %eax,0xc(%esp)
 1006df3:	eb ac                	jmp    1006da1 <ProcessMan_StartProcess+0x21>
 1006df5:	c7 44 24 18 ff ff ff 	movl   $0xffffffff,0x18(%esp)
 1006dfc:	ff 
 1006dfd:	8b 44 24 18          	mov    0x18(%esp),%eax
 1006e01:	8d 65 fc             	lea    -0x4(%ebp),%esp
 1006e04:	5e                   	pop    %esi
 1006e05:	5d                   	pop    %ebp
 1006e06:	c3                   	ret    
 1006e07:	89 f6                	mov    %esi,%esi
 1006e09:	8d bc 27 00 00 00 00 	lea    0x0(%edi,%eiz,1),%edi

01006e10 <ProcessMan_StartThread>:
 1006e10:	55                   	push   %ebp
 1006e11:	89 e5                	mov    %esp,%ebp
 1006e13:	56                   	push   %esi
 1006e14:	83 e4 f8             	and    $0xfffffff8,%esp
 1006e17:	83 ec 18             	sub    $0x18,%esp
 1006e1a:	8b 45 0c             	mov    0xc(%ebp),%eax
 1006e1d:	8b 4d 08             	mov    0x8(%ebp),%ecx
 1006e20:	89 4c 24 08          	mov    %ecx,0x8(%esp)
 1006e24:	89 44 24 0c          	mov    %eax,0xc(%esp)
 1006e28:	a1 a0 a4 87 03       	mov    0x387a4a0,%eax
 1006e2d:	89 44 24 04          	mov    %eax,0x4(%esp)
 1006e31:	8b 44 24 04          	mov    0x4(%esp),%eax
 1006e35:	83 78 2c 00          	cmpl   $0x0,0x2c(%eax)
 1006e39:	74 28                	je     1006e63 <ProcessMan_StartThread+0x53>
 1006e3b:	8b 44 24 04          	mov    0x4(%esp),%eax
 1006e3f:	8b 08                	mov    (%eax),%ecx
 1006e41:	8b 40 04             	mov    0x4(%eax),%eax
 1006e44:	8b 54 24 08          	mov    0x8(%esp),%edx
 1006e48:	8b 74 24 0c          	mov    0xc(%esp),%esi
 1006e4c:	31 f0                	xor    %esi,%eax
 1006e4e:	31 d1                	xor    %edx,%ecx
 1006e50:	09 c1                	or     %eax,%ecx
 1006e52:	89 0c 24             	mov    %ecx,(%esp)
 1006e55:	75 0a                	jne    1006e61 <ProcessMan_StartThread+0x51>
 1006e57:	eb 00                	jmp    1006e59 <ProcessMan_StartThread+0x49>
 1006e59:	8b 44 24 04          	mov    0x4(%esp),%eax
 1006e5d:	c6 40 28 01          	movb   $0x1,0x28(%eax)
 1006e61:	eb ce                	jmp    1006e31 <ProcessMan_StartThread+0x21>
 1006e63:	8b 44 24 10          	mov    0x10(%esp),%eax
 1006e67:	8d 65 fc             	lea    -0x4(%ebp),%esp
 1006e6a:	5e                   	pop    %esi
 1006e6b:	5d                   	pop    %ebp
 1006e6c:	c3                   	ret    
 1006e6d:	66 90                	xchg   %ax,%ax
 1006e6f:	90                   	nop

01006e70 <ThreadMan_Setup>:
 1006e70:	55                   	push   %ebp
 1006e71:	89 e5                	mov    %esp,%ebp
 1006e73:	83 ec 0c             	sub    $0xc,%esp
 1006e76:	e8 55 d6 ff ff       	call   10044d0 <SysMan_RegisterSystem>
 1006e7b:	a3 98 f0 a8 04       	mov    %eax,0x4a8f098
 1006e80:	89 e1                	mov    %esp,%ecx
 1006e82:	89 01                	mov    %eax,(%ecx)
 1006e84:	c7 41 04 7d 45 7f 01 	movl   $0x17f457d,0x4(%ecx)
 1006e8b:	e8 70 cb ff ff       	call   1003a00 <strcpy>
 1006e90:	89 45 fc             	mov    %eax,-0x4(%ebp)
 1006e93:	e8 68 bd ff ff       	call   1002c00 <Interrupts_GetSysID>
 1006e98:	8b 0d 98 f0 a8 04    	mov    0x4a8f098,%ecx
 1006e9e:	89 51 14             	mov    %edx,0x14(%ecx)
 1006ea1:	89 41 10             	mov    %eax,0x10(%ecx)
 1006ea4:	a1 98 f0 a8 04       	mov    0x4a8f098,%eax
 1006ea9:	c7 40 1c 00 00 00 00 	movl   $0x0,0x1c(%eax)
 1006eb0:	c7 40 18 00 00 00 00 	movl   $0x0,0x18(%eax)
 1006eb7:	a1 98 f0 a8 04       	mov    0x4a8f098,%eax
 1006ebc:	c7 80 08 01 00 00 00 	movl   $0x1007100,0x108(%eax)
 1006ec3:	71 00 01 
 1006ec6:	a1 98 f0 a8 04       	mov    0x4a8f098,%eax
 1006ecb:	c7 80 0c 01 00 00 00 	movl   $0x0,0x10c(%eax)
 1006ed2:	00 00 00 
 1006ed5:	a1 98 f0 a8 04       	mov    0x4a8f098,%eax
 1006eda:	c7 80 10 01 00 00 10 	movl   $0x1006f10,0x110(%eax)
 1006ee1:	6f 00 01 
 1006ee4:	a1 98 f0 a8 04       	mov    0x4a8f098,%eax
 1006ee9:	8b 88 14 01 00 00    	mov    0x114(%eax),%ecx
 1006eef:	8b 80 18 01 00 00    	mov    0x118(%eax),%eax
 1006ef5:	89 e2                	mov    %esp,%edx
 1006ef7:	89 42 04             	mov    %eax,0x4(%edx)
 1006efa:	89 0a                	mov    %ecx,(%edx)
 1006efc:	e8 af d7 ff ff       	call   10046b0 <SysMan_StartSystem>
 1006f01:	83 c4 0c             	add    $0xc,%esp
 1006f04:	5d                   	pop    %ebp
 1006f05:	c3                   	ret    
 1006f06:	8d 76 00             	lea    0x0(%esi),%esi
 1006f09:	8d bc 27 00 00 00 00 	lea    0x0(%edi,%eiz,1),%edi

01006f10 <threadMan_messageHandler>:
 1006f10:	55                   	push   %ebp
 1006f11:	89 e5                	mov    %esp,%ebp
 1006f13:	83 ec 08             	sub    $0x8,%esp
 1006f16:	8b 45 08             	mov    0x8(%ebp),%eax
 1006f19:	89 45 f8             	mov    %eax,-0x8(%ebp)
 1006f1c:	0f b6 45 ff          	movzbl -0x1(%ebp),%eax
 1006f20:	83 c4 08             	add    $0x8,%esp
 1006f23:	5d                   	pop    %ebp
 1006f24:	c3                   	ret    
 1006f25:	8d 74 26 00          	lea    0x0(%esi,%eiz,1),%esi
 1006f29:	8d bc 27 00 00 00 00 	lea    0x0(%edi,%eiz,1),%edi

01006f30 <threadMan_IDTHandler>:
 1006f30:	60                   	pusha  
 1006f31:	66 8c d8             	mov    %ds,%ax
 1006f34:	50                   	push   %eax
 1006f35:	66 b8 10 00          	mov    $0x10,%ax
 1006f39:	8e d8                	mov    %eax,%ds
 1006f3b:	8e c0                	mov    %eax,%es
 1006f3d:	8e e0                	mov    %eax,%fs
 1006f3f:	8e e8                	mov    %eax,%gs
 1006f41:	54                   	push   %esp
 1006f42:	e8 19 00 00 00       	call   1006f60 <threadMan_InterruptHandler>
 1006f47:	5b                   	pop    %ebx
 1006f48:	5b                   	pop    %ebx
 1006f49:	8e db                	mov    %ebx,%ds
 1006f4b:	8e c3                	mov    %ebx,%es
 1006f4d:	8e e3                	mov    %ebx,%fs
 1006f4f:	8e eb                	mov    %ebx,%gs
 1006f51:	61                   	popa   
 1006f52:	83 c4 08             	add    $0x8,%esp
 1006f55:	cf                   	iret   
 1006f56:	c3                   	ret    
 1006f57:	89 f6                	mov    %esi,%esi
 1006f59:	8d bc 27 00 00 00 00 	lea    0x0(%edi,%eiz,1),%edi

01006f60 <threadMan_InterruptHandler>:
 1006f60:	55                   	push   %ebp
 1006f61:	89 e5                	mov    %esp,%ebp
 1006f63:	53                   	push   %ebx
 1006f64:	83 ec 0c             	sub    $0xc,%esp
 1006f67:	8b 45 08             	mov    0x8(%ebp),%eax
 1006f6a:	8d 0d 87 45 7f 01    	lea    0x17f4587,%ecx
 1006f70:	89 45 f8             	mov    %eax,-0x8(%ebp)
 1006f73:	89 0c 24             	mov    %ecx,(%esp)
 1006f76:	e8 a5 9d ff ff       	call   1000d20 <COM_WriteStr>
 1006f7b:	83 3d 98 a4 87 03 00 	cmpl   $0x0,0x387a498
 1006f82:	0f 84 65 01 00 00    	je     10070ed <threadMan_InterruptHandler+0x18d>
 1006f88:	a1 98 a4 87 03       	mov    0x387a498,%eax
 1006f8d:	8b 80 64 02 00 00    	mov    0x264(%eax),%eax
 1006f93:	89 45 f4             	mov    %eax,-0xc(%ebp)
 1006f96:	83 7d f4 00          	cmpl   $0x0,-0xc(%ebp)
 1006f9a:	75 08                	jne    1006fa4 <threadMan_InterruptHandler+0x44>
 1006f9c:	a1 98 3c 87 03       	mov    0x3873c98,%eax
 1006fa1:	89 45 f4             	mov    %eax,-0xc(%ebp)
 1006fa4:	8b 45 f8             	mov    -0x8(%ebp),%eax
 1006fa7:	8b 00                	mov    (%eax),%eax
 1006fa9:	8b 0d 98 a4 87 03    	mov    0x387a498,%ecx
 1006faf:	89 81 14 02 00 00    	mov    %eax,0x214(%ecx)
 1006fb5:	8b 45 f8             	mov    -0x8(%ebp),%eax
 1006fb8:	8b 40 04             	mov    0x4(%eax),%eax
 1006fbb:	8b 0d 98 a4 87 03    	mov    0x387a498,%ecx
 1006fc1:	89 81 18 02 00 00    	mov    %eax,0x218(%ecx)
 1006fc7:	8b 45 f8             	mov    -0x8(%ebp),%eax
 1006fca:	8b 40 08             	mov    0x8(%eax),%eax
 1006fcd:	8b 0d 98 a4 87 03    	mov    0x387a498,%ecx
 1006fd3:	89 81 1c 02 00 00    	mov    %eax,0x21c(%ecx)
 1006fd9:	8b 45 f8             	mov    -0x8(%ebp),%eax
 1006fdc:	8b 40 0c             	mov    0xc(%eax),%eax
 1006fdf:	8b 0d 98 a4 87 03    	mov    0x387a498,%ecx
 1006fe5:	89 81 20 02 00 00    	mov    %eax,0x220(%ecx)
 1006feb:	8b 45 f8             	mov    -0x8(%ebp),%eax
 1006fee:	8b 40 10             	mov    0x10(%eax),%eax
 1006ff1:	8b 0d 98 a4 87 03    	mov    0x387a498,%ecx
 1006ff7:	89 81 24 02 00 00    	mov    %eax,0x224(%ecx)
 1006ffd:	8b 45 f8             	mov    -0x8(%ebp),%eax
 1007000:	8b 40 14             	mov    0x14(%eax),%eax
 1007003:	8b 0d 98 a4 87 03    	mov    0x387a498,%ecx
 1007009:	89 81 28 02 00 00    	mov    %eax,0x228(%ecx)
 100700f:	8b 45 f8             	mov    -0x8(%ebp),%eax
 1007012:	8b 40 18             	mov    0x18(%eax),%eax
 1007015:	8b 0d 98 a4 87 03    	mov    0x387a498,%ecx
 100701b:	89 81 2c 02 00 00    	mov    %eax,0x22c(%ecx)
 1007021:	8b 45 f8             	mov    -0x8(%ebp),%eax
 1007024:	8b 40 1c             	mov    0x1c(%eax),%eax
 1007027:	8b 0d 98 a4 87 03    	mov    0x387a498,%ecx
 100702d:	89 81 30 02 00 00    	mov    %eax,0x230(%ecx)
 1007033:	8b 45 f8             	mov    -0x8(%ebp),%eax
 1007036:	8b 40 20             	mov    0x20(%eax),%eax
 1007039:	8b 0d 98 a4 87 03    	mov    0x387a498,%ecx
 100703f:	89 81 34 02 00 00    	mov    %eax,0x234(%ecx)
 1007045:	8b 45 f8             	mov    -0x8(%ebp),%eax
 1007048:	8b 40 24             	mov    0x24(%eax),%eax
 100704b:	8b 0d 98 a4 87 03    	mov    0x387a498,%ecx
 1007051:	89 81 38 02 00 00    	mov    %eax,0x238(%ecx)
 1007057:	8b 45 f8             	mov    -0x8(%ebp),%eax
 100705a:	8b 40 28             	mov    0x28(%eax),%eax
 100705d:	8b 0d 98 a4 87 03    	mov    0x387a498,%ecx
 1007063:	89 81 3c 02 00 00    	mov    %eax,0x23c(%ecx)
 1007069:	8b 45 f8             	mov    -0x8(%ebp),%eax
 100706c:	8b 40 2c             	mov    0x2c(%eax),%eax
 100706f:	8b 0d 98 a4 87 03    	mov    0x387a498,%ecx
 1007075:	89 81 40 02 00 00    	mov    %eax,0x240(%ecx)
 100707b:	8b 45 f8             	mov    -0x8(%ebp),%eax
 100707e:	8b 40 30             	mov    0x30(%eax),%eax
 1007081:	8b 0d 98 a4 87 03    	mov    0x387a498,%ecx
 1007087:	89 81 44 02 00 00    	mov    %eax,0x244(%ecx)
 100708d:	8b 45 f8             	mov    -0x8(%ebp),%eax
 1007090:	8b 40 34             	mov    0x34(%eax),%eax
 1007093:	8b 0d 98 a4 87 03    	mov    0x387a498,%ecx
 1007099:	89 81 48 02 00 00    	mov    %eax,0x248(%ecx)
 100709f:	8b 45 f8             	mov    -0x8(%ebp),%eax
 10070a2:	8b 40 38             	mov    0x38(%eax),%eax
 10070a5:	8b 0d 98 a4 87 03    	mov    0x387a498,%ecx
 10070ab:	89 81 4c 02 00 00    	mov    %eax,0x24c(%ecx)
 10070b1:	8b 45 f8             	mov    -0x8(%ebp),%eax
 10070b4:	8b 40 3c             	mov    0x3c(%eax),%eax
 10070b7:	8b 0d 98 a4 87 03    	mov    0x387a498,%ecx
 10070bd:	89 81 50 02 00 00    	mov    %eax,0x250(%ecx)
 10070c3:	a1 98 a4 87 03       	mov    0x387a498,%eax
 10070c8:	0f 20 d9             	mov    %cr3,%ecx
 10070cb:	89 08                	mov    %ecx,(%eax)
 10070cd:	8b 45 f4             	mov    -0xc(%ebp),%eax
 10070d0:	a3 98 a4 87 03       	mov    %eax,0x387a498
 10070d5:	a1 98 a4 87 03       	mov    0x387a498,%eax
 10070da:	8b 98 24 02 00 00    	mov    0x224(%eax),%ebx
 10070e0:	89 d8                	mov    %ebx,%eax
 10070e2:	83 c0 04             	add    $0x4,%eax
 10070e5:	58                   	pop    %eax
 10070e6:	58                   	pop    %eax
 10070e7:	89 dc                	mov    %ebx,%esp
 10070e9:	ff 75 04             	pushl  0x4(%ebp)
 10070ec:	c3                   	ret    
 10070ed:	83 c4 0c             	add    $0xc,%esp
 10070f0:	5b                   	pop    %ebx
 10070f1:	5d                   	pop    %ebp
 10070f2:	c3                   	ret    
 10070f3:	8d b6 00 00 00 00    	lea    0x0(%esi),%esi
 10070f9:	8d bc 27 00 00 00 00 	lea    0x0(%edi,%eiz,1),%edi

01007100 <threadMan_Initialize>:
 1007100:	55                   	push   %ebp
 1007101:	89 e5                	mov    %esp,%ebp
 1007103:	56                   	push   %esi
 1007104:	83 e4 f8             	and    $0xfffffff8,%esp
 1007107:	83 ec 38             	sub    $0x38,%esp
 100710a:	b8 20 03 00 00       	mov    $0x320,%eax
 100710f:	b9 30 00 00 00       	mov    $0x30,%ecx
 1007114:	c7 05 98 a4 87 03 00 	movl   $0x0,0x387a498
 100711b:	00 00 00 
 100711e:	c7 05 98 3c 87 03 00 	movl   $0x0,0x3873c98
 1007125:	00 00 00 
 1007128:	89 e2                	mov    %esp,%edx
 100712a:	c7 42 0c 8e 00 00 00 	movl   $0x8e,0xc(%edx)
 1007131:	c7 42 08 08 00 00 00 	movl   $0x8,0x8(%edx)
 1007138:	c7 42 04 30 6f 00 01 	movl   $0x1006f30,0x4(%edx)
 100713f:	c7 02 30 00 00 00    	movl   $0x30,(%edx)
 1007145:	89 44 24 24          	mov    %eax,0x24(%esp)
 1007149:	89 4c 24 20          	mov    %ecx,0x20(%esp)
 100714d:	e8 2e 97 ff ff       	call   1000880 <IDT_SetEntry>
 1007152:	89 e0                	mov    %esp,%eax
 1007154:	c7 00 01 00 00 00    	movl   $0x1,(%eax)
 100715a:	e8 81 a5 ff ff       	call   10016e0 <APIC_SetTimerMode>
 100715f:	89 e0                	mov    %esp,%eax
 1007161:	c7 00 00 04 00 00    	movl   $0x400,(%eax)
 1007167:	e8 74 a6 ff ff       	call   10017e0 <APIC_SetTimerValue>
 100716c:	89 e0                	mov    %esp,%eax
 100716e:	c7 00 68 02 00 00    	movl   $0x268,(%eax)
 1007174:	e8 d7 30 00 00       	call   100a250 <kmalloc>
 1007179:	a3 98 3c 87 03       	mov    %eax,0x3873c98
 100717e:	a1 a4 f0 a8 04       	mov    0x4a8f0a4,%eax
 1007183:	8b 0d a0 f0 a8 04    	mov    0x4a8f0a0,%ecx
 1007189:	89 ca                	mov    %ecx,%edx
 100718b:	83 c2 01             	add    $0x1,%edx
 100718e:	89 c6                	mov    %eax,%esi
 1007190:	83 d6 00             	adc    $0x0,%esi
 1007193:	89 15 a0 f0 a8 04    	mov    %edx,0x4a8f0a0
 1007199:	89 35 a4 f0 a8 04    	mov    %esi,0x4a8f0a4
 100719f:	8b 15 98 3c 87 03    	mov    0x3873c98,%edx
 10071a5:	89 82 58 02 00 00    	mov    %eax,0x258(%edx)
 10071ab:	89 8a 54 02 00 00    	mov    %ecx,0x254(%edx)
 10071b1:	a1 98 3c 87 03       	mov    0x3873c98,%eax
 10071b6:	c7 80 60 02 00 00 00 	movl   $0x0,0x260(%eax)
 10071bd:	00 00 00 
 10071c0:	c7 80 5c 02 00 00 01 	movl   $0x1,0x25c(%eax)
 10071c7:	00 00 00 
 10071ca:	a1 98 3c 87 03       	mov    0x3873c98,%eax
 10071cf:	c7 80 64 02 00 00 00 	movl   $0x0,0x264(%eax)
 10071d6:	00 00 00 
 10071d9:	a1 98 3c 87 03       	mov    0x3873c98,%eax
 10071de:	a3 98 a4 87 03       	mov    %eax,0x387a498
 10071e3:	a3 a4 a4 87 03       	mov    %eax,0x387a4a4
 10071e8:	89 e0                	mov    %esp,%eax
 10071ea:	c7 40 10 00 00 00 00 	movl   $0x0,0x10(%eax)
 10071f1:	c7 40 0c 01 00 00 00 	movl   $0x1,0xc(%eax)
 10071f8:	c7 40 08 00 00 00 00 	movl   $0x0,0x8(%eax)
 10071ff:	c7 40 04 00 00 00 00 	movl   $0x0,0x4(%eax)
 1007206:	c7 00 60 04 00 01    	movl   $0x1000460,(%eax)
 100720c:	e8 4f 00 00 00       	call   1007260 <ThreadMan_CreateThread>
 1007211:	89 54 24 2c          	mov    %edx,0x2c(%esp)
 1007215:	89 44 24 28          	mov    %eax,0x28(%esp)
 1007219:	c7 04 24 20 03 00 00 	movl   $0x320,(%esp)
 1007220:	c7 44 24 04 30 00 00 	movl   $0x30,0x4(%esp)
 1007227:	00 
 1007228:	e8 33 a3 ff ff       	call   1001560 <APIC_SetVector>
 100722d:	b8 20 03 00 00       	mov    $0x320,%eax
 1007232:	b9 01 00 00 00       	mov    $0x1,%ecx
 1007237:	c7 04 24 20 03 00 00 	movl   $0x320,(%esp)
 100723e:	c7 44 24 04 01 00 00 	movl   $0x1,0x4(%esp)
 1007245:	00 
 1007246:	89 44 24 1c          	mov    %eax,0x1c(%esp)
 100724a:	89 4c 24 18          	mov    %ecx,0x18(%esp)
 100724e:	e8 9d a2 ff ff       	call   10014f0 <APIC_SetEnableInterrupt>
 1007253:	b8 00 00 00 00       	mov    $0x0,%eax
 1007258:	8d 65 fc             	lea    -0x4(%ebp),%esp
 100725b:	5e                   	pop    %esi
 100725c:	5d                   	pop    %ebp
 100725d:	c3                   	ret    
 100725e:	66 90                	xchg   %ax,%ax

01007260 <ThreadMan_CreateThread>:
 1007260:	55                   	push   %ebp
 1007261:	89 e5                	mov    %esp,%ebp
 1007263:	53                   	push   %ebx
 1007264:	57                   	push   %edi
 1007265:	56                   	push   %esi
 1007266:	83 e4 f8             	and    $0xfffffff8,%esp
 1007269:	83 ec 38             	sub    $0x38,%esp
 100726c:	8b 45 18             	mov    0x18(%ebp),%eax
 100726f:	8b 4d 14             	mov    0x14(%ebp),%ecx
 1007272:	8b 55 10             	mov    0x10(%ebp),%edx
 1007275:	8b 75 0c             	mov    0xc(%ebp),%esi
 1007278:	8b 7d 08             	mov    0x8(%ebp),%edi
 100727b:	89 7c 24 30          	mov    %edi,0x30(%esp)
 100727f:	89 74 24 2c          	mov    %esi,0x2c(%esp)
 1007283:	89 54 24 28          	mov    %edx,0x28(%esp)
 1007287:	89 44 24 24          	mov    %eax,0x24(%esp)
 100728b:	89 4c 24 20          	mov    %ecx,0x20(%esp)
 100728f:	e8 9c b9 ff ff       	call   1002c30 <Interrupts_Lock>
 1007294:	89 e0                	mov    %esp,%eax
 1007296:	c7 00 68 02 00 00    	movl   $0x268,(%eax)
 100729c:	e8 af 2f 00 00       	call   100a250 <kmalloc>
 10072a1:	89 44 24 1c          	mov    %eax,0x1c(%esp)
 10072a5:	89 e1                	mov    %esp,%ecx
 10072a7:	89 41 04             	mov    %eax,0x4(%ecx)
 10072aa:	c7 01 a2 45 7f 01    	movl   $0x17f45a2,(%ecx)
 10072b0:	e8 6b 9a ff ff       	call   1000d20 <COM_WriteStr>
 10072b5:	a1 a4 f0 a8 04       	mov    0x4a8f0a4,%eax
 10072ba:	8b 0d a0 f0 a8 04    	mov    0x4a8f0a0,%ecx
 10072c0:	89 ca                	mov    %ecx,%edx
 10072c2:	83 c2 01             	add    $0x1,%edx
 10072c5:	89 c6                	mov    %eax,%esi
 10072c7:	83 d6 00             	adc    $0x0,%esi
 10072ca:	89 15 a0 f0 a8 04    	mov    %edx,0x4a8f0a0
 10072d0:	89 35 a4 f0 a8 04    	mov    %esi,0x4a8f0a4
 10072d6:	8b 54 24 1c          	mov    0x1c(%esp),%edx
 10072da:	89 82 58 02 00 00    	mov    %eax,0x258(%edx)
 10072e0:	89 8a 54 02 00 00    	mov    %ecx,0x254(%edx)
 10072e6:	f2 0f 10 44 24 20    	movsd  0x20(%esp),%xmm0
 10072ec:	8b 44 24 1c          	mov    0x1c(%esp),%eax
 10072f0:	f2 0f 11 80 5c 02 00 	movsd  %xmm0,0x25c(%eax)
 10072f7:	00 
 10072f8:	e8 83 11 00 00       	call   1008480 <virtMemMan_CreateInstance>
 10072fd:	8b 4c 24 1c          	mov    0x1c(%esp),%ecx
 1007301:	89 01                	mov    %eax,(%ecx)
 1007303:	8a 5c 24 20          	mov    0x20(%esp),%bl
 1007307:	f6 c3 02             	test   $0x2,%bl
 100730a:	74 10                	je     100731c <ThreadMan_CreateThread+0xbc>
 100730c:	eb 00                	jmp    100730e <ThreadMan_CreateThread+0xae>
 100730e:	8b 44 24 1c          	mov    0x1c(%esp),%eax
 1007312:	8b 00                	mov    (%eax),%eax
 1007314:	89 04 24             	mov    %eax,(%esp)
 1007317:	e8 f4 12 00 00       	call   1008610 <virtMemMan_ForkCurrent>
 100731c:	8b 44 24 1c          	mov    0x1c(%esp),%eax
 1007320:	05 14 02 00 00       	add    $0x214,%eax
 1007325:	89 e1                	mov    %esp,%ecx
 1007327:	89 01                	mov    %eax,(%ecx)
 1007329:	c7 41 08 40 00 00 00 	movl   $0x40,0x8(%ecx)
 1007330:	c7 41 04 00 00 00 00 	movl   $0x0,0x4(%ecx)
 1007337:	e8 c4 c4 ff ff       	call   1003800 <memset>
 100733c:	8b 4c 24 1c          	mov    0x1c(%esp),%ecx
 1007340:	83 c1 04             	add    $0x4,%ecx
 1007343:	89 e2                	mov    %esp,%edx
 1007345:	89 0a                	mov    %ecx,(%edx)
 1007347:	c7 42 08 00 02 00 00 	movl   $0x200,0x8(%edx)
 100734e:	c7 42 04 00 00 00 00 	movl   $0x0,0x4(%edx)
 1007355:	89 44 24 18          	mov    %eax,0x18(%esp)
 1007359:	e8 a2 c4 ff ff       	call   1003800 <memset>
 100735e:	8b 4c 24 30          	mov    0x30(%esp),%ecx
 1007362:	8b 54 24 1c          	mov    0x1c(%esp),%edx
 1007366:	89 8a 40 02 00 00    	mov    %ecx,0x240(%edx)
 100736c:	89 e1                	mov    %esp,%ecx
 100736e:	c7 01 00 40 00 00    	movl   $0x4000,(%ecx)
 1007374:	89 44 24 14          	mov    %eax,0x14(%esp)
 1007378:	e8 d3 2e 00 00       	call   100a250 <kmalloc>
 100737d:	05 00 40 00 00       	add    $0x4000,%eax
 1007382:	8b 4c 24 1c          	mov    0x1c(%esp),%ecx
 1007386:	89 81 24 02 00 00    	mov    %eax,0x224(%ecx)
 100738c:	8b 44 24 1c          	mov    0x1c(%esp),%eax
 1007390:	8b 88 24 02 00 00    	mov    0x224(%eax),%ecx
 1007396:	89 88 20 02 00 00    	mov    %ecx,0x220(%eax)
 100739c:	8b 44 24 28          	mov    0x28(%esp),%eax
 10073a0:	8b 4c 24 1c          	mov    0x1c(%esp),%ecx
 10073a4:	8b 54 24 2c          	mov    0x2c(%esp),%edx
 10073a8:	8b 99 24 02 00 00    	mov    0x224(%ecx),%ebx
 10073ae:	8b 89 40 02 00 00    	mov    0x240(%ecx),%ecx
 10073b4:	89 4c 24 10          	mov    %ecx,0x10(%esp)
 10073b8:	89 d1                	mov    %edx,%ecx
 10073ba:	8b 54 24 10          	mov    0x10(%esp),%edx
 10073be:	89 e7                	mov    %esp,%edi
 10073c0:	89 dc                	mov    %ebx,%esp
 10073c2:	50                   	push   %eax
 10073c3:	51                   	push   %ecx
 10073c4:	9c                   	pushf  
 10073c5:	6a 08                	push   $0x8
 10073c7:	52                   	push   %edx
 10073c8:	6a 00                	push   $0x0
 10073ca:	6a 00                	push   $0x0
 10073cc:	6a 00                	push   $0x0
 10073ce:	6a 00                	push   $0x0
 10073d0:	6a 00                	push   $0x0
 10073d2:	6a 00                	push   $0x0
 10073d4:	6a 00                	push   $0x0
 10073d6:	81 eb 00 10 00 00    	sub    $0x1000,%ebx
 10073dc:	53                   	push   %ebx
 10073dd:	6a 00                	push   $0x0
 10073df:	6a 00                	push   $0x0
 10073e1:	6a 00                	push   $0x0
 10073e3:	6a 00                	push   $0x0
 10073e5:	89 e3                	mov    %esp,%ebx
 10073e7:	89 fc                	mov    %edi,%esp
 10073e9:	8b 44 24 1c          	mov    0x1c(%esp),%eax
 10073ed:	89 d9                	mov    %ebx,%ecx
 10073ef:	89 88 24 02 00 00    	mov    %ecx,0x224(%eax)
 10073f5:	8b 44 24 1c          	mov    0x1c(%esp),%eax
 10073f9:	8b 80 24 02 00 00    	mov    0x224(%eax),%eax
 10073ff:	89 e1                	mov    %esp,%ecx
 1007401:	89 41 04             	mov    %eax,0x4(%ecx)
 1007404:	c7 01 b5 45 7f 01    	movl   $0x17f45b5,(%ecx)
 100740a:	e8 11 99 ff ff       	call   1000d20 <COM_WriteStr>
 100740f:	8b 44 24 1c          	mov    0x1c(%esp),%eax
 1007413:	8b 0d a4 a4 87 03    	mov    0x387a4a4,%ecx
 1007419:	89 81 64 02 00 00    	mov    %eax,0x264(%ecx)
 100741f:	a1 a4 a4 87 03       	mov    0x387a4a4,%eax
 1007424:	8b 80 64 02 00 00    	mov    0x264(%eax),%eax
 100742a:	a3 a4 a4 87 03       	mov    %eax,0x387a4a4
 100742f:	e8 4c b8 ff ff       	call   1002c80 <Interrupts_Unlock>
 1007434:	8b 44 24 1c          	mov    0x1c(%esp),%eax
 1007438:	8b 88 54 02 00 00    	mov    0x254(%eax),%ecx
 100743e:	8b 90 58 02 00 00    	mov    0x258(%eax),%edx
 1007444:	89 c8                	mov    %ecx,%eax
 1007446:	8d 65 f4             	lea    -0xc(%ebp),%esp
 1007449:	5e                   	pop    %esi
 100744a:	5f                   	pop    %edi
 100744b:	5b                   	pop    %ebx
 100744c:	5d                   	pop    %ebp
 100744d:	c3                   	ret    
 100744e:	66 90                	xchg   %ax,%ax

01007450 <ThreadMan_StartThread>:
 1007450:	55                   	push   %ebp
 1007451:	89 e5                	mov    %esp,%ebp
 1007453:	83 e4 f8             	and    $0xfffffff8,%esp
 1007456:	83 ec 08             	sub    $0x8,%esp
 1007459:	8b 45 0c             	mov    0xc(%ebp),%eax
 100745c:	8b 4d 08             	mov    0x8(%ebp),%ecx
 100745f:	89 0c 24             	mov    %ecx,(%esp)
 1007462:	89 44 24 04          	mov    %eax,0x4(%esp)
 1007466:	89 ec                	mov    %ebp,%esp
 1007468:	5d                   	pop    %ebp
 1007469:	c3                   	ret    
 100746a:	8d b6 00 00 00 00    	lea    0x0(%esi),%esi

01007470 <ThreadMan_ExitThread>:
 1007470:	55                   	push   %ebp
 1007471:	89 e5                	mov    %esp,%ebp
 1007473:	83 e4 f8             	and    $0xfffffff8,%esp
 1007476:	83 ec 08             	sub    $0x8,%esp
 1007479:	8b 45 0c             	mov    0xc(%ebp),%eax
 100747c:	8b 4d 08             	mov    0x8(%ebp),%ecx
 100747f:	89 0c 24             	mov    %ecx,(%esp)
 1007482:	89 44 24 04          	mov    %eax,0x4(%esp)
 1007486:	89 ec                	mov    %ebp,%esp
 1007488:	5d                   	pop    %ebp
 1007489:	c3                   	ret    
 100748a:	8d b6 00 00 00 00    	lea    0x0(%esi),%esi

01007490 <ThreadMan_DeleteThread>:
 1007490:	55                   	push   %ebp
 1007491:	89 e5                	mov    %esp,%ebp
 1007493:	83 e4 f8             	and    $0xfffffff8,%esp
 1007496:	83 ec 08             	sub    $0x8,%esp
 1007499:	8b 45 0c             	mov    0xc(%ebp),%eax
 100749c:	8b 4d 08             	mov    0x8(%ebp),%ecx
 100749f:	89 0c 24             	mov    %ecx,(%esp)
 10074a2:	89 44 24 04          	mov    %eax,0x4(%esp)
 10074a6:	89 ec                	mov    %ebp,%esp
 10074a8:	5d                   	pop    %ebp
 10074a9:	c3                   	ret    
 10074aa:	66 90                	xchg   %ax,%ax
 10074ac:	66 90                	xchg   %ax,%ax
 10074ae:	66 90                	xchg   %ax,%ax

010074b0 <Timers_Setup>:
 10074b0:	55                   	push   %ebp
 10074b1:	89 e5                	mov    %esp,%ebp
 10074b3:	83 ec 0c             	sub    $0xc,%esp
 10074b6:	e8 15 d0 ff ff       	call   10044d0 <SysMan_RegisterSystem>
 10074bb:	a3 a8 f0 a8 04       	mov    %eax,0x4a8f0a8
 10074c0:	89 e1                	mov    %esp,%ecx
 10074c2:	89 01                	mov    %eax,(%ecx)
 10074c4:	c7 41 04 c1 45 7f 01 	movl   $0x17f45c1,0x4(%ecx)
 10074cb:	e8 30 c5 ff ff       	call   1003a00 <strcpy>
 10074d0:	89 45 fc             	mov    %eax,-0x4(%ebp)
 10074d3:	e8 28 b7 ff ff       	call   1002c00 <Interrupts_GetSysID>
 10074d8:	8b 0d a8 f0 a8 04    	mov    0x4a8f0a8,%ecx
 10074de:	89 51 14             	mov    %edx,0x14(%ecx)
 10074e1:	89 41 10             	mov    %eax,0x10(%ecx)
 10074e4:	a1 a8 f0 a8 04       	mov    0x4a8f0a8,%eax
 10074e9:	c7 40 1c 00 00 00 00 	movl   $0x0,0x1c(%eax)
 10074f0:	c7 40 18 00 00 00 00 	movl   $0x0,0x18(%eax)
 10074f7:	a1 a8 f0 a8 04       	mov    0x4a8f0a8,%eax
 10074fc:	c7 80 08 01 00 00 80 	movl   $0x1007580,0x108(%eax)
 1007503:	75 00 01 
 1007506:	a1 a8 f0 a8 04       	mov    0x4a8f0a8,%eax
 100750b:	c7 80 0c 01 00 00 50 	movl   $0x1007550,0x10c(%eax)
 1007512:	75 00 01 
 1007515:	a1 a8 f0 a8 04       	mov    0x4a8f0a8,%eax
 100751a:	c7 80 10 01 00 00 60 	movl   $0x1007560,0x110(%eax)
 1007521:	75 00 01 
 1007524:	a1 a8 f0 a8 04       	mov    0x4a8f0a8,%eax
 1007529:	8b 88 14 01 00 00    	mov    0x114(%eax),%ecx
 100752f:	8b 80 18 01 00 00    	mov    0x118(%eax),%eax
 1007535:	89 e2                	mov    %esp,%edx
 1007537:	89 42 04             	mov    %eax,0x4(%edx)
 100753a:	89 0a                	mov    %ecx,(%edx)
 100753c:	e8 6f d1 ff ff       	call   10046b0 <SysMan_StartSystem>
 1007541:	83 c4 0c             	add    $0xc,%esp
 1007544:	5d                   	pop    %ebp
 1007545:	c3                   	ret    
 1007546:	8d 76 00             	lea    0x0(%esi),%esi
 1007549:	8d bc 27 00 00 00 00 	lea    0x0(%edi,%eiz,1),%edi

01007550 <timers_callback>:
 1007550:	55                   	push   %ebp
 1007551:	89 e5                	mov    %esp,%ebp
 1007553:	50                   	push   %eax
 1007554:	8b 45 08             	mov    0x8(%ebp),%eax
 1007557:	89 45 fc             	mov    %eax,-0x4(%ebp)
 100755a:	83 c4 04             	add    $0x4,%esp
 100755d:	5d                   	pop    %ebp
 100755e:	c3                   	ret    
 100755f:	90                   	nop

01007560 <timers_messageHandler>:
 1007560:	55                   	push   %ebp
 1007561:	89 e5                	mov    %esp,%ebp
 1007563:	50                   	push   %eax
 1007564:	8b 45 08             	mov    0x8(%ebp),%eax
 1007567:	b1 ff                	mov    $0xff,%cl
 1007569:	89 45 fc             	mov    %eax,-0x4(%ebp)
 100756c:	0f b6 c1             	movzbl %cl,%eax
 100756f:	83 c4 04             	add    $0x4,%esp
 1007572:	5d                   	pop    %ebp
 1007573:	c3                   	ret    
 1007574:	8d b6 00 00 00 00    	lea    0x0(%esi),%esi
 100757a:	8d bf 00 00 00 00    	lea    0x0(%edi),%edi

01007580 <timers_Initialize>:
 1007580:	55                   	push   %ebp
 1007581:	89 e5                	mov    %esp,%ebp
 1007583:	83 ec 24             	sub    $0x24,%esp
 1007586:	b8 20 00 00 00       	mov    $0x20,%eax
 100758b:	b9 00 00 00 00       	mov    $0x0,%ecx
 1007590:	8d 15 20 76 00 01    	lea    0x1007620,%edx
 1007596:	c7 04 24 20 00 00 00 	movl   $0x20,(%esp)
 100759d:	c7 44 24 04 00 00 00 	movl   $0x0,0x4(%esp)
 10075a4:	00 
 10075a5:	89 54 24 08          	mov    %edx,0x8(%esp)
 10075a9:	89 45 fc             	mov    %eax,-0x4(%ebp)
 10075ac:	89 4d f8             	mov    %ecx,-0x8(%ebp)
 10075af:	e8 7c b4 ff ff       	call   1002a30 <Interrupts_RegisterHandler>
 10075b4:	8d 05 a8 a4 87 03    	lea    0x387a4a8,%eax
 10075ba:	b9 00 00 00 00       	mov    $0x0,%ecx
 10075bf:	ba 00 80 00 00       	mov    $0x8000,%edx
 10075c4:	89 04 24             	mov    %eax,(%esp)
 10075c7:	c7 44 24 04 00 00 00 	movl   $0x0,0x4(%esp)
 10075ce:	00 
 10075cf:	c7 44 24 08 00 80 00 	movl   $0x8000,0x8(%esp)
 10075d6:	00 
 10075d7:	89 55 f4             	mov    %edx,-0xc(%ebp)
 10075da:	89 4d f0             	mov    %ecx,-0x10(%ebp)
 10075dd:	e8 1e c2 ff ff       	call   1003800 <memset>
 10075e2:	89 45 ec             	mov    %eax,-0x14(%ebp)
 10075e5:	e8 56 24 00 00       	call   1009a40 <PIT_Initialize>
 10075ea:	b8 00 00 00 00       	mov    $0x0,%eax
 10075ef:	c7 04 24 00 00 00 00 	movl   $0x0,(%esp)
 10075f6:	89 45 e8             	mov    %eax,-0x18(%ebp)
 10075f9:	e8 12 24 00 00       	call   1009a10 <PIT_SetEnableMode>
 10075fe:	e8 1d b6 ff ff       	call   1002c20 <Interrupts_IsAPICEnabled>
 1007603:	3c 00                	cmp    $0x0,%al
 1007605:	74 02                	je     1007609 <timers_Initialize+0x89>
 1007607:	eb 00                	jmp    1007609 <timers_Initialize+0x89>
 1007609:	b8 00 00 00 00       	mov    $0x0,%eax
 100760e:	83 c4 24             	add    $0x24,%esp
 1007611:	5d                   	pop    %ebp
 1007612:	c3                   	ret    
 1007613:	8d b6 00 00 00 00    	lea    0x0(%esi),%esi
 1007619:	8d bc 27 00 00 00 00 	lea    0x0(%edi,%eiz,1),%edi

01007620 <timer_handler>:
 1007620:	55                   	push   %ebp
 1007621:	89 e5                	mov    %esp,%ebp
 1007623:	56                   	push   %esi
 1007624:	83 ec 10             	sub    $0x10,%esp
 1007627:	8b 45 08             	mov    0x8(%ebp),%eax
 100762a:	89 45 f8             	mov    %eax,-0x8(%ebp)
 100762d:	c7 45 f4 00 00 00 00 	movl   $0x0,-0xc(%ebp)
 1007634:	81 7d f4 00 08 00 00 	cmpl   $0x800,-0xc(%ebp)
 100763b:	0f 8d cb 00 00 00    	jge    100770c <timer_handler+0xec>
 1007641:	8d 05 a8 a4 87 03    	lea    0x387a4a8,%eax
 1007647:	8b 4d f4             	mov    -0xc(%ebp),%ecx
 100764a:	c1 e1 04             	shl    $0x4,%ecx
 100764d:	01 c8                	add    %ecx,%eax
 100764f:	83 38 00             	cmpl   $0x0,(%eax)
 1007652:	0f 84 a4 00 00 00    	je     10076fc <timer_handler+0xdc>
 1007658:	8d 05 b1 41 7f 01    	lea    0x17f41b1,%eax
 100765e:	8d 0d a8 a4 87 03    	lea    0x387a4a8,%ecx
 1007664:	8b 55 f4             	mov    -0xc(%ebp),%edx
 1007667:	c1 e2 04             	shl    $0x4,%edx
 100766a:	89 ce                	mov    %ecx,%esi
 100766c:	01 d6                	add    %edx,%esi
 100766e:	8b 56 04             	mov    0x4(%esi),%edx
 1007671:	83 c2 ff             	add    $0xffffffff,%edx
 1007674:	89 56 04             	mov    %edx,0x4(%esi)
 1007677:	8b 55 f4             	mov    -0xc(%ebp),%edx
 100767a:	c1 e2 04             	shl    $0x4,%edx
 100767d:	01 d1                	add    %edx,%ecx
 100767f:	8b 49 04             	mov    0x4(%ecx),%ecx
 1007682:	89 04 24             	mov    %eax,(%esp)
 1007685:	89 4c 24 04          	mov    %ecx,0x4(%esp)
 1007689:	e8 92 96 ff ff       	call   1000d20 <COM_WriteStr>
 100768e:	8d 05 a8 a4 87 03    	lea    0x387a4a8,%eax
 1007694:	8b 4d f4             	mov    -0xc(%ebp),%ecx
 1007697:	c1 e1 04             	shl    $0x4,%ecx
 100769a:	01 c8                	add    %ecx,%eax
 100769c:	83 78 04 00          	cmpl   $0x0,0x4(%eax)
 10076a0:	75 58                	jne    10076fa <timer_handler+0xda>
 10076a2:	8d 05 a8 a4 87 03    	lea    0x387a4a8,%eax
 10076a8:	8b 4d f4             	mov    -0xc(%ebp),%ecx
 10076ab:	c1 e1 04             	shl    $0x4,%ecx
 10076ae:	01 c8                	add    %ecx,%eax
 10076b0:	83 78 0c 00          	cmpl   $0x0,0xc(%eax)
 10076b4:	74 11                	je     10076c7 <timer_handler+0xa7>
 10076b6:	8d 05 a8 a4 87 03    	lea    0x387a4a8,%eax
 10076bc:	8b 4d f4             	mov    -0xc(%ebp),%ecx
 10076bf:	c1 e1 04             	shl    $0x4,%ecx
 10076c2:	01 c8                	add    %ecx,%eax
 10076c4:	ff 50 0c             	call   *0xc(%eax)
 10076c7:	8d 05 a8 a4 87 03    	lea    0x387a4a8,%eax
 10076cd:	8b 4d f4             	mov    -0xc(%ebp),%ecx
 10076d0:	c1 e1 04             	shl    $0x4,%ecx
 10076d3:	01 c8                	add    %ecx,%eax
 10076d5:	80 78 08 00          	cmpb   $0x0,0x8(%eax)
 10076d9:	74 1d                	je     10076f8 <timer_handler+0xd8>
 10076db:	8d 05 a8 a4 87 03    	lea    0x387a4a8,%eax
 10076e1:	8b 4d f4             	mov    -0xc(%ebp),%ecx
 10076e4:	c1 e1 04             	shl    $0x4,%ecx
 10076e7:	89 c2                	mov    %eax,%edx
 10076e9:	01 ca                	add    %ecx,%edx
 10076eb:	8b 0a                	mov    (%edx),%ecx
 10076ed:	8b 55 f4             	mov    -0xc(%ebp),%edx
 10076f0:	c1 e2 04             	shl    $0x4,%edx
 10076f3:	01 d0                	add    %edx,%eax
 10076f5:	89 48 04             	mov    %ecx,0x4(%eax)
 10076f8:	eb 00                	jmp    10076fa <timer_handler+0xda>
 10076fa:	eb 00                	jmp    10076fc <timer_handler+0xdc>
 10076fc:	eb 00                	jmp    10076fe <timer_handler+0xde>
 10076fe:	8b 45 f4             	mov    -0xc(%ebp),%eax
 1007701:	83 c0 01             	add    $0x1,%eax
 1007704:	89 45 f4             	mov    %eax,-0xc(%ebp)
 1007707:	e9 28 ff ff ff       	jmp    1007634 <timer_handler+0x14>
 100770c:	83 c4 10             	add    $0x10,%esp
 100770f:	5e                   	pop    %esi
 1007710:	5d                   	pop    %ebp
 1007711:	c3                   	ret    
 1007712:	8d b4 26 00 00 00 00 	lea    0x0(%esi,%eiz,1),%esi
 1007719:	8d bc 27 00 00 00 00 	lea    0x0(%edi,%eiz,1),%edi

01007720 <Timers_CreateNew>:
 1007720:	55                   	push   %ebp
 1007721:	89 e5                	mov    %esp,%ebp
 1007723:	53                   	push   %ebx
 1007724:	56                   	push   %esi
 1007725:	83 e4 f8             	and    $0xfffffff8,%esp
 1007728:	83 ec 28             	sub    $0x28,%esp
 100772b:	8b 45 10             	mov    0x10(%ebp),%eax
 100772e:	8a 4d 0c             	mov    0xc(%ebp),%cl
 1007731:	8b 55 08             	mov    0x8(%ebp),%edx
 1007734:	89 54 24 1c          	mov    %edx,0x1c(%esp)
 1007738:	88 4c 24 1b          	mov    %cl,0x1b(%esp)
 100773c:	89 44 24 14          	mov    %eax,0x14(%esp)
 1007740:	c7 44 24 0c 00 00 00 	movl   $0x0,0xc(%esp)
 1007747:	00 
 1007748:	c7 44 24 08 00 00 00 	movl   $0x80000000,0x8(%esp)
 100774f:	80 
 1007750:	c7 44 24 04 00 00 00 	movl   $0x0,0x4(%esp)
 1007757:	00 
 1007758:	81 7c 24 04 00 08 00 	cmpl   $0x800,0x4(%esp)
 100775f:	00 
 1007760:	0f 8d 95 00 00 00    	jge    10077fb <Timers_CreateNew+0xdb>
 1007766:	8d 05 a8 a4 87 03    	lea    0x387a4a8,%eax
 100776c:	8b 4c 24 04          	mov    0x4(%esp),%ecx
 1007770:	c1 e1 04             	shl    $0x4,%ecx
 1007773:	01 c8                	add    %ecx,%eax
 1007775:	83 38 00             	cmpl   $0x0,(%eax)
 1007778:	75 6f                	jne    10077e9 <Timers_CreateNew+0xc9>
 100777a:	8b 44 24 04          	mov    0x4(%esp),%eax
 100777e:	89 c1                	mov    %eax,%ecx
 1007780:	c1 f9 1f             	sar    $0x1f,%ecx
 1007783:	8b 54 24 08          	mov    0x8(%esp),%edx
 1007787:	8b 74 24 0c          	mov    0xc(%esp),%esi
 100778b:	01 c2                	add    %eax,%edx
 100778d:	11 ce                	adc    %ecx,%esi
 100778f:	89 54 24 08          	mov    %edx,0x8(%esp)
 1007793:	89 74 24 0c          	mov    %esi,0xc(%esp)
 1007797:	8b 44 24 1c          	mov    0x1c(%esp),%eax
 100779b:	8b 4c 24 04          	mov    0x4(%esp),%ecx
 100779f:	c1 e1 04             	shl    $0x4,%ecx
 10077a2:	89 81 a8 a4 87 03    	mov    %eax,0x387a4a8(%ecx)
 10077a8:	8b 44 24 1c          	mov    0x1c(%esp),%eax
 10077ac:	8b 4c 24 04          	mov    0x4(%esp),%ecx
 10077b0:	c1 e1 04             	shl    $0x4,%ecx
 10077b3:	89 81 ac a4 87 03    	mov    %eax,0x387a4ac(%ecx)
 10077b9:	8a 5c 24 1b          	mov    0x1b(%esp),%bl
 10077bd:	8b 44 24 04          	mov    0x4(%esp),%eax
 10077c1:	c1 e0 04             	shl    $0x4,%eax
 10077c4:	88 98 b0 a4 87 03    	mov    %bl,0x387a4b0(%eax)
 10077ca:	8b 44 24 14          	mov    0x14(%esp),%eax
 10077ce:	8b 4c 24 04          	mov    0x4(%esp),%ecx
 10077d2:	c1 e1 04             	shl    $0x4,%ecx
 10077d5:	89 81 b4 a4 87 03    	mov    %eax,0x387a4b4(%ecx)
 10077db:	f2 0f 10 44 24 08    	movsd  0x8(%esp),%xmm0
 10077e1:	f2 0f 11 44 24 20    	movsd  %xmm0,0x20(%esp)
 10077e7:	eb 22                	jmp    100780b <Timers_CreateNew+0xeb>
 10077e9:	eb 00                	jmp    10077eb <Timers_CreateNew+0xcb>
 10077eb:	8b 44 24 04          	mov    0x4(%esp),%eax
 10077ef:	83 c0 01             	add    $0x1,%eax
 10077f2:	89 44 24 04          	mov    %eax,0x4(%esp)
 10077f6:	e9 5d ff ff ff       	jmp    1007758 <Timers_CreateNew+0x38>
 10077fb:	c7 44 24 24 ff ff ff 	movl   $0xffffffff,0x24(%esp)
 1007802:	ff 
 1007803:	c7 44 24 20 ff ff ff 	movl   $0xffffffff,0x20(%esp)
 100780a:	ff 
 100780b:	8b 44 24 20          	mov    0x20(%esp),%eax
 100780f:	8b 54 24 24          	mov    0x24(%esp),%edx
 1007813:	8d 65 f8             	lea    -0x8(%ebp),%esp
 1007816:	5e                   	pop    %esi
 1007817:	5b                   	pop    %ebx
 1007818:	5d                   	pop    %ebp
 1007819:	c3                   	ret    
 100781a:	8d b6 00 00 00 00    	lea    0x0(%esi),%esi

01007820 <Timers_Delete>:
 1007820:	55                   	push   %ebp
 1007821:	89 e5                	mov    %esp,%ebp
 1007823:	83 e4 f8             	and    $0xfffffff8,%esp
 1007826:	83 ec 10             	sub    $0x10,%esp
 1007829:	8b 45 0c             	mov    0xc(%ebp),%eax
 100782c:	8b 4d 08             	mov    0x8(%ebp),%ecx
 100782f:	89 4c 24 08          	mov    %ecx,0x8(%esp)
 1007833:	89 44 24 0c          	mov    %eax,0xc(%esp)
 1007837:	81 c1 00 00 00 80    	add    $0x80000000,%ecx
 100783d:	89 4c 24 04          	mov    %ecx,0x4(%esp)
 1007841:	81 7c 24 04 00 08 00 	cmpl   $0x800,0x4(%esp)
 1007848:	00 
 1007849:	73 27                	jae    1007872 <Timers_Delete+0x52>
 100784b:	8d 05 a8 a4 87 03    	lea    0x387a4a8,%eax
 1007851:	8b 4c 24 04          	mov    0x4(%esp),%ecx
 1007855:	c1 e1 04             	shl    $0x4,%ecx
 1007858:	89 c2                	mov    %eax,%edx
 100785a:	01 ca                	add    %ecx,%edx
 100785c:	c7 02 00 00 00 00    	movl   $0x0,(%edx)
 1007862:	8b 4c 24 04          	mov    0x4(%esp),%ecx
 1007866:	c1 e1 04             	shl    $0x4,%ecx
 1007869:	01 c8                	add    %ecx,%eax
 100786b:	c7 40 04 00 00 00 00 	movl   $0x0,0x4(%eax)
 1007872:	89 ec                	mov    %ebp,%esp
 1007874:	5d                   	pop    %ebp
 1007875:	c3                   	ret    
 1007876:	8d 76 00             	lea    0x0(%esi),%esi
 1007879:	8d bc 27 00 00 00 00 	lea    0x0(%edi,%eiz,1),%edi

01007880 <Timers_StartTimer>:
 1007880:	55                   	push   %ebp
 1007881:	89 e5                	mov    %esp,%ebp
 1007883:	83 e4 f8             	and    $0xfffffff8,%esp
 1007886:	83 ec 18             	sub    $0x18,%esp
 1007889:	8b 45 0c             	mov    0xc(%ebp),%eax
 100788c:	8b 4d 08             	mov    0x8(%ebp),%ecx
 100788f:	89 4c 24 10          	mov    %ecx,0x10(%esp)
 1007893:	89 44 24 14          	mov    %eax,0x14(%esp)
 1007897:	81 c1 00 00 00 80    	add    $0x80000000,%ecx
 100789d:	89 4c 24 0c          	mov    %ecx,0xc(%esp)
 10078a1:	81 7c 24 0c 00 08 00 	cmpl   $0x800,0xc(%esp)
 10078a8:	00 
 10078a9:	73 29                	jae    10078d4 <Timers_StartTimer+0x54>
 10078ab:	8d 05 a8 a4 87 03    	lea    0x387a4a8,%eax
 10078b1:	8b 4c 24 0c          	mov    0xc(%esp),%ecx
 10078b5:	c1 e1 04             	shl    $0x4,%ecx
 10078b8:	01 c8                	add    %ecx,%eax
 10078ba:	83 38 00             	cmpl   $0x0,(%eax)
 10078bd:	74 15                	je     10078d4 <Timers_StartTimer+0x54>
 10078bf:	b8 01 00 00 00       	mov    $0x1,%eax
 10078c4:	c7 04 24 01 00 00 00 	movl   $0x1,(%esp)
 10078cb:	89 44 24 08          	mov    %eax,0x8(%esp)
 10078cf:	e8 3c 21 00 00       	call   1009a10 <PIT_SetEnableMode>
 10078d4:	89 ec                	mov    %ebp,%esp
 10078d6:	5d                   	pop    %ebp
 10078d7:	c3                   	ret    
 10078d8:	66 90                	xchg   %ax,%ax
 10078da:	66 90                	xchg   %ax,%ax
 10078dc:	66 90                	xchg   %ax,%ax
 10078de:	66 90                	xchg   %ax,%ax

010078e0 <virtMemMan_Setup>:
 10078e0:	55                   	push   %ebp
 10078e1:	89 e5                	mov    %esp,%ebp
 10078e3:	56                   	push   %esi
 10078e4:	83 ec 0c             	sub    $0xc,%esp
 10078e7:	e8 e4 cb ff ff       	call   10044d0 <SysMan_RegisterSystem>
 10078ec:	a3 ac f0 a8 04       	mov    %eax,0x4a8f0ac
 10078f1:	89 e1                	mov    %esp,%ecx
 10078f3:	89 01                	mov    %eax,(%ecx)
 10078f5:	c7 41 04 ca 45 7f 01 	movl   $0x17f45ca,0x4(%ecx)
 10078fc:	e8 ff c0 ff ff       	call   1003a00 <strcpy>
 1007901:	8b 0d ac f0 a8 04    	mov    0x4a8f0ac,%ecx
 1007907:	c7 41 14 00 00 00 00 	movl   $0x0,0x14(%ecx)
 100790e:	c7 41 10 00 00 00 00 	movl   $0x0,0x10(%ecx)
 1007915:	8b 0d ac f0 a8 04    	mov    0x4a8f0ac,%ecx
 100791b:	c7 81 08 01 00 00 a0 	movl   $0x10079a0,0x108(%ecx)
 1007922:	79 00 01 
 1007925:	8b 0d ac f0 a8 04    	mov    0x4a8f0ac,%ecx
 100792b:	c7 81 0c 01 00 00 70 	movl   $0x1007970,0x10c(%ecx)
 1007932:	79 00 01 
 1007935:	8b 0d ac f0 a8 04    	mov    0x4a8f0ac,%ecx
 100793b:	c7 81 10 01 00 00 80 	movl   $0x1007980,0x110(%ecx)
 1007942:	79 00 01 
 1007945:	8b 0d ac f0 a8 04    	mov    0x4a8f0ac,%ecx
 100794b:	8b 91 14 01 00 00    	mov    0x114(%ecx),%edx
 1007951:	8b 89 18 01 00 00    	mov    0x118(%ecx),%ecx
 1007957:	89 e6                	mov    %esp,%esi
 1007959:	89 4e 04             	mov    %ecx,0x4(%esi)
 100795c:	89 16                	mov    %edx,(%esi)
 100795e:	89 45 f8             	mov    %eax,-0x8(%ebp)
 1007961:	e8 4a cd ff ff       	call   10046b0 <SysMan_StartSystem>
 1007966:	83 c4 0c             	add    $0xc,%esp
 1007969:	5e                   	pop    %esi
 100796a:	5d                   	pop    %ebp
 100796b:	c3                   	ret    
 100796c:	8d 74 26 00          	lea    0x0(%esi,%eiz,1),%esi

01007970 <virtMemMan_callback>:
 1007970:	55                   	push   %ebp
 1007971:	89 e5                	mov    %esp,%ebp
 1007973:	50                   	push   %eax
 1007974:	8b 45 08             	mov    0x8(%ebp),%eax
 1007977:	89 45 fc             	mov    %eax,-0x4(%ebp)
 100797a:	83 c4 04             	add    $0x4,%esp
 100797d:	5d                   	pop    %ebp
 100797e:	c3                   	ret    
 100797f:	90                   	nop

01007980 <virtMemMan_messageHandler>:
 1007980:	55                   	push   %ebp
 1007981:	89 e5                	mov    %esp,%ebp
 1007983:	83 ec 08             	sub    $0x8,%esp
 1007986:	8b 45 08             	mov    0x8(%ebp),%eax
 1007989:	89 45 f8             	mov    %eax,-0x8(%ebp)
 100798c:	0f b6 45 ff          	movzbl -0x1(%ebp),%eax
 1007990:	83 c4 08             	add    $0x8,%esp
 1007993:	5d                   	pop    %ebp
 1007994:	c3                   	ret    
 1007995:	8d 74 26 00          	lea    0x0(%esi,%eiz,1),%esi
 1007999:	8d bc 27 00 00 00 00 	lea    0x0(%edi,%eiz,1),%edi

010079a0 <virtMemMan_Initialize>:
 10079a0:	55                   	push   %ebp
 10079a1:	89 e5                	mov    %esp,%ebp
 10079a3:	83 e4 f8             	and    $0xfffffff8,%esp
 10079a6:	83 ec 38             	sub    $0x38,%esp
 10079a9:	c7 44 24 34 00 00 00 	movl   $0x0,0x34(%esp)
 10079b0:	00 
 10079b1:	c7 44 24 30 00 00 00 	movl   $0x0,0x30(%esp)
 10079b8:	00 
 10079b9:	c7 44 24 34 00 00 00 	movl   $0x0,0x34(%esp)
 10079c0:	00 
 10079c1:	c7 44 24 30 06 00 00 	movl   $0x6,0x30(%esp)
 10079c8:	00 
 10079c9:	c7 44 24 34 00 00 00 	movl   $0x0,0x34(%esp)
 10079d0:	00 
 10079d1:	c7 44 24 30 06 04 00 	movl   $0x406,0x30(%esp)
 10079d8:	00 
 10079d9:	c7 44 24 34 00 00 00 	movl   $0x0,0x34(%esp)
 10079e0:	00 
 10079e1:	c7 44 24 30 06 04 00 	movl   $0x1000406,0x30(%esp)
 10079e8:	01 
 10079e9:	89 e0                	mov    %esp,%eax
 10079eb:	c7 40 08 00 00 00 00 	movl   $0x0,0x8(%eax)
 10079f2:	c7 40 04 06 04 00 01 	movl   $0x1000406,0x4(%eax)
 10079f9:	c7 00 77 02 00 00    	movl   $0x277,(%eax)
 10079ff:	e8 3c bd ff ff       	call   1003740 <wrmsr>
 1007a04:	89 e0                	mov    %esp,%eax
 1007a06:	c7 40 08 00 00 20 01 	movl   $0x1200000,0x8(%eax)
 1007a0d:	c7 40 04 ff 00 00 00 	movl   $0xff,0x4(%eax)
 1007a14:	c7 00 00 30 88 03    	movl   $0x3883000,(%eax)
 1007a1a:	e8 e1 bd ff ff       	call   1003800 <memset>
 1007a1f:	89 e1                	mov    %esp,%ecx
 1007a21:	c7 41 08 00 c0 00 00 	movl   $0xc000,0x8(%ecx)
 1007a28:	c7 41 04 ff 00 00 00 	movl   $0xff,0x4(%ecx)
 1007a2f:	c7 01 00 30 a8 04    	movl   $0x4a83000,(%ecx)
 1007a35:	89 44 24 2c          	mov    %eax,0x2c(%esp)
 1007a39:	e8 c2 bd ff ff       	call   1003800 <memset>
 1007a3e:	89 44 24 28          	mov    %eax,0x28(%esp)
 1007a42:	e8 49 11 00 00       	call   1008b90 <virtMemMan_GetFreePageDirEntry>
 1007a47:	a3 04 f0 a8 04       	mov    %eax,0x4a8f004
 1007a4c:	89 e1                	mov    %esp,%ecx
 1007a4e:	89 01                	mov    %eax,(%ecx)
 1007a50:	c7 41 08 00 10 00 00 	movl   $0x1000,0x8(%ecx)
 1007a57:	c7 41 04 00 00 00 00 	movl   $0x0,0x4(%ecx)
 1007a5e:	e8 9d bd ff ff       	call   1003800 <memset>
 1007a63:	89 44 24 24          	mov    %eax,0x24(%esp)
 1007a67:	e8 14 0a 00 00       	call   1008480 <virtMemMan_CreateInstance>
 1007a6c:	a3 00 f0 a8 04       	mov    %eax,0x4a8f000
 1007a71:	89 e0                	mov    %esp,%eax
 1007a73:	c7 40 18 00 00 00 00 	movl   $0x0,0x18(%eax)
 1007a7a:	c7 40 14 07 00 00 00 	movl   $0x7,0x14(%eax)
 1007a81:	c7 40 10 00 00 00 00 	movl   $0x0,0x10(%eax)
 1007a88:	c7 40 0c 00 00 00 0f 	movl   $0xf000000,0xc(%eax)
 1007a8f:	c7 40 08 00 00 00 00 	movl   $0x0,0x8(%eax)
 1007a96:	c7 40 04 00 00 00 01 	movl   $0x1000000,0x4(%eax)
 1007a9d:	c7 00 00 00 00 01    	movl   $0x1000000,(%eax)
 1007aa3:	e8 98 00 00 00       	call   1007b40 <virtMemMan_Map>
 1007aa8:	89 e1                	mov    %esp,%ecx
 1007aaa:	c7 41 18 00 00 00 00 	movl   $0x0,0x18(%ecx)
 1007ab1:	c7 41 14 07 00 00 00 	movl   $0x7,0x14(%ecx)
 1007ab8:	c7 41 10 03 00 00 00 	movl   $0x3,0x10(%ecx)
 1007abf:	c7 41 0c 00 00 00 10 	movl   $0x10000000,0xc(%ecx)
 1007ac6:	c7 41 08 00 00 00 00 	movl   $0x0,0x8(%ecx)
 1007acd:	c7 41 04 00 00 00 f0 	movl   $0xf0000000,0x4(%ecx)
 1007ad4:	c7 01 00 00 00 10    	movl   $0x10000000,(%ecx)
 1007ada:	89 44 24 20          	mov    %eax,0x20(%esp)
 1007ade:	e8 5d 00 00 00       	call   1007b40 <virtMemMan_Map>
 1007ae3:	89 e1                	mov    %esp,%ecx
 1007ae5:	c7 01 80 00 00 c0    	movl   $0xc0000080,(%ecx)
 1007aeb:	89 44 24 1c          	mov    %eax,0x1c(%esp)
 1007aef:	e8 8c bc ff ff       	call   1003780 <rdmsr>
 1007af4:	0d 00 08 00 00       	or     $0x800,%eax
 1007af9:	89 e1                	mov    %esp,%ecx
 1007afb:	89 51 08             	mov    %edx,0x8(%ecx)
 1007afe:	89 41 04             	mov    %eax,0x4(%ecx)
 1007b01:	c7 01 80 00 00 c0    	movl   $0xc0000080,(%ecx)
 1007b07:	e8 34 bc ff ff       	call   1003740 <wrmsr>
 1007b0c:	0f 20 e0             	mov    %cr4,%eax
 1007b0f:	83 c8 10             	or     $0x10,%eax
 1007b12:	0f 22 e0             	mov    %eax,%cr4
 1007b15:	0f 20 e0             	mov    %cr4,%eax
 1007b18:	0f ba e8 05          	bts    $0x5,%eax
 1007b1c:	0f 22 e0             	mov    %eax,%cr4
 1007b1f:	a1 00 f0 a8 04       	mov    0x4a8f000,%eax
 1007b24:	0f 22 d8             	mov    %eax,%cr3
 1007b27:	0f 20 c0             	mov    %cr0,%eax
 1007b2a:	0d 00 00 00 80       	or     $0x80000000,%eax
 1007b2f:	0f 22 c0             	mov    %eax,%cr0
 1007b32:	b8 00 00 00 00       	mov    $0x0,%eax
 1007b37:	89 ec                	mov    %ebp,%esp
 1007b39:	5d                   	pop    %ebp
 1007b3a:	c3                   	ret    
 1007b3b:	90                   	nop
 1007b3c:	8d 74 26 00          	lea    0x0(%esi,%eiz,1),%esi

01007b40 <virtMemMan_Map>:
 1007b40:	55                   	push   %ebp
 1007b41:	89 e5                	mov    %esp,%ebp
 1007b43:	53                   	push   %ebx
 1007b44:	57                   	push   %edi
 1007b45:	56                   	push   %esi
 1007b46:	83 e4 f8             	and    $0xfffffff8,%esp
 1007b49:	81 ec b8 00 00 00    	sub    $0xb8,%esp
 1007b4f:	8b 45 10             	mov    0x10(%ebp),%eax
 1007b52:	8b 4d 0c             	mov    0xc(%ebp),%ecx
 1007b55:	8b 55 20             	mov    0x20(%ebp),%edx
 1007b58:	8b 75 1c             	mov    0x1c(%ebp),%esi
 1007b5b:	8b 7d 18             	mov    0x18(%ebp),%edi
 1007b5e:	8b 5d 14             	mov    0x14(%ebp),%ebx
 1007b61:	89 44 24 54          	mov    %eax,0x54(%esp)
 1007b65:	8b 45 08             	mov    0x8(%ebp),%eax
 1007b68:	89 84 24 ac 00 00 00 	mov    %eax,0xac(%esp)
 1007b6f:	8b 44 24 54          	mov    0x54(%esp),%eax
 1007b73:	89 84 24 a4 00 00 00 	mov    %eax,0xa4(%esp)
 1007b7a:	89 8c 24 a0 00 00 00 	mov    %ecx,0xa0(%esp)
 1007b81:	89 9c 24 9c 00 00 00 	mov    %ebx,0x9c(%esp)
 1007b88:	89 bc 24 98 00 00 00 	mov    %edi,0x98(%esp)
 1007b8f:	89 b4 24 94 00 00 00 	mov    %esi,0x94(%esp)
 1007b96:	89 94 24 90 00 00 00 	mov    %edx,0x90(%esp)
 1007b9d:	83 bc 24 9c 00 00 00 	cmpl   $0x0,0x9c(%esp)
 1007ba4:	00 
 1007ba5:	75 10                	jne    1007bb7 <virtMemMan_Map+0x77>
 1007ba7:	c7 84 24 b0 00 00 00 	movl   $0xffffffff,0xb0(%esp)
 1007bae:	ff ff ff ff 
 1007bb2:	e9 6e 08 00 00       	jmp    1008425 <virtMemMan_Map+0x8e5>
 1007bb7:	8b 84 24 ac 00 00 00 	mov    0xac(%esp),%eax
 1007bbe:	89 84 24 8c 00 00 00 	mov    %eax,0x8c(%esp)
 1007bc5:	f2 0f 10 84 24 a0 00 	movsd  0xa0(%esp),%xmm0
 1007bcc:	00 00 
 1007bce:	f2 0f 11 84 24 80 00 	movsd  %xmm0,0x80(%esp)
 1007bd5:	00 00 
 1007bd7:	81 bc 24 8c 00 00 00 	cmpl   $0x40000000,0x8c(%esp)
 1007bde:	00 00 00 40 
 1007be2:	73 1a                	jae    1007bfe <virtMemMan_Map+0xbe>
 1007be4:	83 bc 24 90 00 00 00 	cmpl   $0x0,0x90(%esp)
 1007beb:	00 
 1007bec:	74 10                	je     1007bfe <virtMemMan_Map+0xbe>
 1007bee:	c7 84 24 b0 00 00 00 	movl   $0xfffffffe,0xb0(%esp)
 1007bf5:	fe ff ff ff 
 1007bf9:	e9 27 08 00 00       	jmp    1008425 <virtMemMan_Map+0x8e5>
 1007bfe:	81 bc 24 8c 00 00 00 	cmpl   $0x40000000,0x8c(%esp)
 1007c05:	00 00 00 40 
 1007c09:	76 1a                	jbe    1007c25 <virtMemMan_Map+0xe5>
 1007c0b:	83 bc 24 90 00 00 00 	cmpl   $0x1,0x90(%esp)
 1007c12:	01 
 1007c13:	74 10                	je     1007c25 <virtMemMan_Map+0xe5>
 1007c15:	c7 84 24 b0 00 00 00 	movl   $0xfffffffe,0xb0(%esp)
 1007c1c:	fe ff ff ff 
 1007c20:	e9 00 08 00 00       	jmp    1008425 <virtMemMan_Map+0x8e5>
 1007c25:	8b 84 24 8c 00 00 00 	mov    0x8c(%esp),%eax
 1007c2c:	03 84 24 9c 00 00 00 	add    0x9c(%esp),%eax
 1007c33:	3d 00 00 00 40       	cmp    $0x40000000,%eax
 1007c38:	76 1d                	jbe    1007c57 <virtMemMan_Map+0x117>
 1007c3a:	81 bc 24 8c 00 00 00 	cmpl   $0x40000000,0x8c(%esp)
 1007c41:	00 00 00 40 
 1007c45:	73 10                	jae    1007c57 <virtMemMan_Map+0x117>
 1007c47:	c7 84 24 b0 00 00 00 	movl   $0xfffffffd,0xb0(%esp)
 1007c4e:	fd ff ff ff 
 1007c52:	e9 ce 07 00 00       	jmp    1008425 <virtMemMan_Map+0x8e5>
 1007c57:	8b 84 24 8c 00 00 00 	mov    0x8c(%esp),%eax
 1007c5e:	c1 e8 1e             	shr    $0x1e,%eax
 1007c61:	89 44 24 7c          	mov    %eax,0x7c(%esp)
 1007c65:	8b 8c 24 8c 00 00 00 	mov    0x8c(%esp),%ecx
 1007c6c:	c1 e0 1e             	shl    $0x1e,%eax
 1007c6f:	31 d2                	xor    %edx,%edx
 1007c71:	29 c1                	sub    %eax,%ecx
 1007c73:	89 d0                	mov    %edx,%eax
 1007c75:	83 d8 00             	sbb    $0x0,%eax
 1007c78:	0f a4 c8 0b          	shld   $0xb,%ecx,%eax
 1007c7c:	89 44 24 78          	mov    %eax,0x78(%esp)
 1007c80:	8b 8c 24 8c 00 00 00 	mov    0x8c(%esp),%ecx
 1007c87:	8b 74 24 7c          	mov    0x7c(%esp),%esi
 1007c8b:	89 f7                	mov    %esi,%edi
 1007c8d:	c1 ef 02             	shr    $0x2,%edi
 1007c90:	c1 e6 1e             	shl    $0x1e,%esi
 1007c93:	29 f1                	sub    %esi,%ecx
 1007c95:	19 fa                	sbb    %edi,%edx
 1007c97:	c1 e0 15             	shl    $0x15,%eax
 1007c9a:	29 c1                	sub    %eax,%ecx
 1007c9c:	83 da 00             	sbb    $0x0,%edx
 1007c9f:	0f a4 ca 14          	shld   $0x14,%ecx,%edx
 1007ca3:	89 54 24 74          	mov    %edx,0x74(%esp)
 1007ca7:	81 bc 24 9c 00 00 00 	cmpl   $0x200000,0x9c(%esp)
 1007cae:	00 00 20 00 
 1007cb2:	0f 85 bd 01 00 00    	jne    1007e75 <virtMemMan_Map+0x335>
 1007cb8:	8b 44 24 7c          	mov    0x7c(%esp),%eax
 1007cbc:	8b 0d 00 f0 a8 04    	mov    0x4a8f000,%ecx
 1007cc2:	8b 54 c1 04          	mov    0x4(%ecx,%eax,8),%edx
 1007cc6:	8b 34 c1             	mov    (%ecx,%eax,8),%esi
 1007cc9:	83 ce 01             	or     $0x1,%esi
 1007ccc:	89 54 c1 04          	mov    %edx,0x4(%ecx,%eax,8)
 1007cd0:	89 34 c1             	mov    %esi,(%ecx,%eax,8)
 1007cd3:	8b 44 24 7c          	mov    0x7c(%esp),%eax
 1007cd7:	8b 0d 00 f0 a8 04    	mov    0x4a8f000,%ecx
 1007cdd:	8b 04 c1             	mov    (%ecx,%eax,8),%eax
 1007ce0:	25 00 f0 ff ff       	and    $0xfffff000,%eax
 1007ce5:	89 44 24 70          	mov    %eax,0x70(%esp)
 1007ce9:	8b 8c 24 80 00 00 00 	mov    0x80(%esp),%ecx
 1007cf0:	8b 94 24 84 00 00 00 	mov    0x84(%esp),%edx
 1007cf7:	89 d6                	mov    %edx,%esi
 1007cf9:	0f a4 ce 0b          	shld   $0xb,%ecx,%esi
 1007cfd:	8b 4c 24 78          	mov    0x78(%esp),%ecx
 1007d01:	8b 7c c8 04          	mov    0x4(%eax,%ecx,8),%edi
 1007d05:	8b 1c c8             	mov    (%eax,%ecx,8),%ebx
 1007d08:	81 e2 00 00 e0 7f    	and    $0x7fe00000,%edx
 1007d0e:	89 44 24 50          	mov    %eax,0x50(%esp)
 1007d12:	89 f0                	mov    %esi,%eax
 1007d14:	c1 e8 0b             	shr    $0xb,%eax
 1007d17:	09 c2                	or     %eax,%edx
 1007d19:	c1 e6 15             	shl    $0x15,%esi
 1007d1c:	81 e3 ff ff 1f 00    	and    $0x1fffff,%ebx
 1007d22:	81 e7 00 00 00 80    	and    $0x80000000,%edi
 1007d28:	09 d7                	or     %edx,%edi
 1007d2a:	09 f3                	or     %esi,%ebx
 1007d2c:	8b 44 24 50          	mov    0x50(%esp),%eax
 1007d30:	89 1c c8             	mov    %ebx,(%eax,%ecx,8)
 1007d33:	89 7c c8 04          	mov    %edi,0x4(%eax,%ecx,8)
 1007d37:	8b 4c 24 78          	mov    0x78(%esp),%ecx
 1007d3b:	8b 54 24 70          	mov    0x70(%esp),%edx
 1007d3f:	8b 74 ca 04          	mov    0x4(%edx,%ecx,8),%esi
 1007d43:	8b 3c ca             	mov    (%edx,%ecx,8),%edi
 1007d46:	83 cf 01             	or     $0x1,%edi
 1007d49:	89 74 ca 04          	mov    %esi,0x4(%edx,%ecx,8)
 1007d4d:	89 3c ca             	mov    %edi,(%edx,%ecx,8)
 1007d50:	8b 8c 24 90 00 00 00 	mov    0x90(%esp),%ecx
 1007d57:	8b 54 24 78          	mov    0x78(%esp),%edx
 1007d5b:	8b 74 24 70          	mov    0x70(%esp),%esi
 1007d5f:	8b 7c d6 04          	mov    0x4(%esi,%edx,8),%edi
 1007d63:	8b 1c d6             	mov    (%esi,%edx,8),%ebx
 1007d66:	83 e1 01             	and    $0x1,%ecx
 1007d69:	c1 e1 02             	shl    $0x2,%ecx
 1007d6c:	83 e3 fb             	and    $0xfffffffb,%ebx
 1007d6f:	09 cb                	or     %ecx,%ebx
 1007d71:	89 7c d6 04          	mov    %edi,0x4(%esi,%edx,8)
 1007d75:	89 1c d6             	mov    %ebx,(%esi,%edx,8)
 1007d78:	8b 4c 24 78          	mov    0x78(%esp),%ecx
 1007d7c:	8b 54 24 70          	mov    0x70(%esp),%edx
 1007d80:	8b 74 ca 04          	mov    0x4(%edx,%ecx,8),%esi
 1007d84:	8b 3c ca             	mov    (%edx,%ecx,8),%edi
 1007d87:	81 cf 80 00 00 00    	or     $0x80,%edi
 1007d8d:	89 74 ca 04          	mov    %esi,0x4(%edx,%ecx,8)
 1007d91:	89 3c ca             	mov    %edi,(%edx,%ecx,8)
 1007d94:	8b 8c 24 94 00 00 00 	mov    0x94(%esp),%ecx
 1007d9b:	83 e1 01             	and    $0x1,%ecx
 1007d9e:	8b 54 24 78          	mov    0x78(%esp),%edx
 1007da2:	8b 74 24 70          	mov    0x70(%esp),%esi
 1007da6:	8b 7c d6 04          	mov    0x4(%esi,%edx,8),%edi
 1007daa:	8b 1c d6             	mov    (%esi,%edx,8),%ebx
 1007dad:	01 c9                	add    %ecx,%ecx
 1007daf:	19 c0                	sbb    %eax,%eax
 1007db1:	83 e0 01             	and    $0x1,%eax
 1007db4:	83 e3 fd             	and    $0xfffffffd,%ebx
 1007db7:	09 c7                	or     %eax,%edi
 1007db9:	09 cb                	or     %ecx,%ebx
 1007dbb:	89 1c d6             	mov    %ebx,(%esi,%edx,8)
 1007dbe:	89 7c d6 04          	mov    %edi,0x4(%esi,%edx,8)
 1007dc2:	8b 44 24 78          	mov    0x78(%esp),%eax
 1007dc6:	8b 4c 24 70          	mov    0x70(%esp),%ecx
 1007dca:	8b 14 c1             	mov    (%ecx,%eax,8),%edx
 1007dcd:	8b 74 c1 04          	mov    0x4(%ecx,%eax,8),%esi
 1007dd1:	81 e6 ff ff ff 7f    	and    $0x7fffffff,%esi
 1007dd7:	89 14 c1             	mov    %edx,(%ecx,%eax,8)
 1007dda:	89 74 c1 04          	mov    %esi,0x4(%ecx,%eax,8)
 1007dde:	8b 44 24 78          	mov    0x78(%esp),%eax
 1007de2:	8b 4c 24 70          	mov    0x70(%esp),%ecx
 1007de6:	8b 54 c1 04          	mov    0x4(%ecx,%eax,8),%edx
 1007dea:	8b 34 c1             	mov    (%ecx,%eax,8),%esi
 1007ded:	81 e6 ff fe ff ff    	and    $0xfffffeff,%esi
 1007df3:	89 54 c1 04          	mov    %edx,0x4(%ecx,%eax,8)
 1007df7:	89 34 c1             	mov    %esi,(%ecx,%eax,8)
 1007dfa:	8b 44 24 78          	mov    0x78(%esp),%eax
 1007dfe:	8b 4c 24 70          	mov    0x70(%esp),%ecx
 1007e02:	8b 54 c1 04          	mov    0x4(%ecx,%eax,8),%edx
 1007e06:	8b 34 c1             	mov    (%ecx,%eax,8),%esi
 1007e09:	81 e6 ff ef ff ff    	and    $0xffffefff,%esi
 1007e0f:	89 54 c1 04          	mov    %edx,0x4(%ecx,%eax,8)
 1007e13:	89 34 c1             	mov    %esi,(%ecx,%eax,8)
 1007e16:	8b 84 24 98 00 00 00 	mov    0x98(%esp),%eax
 1007e1d:	83 e0 01             	and    $0x1,%eax
 1007e20:	8b 4c 24 78          	mov    0x78(%esp),%ecx
 1007e24:	8b 54 24 70          	mov    0x70(%esp),%edx
 1007e28:	8b 74 ca 04          	mov    0x4(%edx,%ecx,8),%esi
 1007e2c:	8b 3c ca             	mov    (%edx,%ecx,8),%edi
 1007e2f:	c1 e0 03             	shl    $0x3,%eax
 1007e32:	83 e7 f7             	and    $0xfffffff7,%edi
 1007e35:	09 c7                	or     %eax,%edi
 1007e37:	89 74 ca 04          	mov    %esi,0x4(%edx,%ecx,8)
 1007e3b:	89 3c ca             	mov    %edi,(%edx,%ecx,8)
 1007e3e:	8b 84 24 98 00 00 00 	mov    0x98(%esp),%eax
 1007e45:	c1 e0 03             	shl    $0x3,%eax
 1007e48:	8b 4c 24 78          	mov    0x78(%esp),%ecx
 1007e4c:	8b 54 24 70          	mov    0x70(%esp),%edx
 1007e50:	8b 74 ca 04          	mov    0x4(%edx,%ecx,8),%esi
 1007e54:	8b 3c ca             	mov    (%edx,%ecx,8),%edi
 1007e57:	83 e0 10             	and    $0x10,%eax
 1007e5a:	83 e7 ef             	and    $0xffffffef,%edi
 1007e5d:	09 c7                	or     %eax,%edi
 1007e5f:	89 74 ca 04          	mov    %esi,0x4(%edx,%ecx,8)
 1007e63:	89 3c ca             	mov    %edi,(%edx,%ecx,8)
 1007e66:	8b 84 24 8c 00 00 00 	mov    0x8c(%esp),%eax
 1007e6d:	0f 01 38             	invlpg (%eax)
 1007e70:	e9 a5 05 00 00       	jmp    100841a <virtMemMan_Map+0x8da>
 1007e75:	81 bc 24 9c 00 00 00 	cmpl   $0x1000,0x9c(%esp)
 1007e7c:	00 10 00 00 
 1007e80:	0f 85 12 03 00 00    	jne    1008198 <virtMemMan_Map+0x658>
 1007e86:	8b 44 24 7c          	mov    0x7c(%esp),%eax
 1007e8a:	8b 0d 00 f0 a8 04    	mov    0x4a8f000,%ecx
 1007e90:	8b 54 c1 04          	mov    0x4(%ecx,%eax,8),%edx
 1007e94:	8b 34 c1             	mov    (%ecx,%eax,8),%esi
 1007e97:	83 ce 01             	or     $0x1,%esi
 1007e9a:	89 54 c1 04          	mov    %edx,0x4(%ecx,%eax,8)
 1007e9e:	89 34 c1             	mov    %esi,(%ecx,%eax,8)
 1007ea1:	8b 44 24 7c          	mov    0x7c(%esp),%eax
 1007ea5:	8b 0d 00 f0 a8 04    	mov    0x4a8f000,%ecx
 1007eab:	8b 04 c1             	mov    (%ecx,%eax,8),%eax
 1007eae:	25 00 f0 ff ff       	and    $0xfffff000,%eax
 1007eb3:	89 44 24 6c          	mov    %eax,0x6c(%esp)
 1007eb7:	8b 4c 24 78          	mov    0x78(%esp),%ecx
 1007ebb:	8a 1c c8             	mov    (%eax,%ecx,8),%bl
 1007ebe:	f6 c3 01             	test   $0x1,%bl
 1007ec1:	0f 85 4d 01 00 00    	jne    1008014 <virtMemMan_Map+0x4d4>
 1007ec7:	eb 00                	jmp    1007ec9 <virtMemMan_Map+0x389>
 1007ec9:	e8 c2 0c 00 00       	call   1008b90 <virtMemMan_GetFreePageDirEntry>
 1007ece:	89 44 24 68          	mov    %eax,0x68(%esp)
 1007ed2:	89 e1                	mov    %esp,%ecx
 1007ed4:	89 01                	mov    %eax,(%ecx)
 1007ed6:	c7 41 08 00 10 00 00 	movl   $0x1000,0x8(%ecx)
 1007edd:	c7 41 04 00 00 00 00 	movl   $0x0,0x4(%ecx)
 1007ee4:	e8 17 b9 ff ff       	call   1003800 <memset>
 1007ee9:	8b 4c 24 68          	mov    0x68(%esp),%ecx
 1007eed:	81 e1 00 f0 ff ff    	and    $0xfffff000,%ecx
 1007ef3:	8b 54 24 78          	mov    0x78(%esp),%edx
 1007ef7:	8b 74 24 6c          	mov    0x6c(%esp),%esi
 1007efb:	8b 3c d6             	mov    (%esi,%edx,8),%edi
 1007efe:	8b 5c d6 04          	mov    0x4(%esi,%edx,8),%ebx
 1007f02:	81 e3 00 00 f0 ff    	and    $0xfff00000,%ebx
 1007f08:	81 e7 ff 0f 00 00    	and    $0xfff,%edi
 1007f0e:	09 cf                	or     %ecx,%edi
 1007f10:	89 5c d6 04          	mov    %ebx,0x4(%esi,%edx,8)
 1007f14:	89 3c d6             	mov    %edi,(%esi,%edx,8)
 1007f17:	8b 4c 24 78          	mov    0x78(%esp),%ecx
 1007f1b:	8b 54 24 6c          	mov    0x6c(%esp),%edx
 1007f1f:	8b 74 ca 04          	mov    0x4(%edx,%ecx,8),%esi
 1007f23:	8b 3c ca             	mov    (%edx,%ecx,8),%edi
 1007f26:	83 cf 02             	or     $0x2,%edi
 1007f29:	89 74 ca 04          	mov    %esi,0x4(%edx,%ecx,8)
 1007f2d:	89 3c ca             	mov    %edi,(%edx,%ecx,8)
 1007f30:	8b 8c 24 90 00 00 00 	mov    0x90(%esp),%ecx
 1007f37:	8b 54 24 78          	mov    0x78(%esp),%edx
 1007f3b:	8b 74 24 6c          	mov    0x6c(%esp),%esi
 1007f3f:	8b 7c d6 04          	mov    0x4(%esi,%edx,8),%edi
 1007f43:	8b 1c d6             	mov    (%esi,%edx,8),%ebx
 1007f46:	83 e1 01             	and    $0x1,%ecx
 1007f49:	c1 e1 02             	shl    $0x2,%ecx
 1007f4c:	83 e3 fb             	and    $0xfffffffb,%ebx
 1007f4f:	09 cb                	or     %ecx,%ebx
 1007f51:	89 7c d6 04          	mov    %edi,0x4(%esi,%edx,8)
 1007f55:	89 1c d6             	mov    %ebx,(%esi,%edx,8)
 1007f58:	8b 4c 24 78          	mov    0x78(%esp),%ecx
 1007f5c:	8b 54 24 6c          	mov    0x6c(%esp),%edx
 1007f60:	8b 74 ca 04          	mov    0x4(%edx,%ecx,8),%esi
 1007f64:	8b 3c ca             	mov    (%edx,%ecx,8),%edi
 1007f67:	83 e7 df             	and    $0xffffffdf,%edi
 1007f6a:	89 74 ca 04          	mov    %esi,0x4(%edx,%ecx,8)
 1007f6e:	89 3c ca             	mov    %edi,(%edx,%ecx,8)
 1007f71:	8b 4c 24 78          	mov    0x78(%esp),%ecx
 1007f75:	8b 54 24 6c          	mov    0x6c(%esp),%edx
 1007f79:	8b 74 ca 04          	mov    0x4(%edx,%ecx,8),%esi
 1007f7d:	8b 3c ca             	mov    (%edx,%ecx,8),%edi
 1007f80:	83 cf 01             	or     $0x1,%edi
 1007f83:	89 74 ca 04          	mov    %esi,0x4(%edx,%ecx,8)
 1007f87:	89 3c ca             	mov    %edi,(%edx,%ecx,8)
 1007f8a:	8b 4c 24 78          	mov    0x78(%esp),%ecx
 1007f8e:	8b 54 24 6c          	mov    0x6c(%esp),%edx
 1007f92:	8b 34 ca             	mov    (%edx,%ecx,8),%esi
 1007f95:	8b 7c ca 04          	mov    0x4(%edx,%ecx,8),%edi
 1007f99:	81 e7 ff ff ff 7f    	and    $0x7fffffff,%edi
 1007f9f:	89 34 ca             	mov    %esi,(%edx,%ecx,8)
 1007fa2:	89 7c ca 04          	mov    %edi,0x4(%edx,%ecx,8)
 1007fa6:	8b 4c 24 78          	mov    0x78(%esp),%ecx
 1007faa:	8b 54 24 6c          	mov    0x6c(%esp),%edx
 1007fae:	8b 34 ca             	mov    (%edx,%ecx,8),%esi
 1007fb1:	8b 7c ca 04          	mov    0x4(%edx,%ecx,8),%edi
 1007fb5:	81 e7 ff ff 0f 80    	and    $0x800fffff,%edi
 1007fbb:	89 34 ca             	mov    %esi,(%edx,%ecx,8)
 1007fbe:	89 7c ca 04          	mov    %edi,0x4(%edx,%ecx,8)
 1007fc2:	8b 4c 24 78          	mov    0x78(%esp),%ecx
 1007fc6:	8b 54 24 6c          	mov    0x6c(%esp),%edx
 1007fca:	8b 74 ca 04          	mov    0x4(%edx,%ecx,8),%esi
 1007fce:	8b 3c ca             	mov    (%edx,%ecx,8),%edi
 1007fd1:	81 e7 3f f0 ff ff    	and    $0xfffff03f,%edi
 1007fd7:	89 74 ca 04          	mov    %esi,0x4(%edx,%ecx,8)
 1007fdb:	89 3c ca             	mov    %edi,(%edx,%ecx,8)
 1007fde:	8b 4c 24 78          	mov    0x78(%esp),%ecx
 1007fe2:	8b 54 24 6c          	mov    0x6c(%esp),%edx
 1007fe6:	8b 74 ca 04          	mov    0x4(%edx,%ecx,8),%esi
 1007fea:	8b 3c ca             	mov    (%edx,%ecx,8),%edi
 1007fed:	83 e7 f7             	and    $0xfffffff7,%edi
 1007ff0:	89 74 ca 04          	mov    %esi,0x4(%edx,%ecx,8)
 1007ff4:	89 3c ca             	mov    %edi,(%edx,%ecx,8)
 1007ff7:	8b 4c 24 78          	mov    0x78(%esp),%ecx
 1007ffb:	8b 54 24 6c          	mov    0x6c(%esp),%edx
 1007fff:	8b 74 ca 04          	mov    0x4(%edx,%ecx,8),%esi
 1008003:	8b 3c ca             	mov    (%edx,%ecx,8),%edi
 1008006:	83 e7 ef             	and    $0xffffffef,%edi
 1008009:	89 74 ca 04          	mov    %esi,0x4(%edx,%ecx,8)
 100800d:	89 3c ca             	mov    %edi,(%edx,%ecx,8)
 1008010:	89 44 24 4c          	mov    %eax,0x4c(%esp)
 1008014:	8b 44 24 78          	mov    0x78(%esp),%eax
 1008018:	8b 4c 24 6c          	mov    0x6c(%esp),%ecx
 100801c:	8b 04 c1             	mov    (%ecx,%eax,8),%eax
 100801f:	25 00 f0 ff ff       	and    $0xfffff000,%eax
 1008024:	89 44 24 64          	mov    %eax,0x64(%esp)
 1008028:	8b 8c 24 80 00 00 00 	mov    0x80(%esp),%ecx
 100802f:	8b 94 24 84 00 00 00 	mov    0x84(%esp),%edx
 1008036:	89 d6                	mov    %edx,%esi
 1008038:	0f a4 ce 14          	shld   $0x14,%ecx,%esi
 100803c:	8b 4c 24 74          	mov    0x74(%esp),%ecx
 1008040:	8b 7c c8 04          	mov    0x4(%eax,%ecx,8),%edi
 1008044:	8b 1c c8             	mov    (%eax,%ecx,8),%ebx
 1008047:	81 e2 00 f0 0f 00    	and    $0xff000,%edx
 100804d:	89 44 24 48          	mov    %eax,0x48(%esp)
 1008051:	89 f0                	mov    %esi,%eax
 1008053:	c1 e8 14             	shr    $0x14,%eax
 1008056:	09 c2                	or     %eax,%edx
 1008058:	c1 e6 0c             	shl    $0xc,%esi
 100805b:	81 e3 ff 0f 00 00    	and    $0xfff,%ebx
 1008061:	81 e7 00 00 f0 ff    	and    $0xfff00000,%edi
 1008067:	09 d7                	or     %edx,%edi
 1008069:	09 f3                	or     %esi,%ebx
 100806b:	8b 44 24 48          	mov    0x48(%esp),%eax
 100806f:	89 1c c8             	mov    %ebx,(%eax,%ecx,8)
 1008072:	89 7c c8 04          	mov    %edi,0x4(%eax,%ecx,8)
 1008076:	8b 4c 24 74          	mov    0x74(%esp),%ecx
 100807a:	8b 54 24 64          	mov    0x64(%esp),%edx
 100807e:	8b 74 ca 04          	mov    0x4(%edx,%ecx,8),%esi
 1008082:	8b 3c ca             	mov    (%edx,%ecx,8),%edi
 1008085:	83 cf 01             	or     $0x1,%edi
 1008088:	89 74 ca 04          	mov    %esi,0x4(%edx,%ecx,8)
 100808c:	89 3c ca             	mov    %edi,(%edx,%ecx,8)
 100808f:	8b 8c 24 90 00 00 00 	mov    0x90(%esp),%ecx
 1008096:	8b 54 24 74          	mov    0x74(%esp),%edx
 100809a:	8b 74 24 64          	mov    0x64(%esp),%esi
 100809e:	8b 7c d6 04          	mov    0x4(%esi,%edx,8),%edi
 10080a2:	8b 1c d6             	mov    (%esi,%edx,8),%ebx
 10080a5:	83 e1 01             	and    $0x1,%ecx
 10080a8:	c1 e1 02             	shl    $0x2,%ecx
 10080ab:	83 e3 fb             	and    $0xfffffffb,%ebx
 10080ae:	09 cb                	or     %ecx,%ebx
 10080b0:	89 7c d6 04          	mov    %edi,0x4(%esi,%edx,8)
 10080b4:	89 1c d6             	mov    %ebx,(%esi,%edx,8)
 10080b7:	8b 8c 24 94 00 00 00 	mov    0x94(%esp),%ecx
 10080be:	83 e1 01             	and    $0x1,%ecx
 10080c1:	8b 54 24 74          	mov    0x74(%esp),%edx
 10080c5:	8b 74 24 64          	mov    0x64(%esp),%esi
 10080c9:	8b 7c d6 04          	mov    0x4(%esi,%edx,8),%edi
 10080cd:	8b 1c d6             	mov    (%esi,%edx,8),%ebx
 10080d0:	01 c9                	add    %ecx,%ecx
 10080d2:	19 c0                	sbb    %eax,%eax
 10080d4:	83 e0 01             	and    $0x1,%eax
 10080d7:	83 e3 fd             	and    $0xfffffffd,%ebx
 10080da:	09 c7                	or     %eax,%edi
 10080dc:	09 cb                	or     %ecx,%ebx
 10080de:	89 1c d6             	mov    %ebx,(%esi,%edx,8)
 10080e1:	89 7c d6 04          	mov    %edi,0x4(%esi,%edx,8)
 10080e5:	8b 44 24 74          	mov    0x74(%esp),%eax
 10080e9:	8b 4c 24 64          	mov    0x64(%esp),%ecx
 10080ed:	8b 14 c1             	mov    (%ecx,%eax,8),%edx
 10080f0:	8b 74 c1 04          	mov    0x4(%ecx,%eax,8),%esi
 10080f4:	81 e6 ff ff ff 7f    	and    $0x7fffffff,%esi
 10080fa:	89 14 c1             	mov    %edx,(%ecx,%eax,8)
 10080fd:	89 74 c1 04          	mov    %esi,0x4(%ecx,%eax,8)
 1008101:	8b 44 24 74          	mov    0x74(%esp),%eax
 1008105:	8b 4c 24 64          	mov    0x64(%esp),%ecx
 1008109:	8b 54 c1 04          	mov    0x4(%ecx,%eax,8),%edx
 100810d:	8b 34 c1             	mov    (%ecx,%eax,8),%esi
 1008110:	81 e6 ff fe ff ff    	and    $0xfffffeff,%esi
 1008116:	89 54 c1 04          	mov    %edx,0x4(%ecx,%eax,8)
 100811a:	89 34 c1             	mov    %esi,(%ecx,%eax,8)
 100811d:	8b 44 24 74          	mov    0x74(%esp),%eax
 1008121:	8b 4c 24 64          	mov    0x64(%esp),%ecx
 1008125:	8b 54 c1 04          	mov    0x4(%ecx,%eax,8),%edx
 1008129:	8b 34 c1             	mov    (%ecx,%eax,8),%esi
 100812c:	81 e6 7f ff ff ff    	and    $0xffffff7f,%esi
 1008132:	89 54 c1 04          	mov    %edx,0x4(%ecx,%eax,8)
 1008136:	89 34 c1             	mov    %esi,(%ecx,%eax,8)
 1008139:	8b 84 24 98 00 00 00 	mov    0x98(%esp),%eax
 1008140:	83 e0 01             	and    $0x1,%eax
 1008143:	8b 4c 24 74          	mov    0x74(%esp),%ecx
 1008147:	8b 54 24 64          	mov    0x64(%esp),%edx
 100814b:	8b 74 ca 04          	mov    0x4(%edx,%ecx,8),%esi
 100814f:	8b 3c ca             	mov    (%edx,%ecx,8),%edi
 1008152:	c1 e0 03             	shl    $0x3,%eax
 1008155:	83 e7 f7             	and    $0xfffffff7,%edi
 1008158:	09 c7                	or     %eax,%edi
 100815a:	89 74 ca 04          	mov    %esi,0x4(%edx,%ecx,8)
 100815e:	89 3c ca             	mov    %edi,(%edx,%ecx,8)
 1008161:	8b 84 24 98 00 00 00 	mov    0x98(%esp),%eax
 1008168:	c1 e0 03             	shl    $0x3,%eax
 100816b:	8b 4c 24 74          	mov    0x74(%esp),%ecx
 100816f:	8b 54 24 64          	mov    0x64(%esp),%edx
 1008173:	8b 74 ca 04          	mov    0x4(%edx,%ecx,8),%esi
 1008177:	8b 3c ca             	mov    (%edx,%ecx,8),%edi
 100817a:	83 e0 10             	and    $0x10,%eax
 100817d:	83 e7 ef             	and    $0xffffffef,%edi
 1008180:	09 c7                	or     %eax,%edi
 1008182:	89 74 ca 04          	mov    %esi,0x4(%edx,%ecx,8)
 1008186:	89 3c ca             	mov    %edi,(%edx,%ecx,8)
 1008189:	8b 84 24 8c 00 00 00 	mov    0x8c(%esp),%eax
 1008190:	0f 01 38             	invlpg (%eax)
 1008193:	e9 80 02 00 00       	jmp    1008418 <virtMemMan_Map+0x8d8>
 1008198:	8b 84 24 9c 00 00 00 	mov    0x9c(%esp),%eax
 100819f:	89 44 24 58          	mov    %eax,0x58(%esp)
 10081a3:	c7 44 24 5c 00 00 00 	movl   $0x0,0x5c(%esp)
 10081aa:	00 
 10081ab:	8b 44 24 58          	mov    0x58(%esp),%eax
 10081af:	8b 4c 24 5c          	mov    0x5c(%esp),%ecx
 10081b3:	85 c0                	test   %eax,%eax
 10081b5:	0f 94 c2             	sete   %dl
 10081b8:	85 c9                	test   %ecx,%ecx
 10081ba:	0f 98 c6             	sets   %dh
 10081bd:	88 74 24 47          	mov    %dh,0x47(%esp)
 10081c1:	88 54 24 46          	mov    %dl,0x46(%esp)
 10081c5:	74 08                	je     10081cf <virtMemMan_Map+0x68f>
 10081c7:	8a 44 24 47          	mov    0x47(%esp),%al
 10081cb:	88 44 24 46          	mov    %al,0x46(%esp)
 10081cf:	8a 44 24 46          	mov    0x46(%esp),%al
 10081d3:	84 c0                	test   %al,%al
 10081d5:	0f 85 3b 02 00 00    	jne    1008416 <virtMemMan_Map+0x8d6>
 10081db:	eb 00                	jmp    10081dd <virtMemMan_Map+0x69d>
 10081dd:	83 7c 24 74 00       	cmpl   $0x0,0x74(%esp)
 10081e2:	75 44                	jne    1008228 <virtMemMan_Map+0x6e8>
 10081e4:	83 7c 24 74 00       	cmpl   $0x0,0x74(%esp)
 10081e9:	0f 85 f0 00 00 00    	jne    10082df <virtMemMan_Map+0x79f>
 10081ef:	8b 44 24 58          	mov    0x58(%esp),%eax
 10081f3:	8b 4c 24 5c          	mov    0x5c(%esp),%ecx
 10081f7:	2d ff ff 1f 00       	sub    $0x1fffff,%eax
 10081fc:	0f 97 c2             	seta   %dl
 10081ff:	85 c9                	test   %ecx,%ecx
 1008201:	0f 9f c6             	setg   %dh
 1008204:	88 74 24 45          	mov    %dh,0x45(%esp)
 1008208:	89 44 24 40          	mov    %eax,0x40(%esp)
 100820c:	88 54 24 3f          	mov    %dl,0x3f(%esp)
 1008210:	74 08                	je     100821a <virtMemMan_Map+0x6da>
 1008212:	8a 44 24 45          	mov    0x45(%esp),%al
 1008216:	88 44 24 3f          	mov    %al,0x3f(%esp)
 100821a:	8a 44 24 3f          	mov    0x3f(%esp),%al
 100821e:	84 c0                	test   %al,%al
 1008220:	0f 85 b9 00 00 00    	jne    10082df <virtMemMan_Map+0x79f>
 1008226:	eb 00                	jmp    1008228 <virtMemMan_Map+0x6e8>
 1008228:	8b 84 24 8c 00 00 00 	mov    0x8c(%esp),%eax
 100822f:	8b 8c 24 80 00 00 00 	mov    0x80(%esp),%ecx
 1008236:	8b 94 24 84 00 00 00 	mov    0x84(%esp),%edx
 100823d:	8b b4 24 98 00 00 00 	mov    0x98(%esp),%esi
 1008244:	8b bc 24 94 00 00 00 	mov    0x94(%esp),%edi
 100824b:	8b 9c 24 90 00 00 00 	mov    0x90(%esp),%ebx
 1008252:	89 44 24 38          	mov    %eax,0x38(%esp)
 1008256:	89 e0                	mov    %esp,%eax
 1008258:	89 58 18             	mov    %ebx,0x18(%eax)
 100825b:	89 78 14             	mov    %edi,0x14(%eax)
 100825e:	89 70 10             	mov    %esi,0x10(%eax)
 1008261:	89 50 08             	mov    %edx,0x8(%eax)
 1008264:	89 48 04             	mov    %ecx,0x4(%eax)
 1008267:	8b 4c 24 38          	mov    0x38(%esp),%ecx
 100826b:	89 08                	mov    %ecx,(%eax)
 100826d:	c7 40 0c 00 10 00 00 	movl   $0x1000,0xc(%eax)
 1008274:	e8 c7 f8 ff ff       	call   1007b40 <virtMemMan_Map>
 1008279:	8b 4c 24 58          	mov    0x58(%esp),%ecx
 100827d:	8b 54 24 5c          	mov    0x5c(%esp),%edx
 1008281:	81 c1 00 f0 ff ff    	add    $0xfffff000,%ecx
 1008287:	83 d2 ff             	adc    $0xffffffff,%edx
 100828a:	89 4c 24 58          	mov    %ecx,0x58(%esp)
 100828e:	89 54 24 5c          	mov    %edx,0x5c(%esp)
 1008292:	8b 8c 24 8c 00 00 00 	mov    0x8c(%esp),%ecx
 1008299:	81 c1 00 10 00 00    	add    $0x1000,%ecx
 100829f:	89 8c 24 8c 00 00 00 	mov    %ecx,0x8c(%esp)
 10082a6:	8b 8c 24 80 00 00 00 	mov    0x80(%esp),%ecx
 10082ad:	8b 94 24 84 00 00 00 	mov    0x84(%esp),%edx
 10082b4:	81 c1 00 10 00 00    	add    $0x1000,%ecx
 10082ba:	83 d2 00             	adc    $0x0,%edx
 10082bd:	89 8c 24 80 00 00 00 	mov    %ecx,0x80(%esp)
 10082c4:	89 94 24 84 00 00 00 	mov    %edx,0x84(%esp)
 10082cb:	8b 4c 24 74          	mov    0x74(%esp),%ecx
 10082cf:	83 c1 01             	add    $0x1,%ecx
 10082d2:	89 4c 24 74          	mov    %ecx,0x74(%esp)
 10082d6:	89 44 24 34          	mov    %eax,0x34(%esp)
 10082da:	e9 f8 00 00 00       	jmp    10083d7 <virtMemMan_Map+0x897>
 10082df:	83 7c 24 74 00       	cmpl   $0x0,0x74(%esp)
 10082e4:	0f 85 eb 00 00 00    	jne    10083d5 <virtMemMan_Map+0x895>
 10082ea:	8b 44 24 58          	mov    0x58(%esp),%eax
 10082ee:	8b 4c 24 5c          	mov    0x5c(%esp),%ecx
 10082f2:	2d 00 00 20 00       	sub    $0x200000,%eax
 10082f7:	0f 92 c2             	setb   %dl
 10082fa:	85 c9                	test   %ecx,%ecx
 10082fc:	0f 98 c6             	sets   %dh
 10082ff:	88 74 24 33          	mov    %dh,0x33(%esp)
 1008303:	89 44 24 2c          	mov    %eax,0x2c(%esp)
 1008307:	88 54 24 2b          	mov    %dl,0x2b(%esp)
 100830b:	74 08                	je     1008315 <virtMemMan_Map+0x7d5>
 100830d:	8a 44 24 33          	mov    0x33(%esp),%al
 1008311:	88 44 24 2b          	mov    %al,0x2b(%esp)
 1008315:	8a 44 24 2b          	mov    0x2b(%esp),%al
 1008319:	84 c0                	test   %al,%al
 100831b:	0f 85 b4 00 00 00    	jne    10083d5 <virtMemMan_Map+0x895>
 1008321:	eb 00                	jmp    1008323 <virtMemMan_Map+0x7e3>
 1008323:	8b 84 24 8c 00 00 00 	mov    0x8c(%esp),%eax
 100832a:	8b 8c 24 80 00 00 00 	mov    0x80(%esp),%ecx
 1008331:	8b 94 24 84 00 00 00 	mov    0x84(%esp),%edx
 1008338:	8b b4 24 98 00 00 00 	mov    0x98(%esp),%esi
 100833f:	8b bc 24 94 00 00 00 	mov    0x94(%esp),%edi
 1008346:	8b 9c 24 90 00 00 00 	mov    0x90(%esp),%ebx
 100834d:	89 44 24 24          	mov    %eax,0x24(%esp)
 1008351:	89 e0                	mov    %esp,%eax
 1008353:	89 58 18             	mov    %ebx,0x18(%eax)
 1008356:	89 78 14             	mov    %edi,0x14(%eax)
 1008359:	89 70 10             	mov    %esi,0x10(%eax)
 100835c:	89 50 08             	mov    %edx,0x8(%eax)
 100835f:	89 48 04             	mov    %ecx,0x4(%eax)
 1008362:	8b 4c 24 24          	mov    0x24(%esp),%ecx
 1008366:	89 08                	mov    %ecx,(%eax)
 1008368:	c7 40 0c 00 00 20 00 	movl   $0x200000,0xc(%eax)
 100836f:	e8 cc f7 ff ff       	call   1007b40 <virtMemMan_Map>
 1008374:	8b 4c 24 58          	mov    0x58(%esp),%ecx
 1008378:	8b 54 24 5c          	mov    0x5c(%esp),%edx
 100837c:	81 c1 00 00 e0 ff    	add    $0xffe00000,%ecx
 1008382:	83 d2 ff             	adc    $0xffffffff,%edx
 1008385:	89 4c 24 58          	mov    %ecx,0x58(%esp)
 1008389:	89 54 24 5c          	mov    %edx,0x5c(%esp)
 100838d:	8b 8c 24 8c 00 00 00 	mov    0x8c(%esp),%ecx
 1008394:	81 c1 00 00 20 00    	add    $0x200000,%ecx
 100839a:	89 8c 24 8c 00 00 00 	mov    %ecx,0x8c(%esp)
 10083a1:	8b 8c 24 80 00 00 00 	mov    0x80(%esp),%ecx
 10083a8:	8b 94 24 84 00 00 00 	mov    0x84(%esp),%edx
 10083af:	81 c1 00 00 20 00    	add    $0x200000,%ecx
 10083b5:	83 d2 00             	adc    $0x0,%edx
 10083b8:	89 8c 24 80 00 00 00 	mov    %ecx,0x80(%esp)
 10083bf:	89 94 24 84 00 00 00 	mov    %edx,0x84(%esp)
 10083c6:	8b 4c 24 78          	mov    0x78(%esp),%ecx
 10083ca:	83 c1 01             	add    $0x1,%ecx
 10083cd:	89 4c 24 78          	mov    %ecx,0x78(%esp)
 10083d1:	89 44 24 20          	mov    %eax,0x20(%esp)
 10083d5:	eb 00                	jmp    10083d7 <virtMemMan_Map+0x897>
 10083d7:	81 7c 24 74 00 02 00 	cmpl   $0x200,0x74(%esp)
 10083de:	00 
 10083df:	72 13                	jb     10083f4 <virtMemMan_Map+0x8b4>
 10083e1:	c7 44 24 74 00 00 00 	movl   $0x0,0x74(%esp)
 10083e8:	00 
 10083e9:	8b 44 24 78          	mov    0x78(%esp),%eax
 10083ed:	83 c0 01             	add    $0x1,%eax
 10083f0:	89 44 24 78          	mov    %eax,0x78(%esp)
 10083f4:	81 7c 24 78 00 02 00 	cmpl   $0x200,0x78(%esp)
 10083fb:	00 
 10083fc:	72 13                	jb     1008411 <virtMemMan_Map+0x8d1>
 10083fe:	c7 44 24 78 00 00 00 	movl   $0x0,0x78(%esp)
 1008405:	00 
 1008406:	8b 44 24 7c          	mov    0x7c(%esp),%eax
 100840a:	83 c0 01             	add    $0x1,%eax
 100840d:	89 44 24 7c          	mov    %eax,0x7c(%esp)
 1008411:	e9 95 fd ff ff       	jmp    10081ab <virtMemMan_Map+0x66b>
 1008416:	eb 00                	jmp    1008418 <virtMemMan_Map+0x8d8>
 1008418:	eb 00                	jmp    100841a <virtMemMan_Map+0x8da>
 100841a:	c7 84 24 b0 00 00 00 	movl   $0x0,0xb0(%esp)
 1008421:	00 00 00 00 
 1008425:	8b 84 24 b0 00 00 00 	mov    0xb0(%esp),%eax
 100842c:	8d 65 f4             	lea    -0xc(%ebp),%esp
 100842f:	5e                   	pop    %esi
 1008430:	5f                   	pop    %edi
 1008431:	5b                   	pop    %ebx
 1008432:	5d                   	pop    %ebp
 1008433:	c3                   	ret    
 1008434:	8d b6 00 00 00 00    	lea    0x0(%esi),%esi
 100843a:	8d bf 00 00 00 00    	lea    0x0(%edi),%edi

01008440 <virtMemMan_SetCurrent>:
 1008440:	55                   	push   %ebp
 1008441:	89 e5                	mov    %esp,%ebp
 1008443:	83 ec 08             	sub    $0x8,%esp
 1008446:	8b 45 08             	mov    0x8(%ebp),%eax
 1008449:	89 45 fc             	mov    %eax,-0x4(%ebp)
 100844c:	a1 00 f0 a8 04       	mov    0x4a8f000,%eax
 1008451:	89 45 f8             	mov    %eax,-0x8(%ebp)
 1008454:	8b 45 fc             	mov    -0x4(%ebp),%eax
 1008457:	a3 00 f0 a8 04       	mov    %eax,0x4a8f000
 100845c:	a1 00 f0 a8 04       	mov    0x4a8f000,%eax
 1008461:	0f 22 d8             	mov    %eax,%cr3
 1008464:	8b 45 f8             	mov    -0x8(%ebp),%eax
 1008467:	83 c4 08             	add    $0x8,%esp
 100846a:	5d                   	pop    %ebp
 100846b:	c3                   	ret    
 100846c:	8d 74 26 00          	lea    0x0(%esi,%eiz,1),%esi

01008470 <virtMemMan_GetCurrent>:
 1008470:	55                   	push   %ebp
 1008471:	89 e5                	mov    %esp,%ebp
 1008473:	a1 00 f0 a8 04       	mov    0x4a8f000,%eax
 1008478:	5d                   	pop    %ebp
 1008479:	c3                   	ret    
 100847a:	8d b6 00 00 00 00    	lea    0x0(%esi),%esi

01008480 <virtMemMan_CreateInstance>:
 1008480:	55                   	push   %ebp
 1008481:	89 e5                	mov    %esp,%ebp
 1008483:	83 ec 28             	sub    $0x28,%esp
 1008486:	b8 00 00 00 00       	mov    $0x0,%eax
 100848b:	b9 00 10 00 00       	mov    $0x1000,%ecx
 1008490:	89 45 f8             	mov    %eax,-0x8(%ebp)
 1008493:	89 4d f4             	mov    %ecx,-0xc(%ebp)
 1008496:	e8 85 06 00 00       	call   1008b20 <virtMemMan_GetFreePDPTEntry>
 100849b:	89 45 fc             	mov    %eax,-0x4(%ebp)
 100849e:	89 e1                	mov    %esp,%ecx
 10084a0:	89 01                	mov    %eax,(%ecx)
 10084a2:	c7 41 08 20 00 00 00 	movl   $0x20,0x8(%ecx)
 10084a9:	c7 41 04 00 00 00 00 	movl   $0x0,0x4(%ecx)
 10084b0:	e8 4b b3 ff ff       	call   1003800 <memset>
 10084b5:	8b 0d 04 f0 a8 04    	mov    0x4a8f004,%ecx
 10084bb:	8b 55 fc             	mov    -0x4(%ebp),%edx
 10084be:	89 0a                	mov    %ecx,(%edx)
 10084c0:	c7 42 04 00 00 00 00 	movl   $0x0,0x4(%edx)
 10084c7:	89 45 f0             	mov    %eax,-0x10(%ebp)
 10084ca:	e8 c1 06 00 00       	call   1008b90 <virtMemMan_GetFreePageDirEntry>
 10084cf:	8b 4d fc             	mov    -0x4(%ebp),%ecx
 10084d2:	89 41 08             	mov    %eax,0x8(%ecx)
 10084d5:	c7 41 0c 00 00 00 00 	movl   $0x0,0xc(%ecx)
 10084dc:	e8 af 06 00 00       	call   1008b90 <virtMemMan_GetFreePageDirEntry>
 10084e1:	8b 4d fc             	mov    -0x4(%ebp),%ecx
 10084e4:	89 41 10             	mov    %eax,0x10(%ecx)
 10084e7:	c7 41 14 00 00 00 00 	movl   $0x0,0x14(%ecx)
 10084ee:	e8 9d 06 00 00       	call   1008b90 <virtMemMan_GetFreePageDirEntry>
 10084f3:	8b 4d fc             	mov    -0x4(%ebp),%ecx
 10084f6:	89 41 18             	mov    %eax,0x18(%ecx)
 10084f9:	c7 41 1c 00 00 00 00 	movl   $0x0,0x1c(%ecx)
 1008500:	8b 45 fc             	mov    -0x4(%ebp),%eax
 1008503:	8b 40 08             	mov    0x8(%eax),%eax
 1008506:	89 e1                	mov    %esp,%ecx
 1008508:	89 01                	mov    %eax,(%ecx)
 100850a:	c7 41 08 00 10 00 00 	movl   $0x1000,0x8(%ecx)
 1008511:	c7 41 04 00 00 00 00 	movl   $0x0,0x4(%ecx)
 1008518:	e8 e3 b2 ff ff       	call   1003800 <memset>
 100851d:	8b 4d fc             	mov    -0x4(%ebp),%ecx
 1008520:	8b 49 10             	mov    0x10(%ecx),%ecx
 1008523:	89 e2                	mov    %esp,%edx
 1008525:	89 0a                	mov    %ecx,(%edx)
 1008527:	c7 42 08 00 10 00 00 	movl   $0x1000,0x8(%edx)
 100852e:	c7 42 04 00 00 00 00 	movl   $0x0,0x4(%edx)
 1008535:	89 45 ec             	mov    %eax,-0x14(%ebp)
 1008538:	e8 c3 b2 ff ff       	call   1003800 <memset>
 100853d:	8b 4d fc             	mov    -0x4(%ebp),%ecx
 1008540:	8b 49 18             	mov    0x18(%ecx),%ecx
 1008543:	89 0c 24             	mov    %ecx,(%esp)
 1008546:	c7 44 24 04 00 00 00 	movl   $0x0,0x4(%esp)
 100854d:	00 
 100854e:	c7 44 24 08 00 10 00 	movl   $0x1000,0x8(%esp)
 1008555:	00 
 1008556:	89 45 e8             	mov    %eax,-0x18(%ebp)
 1008559:	e8 a2 b2 ff ff       	call   1003800 <memset>
 100855e:	8b 4d fc             	mov    -0x4(%ebp),%ecx
 1008561:	89 45 e4             	mov    %eax,-0x1c(%ebp)
 1008564:	89 c8                	mov    %ecx,%eax
 1008566:	83 c4 28             	add    $0x28,%esp
 1008569:	5d                   	pop    %ebp
 100856a:	c3                   	ret    
 100856b:	90                   	nop
 100856c:	8d 74 26 00          	lea    0x0(%esi,%eiz,1),%esi

01008570 <virtMemMan_Fork>:
 1008570:	55                   	push   %ebp
 1008571:	89 e5                	mov    %esp,%ebp
 1008573:	56                   	push   %esi
 1008574:	83 ec 2c             	sub    $0x2c,%esp
 1008577:	8b 45 0c             	mov    0xc(%ebp),%eax
 100857a:	8b 4d 08             	mov    0x8(%ebp),%ecx
 100857d:	ba 00 10 00 00       	mov    $0x1000,%edx
 1008582:	89 4d f8             	mov    %ecx,-0x8(%ebp)
 1008585:	89 45 f4             	mov    %eax,-0xc(%ebp)
 1008588:	8b 45 f8             	mov    -0x8(%ebp),%eax
 100858b:	83 c0 08             	add    $0x8,%eax
 100858e:	8b 4d f4             	mov    -0xc(%ebp),%ecx
 1008591:	83 c1 08             	add    $0x8,%ecx
 1008594:	89 04 24             	mov    %eax,(%esp)
 1008597:	89 4c 24 04          	mov    %ecx,0x4(%esp)
 100859b:	c7 44 24 08 00 10 00 	movl   $0x1000,0x8(%esp)
 10085a2:	00 
 10085a3:	89 55 f0             	mov    %edx,-0x10(%ebp)
 10085a6:	e8 05 b2 ff ff       	call   10037b0 <memcpy>
 10085ab:	b9 00 10 00 00       	mov    $0x1000,%ecx
 10085b0:	8b 55 f8             	mov    -0x8(%ebp),%edx
 10085b3:	83 c2 10             	add    $0x10,%edx
 10085b6:	8b 75 f4             	mov    -0xc(%ebp),%esi
 10085b9:	83 c6 10             	add    $0x10,%esi
 10085bc:	89 14 24             	mov    %edx,(%esp)
 10085bf:	89 74 24 04          	mov    %esi,0x4(%esp)
 10085c3:	c7 44 24 08 00 10 00 	movl   $0x1000,0x8(%esp)
 10085ca:	00 
 10085cb:	89 45 ec             	mov    %eax,-0x14(%ebp)
 10085ce:	89 4d e8             	mov    %ecx,-0x18(%ebp)
 10085d1:	e8 da b1 ff ff       	call   10037b0 <memcpy>
 10085d6:	b9 00 10 00 00       	mov    $0x1000,%ecx
 10085db:	8b 55 f8             	mov    -0x8(%ebp),%edx
 10085de:	83 c2 18             	add    $0x18,%edx
 10085e1:	8b 75 f4             	mov    -0xc(%ebp),%esi
 10085e4:	83 c6 18             	add    $0x18,%esi
 10085e7:	89 14 24             	mov    %edx,(%esp)
 10085ea:	89 74 24 04          	mov    %esi,0x4(%esp)
 10085ee:	c7 44 24 08 00 10 00 	movl   $0x1000,0x8(%esp)
 10085f5:	00 
 10085f6:	89 45 e4             	mov    %eax,-0x1c(%ebp)
 10085f9:	89 4d e0             	mov    %ecx,-0x20(%ebp)
 10085fc:	e8 af b1 ff ff       	call   10037b0 <memcpy>
 1008601:	89 45 dc             	mov    %eax,-0x24(%ebp)
 1008604:	83 c4 2c             	add    $0x2c,%esp
 1008607:	5e                   	pop    %esi
 1008608:	5d                   	pop    %ebp
 1008609:	c3                   	ret    
 100860a:	8d b6 00 00 00 00    	lea    0x0(%esi),%esi

01008610 <virtMemMan_ForkCurrent>:
 1008610:	55                   	push   %ebp
 1008611:	89 e5                	mov    %esp,%ebp
 1008613:	83 ec 0c             	sub    $0xc,%esp
 1008616:	8b 45 08             	mov    0x8(%ebp),%eax
 1008619:	89 45 fc             	mov    %eax,-0x4(%ebp)
 100861c:	8b 45 fc             	mov    -0x4(%ebp),%eax
 100861f:	8b 0d 00 f0 a8 04    	mov    0x4a8f000,%ecx
 1008625:	89 04 24             	mov    %eax,(%esp)
 1008628:	89 4c 24 04          	mov    %ecx,0x4(%esp)
 100862c:	e8 3f ff ff ff       	call   1008570 <virtMemMan_Fork>
 1008631:	83 c4 0c             	add    $0xc,%esp
 1008634:	5d                   	pop    %ebp
 1008635:	c3                   	ret    
 1008636:	8d 76 00             	lea    0x0(%esi),%esi
 1008639:	8d bc 27 00 00 00 00 	lea    0x0(%edi,%eiz,1),%edi

01008640 <virtMemMan_FindEmptyAddress>:
 1008640:	55                   	push   %ebp
 1008641:	89 e5                	mov    %esp,%ebp
 1008643:	83 ec 3c             	sub    $0x3c,%esp
 1008646:	8b 45 0c             	mov    0xc(%ebp),%eax
 1008649:	8b 4d 08             	mov    0x8(%ebp),%ecx
 100864c:	89 4d f8             	mov    %ecx,-0x8(%ebp)
 100864f:	89 45 f4             	mov    %eax,-0xc(%ebp)
 1008652:	83 7d f8 00          	cmpl   $0x0,-0x8(%ebp)
 1008656:	75 0c                	jne    1008664 <virtMemMan_FindEmptyAddress+0x24>
 1008658:	c7 45 fc 00 00 00 00 	movl   $0x0,-0x4(%ebp)
 100865f:	e9 77 02 00 00       	jmp    10088db <virtMemMan_FindEmptyAddress+0x29b>
 1008664:	8b 45 f8             	mov    -0x8(%ebp),%eax
 1008667:	c1 e8 15             	shr    $0x15,%eax
 100866a:	89 45 f0             	mov    %eax,-0x10(%ebp)
 100866d:	83 7d f0 00          	cmpl   $0x0,-0x10(%ebp)
 1008671:	74 0b                	je     100867e <virtMemMan_FindEmptyAddress+0x3e>
 1008673:	8b 45 f0             	mov    -0x10(%ebp),%eax
 1008676:	c1 e0 15             	shl    $0x15,%eax
 1008679:	3b 45 f8             	cmp    -0x8(%ebp),%eax
 100867c:	73 09                	jae    1008687 <virtMemMan_FindEmptyAddress+0x47>
 100867e:	8b 45 f0             	mov    -0x10(%ebp),%eax
 1008681:	83 c0 01             	add    $0x1,%eax
 1008684:	89 45 f0             	mov    %eax,-0x10(%ebp)
 1008687:	b8 01 00 00 00       	mov    $0x1,%eax
 100868c:	b9 00 00 00 00       	mov    $0x0,%ecx
 1008691:	83 7d f4 00          	cmpl   $0x0,-0xc(%ebp)
 1008695:	0f 44 c1             	cmove  %ecx,%eax
 1008698:	89 45 ec             	mov    %eax,-0x14(%ebp)
 100869b:	83 7d ec 04          	cmpl   $0x4,-0x14(%ebp)
 100869f:	0f 8d 2f 02 00 00    	jge    10088d4 <virtMemMan_FindEmptyAddress+0x294>
 10086a5:	8b 45 ec             	mov    -0x14(%ebp),%eax
 10086a8:	8b 0d 00 f0 a8 04    	mov    0x4a8f000,%ecx
 10086ae:	8a 14 c1             	mov    (%ecx,%eax,8),%dl
 10086b1:	f6 c2 01             	test   $0x1,%dl
 10086b4:	0f 84 f4 01 00 00    	je     10088ae <virtMemMan_FindEmptyAddress+0x26e>
 10086ba:	eb 00                	jmp    10086bc <virtMemMan_FindEmptyAddress+0x7c>
 10086bc:	8b 45 ec             	mov    -0x14(%ebp),%eax
 10086bf:	8b 0d 00 f0 a8 04    	mov    0x4a8f000,%ecx
 10086c5:	8b 04 c1             	mov    (%ecx,%eax,8),%eax
 10086c8:	25 00 f0 ff ff       	and    $0xfffff000,%eax
 10086cd:	89 45 e8             	mov    %eax,-0x18(%ebp)
 10086d0:	c7 45 e4 00 00 00 00 	movl   $0x0,-0x1c(%ebp)
 10086d7:	81 7d e4 00 02 00 00 	cmpl   $0x200,-0x1c(%ebp)
 10086de:	0f 8d c8 01 00 00    	jge    10088ac <virtMemMan_FindEmptyAddress+0x26c>
 10086e4:	8b 45 e4             	mov    -0x1c(%ebp),%eax
 10086e7:	8b 4d e8             	mov    -0x18(%ebp),%ecx
 10086ea:	8b 04 c1             	mov    (%ecx,%eax,8),%eax
 10086ed:	83 e0 01             	and    $0x1,%eax
 10086f0:	83 f8 00             	cmp    $0x0,%eax
 10086f3:	0f 85 84 00 00 00    	jne    100877d <virtMemMan_FindEmptyAddress+0x13d>
 10086f9:	c7 45 e0 00 00 00 00 	movl   $0x0,-0x20(%ebp)
 1008700:	c7 45 dc 00 00 00 00 	movl   $0x0,-0x24(%ebp)
 1008707:	b0 00                	mov    $0x0,%al
 1008709:	8b 4d dc             	mov    -0x24(%ebp),%ecx
 100870c:	3b 4d f0             	cmp    -0x10(%ebp),%ecx
 100870f:	88 45 c7             	mov    %al,-0x39(%ebp)
 1008712:	73 11                	jae    1008725 <virtMemMan_FindEmptyAddress+0xe5>
 1008714:	8b 45 e4             	mov    -0x1c(%ebp),%eax
 1008717:	03 45 dc             	add    -0x24(%ebp),%eax
 100871a:	3d 00 02 00 00       	cmp    $0x200,%eax
 100871f:	0f 9c c1             	setl   %cl
 1008722:	88 4d c7             	mov    %cl,-0x39(%ebp)
 1008725:	8a 45 c7             	mov    -0x39(%ebp),%al
 1008728:	a8 01                	test   $0x1,%al
 100872a:	75 02                	jne    100872e <virtMemMan_FindEmptyAddress+0xee>
 100872c:	eb 2c                	jmp    100875a <virtMemMan_FindEmptyAddress+0x11a>
 100872e:	8b 45 e4             	mov    -0x1c(%ebp),%eax
 1008731:	8b 4d dc             	mov    -0x24(%ebp),%ecx
 1008734:	01 c8                	add    %ecx,%eax
 1008736:	8b 4d e8             	mov    -0x18(%ebp),%ecx
 1008739:	8b 04 c1             	mov    (%ecx,%eax,8),%eax
 100873c:	83 e0 01             	and    $0x1,%eax
 100873f:	83 f8 00             	cmp    $0x0,%eax
 1008742:	75 09                	jne    100874d <virtMemMan_FindEmptyAddress+0x10d>
 1008744:	8b 45 e0             	mov    -0x20(%ebp),%eax
 1008747:	83 c0 01             	add    $0x1,%eax
 100874a:	89 45 e0             	mov    %eax,-0x20(%ebp)
 100874d:	eb 00                	jmp    100874f <virtMemMan_FindEmptyAddress+0x10f>
 100874f:	8b 45 dc             	mov    -0x24(%ebp),%eax
 1008752:	83 c0 01             	add    $0x1,%eax
 1008755:	89 45 dc             	mov    %eax,-0x24(%ebp)
 1008758:	eb ad                	jmp    1008707 <virtMemMan_FindEmptyAddress+0xc7>
 100875a:	8b 45 e0             	mov    -0x20(%ebp),%eax
 100875d:	3b 45 f0             	cmp    -0x10(%ebp),%eax
 1008760:	72 16                	jb     1008778 <virtMemMan_FindEmptyAddress+0x138>
 1008762:	8b 45 ec             	mov    -0x14(%ebp),%eax
 1008765:	c1 e0 1e             	shl    $0x1e,%eax
 1008768:	8b 4d e4             	mov    -0x1c(%ebp),%ecx
 100876b:	c1 e1 15             	shl    $0x15,%ecx
 100876e:	01 c8                	add    %ecx,%eax
 1008770:	89 45 fc             	mov    %eax,-0x4(%ebp)
 1008773:	e9 63 01 00 00       	jmp    10088db <virtMemMan_FindEmptyAddress+0x29b>
 1008778:	e9 1f 01 00 00       	jmp    100889c <virtMemMan_FindEmptyAddress+0x25c>
 100877d:	8b 45 e4             	mov    -0x1c(%ebp),%eax
 1008780:	8b 4d e8             	mov    -0x18(%ebp),%ecx
 1008783:	8b 04 c1             	mov    (%ecx,%eax,8),%eax
 1008786:	c1 e8 07             	shr    $0x7,%eax
 1008789:	83 e0 01             	and    $0x1,%eax
 100878c:	83 f8 00             	cmp    $0x0,%eax
 100878f:	0f 85 05 01 00 00    	jne    100889a <virtMemMan_FindEmptyAddress+0x25a>
 1008795:	81 7d f8 00 00 20 00 	cmpl   $0x200000,-0x8(%ebp)
 100879c:	0f 83 f8 00 00 00    	jae    100889a <virtMemMan_FindEmptyAddress+0x25a>
 10087a2:	8b 45 e8             	mov    -0x18(%ebp),%eax
 10087a5:	89 45 d8             	mov    %eax,-0x28(%ebp)
 10087a8:	8b 4d e4             	mov    -0x1c(%ebp),%ecx
 10087ab:	8b 04 c8             	mov    (%eax,%ecx,8),%eax
 10087ae:	25 00 f0 ff ff       	and    $0xfffff000,%eax
 10087b3:	89 45 d4             	mov    %eax,-0x2c(%ebp)
 10087b6:	8b 45 f8             	mov    -0x8(%ebp),%eax
 10087b9:	c1 e8 0c             	shr    $0xc,%eax
 10087bc:	89 45 f0             	mov    %eax,-0x10(%ebp)
 10087bf:	83 7d f0 00          	cmpl   $0x0,-0x10(%ebp)
 10087c3:	74 0b                	je     10087d0 <virtMemMan_FindEmptyAddress+0x190>
 10087c5:	8b 45 f0             	mov    -0x10(%ebp),%eax
 10087c8:	c1 e0 0c             	shl    $0xc,%eax
 10087cb:	3b 45 f8             	cmp    -0x8(%ebp),%eax
 10087ce:	73 09                	jae    10087d9 <virtMemMan_FindEmptyAddress+0x199>
 10087d0:	8b 45 f0             	mov    -0x10(%ebp),%eax
 10087d3:	83 c0 01             	add    $0x1,%eax
 10087d6:	89 45 f0             	mov    %eax,-0x10(%ebp)
 10087d9:	c7 45 d0 00 00 00 00 	movl   $0x0,-0x30(%ebp)
 10087e0:	81 7d d0 00 02 00 00 	cmpl   $0x200,-0x30(%ebp)
 10087e7:	0f 8d ab 00 00 00    	jge    1008898 <virtMemMan_FindEmptyAddress+0x258>
 10087ed:	8b 45 d0             	mov    -0x30(%ebp),%eax
 10087f0:	8b 4d d4             	mov    -0x2c(%ebp),%ecx
 10087f3:	8b 04 c1             	mov    (%ecx,%eax,8),%eax
 10087f6:	83 e0 01             	and    $0x1,%eax
 10087f9:	83 f8 00             	cmp    $0x0,%eax
 10087fc:	0f 85 86 00 00 00    	jne    1008888 <virtMemMan_FindEmptyAddress+0x248>
 1008802:	c7 45 cc 00 00 00 00 	movl   $0x0,-0x34(%ebp)
 1008809:	c7 45 c8 00 00 00 00 	movl   $0x0,-0x38(%ebp)
 1008810:	b0 00                	mov    $0x0,%al
 1008812:	8b 4d c8             	mov    -0x38(%ebp),%ecx
 1008815:	3b 4d f0             	cmp    -0x10(%ebp),%ecx
 1008818:	88 45 c6             	mov    %al,-0x3a(%ebp)
 100881b:	73 11                	jae    100882e <virtMemMan_FindEmptyAddress+0x1ee>
 100881d:	8b 45 d0             	mov    -0x30(%ebp),%eax
 1008820:	03 45 c8             	add    -0x38(%ebp),%eax
 1008823:	3d 00 02 00 00       	cmp    $0x200,%eax
 1008828:	0f 9c c1             	setl   %cl
 100882b:	88 4d c6             	mov    %cl,-0x3a(%ebp)
 100882e:	8a 45 c6             	mov    -0x3a(%ebp),%al
 1008831:	a8 01                	test   $0x1,%al
 1008833:	75 02                	jne    1008837 <virtMemMan_FindEmptyAddress+0x1f7>
 1008835:	eb 2c                	jmp    1008863 <virtMemMan_FindEmptyAddress+0x223>
 1008837:	8b 45 d0             	mov    -0x30(%ebp),%eax
 100883a:	8b 4d c8             	mov    -0x38(%ebp),%ecx
 100883d:	01 c8                	add    %ecx,%eax
 100883f:	8b 4d d4             	mov    -0x2c(%ebp),%ecx
 1008842:	8b 04 c1             	mov    (%ecx,%eax,8),%eax
 1008845:	83 e0 01             	and    $0x1,%eax
 1008848:	83 f8 00             	cmp    $0x0,%eax
 100884b:	75 09                	jne    1008856 <virtMemMan_FindEmptyAddress+0x216>
 100884d:	8b 45 cc             	mov    -0x34(%ebp),%eax
 1008850:	83 c0 01             	add    $0x1,%eax
 1008853:	89 45 cc             	mov    %eax,-0x34(%ebp)
 1008856:	eb 00                	jmp    1008858 <virtMemMan_FindEmptyAddress+0x218>
 1008858:	8b 45 c8             	mov    -0x38(%ebp),%eax
 100885b:	83 c0 01             	add    $0x1,%eax
 100885e:	89 45 c8             	mov    %eax,-0x38(%ebp)
 1008861:	eb ad                	jmp    1008810 <virtMemMan_FindEmptyAddress+0x1d0>
 1008863:	8b 45 cc             	mov    -0x34(%ebp),%eax
 1008866:	3b 45 f0             	cmp    -0x10(%ebp),%eax
 1008869:	72 1b                	jb     1008886 <virtMemMan_FindEmptyAddress+0x246>
 100886b:	8b 45 ec             	mov    -0x14(%ebp),%eax
 100886e:	c1 e0 1e             	shl    $0x1e,%eax
 1008871:	8b 4d e4             	mov    -0x1c(%ebp),%ecx
 1008874:	c1 e1 15             	shl    $0x15,%ecx
 1008877:	01 c8                	add    %ecx,%eax
 1008879:	8b 4d d0             	mov    -0x30(%ebp),%ecx
 100887c:	c1 e1 0c             	shl    $0xc,%ecx
 100887f:	01 c8                	add    %ecx,%eax
 1008881:	89 45 fc             	mov    %eax,-0x4(%ebp)
 1008884:	eb 55                	jmp    10088db <virtMemMan_FindEmptyAddress+0x29b>
 1008886:	eb 00                	jmp    1008888 <virtMemMan_FindEmptyAddress+0x248>
 1008888:	eb 00                	jmp    100888a <virtMemMan_FindEmptyAddress+0x24a>
 100888a:	8b 45 d0             	mov    -0x30(%ebp),%eax
 100888d:	83 c0 01             	add    $0x1,%eax
 1008890:	89 45 d0             	mov    %eax,-0x30(%ebp)
 1008893:	e9 48 ff ff ff       	jmp    10087e0 <virtMemMan_FindEmptyAddress+0x1a0>
 1008898:	eb 00                	jmp    100889a <virtMemMan_FindEmptyAddress+0x25a>
 100889a:	eb 00                	jmp    100889c <virtMemMan_FindEmptyAddress+0x25c>
 100889c:	eb 00                	jmp    100889e <virtMemMan_FindEmptyAddress+0x25e>
 100889e:	8b 45 e4             	mov    -0x1c(%ebp),%eax
 10088a1:	83 c0 01             	add    $0x1,%eax
 10088a4:	89 45 e4             	mov    %eax,-0x1c(%ebp)
 10088a7:	e9 2b fe ff ff       	jmp    10086d7 <virtMemMan_FindEmptyAddress+0x97>
 10088ac:	eb 16                	jmp    10088c4 <virtMemMan_FindEmptyAddress+0x284>
 10088ae:	81 7d f0 00 02 00 00 	cmpl   $0x200,-0x10(%ebp)
 10088b5:	77 0b                	ja     10088c2 <virtMemMan_FindEmptyAddress+0x282>
 10088b7:	8b 45 ec             	mov    -0x14(%ebp),%eax
 10088ba:	c1 e0 1e             	shl    $0x1e,%eax
 10088bd:	89 45 fc             	mov    %eax,-0x4(%ebp)
 10088c0:	eb 19                	jmp    10088db <virtMemMan_FindEmptyAddress+0x29b>
 10088c2:	eb 00                	jmp    10088c4 <virtMemMan_FindEmptyAddress+0x284>
 10088c4:	eb 00                	jmp    10088c6 <virtMemMan_FindEmptyAddress+0x286>
 10088c6:	8b 45 ec             	mov    -0x14(%ebp),%eax
 10088c9:	83 c0 01             	add    $0x1,%eax
 10088cc:	89 45 ec             	mov    %eax,-0x14(%ebp)
 10088cf:	e9 c7 fd ff ff       	jmp    100869b <virtMemMan_FindEmptyAddress+0x5b>
 10088d4:	c7 45 fc 00 00 00 00 	movl   $0x0,-0x4(%ebp)
 10088db:	8b 45 fc             	mov    -0x4(%ebp),%eax
 10088de:	83 c4 3c             	add    $0x3c,%esp
 10088e1:	5d                   	pop    %ebp
 10088e2:	c3                   	ret    
 10088e3:	8d b6 00 00 00 00    	lea    0x0(%esi),%esi
 10088e9:	8d bc 27 00 00 00 00 	lea    0x0(%edi,%eiz,1),%edi

010088f0 <virtMemMan_UnMap>:
 10088f0:	55                   	push   %ebp
 10088f1:	89 e5                	mov    %esp,%ebp
 10088f3:	56                   	push   %esi
 10088f4:	83 ec 3c             	sub    $0x3c,%esp
 10088f7:	8b 45 0c             	mov    0xc(%ebp),%eax
 10088fa:	8b 4d 08             	mov    0x8(%ebp),%ecx
 10088fd:	89 4d f8             	mov    %ecx,-0x8(%ebp)
 1008900:	89 45 f4             	mov    %eax,-0xc(%ebp)
 1008903:	83 7d f4 00          	cmpl   $0x0,-0xc(%ebp)
 1008907:	75 05                	jne    100890e <virtMemMan_UnMap+0x1e>
 1008909:	e9 03 02 00 00       	jmp    1008b11 <virtMemMan_UnMap+0x221>
 100890e:	8b 45 f8             	mov    -0x8(%ebp),%eax
 1008911:	89 45 f0             	mov    %eax,-0x10(%ebp)
 1008914:	c1 e8 1e             	shr    $0x1e,%eax
 1008917:	89 45 ec             	mov    %eax,-0x14(%ebp)
 100891a:	8b 4d f0             	mov    -0x10(%ebp),%ecx
 100891d:	c1 e0 1e             	shl    $0x1e,%eax
 1008920:	31 d2                	xor    %edx,%edx
 1008922:	29 c1                	sub    %eax,%ecx
 1008924:	83 da 00             	sbb    $0x0,%edx
 1008927:	0f a4 ca 0b          	shld   $0xb,%ecx,%edx
 100892b:	89 55 e8             	mov    %edx,-0x18(%ebp)
 100892e:	8b 45 f0             	mov    -0x10(%ebp),%eax
 1008931:	25 ff 0f 00 00       	and    $0xfff,%eax
 1008936:	89 45 e4             	mov    %eax,-0x1c(%ebp)
 1008939:	81 7d f4 00 00 20 00 	cmpl   $0x200000,-0xc(%ebp)
 1008940:	0f 82 d7 00 00 00    	jb     1008a1d <virtMemMan_UnMap+0x12d>
 1008946:	8b 45 f4             	mov    -0xc(%ebp),%eax
 1008949:	c1 e8 15             	shr    $0x15,%eax
 100894c:	89 45 e0             	mov    %eax,-0x20(%ebp)
 100894f:	83 7d e0 00          	cmpl   $0x0,-0x20(%ebp)
 1008953:	74 0b                	je     1008960 <virtMemMan_UnMap+0x70>
 1008955:	8b 45 e0             	mov    -0x20(%ebp),%eax
 1008958:	c1 e0 15             	shl    $0x15,%eax
 100895b:	3b 45 f4             	cmp    -0xc(%ebp),%eax
 100895e:	73 09                	jae    1008969 <virtMemMan_UnMap+0x79>
 1008960:	8b 45 e0             	mov    -0x20(%ebp),%eax
 1008963:	83 c0 01             	add    $0x1,%eax
 1008966:	89 45 e0             	mov    %eax,-0x20(%ebp)
 1008969:	8b 45 ec             	mov    -0x14(%ebp),%eax
 100896c:	8b 0d 00 f0 a8 04    	mov    0x4a8f000,%ecx
 1008972:	8b 04 c1             	mov    (%ecx,%eax,8),%eax
 1008975:	25 00 f0 ff ff       	and    $0xfffff000,%eax
 100897a:	89 45 dc             	mov    %eax,-0x24(%ebp)
 100897d:	c7 45 d8 00 00 00 00 	movl   $0x0,-0x28(%ebp)
 1008984:	b0 00                	mov    $0x0,%al
 1008986:	8b 4d d8             	mov    -0x28(%ebp),%ecx
 1008989:	3b 4d e0             	cmp    -0x20(%ebp),%ecx
 100898c:	88 45 c3             	mov    %al,-0x3d(%ebp)
 100898f:	73 11                	jae    10089a2 <virtMemMan_UnMap+0xb2>
 1008991:	8b 45 e8             	mov    -0x18(%ebp),%eax
 1008994:	03 45 d8             	add    -0x28(%ebp),%eax
 1008997:	3d 00 02 00 00       	cmp    $0x200,%eax
 100899c:	0f 92 c1             	setb   %cl
 100899f:	88 4d c3             	mov    %cl,-0x3d(%ebp)
 10089a2:	8a 45 c3             	mov    -0x3d(%ebp),%al
 10089a5:	a8 01                	test   $0x1,%al
 10089a7:	75 02                	jne    10089ab <virtMemMan_UnMap+0xbb>
 10089a9:	eb 6d                	jmp    1008a18 <virtMemMan_UnMap+0x128>
 10089ab:	8b 45 e8             	mov    -0x18(%ebp),%eax
 10089ae:	8b 4d d8             	mov    -0x28(%ebp),%ecx
 10089b1:	01 c8                	add    %ecx,%eax
 10089b3:	8b 4d dc             	mov    -0x24(%ebp),%ecx
 10089b6:	8b 54 c1 04          	mov    0x4(%ecx,%eax,8),%edx
 10089ba:	8b 34 c1             	mov    (%ecx,%eax,8),%esi
 10089bd:	83 e6 fe             	and    $0xfffffffe,%esi
 10089c0:	89 54 c1 04          	mov    %edx,0x4(%ecx,%eax,8)
 10089c4:	89 34 c1             	mov    %esi,(%ecx,%eax,8)
 10089c7:	8b 45 e8             	mov    -0x18(%ebp),%eax
 10089ca:	8b 4d d8             	mov    -0x28(%ebp),%ecx
 10089cd:	01 c8                	add    %ecx,%eax
 10089cf:	8b 4d dc             	mov    -0x24(%ebp),%ecx
 10089d2:	8b 54 c1 04          	mov    0x4(%ecx,%eax,8),%edx
 10089d6:	8b 34 c1             	mov    (%ecx,%eax,8),%esi
 10089d9:	81 e6 ff ff 1f 00    	and    $0x1fffff,%esi
 10089df:	81 e2 00 00 00 80    	and    $0x80000000,%edx
 10089e5:	89 54 c1 04          	mov    %edx,0x4(%ecx,%eax,8)
 10089e9:	89 34 c1             	mov    %esi,(%ecx,%eax,8)
 10089ec:	8b 45 ec             	mov    -0x14(%ebp),%eax
 10089ef:	89 c1                	mov    %eax,%ecx
 10089f1:	c1 e9 02             	shr    $0x2,%ecx
 10089f4:	c1 e0 1e             	shl    $0x1e,%eax
 10089f7:	8b 55 e8             	mov    -0x18(%ebp),%edx
 10089fa:	8b 75 d8             	mov    -0x28(%ebp),%esi
 10089fd:	01 f2                	add    %esi,%edx
 10089ff:	c1 e2 15             	shl    $0x15,%edx
 1008a02:	01 d0                	add    %edx,%eax
 1008a04:	83 d1 00             	adc    $0x0,%ecx
 1008a07:	0f 01 38             	invlpg (%eax)
 1008a0a:	8b 45 d8             	mov    -0x28(%ebp),%eax
 1008a0d:	83 c0 01             	add    $0x1,%eax
 1008a10:	89 45 d8             	mov    %eax,-0x28(%ebp)
 1008a13:	e9 6c ff ff ff       	jmp    1008984 <virtMemMan_UnMap+0x94>
 1008a18:	e9 f4 00 00 00       	jmp    1008b11 <virtMemMan_UnMap+0x221>
 1008a1d:	8b 45 f4             	mov    -0xc(%ebp),%eax
 1008a20:	c1 e8 0c             	shr    $0xc,%eax
 1008a23:	89 45 d4             	mov    %eax,-0x2c(%ebp)
 1008a26:	83 7d d4 00          	cmpl   $0x0,-0x2c(%ebp)
 1008a2a:	74 0b                	je     1008a37 <virtMemMan_UnMap+0x147>
 1008a2c:	8b 45 d4             	mov    -0x2c(%ebp),%eax
 1008a2f:	c1 e0 0c             	shl    $0xc,%eax
 1008a32:	3b 45 f4             	cmp    -0xc(%ebp),%eax
 1008a35:	73 09                	jae    1008a40 <virtMemMan_UnMap+0x150>
 1008a37:	8b 45 d4             	mov    -0x2c(%ebp),%eax
 1008a3a:	83 c0 01             	add    $0x1,%eax
 1008a3d:	89 45 d4             	mov    %eax,-0x2c(%ebp)
 1008a40:	8b 45 ec             	mov    -0x14(%ebp),%eax
 1008a43:	8b 0d 00 f0 a8 04    	mov    0x4a8f000,%ecx
 1008a49:	8b 04 c1             	mov    (%ecx,%eax,8),%eax
 1008a4c:	25 00 f0 ff ff       	and    $0xfffff000,%eax
 1008a51:	89 45 d0             	mov    %eax,-0x30(%ebp)
 1008a54:	8b 45 ec             	mov    -0x14(%ebp),%eax
 1008a57:	8b 0d 00 f0 a8 04    	mov    0x4a8f000,%ecx
 1008a5d:	8b 04 c1             	mov    (%ecx,%eax,8),%eax
 1008a60:	25 00 f0 ff ff       	and    $0xfffff000,%eax
 1008a65:	89 45 cc             	mov    %eax,-0x34(%ebp)
 1008a68:	8b 45 e8             	mov    -0x18(%ebp),%eax
 1008a6b:	8b 4d d0             	mov    -0x30(%ebp),%ecx
 1008a6e:	8b 04 c1             	mov    (%ecx,%eax,8),%eax
 1008a71:	c1 e8 07             	shr    $0x7,%eax
 1008a74:	83 e0 01             	and    $0x1,%eax
 1008a77:	83 f8 00             	cmp    $0x0,%eax
 1008a7a:	0f 85 8d 00 00 00    	jne    1008b0d <virtMemMan_UnMap+0x21d>
 1008a80:	8b 45 e8             	mov    -0x18(%ebp),%eax
 1008a83:	8b 4d cc             	mov    -0x34(%ebp),%ecx
 1008a86:	8b 04 c1             	mov    (%ecx,%eax,8),%eax
 1008a89:	25 00 f0 ff ff       	and    $0xfffff000,%eax
 1008a8e:	89 45 c8             	mov    %eax,-0x38(%ebp)
 1008a91:	c7 45 c4 00 00 00 00 	movl   $0x0,-0x3c(%ebp)
 1008a98:	b0 00                	mov    $0x0,%al
 1008a9a:	8b 4d c4             	mov    -0x3c(%ebp),%ecx
 1008a9d:	3b 4d d4             	cmp    -0x2c(%ebp),%ecx
 1008aa0:	88 45 c2             	mov    %al,-0x3e(%ebp)
 1008aa3:	73 11                	jae    1008ab6 <virtMemMan_UnMap+0x1c6>
 1008aa5:	8b 45 e4             	mov    -0x1c(%ebp),%eax
 1008aa8:	03 45 c4             	add    -0x3c(%ebp),%eax
 1008aab:	3d 00 02 00 00       	cmp    $0x200,%eax
 1008ab0:	0f 92 c1             	setb   %cl
 1008ab3:	88 4d c2             	mov    %cl,-0x3e(%ebp)
 1008ab6:	8a 45 c2             	mov    -0x3e(%ebp),%al
 1008ab9:	a8 01                	test   $0x1,%al
 1008abb:	75 02                	jne    1008abf <virtMemMan_UnMap+0x1cf>
 1008abd:	eb 4c                	jmp    1008b0b <virtMemMan_UnMap+0x21b>
 1008abf:	8b 45 e4             	mov    -0x1c(%ebp),%eax
 1008ac2:	8b 4d c4             	mov    -0x3c(%ebp),%ecx
 1008ac5:	01 c8                	add    %ecx,%eax
 1008ac7:	8b 4d c8             	mov    -0x38(%ebp),%ecx
 1008aca:	8b 54 c1 04          	mov    0x4(%ecx,%eax,8),%edx
 1008ace:	8b 34 c1             	mov    (%ecx,%eax,8),%esi
 1008ad1:	83 e6 fe             	and    $0xfffffffe,%esi
 1008ad4:	89 54 c1 04          	mov    %edx,0x4(%ecx,%eax,8)
 1008ad8:	89 34 c1             	mov    %esi,(%ecx,%eax,8)
 1008adb:	8b 45 e4             	mov    -0x1c(%ebp),%eax
 1008ade:	8b 4d c4             	mov    -0x3c(%ebp),%ecx
 1008ae1:	01 c8                	add    %ecx,%eax
 1008ae3:	8b 4d c8             	mov    -0x38(%ebp),%ecx
 1008ae6:	8b 54 c1 04          	mov    0x4(%ecx,%eax,8),%edx
 1008aea:	8b 34 c1             	mov    (%ecx,%eax,8),%esi
 1008aed:	81 e6 ff 0f 00 00    	and    $0xfff,%esi
 1008af3:	81 e2 00 00 f0 ff    	and    $0xfff00000,%edx
 1008af9:	89 54 c1 04          	mov    %edx,0x4(%ecx,%eax,8)
 1008afd:	89 34 c1             	mov    %esi,(%ecx,%eax,8)
 1008b00:	8b 45 c4             	mov    -0x3c(%ebp),%eax
 1008b03:	83 c0 01             	add    $0x1,%eax
 1008b06:	89 45 c4             	mov    %eax,-0x3c(%ebp)
 1008b09:	eb 8d                	jmp    1008a98 <virtMemMan_UnMap+0x1a8>
 1008b0b:	eb 02                	jmp    1008b0f <virtMemMan_UnMap+0x21f>
 1008b0d:	eb 00                	jmp    1008b0f <virtMemMan_UnMap+0x21f>
 1008b0f:	eb 00                	jmp    1008b11 <virtMemMan_UnMap+0x221>
 1008b11:	83 c4 3c             	add    $0x3c,%esp
 1008b14:	5e                   	pop    %esi
 1008b15:	5d                   	pop    %ebp
 1008b16:	c3                   	ret    
 1008b17:	89 f6                	mov    %esi,%esi
 1008b19:	8d bc 27 00 00 00 00 	lea    0x0(%edi,%eiz,1),%edi

01008b20 <virtMemMan_GetFreePDPTEntry>:
 1008b20:	55                   	push   %ebp
 1008b21:	89 e5                	mov    %esp,%ebp
 1008b23:	83 ec 0c             	sub    $0xc,%esp
 1008b26:	c7 45 f8 00 00 00 00 	movl   $0x0,-0x8(%ebp)
 1008b2d:	81 7d f8 00 18 00 00 	cmpl   $0x1800,-0x8(%ebp)
 1008b34:	73 3d                	jae    1008b73 <virtMemMan_GetFreePDPTEntry+0x53>
 1008b36:	8b 45 f8             	mov    -0x8(%ebp),%eax
 1008b39:	8b 0c c5 04 30 a8 04 	mov    0x4a83004(,%eax,8),%ecx
 1008b40:	8b 04 c5 00 30 a8 04 	mov    0x4a83000(,%eax,8),%eax
 1008b47:	21 c8                	and    %ecx,%eax
 1008b49:	83 e8 ff             	sub    $0xffffffff,%eax
 1008b4c:	89 45 f4             	mov    %eax,-0xc(%ebp)
 1008b4f:	75 15                	jne    1008b66 <virtMemMan_GetFreePDPTEntry+0x46>
 1008b51:	eb 00                	jmp    1008b53 <virtMemMan_GetFreePDPTEntry+0x33>
 1008b53:	8d 05 00 30 a8 04    	lea    0x4a83000,%eax
 1008b59:	8b 4d f8             	mov    -0x8(%ebp),%ecx
 1008b5c:	c1 e1 03             	shl    $0x3,%ecx
 1008b5f:	01 c8                	add    %ecx,%eax
 1008b61:	89 45 fc             	mov    %eax,-0x4(%ebp)
 1008b64:	eb 15                	jmp    1008b7b <virtMemMan_GetFreePDPTEntry+0x5b>
 1008b66:	eb 00                	jmp    1008b68 <virtMemMan_GetFreePDPTEntry+0x48>
 1008b68:	8b 45 f8             	mov    -0x8(%ebp),%eax
 1008b6b:	83 c0 04             	add    $0x4,%eax
 1008b6e:	89 45 f8             	mov    %eax,-0x8(%ebp)
 1008b71:	eb ba                	jmp    1008b2d <virtMemMan_GetFreePDPTEntry+0xd>
 1008b73:	b8 ff ff ff ff       	mov    $0xffffffff,%eax
 1008b78:	89 45 fc             	mov    %eax,-0x4(%ebp)
 1008b7b:	8b 45 fc             	mov    -0x4(%ebp),%eax
 1008b7e:	83 c4 0c             	add    $0xc,%esp
 1008b81:	5d                   	pop    %ebp
 1008b82:	c3                   	ret    
 1008b83:	8d b6 00 00 00 00    	lea    0x0(%esi),%esi
 1008b89:	8d bc 27 00 00 00 00 	lea    0x0(%edi,%eiz,1),%edi

01008b90 <virtMemMan_GetFreePageDirEntry>:
 1008b90:	55                   	push   %ebp
 1008b91:	89 e5                	mov    %esp,%ebp
 1008b93:	83 ec 0c             	sub    $0xc,%esp
 1008b96:	c7 45 f8 00 00 00 00 	movl   $0x0,-0x8(%ebp)
 1008b9d:	81 7d f8 00 00 20 01 	cmpl   $0x1200000,-0x8(%ebp)
 1008ba4:	73 38                	jae    1008bde <virtMemMan_GetFreePageDirEntry+0x4e>
 1008ba6:	8b 45 f8             	mov    -0x8(%ebp),%eax
 1008ba9:	8b 88 04 30 88 03    	mov    0x3883004(%eax),%ecx
 1008baf:	8b 80 00 30 88 03    	mov    0x3883000(%eax),%eax
 1008bb5:	21 c8                	and    %ecx,%eax
 1008bb7:	83 e8 ff             	sub    $0xffffffff,%eax
 1008bba:	89 45 f4             	mov    %eax,-0xc(%ebp)
 1008bbd:	75 10                	jne    1008bcf <virtMemMan_GetFreePageDirEntry+0x3f>
 1008bbf:	eb 00                	jmp    1008bc1 <virtMemMan_GetFreePageDirEntry+0x31>
 1008bc1:	8d 05 00 30 88 03    	lea    0x3883000,%eax
 1008bc7:	03 45 f8             	add    -0x8(%ebp),%eax
 1008bca:	89 45 fc             	mov    %eax,-0x4(%ebp)
 1008bcd:	eb 17                	jmp    1008be6 <virtMemMan_GetFreePageDirEntry+0x56>
 1008bcf:	eb 00                	jmp    1008bd1 <virtMemMan_GetFreePageDirEntry+0x41>
 1008bd1:	8b 45 f8             	mov    -0x8(%ebp),%eax
 1008bd4:	05 00 10 00 00       	add    $0x1000,%eax
 1008bd9:	89 45 f8             	mov    %eax,-0x8(%ebp)
 1008bdc:	eb bf                	jmp    1008b9d <virtMemMan_GetFreePageDirEntry+0xd>
 1008bde:	b8 ff ff ff ff       	mov    $0xffffffff,%eax
 1008be3:	89 45 fc             	mov    %eax,-0x4(%ebp)
 1008be6:	8b 45 fc             	mov    -0x4(%ebp),%eax
 1008be9:	83 c4 0c             	add    $0xc,%esp
 1008bec:	5d                   	pop    %ebp
 1008bed:	c3                   	ret    
 1008bee:	66 90                	xchg   %ax,%ax

01008bf0 <virtMemMan_FreeInstance>:
 1008bf0:	55                   	push   %ebp
 1008bf1:	89 e5                	mov    %esp,%ebp
 1008bf3:	56                   	push   %esi
 1008bf4:	83 ec 4c             	sub    $0x4c,%esp
 1008bf7:	8b 45 08             	mov    0x8(%ebp),%eax
 1008bfa:	89 45 f8             	mov    %eax,-0x8(%ebp)
 1008bfd:	8b 45 f8             	mov    -0x8(%ebp),%eax
 1008c00:	3b 05 00 f0 a8 04    	cmp    0x4a8f000,%eax
 1008c06:	0f 84 64 01 00 00    	je     1008d70 <virtMemMan_FreeInstance+0x180>
 1008c0c:	c7 45 f4 01 00 00 00 	movl   $0x1,-0xc(%ebp)
 1008c13:	83 7d f4 04          	cmpl   $0x4,-0xc(%ebp)
 1008c17:	0f 8d b4 00 00 00    	jge    1008cd1 <virtMemMan_FreeInstance+0xe1>
 1008c1d:	8b 45 f4             	mov    -0xc(%ebp),%eax
 1008c20:	8b 0d 00 f0 a8 04    	mov    0x4a8f000,%ecx
 1008c26:	8b 04 c1             	mov    (%ecx,%eax,8),%eax
 1008c29:	25 00 f0 ff ff       	and    $0xfffff000,%eax
 1008c2e:	89 45 f0             	mov    %eax,-0x10(%ebp)
 1008c31:	8b 45 f4             	mov    -0xc(%ebp),%eax
 1008c34:	8b 0d 00 f0 a8 04    	mov    0x4a8f000,%ecx
 1008c3a:	8b 04 c1             	mov    (%ecx,%eax,8),%eax
 1008c3d:	25 00 f0 ff ff       	and    $0xfffff000,%eax
 1008c42:	89 45 ec             	mov    %eax,-0x14(%ebp)
 1008c45:	c7 45 e8 00 00 00 00 	movl   $0x0,-0x18(%ebp)
 1008c4c:	81 7d e8 00 02 00 00 	cmpl   $0x200,-0x18(%ebp)
 1008c53:	7d 6c                	jge    1008cc1 <virtMemMan_FreeInstance+0xd1>
 1008c55:	8b 45 e8             	mov    -0x18(%ebp),%eax
 1008c58:	8b 4d f0             	mov    -0x10(%ebp),%ecx
 1008c5b:	8b 04 c1             	mov    (%ecx,%eax,8),%eax
 1008c5e:	83 e0 01             	and    $0x1,%eax
 1008c61:	83 f8 00             	cmp    $0x0,%eax
 1008c64:	74 4e                	je     1008cb4 <virtMemMan_FreeInstance+0xc4>
 1008c66:	8b 45 e8             	mov    -0x18(%ebp),%eax
 1008c69:	8b 4d f0             	mov    -0x10(%ebp),%ecx
 1008c6c:	8b 04 c1             	mov    (%ecx,%eax,8),%eax
 1008c6f:	c1 e8 07             	shr    $0x7,%eax
 1008c72:	83 e0 01             	and    $0x1,%eax
 1008c75:	83 f8 00             	cmp    $0x0,%eax
 1008c78:	75 3a                	jne    1008cb4 <virtMemMan_FreeInstance+0xc4>
 1008c7a:	b8 ff 00 00 00       	mov    $0xff,%eax
 1008c7f:	b9 00 10 00 00       	mov    $0x1000,%ecx
 1008c84:	8b 55 e8             	mov    -0x18(%ebp),%edx
 1008c87:	8b 75 ec             	mov    -0x14(%ebp),%esi
 1008c8a:	8b 14 d6             	mov    (%esi,%edx,8),%edx
 1008c8d:	81 e2 00 f0 ff ff    	and    $0xfffff000,%edx
 1008c93:	89 14 24             	mov    %edx,(%esp)
 1008c96:	c7 44 24 04 ff 00 00 	movl   $0xff,0x4(%esp)
 1008c9d:	00 
 1008c9e:	c7 44 24 08 00 10 00 	movl   $0x1000,0x8(%esp)
 1008ca5:	00 
 1008ca6:	89 45 e4             	mov    %eax,-0x1c(%ebp)
 1008ca9:	89 4d e0             	mov    %ecx,-0x20(%ebp)
 1008cac:	e8 4f ab ff ff       	call   1003800 <memset>
 1008cb1:	89 45 dc             	mov    %eax,-0x24(%ebp)
 1008cb4:	eb 00                	jmp    1008cb6 <virtMemMan_FreeInstance+0xc6>
 1008cb6:	8b 45 e8             	mov    -0x18(%ebp),%eax
 1008cb9:	83 c0 01             	add    $0x1,%eax
 1008cbc:	89 45 e8             	mov    %eax,-0x18(%ebp)
 1008cbf:	eb 8b                	jmp    1008c4c <virtMemMan_FreeInstance+0x5c>
 1008cc1:	eb 00                	jmp    1008cc3 <virtMemMan_FreeInstance+0xd3>
 1008cc3:	8b 45 f4             	mov    -0xc(%ebp),%eax
 1008cc6:	83 c0 01             	add    $0x1,%eax
 1008cc9:	89 45 f4             	mov    %eax,-0xc(%ebp)
 1008ccc:	e9 42 ff ff ff       	jmp    1008c13 <virtMemMan_FreeInstance+0x23>
 1008cd1:	b8 ff 00 00 00       	mov    $0xff,%eax
 1008cd6:	b9 00 10 00 00       	mov    $0x1000,%ecx
 1008cdb:	8b 55 f8             	mov    -0x8(%ebp),%edx
 1008cde:	8b 52 08             	mov    0x8(%edx),%edx
 1008ce1:	89 e6                	mov    %esp,%esi
 1008ce3:	89 16                	mov    %edx,(%esi)
 1008ce5:	c7 46 08 00 10 00 00 	movl   $0x1000,0x8(%esi)
 1008cec:	c7 46 04 ff 00 00 00 	movl   $0xff,0x4(%esi)
 1008cf3:	89 45 d8             	mov    %eax,-0x28(%ebp)
 1008cf6:	89 4d d4             	mov    %ecx,-0x2c(%ebp)
 1008cf9:	e8 02 ab ff ff       	call   1003800 <memset>
 1008cfe:	8b 4d f8             	mov    -0x8(%ebp),%ecx
 1008d01:	8b 49 10             	mov    0x10(%ecx),%ecx
 1008d04:	89 e2                	mov    %esp,%edx
 1008d06:	89 0a                	mov    %ecx,(%edx)
 1008d08:	c7 42 08 00 10 00 00 	movl   $0x1000,0x8(%edx)
 1008d0f:	c7 42 04 ff 00 00 00 	movl   $0xff,0x4(%edx)
 1008d16:	89 45 d0             	mov    %eax,-0x30(%ebp)
 1008d19:	e8 e2 aa ff ff       	call   1003800 <memset>
 1008d1e:	8b 4d f8             	mov    -0x8(%ebp),%ecx
 1008d21:	8b 49 18             	mov    0x18(%ecx),%ecx
 1008d24:	89 0c 24             	mov    %ecx,(%esp)
 1008d27:	c7 44 24 04 ff 00 00 	movl   $0xff,0x4(%esp)
 1008d2e:	00 
 1008d2f:	c7 44 24 08 00 10 00 	movl   $0x1000,0x8(%esp)
 1008d36:	00 
 1008d37:	89 45 cc             	mov    %eax,-0x34(%ebp)
 1008d3a:	e8 c1 aa ff ff       	call   1003800 <memset>
 1008d3f:	b9 ff 00 00 00       	mov    $0xff,%ecx
 1008d44:	ba 20 00 00 00       	mov    $0x20,%edx
 1008d49:	8b 75 f8             	mov    -0x8(%ebp),%esi
 1008d4c:	89 34 24             	mov    %esi,(%esp)
 1008d4f:	c7 44 24 04 ff 00 00 	movl   $0xff,0x4(%esp)
 1008d56:	00 
 1008d57:	c7 44 24 08 20 00 00 	movl   $0x20,0x8(%esp)
 1008d5e:	00 
 1008d5f:	89 45 c8             	mov    %eax,-0x38(%ebp)
 1008d62:	89 4d c4             	mov    %ecx,-0x3c(%ebp)
 1008d65:	89 55 c0             	mov    %edx,-0x40(%ebp)
 1008d68:	e8 93 aa ff ff       	call   1003800 <memset>
 1008d6d:	89 45 bc             	mov    %eax,-0x44(%ebp)
 1008d70:	83 c4 4c             	add    $0x4c,%esp
 1008d73:	5e                   	pop    %esi
 1008d74:	5d                   	pop    %ebp
 1008d75:	c3                   	ret    
 1008d76:	66 90                	xchg   %ax,%ax
 1008d78:	66 90                	xchg   %ax,%ax
 1008d7a:	66 90                	xchg   %ax,%ax
 1008d7c:	66 90                	xchg   %ax,%ax
 1008d7e:	66 90                	xchg   %ax,%ax

01008d80 <HPET_Initialize>:
 1008d80:	55                   	push   %ebp
 1008d81:	89 e5                	mov    %esp,%ebp
 1008d83:	53                   	push   %ebx
 1008d84:	56                   	push   %esi
 1008d85:	83 e4 f8             	and    $0xfffffff8,%esp
 1008d88:	83 ec 28             	sub    $0x28,%esp
 1008d8b:	c7 05 20 f0 a8 04 00 	movl   $0x0,0x4a8f020
 1008d92:	00 00 00 
 1008d95:	89 e0                	mov    %esp,%eax
 1008d97:	c7 40 04 00 00 00 00 	movl   $0x0,0x4(%eax)
 1008d9e:	c7 00 d8 45 7f 01    	movl   $0x17f45d8,(%eax)
 1008da4:	e8 87 81 ff ff       	call   1000f30 <ACPITables_FindTable>
 1008da9:	a3 10 f0 a8 04       	mov    %eax,0x4a8f010
 1008dae:	c7 05 0c f0 a8 04 00 	movl   $0x0,0x4a8f00c
 1008db5:	00 00 00 
 1008db8:	c7 05 08 f0 a8 04 00 	movl   $0x0,0x4a8f008
 1008dbf:	00 00 00 
 1008dc2:	83 3d 10 f0 a8 04 00 	cmpl   $0x0,0x4a8f010
 1008dc9:	75 0a                	jne    1008dd5 <HPET_Initialize+0x55>
 1008dcb:	c6 44 24 27 ff       	movb   $0xff,0x27(%esp)
 1008dd0:	e9 c6 00 00 00       	jmp    1008e9b <HPET_Initialize+0x11b>
 1008dd5:	a1 10 f0 a8 04       	mov    0x4a8f010,%eax
 1008dda:	8b 40 34             	mov    0x34(%eax),%eax
 1008ddd:	a3 20 f0 a8 04       	mov    %eax,0x4a8f020
 1008de2:	89 e1                	mov    %esp,%ecx
 1008de4:	89 41 04             	mov    %eax,0x4(%ecx)
 1008de7:	c7 01 dd 45 7f 01    	movl   $0x17f45dd,(%ecx)
 1008ded:	e8 2e 7f ff ff       	call   1000d20 <COM_WriteStr>
 1008df2:	89 e1                	mov    %esp,%ecx
 1008df4:	c7 01 00 00 00 00    	movl   $0x0,(%ecx)
 1008dfa:	89 44 24 10          	mov    %eax,0x10(%esp)
 1008dfe:	e8 ad 00 00 00       	call   1008eb0 <HPET_Read>
 1008e03:	89 15 1c f0 a8 04    	mov    %edx,0x4a8f01c
 1008e09:	a3 18 f0 a8 04       	mov    %eax,0x4a8f018
 1008e0e:	25 00 0f 00 00       	and    $0xf00,%eax
 1008e13:	c1 e8 08             	shr    $0x8,%eax
 1008e16:	40                   	inc    %eax
 1008e17:	88 c3                	mov    %al,%bl
 1008e19:	88 1d b0 f0 a8 04    	mov    %bl,0x4a8f0b0
 1008e1f:	c7 44 24 1c 00 00 00 	movl   $0x0,0x1c(%esp)
 1008e26:	00 
 1008e27:	c7 44 24 18 0a 00 00 	movl   $0xa,0x18(%esp)
 1008e2e:	00 
 1008e2f:	c7 44 24 14 00 00 00 	movl   $0x0,0x14(%esp)
 1008e36:	00 
 1008e37:	83 7c 24 14 0f       	cmpl   $0xf,0x14(%esp)
 1008e3c:	7d 29                	jge    1008e67 <HPET_Initialize+0xe7>
 1008e3e:	8b 44 24 18          	mov    0x18(%esp),%eax
 1008e42:	8b 4c 24 1c          	mov    0x1c(%esp),%ecx
 1008e46:	ba 0a 00 00 00       	mov    $0xa,%edx
 1008e4b:	f7 e2                	mul    %edx
 1008e4d:	6b c9 0a             	imul   $0xa,%ecx,%ecx
 1008e50:	01 ca                	add    %ecx,%edx
 1008e52:	89 44 24 18          	mov    %eax,0x18(%esp)
 1008e56:	89 54 24 1c          	mov    %edx,0x1c(%esp)
 1008e5a:	8b 44 24 14          	mov    0x14(%esp),%eax
 1008e5e:	83 c0 01             	add    $0x1,%eax
 1008e61:	89 44 24 14          	mov    %eax,0x14(%esp)
 1008e65:	eb d0                	jmp    1008e37 <HPET_Initialize+0xb7>
 1008e67:	8b 44 24 18          	mov    0x18(%esp),%eax
 1008e6b:	8b 4c 24 1c          	mov    0x1c(%esp),%ecx
 1008e6f:	8b 15 1c f0 a8 04    	mov    0x4a8f01c,%edx
 1008e75:	89 e6                	mov    %esp,%esi
 1008e77:	89 56 08             	mov    %edx,0x8(%esi)
 1008e7a:	89 4e 04             	mov    %ecx,0x4(%esi)
 1008e7d:	89 06                	mov    %eax,(%esi)
 1008e7f:	c7 46 0c 00 00 00 00 	movl   $0x0,0xc(%esi)
 1008e86:	e8 e5 18 00 00       	call   100a770 <__udivdi3>
 1008e8b:	89 15 0c f0 a8 04    	mov    %edx,0x4a8f00c
 1008e91:	a3 08 f0 a8 04       	mov    %eax,0x4a8f008
 1008e96:	c6 44 24 27 00       	movb   $0x0,0x27(%esp)
 1008e9b:	0f b6 44 24 27       	movzbl 0x27(%esp),%eax
 1008ea0:	8d 65 f8             	lea    -0x8(%ebp),%esp
 1008ea3:	5e                   	pop    %esi
 1008ea4:	5b                   	pop    %ebx
 1008ea5:	5d                   	pop    %ebp
 1008ea6:	c3                   	ret    
 1008ea7:	89 f6                	mov    %esi,%esi
 1008ea9:	8d bc 27 00 00 00 00 	lea    0x0(%edi,%eiz,1),%edi

01008eb0 <HPET_Read>:
 1008eb0:	55                   	push   %ebp
 1008eb1:	89 e5                	mov    %esp,%ebp
 1008eb3:	83 ec 08             	sub    $0x8,%esp
 1008eb6:	8b 45 08             	mov    0x8(%ebp),%eax
 1008eb9:	89 45 fc             	mov    %eax,-0x4(%ebp)
 1008ebc:	83 e0 f8             	and    $0xfffffff8,%eax
 1008ebf:	8b 0d 20 f0 a8 04    	mov    0x4a8f020,%ecx
 1008ec5:	8b 14 01             	mov    (%ecx,%eax,1),%edx
 1008ec8:	8b 44 01 04          	mov    0x4(%ecx,%eax,1),%eax
 1008ecc:	89 45 f8             	mov    %eax,-0x8(%ebp)
 1008ecf:	89 d0                	mov    %edx,%eax
 1008ed1:	8b 55 f8             	mov    -0x8(%ebp),%edx
 1008ed4:	83 c4 08             	add    $0x8,%esp
 1008ed7:	5d                   	pop    %ebp
 1008ed8:	c3                   	ret    
 1008ed9:	8d b4 26 00 00 00 00 	lea    0x0(%esi,%eiz,1),%esi

01008ee0 <HPET_GetTimerCount>:
 1008ee0:	55                   	push   %ebp
 1008ee1:	89 e5                	mov    %esp,%ebp
 1008ee3:	0f b6 05 b0 f0 a8 04 	movzbl 0x4a8f0b0,%eax
 1008eea:	5d                   	pop    %ebp
 1008eeb:	c3                   	ret    
 1008eec:	8d 74 26 00          	lea    0x0(%esi,%eiz,1),%esi

01008ef0 <HPET_GetFrequency>:
 1008ef0:	55                   	push   %ebp
 1008ef1:	89 e5                	mov    %esp,%ebp
 1008ef3:	a1 08 f0 a8 04       	mov    0x4a8f008,%eax
 1008ef8:	8b 15 0c f0 a8 04    	mov    0x4a8f00c,%edx
 1008efe:	5d                   	pop    %ebp
 1008eff:	c3                   	ret    

01008f00 <HPET_SetEnable>:
 1008f00:	55                   	push   %ebp
 1008f01:	89 e5                	mov    %esp,%ebp
 1008f03:	83 e4 f8             	and    $0xfffffff8,%esp
 1008f06:	83 ec 20             	sub    $0x20,%esp
 1008f09:	8b 45 08             	mov    0x8(%ebp),%eax
 1008f0c:	89 44 24 1c          	mov    %eax,0x1c(%esp)
 1008f10:	89 e0                	mov    %esp,%eax
 1008f12:	c7 00 10 00 00 00    	movl   $0x10,(%eax)
 1008f18:	e8 93 ff ff ff       	call   1008eb0 <HPET_Read>
 1008f1d:	89 54 24 14          	mov    %edx,0x14(%esp)
 1008f21:	89 44 24 10          	mov    %eax,0x10(%esp)
 1008f25:	8b 4c 24 1c          	mov    0x1c(%esp),%ecx
 1008f29:	f7 d9                	neg    %ecx
 1008f2b:	31 c1                	xor    %eax,%ecx
 1008f2d:	83 e1 01             	and    $0x1,%ecx
 1008f30:	31 c8                	xor    %ecx,%eax
 1008f32:	89 54 24 14          	mov    %edx,0x14(%esp)
 1008f36:	89 44 24 10          	mov    %eax,0x10(%esp)
 1008f3a:	89 c1                	mov    %eax,%ecx
 1008f3c:	f7 d1                	not    %ecx
 1008f3e:	83 e1 02             	and    $0x2,%ecx
 1008f41:	31 c8                	xor    %ecx,%eax
 1008f43:	89 54 24 14          	mov    %edx,0x14(%esp)
 1008f47:	89 44 24 10          	mov    %eax,0x10(%esp)
 1008f4b:	89 e1                	mov    %esp,%ecx
 1008f4d:	89 51 08             	mov    %edx,0x8(%ecx)
 1008f50:	89 41 04             	mov    %eax,0x4(%ecx)
 1008f53:	c7 01 10 00 00 00    	movl   $0x10,(%ecx)
 1008f59:	e8 12 00 00 00       	call   1008f70 <HPET_Write>
 1008f5e:	89 ec                	mov    %ebp,%esp
 1008f60:	5d                   	pop    %ebp
 1008f61:	c3                   	ret    
 1008f62:	8d b4 26 00 00 00 00 	lea    0x0(%esi,%eiz,1),%esi
 1008f69:	8d bc 27 00 00 00 00 	lea    0x0(%edi,%eiz,1),%edi

01008f70 <HPET_Write>:
 1008f70:	55                   	push   %ebp
 1008f71:	89 e5                	mov    %esp,%ebp
 1008f73:	83 e4 f8             	and    $0xfffffff8,%esp
 1008f76:	83 ec 10             	sub    $0x10,%esp
 1008f79:	8b 45 10             	mov    0x10(%ebp),%eax
 1008f7c:	8b 4d 0c             	mov    0xc(%ebp),%ecx
 1008f7f:	8b 55 08             	mov    0x8(%ebp),%edx
 1008f82:	89 54 24 0c          	mov    %edx,0xc(%esp)
 1008f86:	89 44 24 04          	mov    %eax,0x4(%esp)
 1008f8a:	89 0c 24             	mov    %ecx,(%esp)
 1008f8d:	f2 0f 10 04 24       	movsd  (%esp),%xmm0
 1008f92:	8b 44 24 0c          	mov    0xc(%esp),%eax
 1008f96:	83 e0 f8             	and    $0xfffffff8,%eax
 1008f99:	8b 0d 20 f0 a8 04    	mov    0x4a8f020,%ecx
 1008f9f:	f2 0f 11 04 01       	movsd  %xmm0,(%ecx,%eax,1)
 1008fa4:	89 ec                	mov    %ebp,%esp
 1008fa6:	5d                   	pop    %ebp
 1008fa7:	c3                   	ret    
 1008fa8:	90                   	nop
 1008fa9:	8d b4 26 00 00 00 00 	lea    0x0(%esi,%eiz,1),%esi

01008fb0 <HPET_GetGlobalCounter>:
 1008fb0:	55                   	push   %ebp
 1008fb1:	89 e5                	mov    %esp,%ebp
 1008fb3:	83 e4 f8             	and    $0xfffffff8,%esp
 1008fb6:	83 ec 10             	sub    $0x10,%esp
 1008fb9:	83 3d 10 f0 a8 04 00 	cmpl   $0x0,0x4a8f010
 1008fc0:	74 17                	je     1008fd9 <HPET_GetGlobalCounter+0x29>
 1008fc2:	89 e0                	mov    %esp,%eax
 1008fc4:	c7 00 f0 00 00 00    	movl   $0xf0,(%eax)
 1008fca:	e8 e1 fe ff ff       	call   1008eb0 <HPET_Read>
 1008fcf:	89 54 24 0c          	mov    %edx,0xc(%esp)
 1008fd3:	89 44 24 08          	mov    %eax,0x8(%esp)
 1008fd7:	eb 10                	jmp    1008fe9 <HPET_GetGlobalCounter+0x39>
 1008fd9:	c7 44 24 0c 00 00 00 	movl   $0x0,0xc(%esp)
 1008fe0:	00 
 1008fe1:	c7 44 24 08 00 00 00 	movl   $0x0,0x8(%esp)
 1008fe8:	00 
 1008fe9:	8b 44 24 08          	mov    0x8(%esp),%eax
 1008fed:	8b 54 24 0c          	mov    0xc(%esp),%edx
 1008ff1:	89 ec                	mov    %ebp,%esp
 1008ff3:	5d                   	pop    %ebp
 1008ff4:	c3                   	ret    
 1008ff5:	8d 74 26 00          	lea    0x0(%esi,%eiz,1),%esi
 1008ff9:	8d bc 27 00 00 00 00 	lea    0x0(%edi,%eiz,1),%edi

01009000 <HPET_SetGlobalCounter>:
 1009000:	55                   	push   %ebp
 1009001:	89 e5                	mov    %esp,%ebp
 1009003:	83 e4 f8             	and    $0xfffffff8,%esp
 1009006:	83 ec 18             	sub    $0x18,%esp
 1009009:	8b 45 0c             	mov    0xc(%ebp),%eax
 100900c:	8b 4d 08             	mov    0x8(%ebp),%ecx
 100900f:	89 4c 24 10          	mov    %ecx,0x10(%esp)
 1009013:	89 44 24 14          	mov    %eax,0x14(%esp)
 1009017:	83 3d 10 f0 a8 04 00 	cmpl   $0x0,0x4a8f010
 100901e:	74 1b                	je     100903b <HPET_SetGlobalCounter+0x3b>
 1009020:	8b 44 24 10          	mov    0x10(%esp),%eax
 1009024:	8b 4c 24 14          	mov    0x14(%esp),%ecx
 1009028:	89 e2                	mov    %esp,%edx
 100902a:	89 4a 08             	mov    %ecx,0x8(%edx)
 100902d:	89 42 04             	mov    %eax,0x4(%edx)
 1009030:	c7 02 f0 00 00 00    	movl   $0xf0,(%edx)
 1009036:	e8 35 ff ff ff       	call   1008f70 <HPET_Write>
 100903b:	89 ec                	mov    %ebp,%esp
 100903d:	5d                   	pop    %ebp
 100903e:	c3                   	ret    
 100903f:	90                   	nop

01009040 <HPET_GetSupportedIRQs>:
 1009040:	55                   	push   %ebp
 1009041:	89 e5                	mov    %esp,%ebp
 1009043:	83 ec 0c             	sub    $0xc,%esp
 1009046:	8a 45 08             	mov    0x8(%ebp),%al
 1009049:	88 45 ff             	mov    %al,-0x1(%ebp)
 100904c:	0f b6 4d ff          	movzbl -0x1(%ebp),%ecx
 1009050:	c1 e1 05             	shl    $0x5,%ecx
 1009053:	89 ca                	mov    %ecx,%edx
 1009055:	81 c2 07 01 00 00    	add    $0x107,%edx
 100905b:	f7 da                	neg    %edx
 100905d:	8d 8c 11 00 01 00 00 	lea    0x100(%ecx,%edx,1),%ecx
 1009064:	89 e2                	mov    %esp,%edx
 1009066:	89 0a                	mov    %ecx,(%edx)
 1009068:	e8 43 fe ff ff       	call   1008eb0 <HPET_Read>
 100906d:	89 45 f8             	mov    %eax,-0x8(%ebp)
 1009070:	89 d0                	mov    %edx,%eax
 1009072:	83 c4 0c             	add    $0xc,%esp
 1009075:	5d                   	pop    %ebp
 1009076:	c3                   	ret    
 1009077:	89 f6                	mov    %esi,%esi
 1009079:	8d bc 27 00 00 00 00 	lea    0x0(%edi,%eiz,1),%edi

01009080 <HPET_IsPeriodicCapable>:
 1009080:	55                   	push   %ebp
 1009081:	89 e5                	mov    %esp,%ebp
 1009083:	53                   	push   %ebx
 1009084:	83 ec 0c             	sub    $0xc,%esp
 1009087:	8a 45 08             	mov    0x8(%ebp),%al
 100908a:	88 45 fb             	mov    %al,-0x5(%ebp)
 100908d:	0f b6 4d fb          	movzbl -0x5(%ebp),%ecx
 1009091:	c1 e1 05             	shl    $0x5,%ecx
 1009094:	89 ca                	mov    %ecx,%edx
 1009096:	81 c2 07 01 00 00    	add    $0x107,%edx
 100909c:	f7 da                	neg    %edx
 100909e:	8d 8c 11 00 01 00 00 	lea    0x100(%ecx,%edx,1),%ecx
 10090a5:	89 e2                	mov    %esp,%edx
 10090a7:	89 0a                	mov    %ecx,(%edx)
 10090a9:	e8 02 fe ff ff       	call   1008eb0 <HPET_Read>
 10090ae:	c1 e8 04             	shr    $0x4,%eax
 10090b1:	83 e0 01             	and    $0x1,%eax
 10090b4:	88 c3                	mov    %al,%bl
 10090b6:	0f b6 c3             	movzbl %bl,%eax
 10090b9:	89 55 f4             	mov    %edx,-0xc(%ebp)
 10090bc:	83 c4 0c             	add    $0xc,%esp
 10090bf:	5b                   	pop    %ebx
 10090c0:	5d                   	pop    %ebp
 10090c1:	c3                   	ret    
 10090c2:	8d b4 26 00 00 00 00 	lea    0x0(%esi,%eiz,1),%esi
 10090c9:	8d bc 27 00 00 00 00 	lea    0x0(%edi,%eiz,1),%edi

010090d0 <HPET_SetTimerConfig>:
 10090d0:	55                   	push   %ebp
 10090d1:	89 e5                	mov    %esp,%ebp
 10090d3:	53                   	push   %ebx
 10090d4:	57                   	push   %edi
 10090d5:	56                   	push   %esi
 10090d6:	83 e4 f8             	and    $0xfffffff8,%esp
 10090d9:	83 ec 30             	sub    $0x30,%esp
 10090dc:	8b 45 20             	mov    0x20(%ebp),%eax
 10090df:	8b 4d 1c             	mov    0x1c(%ebp),%ecx
 10090e2:	8a 55 18             	mov    0x18(%ebp),%dl
 10090e5:	8a 75 14             	mov    0x14(%ebp),%dh
 10090e8:	8a 5d 10             	mov    0x10(%ebp),%bl
 10090eb:	8a 7d 0c             	mov    0xc(%ebp),%bh
 10090ee:	89 44 24 0c          	mov    %eax,0xc(%esp)
 10090f2:	8a 45 08             	mov    0x8(%ebp),%al
 10090f5:	88 44 24 2b          	mov    %al,0x2b(%esp)
 10090f9:	88 7c 24 2a          	mov    %bh,0x2a(%esp)
 10090fd:	88 5c 24 29          	mov    %bl,0x29(%esp)
 1009101:	88 74 24 28          	mov    %dh,0x28(%esp)
 1009105:	88 54 24 27          	mov    %dl,0x27(%esp)
 1009109:	8b 74 24 0c          	mov    0xc(%esp),%esi
 100910d:	89 74 24 1c          	mov    %esi,0x1c(%esp)
 1009111:	89 4c 24 18          	mov    %ecx,0x18(%esp)
 1009115:	0f b6 4c 24 2b       	movzbl 0x2b(%esp),%ecx
 100911a:	c1 e1 05             	shl    $0x5,%ecx
 100911d:	89 cf                	mov    %ecx,%edi
 100911f:	81 c7 07 01 00 00    	add    $0x107,%edi
 1009125:	f7 df                	neg    %edi
 1009127:	8d 8c 39 00 01 00 00 	lea    0x100(%ecx,%edi,1),%ecx
 100912e:	89 e7                	mov    %esp,%edi
 1009130:	89 0f                	mov    %ecx,(%edi)
 1009132:	e8 79 fd ff ff       	call   1008eb0 <HPET_Read>
 1009137:	89 54 24 14          	mov    %edx,0x14(%esp)
 100913b:	89 44 24 10          	mov    %eax,0x10(%esp)
 100913f:	25 ff e1 ff ff       	and    $0xffffe1ff,%eax
 1009144:	89 54 24 14          	mov    %edx,0x14(%esp)
 1009148:	89 44 24 10          	mov    %eax,0x10(%esp)
 100914c:	0f b6 4c 24 2a       	movzbl 0x2a(%esp),%ecx
 1009151:	83 e1 0f             	and    $0xf,%ecx
 1009154:	c1 e1 09             	shl    $0x9,%ecx
 1009157:	09 c8                	or     %ecx,%eax
 1009159:	89 54 24 14          	mov    %edx,0x14(%esp)
 100915d:	89 44 24 10          	mov    %eax,0x10(%esp)
 1009161:	89 c1                	mov    %eax,%ecx
 1009163:	83 e1 fd             	and    $0xfffffffd,%ecx
 1009166:	89 54 24 14          	mov    %edx,0x14(%esp)
 100916a:	89 4c 24 10          	mov    %ecx,0x10(%esp)
 100916e:	83 e0 f9             	and    $0xfffffff9,%eax
 1009171:	89 54 24 14          	mov    %edx,0x14(%esp)
 1009175:	89 44 24 10          	mov    %eax,0x10(%esp)
 1009179:	0f b6 4c 24 29       	movzbl 0x29(%esp),%ecx
 100917e:	83 e1 01             	and    $0x1,%ecx
 1009181:	c1 e1 02             	shl    $0x2,%ecx
 1009184:	09 c8                	or     %ecx,%eax
 1009186:	89 54 24 14          	mov    %edx,0x14(%esp)
 100918a:	89 44 24 10          	mov    %eax,0x10(%esp)
 100918e:	83 e0 f5             	and    $0xfffffff5,%eax
 1009191:	89 54 24 14          	mov    %edx,0x14(%esp)
 1009195:	89 44 24 10          	mov    %eax,0x10(%esp)
 1009199:	0f b6 4c 24 28       	movzbl 0x28(%esp),%ecx
 100919e:	83 e1 01             	and    $0x1,%ecx
 10091a1:	c1 e1 03             	shl    $0x3,%ecx
 10091a4:	09 c8                	or     %ecx,%eax
 10091a6:	89 54 24 14          	mov    %edx,0x14(%esp)
 10091aa:	89 44 24 10          	mov    %eax,0x10(%esp)
 10091ae:	83 e0 bd             	and    $0xffffffbd,%eax
 10091b1:	89 54 24 14          	mov    %edx,0x14(%esp)
 10091b5:	89 44 24 10          	mov    %eax,0x10(%esp)
 10091b9:	0f b6 4c 24 27       	movzbl 0x27(%esp),%ecx
 10091be:	83 e1 01             	and    $0x1,%ecx
 10091c1:	c1 e1 06             	shl    $0x6,%ecx
 10091c4:	09 c8                	or     %ecx,%eax
 10091c6:	89 54 24 14          	mov    %edx,0x14(%esp)
 10091ca:	89 44 24 10          	mov    %eax,0x10(%esp)
 10091ce:	0f b6 4c 24 2b       	movzbl 0x2b(%esp),%ecx
 10091d3:	c1 e1 05             	shl    $0x5,%ecx
 10091d6:	89 ce                	mov    %ecx,%esi
 10091d8:	81 c6 07 01 00 00    	add    $0x107,%esi
 10091de:	f7 de                	neg    %esi
 10091e0:	8d 8c 31 00 01 00 00 	lea    0x100(%ecx,%esi,1),%ecx
 10091e7:	89 e6                	mov    %esp,%esi
 10091e9:	89 56 08             	mov    %edx,0x8(%esi)
 10091ec:	89 46 04             	mov    %eax,0x4(%esi)
 10091ef:	89 0e                	mov    %ecx,(%esi)
 10091f1:	e8 7a fd ff ff       	call   1008f70 <HPET_Write>
 10091f6:	0f b6 44 24 2b       	movzbl 0x2b(%esp),%eax
 10091fb:	c1 e0 05             	shl    $0x5,%eax
 10091fe:	89 c1                	mov    %eax,%ecx
 1009200:	81 c1 0f 01 00 00    	add    $0x10f,%ecx
 1009206:	f7 d9                	neg    %ecx
 1009208:	8d 84 08 08 01 00 00 	lea    0x108(%eax,%ecx,1),%eax
 100920f:	8b 4c 24 18          	mov    0x18(%esp),%ecx
 1009213:	8b 54 24 1c          	mov    0x1c(%esp),%edx
 1009217:	89 e6                	mov    %esp,%esi
 1009219:	89 56 08             	mov    %edx,0x8(%esi)
 100921c:	89 4e 04             	mov    %ecx,0x4(%esi)
 100921f:	89 06                	mov    %eax,(%esi)
 1009221:	e8 4a fd ff ff       	call   1008f70 <HPET_Write>
 1009226:	8d 65 f4             	lea    -0xc(%ebp),%esp
 1009229:	5e                   	pop    %esi
 100922a:	5f                   	pop    %edi
 100922b:	5b                   	pop    %ebx
 100922c:	5d                   	pop    %ebp
 100922d:	c3                   	ret    
 100922e:	66 90                	xchg   %ax,%ax

01009230 <pci_readDWord>:
 1009230:	55                   	push   %ebp
 1009231:	89 e5                	mov    %esp,%ebp
 1009233:	57                   	push   %edi
 1009234:	56                   	push   %esi
 1009235:	83 ec 20             	sub    $0x20,%esp
 1009238:	8b 45 14             	mov    0x14(%ebp),%eax
 100923b:	8b 4d 10             	mov    0x10(%ebp),%ecx
 100923e:	8b 55 0c             	mov    0xc(%ebp),%edx
 1009241:	8b 75 08             	mov    0x8(%ebp),%esi
 1009244:	bf f8 0c 00 00       	mov    $0xcf8,%edi
 1009249:	89 75 f4             	mov    %esi,-0xc(%ebp)
 100924c:	89 55 f0             	mov    %edx,-0x10(%ebp)
 100924f:	89 4d ec             	mov    %ecx,-0x14(%ebp)
 1009252:	89 45 e8             	mov    %eax,-0x18(%ebp)
 1009255:	8b 45 f4             	mov    -0xc(%ebp),%eax
 1009258:	c1 e0 10             	shl    $0x10,%eax
 100925b:	0d 00 00 00 80       	or     $0x80000000,%eax
 1009260:	8b 4d f0             	mov    -0x10(%ebp),%ecx
 1009263:	c1 e1 0b             	shl    $0xb,%ecx
 1009266:	09 c8                	or     %ecx,%eax
 1009268:	8b 4d ec             	mov    -0x14(%ebp),%ecx
 100926b:	c1 e1 08             	shl    $0x8,%ecx
 100926e:	09 c8                	or     %ecx,%eax
 1009270:	8b 4d e8             	mov    -0x18(%ebp),%ecx
 1009273:	81 e1 fc 00 00 00    	and    $0xfc,%ecx
 1009279:	09 c8                	or     %ecx,%eax
 100927b:	c7 04 24 f8 0c 00 00 	movl   $0xcf8,(%esp)
 1009282:	89 44 24 04          	mov    %eax,0x4(%esp)
 1009286:	89 7d e4             	mov    %edi,-0x1c(%ebp)
 1009289:	e8 52 a4 ff ff       	call   10036e0 <outl>
 100928e:	b8 fc 0c 00 00       	mov    $0xcfc,%eax
 1009293:	c7 04 24 fc 0c 00 00 	movl   $0xcfc,(%esp)
 100929a:	89 45 e0             	mov    %eax,-0x20(%ebp)
 100929d:	e8 6e a4 ff ff       	call   1003710 <inl>
 10092a2:	83 c4 20             	add    $0x20,%esp
 10092a5:	5e                   	pop    %esi
 10092a6:	5f                   	pop    %edi
 10092a7:	5d                   	pop    %ebp
 10092a8:	c3                   	ret    
 10092a9:	8d b4 26 00 00 00 00 	lea    0x0(%esi,%eiz,1),%esi

010092b0 <pci_Initialize>:
 10092b0:	55                   	push   %ebp
 10092b1:	89 e5                	mov    %esp,%ebp
 10092b3:	56                   	push   %esi
 10092b4:	83 ec 68             	sub    $0x68,%esp
 10092b7:	8d 05 ec 45 7f 01    	lea    0x17f45ec,%eax
 10092bd:	89 04 24             	mov    %eax,(%esp)
 10092c0:	e8 5b 7a ff ff       	call   1000d20 <COM_WriteStr>
 10092c5:	c7 45 f8 00 00 00 00 	movl   $0x0,-0x8(%ebp)
 10092cc:	89 45 cc             	mov    %eax,-0x34(%ebp)
 10092cf:	81 7d f8 00 01 00 00 	cmpl   $0x100,-0x8(%ebp)
 10092d6:	0f 8d 84 01 00 00    	jge    1009460 <pci_Initialize+0x1b0>
 10092dc:	c7 45 f4 00 00 00 00 	movl   $0x0,-0xc(%ebp)
 10092e3:	83 7d f4 20          	cmpl   $0x20,-0xc(%ebp)
 10092e7:	0f 8d 63 01 00 00    	jge    1009450 <pci_Initialize+0x1a0>
 10092ed:	b8 00 00 00 00       	mov    $0x0,%eax
 10092f2:	8b 4d f8             	mov    -0x8(%ebp),%ecx
 10092f5:	8b 55 f4             	mov    -0xc(%ebp),%edx
 10092f8:	89 0c 24             	mov    %ecx,(%esp)
 10092fb:	89 54 24 04          	mov    %edx,0x4(%esp)
 10092ff:	c7 44 24 08 00 00 00 	movl   $0x0,0x8(%esp)
 1009306:	00 
 1009307:	c7 44 24 0c 00 00 00 	movl   $0x0,0xc(%esp)
 100930e:	00 
 100930f:	89 45 c8             	mov    %eax,-0x38(%ebp)
 1009312:	e8 19 ff ff ff       	call   1009230 <pci_readDWord>
 1009317:	89 45 f0             	mov    %eax,-0x10(%ebp)
 100931a:	8b 45 f0             	mov    -0x10(%ebp),%eax
 100931d:	c1 e8 10             	shr    $0x10,%eax
 1009320:	3d ff ff 00 00       	cmp    $0xffff,%eax
 1009325:	0f 84 15 01 00 00    	je     1009440 <pci_Initialize+0x190>
 100932b:	b8 00 00 00 00       	mov    $0x0,%eax
 1009330:	b9 0c 00 00 00       	mov    $0xc,%ecx
 1009335:	8b 55 f8             	mov    -0x8(%ebp),%edx
 1009338:	8b 75 f4             	mov    -0xc(%ebp),%esi
 100933b:	89 14 24             	mov    %edx,(%esp)
 100933e:	89 74 24 04          	mov    %esi,0x4(%esp)
 1009342:	c7 44 24 08 00 00 00 	movl   $0x0,0x8(%esp)
 1009349:	00 
 100934a:	c7 44 24 0c 0c 00 00 	movl   $0xc,0xc(%esp)
 1009351:	00 
 1009352:	89 45 c4             	mov    %eax,-0x3c(%ebp)
 1009355:	89 4d c0             	mov    %ecx,-0x40(%ebp)
 1009358:	e8 d3 fe ff ff       	call   1009230 <pci_readDWord>
 100935d:	89 45 ec             	mov    %eax,-0x14(%ebp)
 1009360:	c7 45 e8 01 00 00 00 	movl   $0x1,-0x18(%ebp)
 1009367:	8b 45 ec             	mov    -0x14(%ebp),%eax
 100936a:	c1 f8 17             	sar    $0x17,%eax
 100936d:	83 e0 01             	and    $0x1,%eax
 1009370:	83 f8 00             	cmp    $0x0,%eax
 1009373:	74 07                	je     100937c <pci_Initialize+0xcc>
 1009375:	c7 45 e8 08 00 00 00 	movl   $0x8,-0x18(%ebp)
 100937c:	c7 45 e4 00 00 00 00 	movl   $0x0,-0x1c(%ebp)
 1009383:	8b 45 e4             	mov    -0x1c(%ebp),%eax
 1009386:	3b 45 e8             	cmp    -0x18(%ebp),%eax
 1009389:	0f 8d af 00 00 00    	jge    100943e <pci_Initialize+0x18e>
 100938f:	b8 00 00 00 00       	mov    $0x0,%eax
 1009394:	8b 4d f8             	mov    -0x8(%ebp),%ecx
 1009397:	8b 55 f4             	mov    -0xc(%ebp),%edx
 100939a:	8b 75 e4             	mov    -0x1c(%ebp),%esi
 100939d:	89 0c 24             	mov    %ecx,(%esp)
 10093a0:	89 54 24 04          	mov    %edx,0x4(%esp)
 10093a4:	89 74 24 08          	mov    %esi,0x8(%esp)
 10093a8:	c7 44 24 0c 00 00 00 	movl   $0x0,0xc(%esp)
 10093af:	00 
 10093b0:	89 45 bc             	mov    %eax,-0x44(%ebp)
 10093b3:	e8 78 fe ff ff       	call   1009230 <pci_readDWord>
 10093b8:	c1 e8 10             	shr    $0x10,%eax
 10093bb:	3d ff ff 00 00       	cmp    $0xffff,%eax
 10093c0:	74 6c                	je     100942e <pci_Initialize+0x17e>
 10093c2:	b8 08 00 00 00       	mov    $0x8,%eax
 10093c7:	8b 4d f8             	mov    -0x8(%ebp),%ecx
 10093ca:	8b 55 f4             	mov    -0xc(%ebp),%edx
 10093cd:	8b 75 e4             	mov    -0x1c(%ebp),%esi
 10093d0:	89 0c 24             	mov    %ecx,(%esp)
 10093d3:	89 54 24 04          	mov    %edx,0x4(%esp)
 10093d7:	89 74 24 08          	mov    %esi,0x8(%esp)
 10093db:	c7 44 24 0c 08 00 00 	movl   $0x8,0xc(%esp)
 10093e2:	00 
 10093e3:	89 45 b8             	mov    %eax,-0x48(%ebp)
 10093e6:	e8 45 fe ff ff       	call   1009230 <pci_readDWord>
 10093eb:	8d 4d e0             	lea    -0x20(%ebp),%ecx
 10093ee:	8d 55 dc             	lea    -0x24(%ebp),%edx
 10093f1:	8d 75 d8             	lea    -0x28(%ebp),%esi
 10093f4:	89 04 24             	mov    %eax,(%esp)
 10093f7:	89 4c 24 04          	mov    %ecx,0x4(%esp)
 10093fb:	89 54 24 08          	mov    %edx,0x8(%esp)
 10093ff:	89 74 24 0c          	mov    %esi,0xc(%esp)
 1009403:	e8 58 02 00 00       	call   1009660 <pci_GetPCIClass>
 1009408:	8d 05 09 46 7f 01    	lea    0x17f4609,%eax
 100940e:	8b 4d dc             	mov    -0x24(%ebp),%ecx
 1009411:	8b 55 d8             	mov    -0x28(%ebp),%edx
 1009414:	8b 75 e0             	mov    -0x20(%ebp),%esi
 1009417:	89 04 24             	mov    %eax,(%esp)
 100941a:	89 4c 24 04          	mov    %ecx,0x4(%esp)
 100941e:	89 54 24 08          	mov    %edx,0x8(%esp)
 1009422:	89 74 24 0c          	mov    %esi,0xc(%esp)
 1009426:	e8 f5 78 ff ff       	call   1000d20 <COM_WriteStr>
 100942b:	89 45 b4             	mov    %eax,-0x4c(%ebp)
 100942e:	eb 00                	jmp    1009430 <pci_Initialize+0x180>
 1009430:	8b 45 e4             	mov    -0x1c(%ebp),%eax
 1009433:	83 c0 01             	add    $0x1,%eax
 1009436:	89 45 e4             	mov    %eax,-0x1c(%ebp)
 1009439:	e9 45 ff ff ff       	jmp    1009383 <pci_Initialize+0xd3>
 100943e:	eb 00                	jmp    1009440 <pci_Initialize+0x190>
 1009440:	eb 00                	jmp    1009442 <pci_Initialize+0x192>
 1009442:	8b 45 f4             	mov    -0xc(%ebp),%eax
 1009445:	83 c0 01             	add    $0x1,%eax
 1009448:	89 45 f4             	mov    %eax,-0xc(%ebp)
 100944b:	e9 93 fe ff ff       	jmp    10092e3 <pci_Initialize+0x33>
 1009450:	eb 00                	jmp    1009452 <pci_Initialize+0x1a2>
 1009452:	8b 45 f8             	mov    -0x8(%ebp),%eax
 1009455:	83 c0 01             	add    $0x1,%eax
 1009458:	89 45 f8             	mov    %eax,-0x8(%ebp)
 100945b:	e9 6f fe ff ff       	jmp    10092cf <pci_Initialize+0x1f>
 1009460:	8d 05 1b 46 7f 01    	lea    0x17f461b,%eax
 1009466:	b9 00 00 00 00       	mov    $0x0,%ecx
 100946b:	89 04 24             	mov    %eax,(%esp)
 100946e:	c7 44 24 04 00 00 00 	movl   $0x0,0x4(%esp)
 1009475:	00 
 1009476:	89 4d b0             	mov    %ecx,-0x50(%ebp)
 1009479:	e8 b2 7a ff ff       	call   1000f30 <ACPITables_FindTable>
 100947e:	89 45 d4             	mov    %eax,-0x2c(%ebp)
 1009481:	83 7d d4 00          	cmpl   $0x0,-0x2c(%ebp)
 1009485:	75 16                	jne    100949d <pci_Initialize+0x1ed>
 1009487:	8d 05 20 46 7f 01    	lea    0x17f4620,%eax
 100948d:	89 04 24             	mov    %eax,(%esp)
 1009490:	e8 8b 78 ff ff       	call   1000d20 <COM_WriteStr>
 1009495:	89 45 ac             	mov    %eax,-0x54(%ebp)
 1009498:	e9 96 00 00 00       	jmp    1009533 <pci_Initialize+0x283>
 100949d:	8b 45 d4             	mov    -0x2c(%ebp),%eax
 10094a0:	8b 40 04             	mov    0x4(%eax),%eax
 10094a3:	83 e8 24             	sub    $0x24,%eax
 10094a6:	83 e8 08             	sub    $0x8,%eax
 10094a9:	c1 e8 04             	shr    $0x4,%eax
 10094ac:	a3 b8 f0 a8 04       	mov    %eax,0x4a8f0b8
 10094b1:	a1 b8 f0 a8 04       	mov    0x4a8f0b8,%eax
 10094b6:	c1 e0 04             	shl    $0x4,%eax
 10094b9:	89 04 24             	mov    %eax,(%esp)
 10094bc:	e8 af 8f ff ff       	call   1002470 <bootstrap_malloc>
 10094c1:	a3 b4 f0 a8 04       	mov    %eax,0x4a8f0b4
 10094c6:	a1 b4 f0 a8 04       	mov    0x4a8f0b4,%eax
 10094cb:	8b 4d d4             	mov    -0x2c(%ebp),%ecx
 10094ce:	83 c1 2c             	add    $0x2c,%ecx
 10094d1:	8b 15 b8 f0 a8 04    	mov    0x4a8f0b8,%edx
 10094d7:	c1 e2 04             	shl    $0x4,%edx
 10094da:	89 04 24             	mov    %eax,(%esp)
 10094dd:	89 4c 24 04          	mov    %ecx,0x4(%esp)
 10094e1:	89 54 24 08          	mov    %edx,0x8(%esp)
 10094e5:	e8 c6 a2 ff ff       	call   10037b0 <memcpy>
 10094ea:	c7 45 d0 00 00 00 00 	movl   $0x0,-0x30(%ebp)
 10094f1:	89 45 a8             	mov    %eax,-0x58(%ebp)
 10094f4:	8b 45 d0             	mov    -0x30(%ebp),%eax
 10094f7:	3b 05 b8 f0 a8 04    	cmp    0x4a8f0b8,%eax
 10094fd:	73 34                	jae    1009533 <pci_Initialize+0x283>
 10094ff:	8b 45 d0             	mov    -0x30(%ebp),%eax
 1009502:	8b 0d b4 f0 a8 04    	mov    0x4a8f0b4,%ecx
 1009508:	c1 e0 04             	shl    $0x4,%eax
 100950b:	8b 14 01             	mov    (%ecx,%eax,1),%edx
 100950e:	8b 44 01 04          	mov    0x4(%ecx,%eax,1),%eax
 1009512:	89 e1                	mov    %esp,%ecx
 1009514:	89 41 08             	mov    %eax,0x8(%ecx)
 1009517:	89 51 04             	mov    %edx,0x4(%ecx)
 100951a:	c7 01 6a 41 7f 01    	movl   $0x17f416a,(%ecx)
 1009520:	e8 fb 77 ff ff       	call   1000d20 <COM_WriteStr>
 1009525:	89 45 a4             	mov    %eax,-0x5c(%ebp)
 1009528:	8b 45 d0             	mov    -0x30(%ebp),%eax
 100952b:	83 c0 01             	add    $0x1,%eax
 100952e:	89 45 d0             	mov    %eax,-0x30(%ebp)
 1009531:	eb c1                	jmp    10094f4 <pci_Initialize+0x244>
 1009533:	83 c4 68             	add    $0x68,%esp
 1009536:	5e                   	pop    %esi
 1009537:	5d                   	pop    %ebp
 1009538:	c3                   	ret    
 1009539:	66 90                	xchg   %ax,%ax
 100953b:	66 90                	xchg   %ax,%ax
 100953d:	66 90                	xchg   %ax,%ax
 100953f:	90                   	nop

01009540 <pci_GetPCIClass3>:
 1009540:	55                   	push   %ebp
 1009541:	89 e5                	mov    %esp,%ebp
 1009543:	53                   	push   %ebx
 1009544:	56                   	push   %esi
 1009545:	83 ec 18             	sub    $0x18,%esp
 1009548:	8b 45 1c             	mov    0x1c(%ebp),%eax
 100954b:	8b 4d 18             	mov    0x18(%ebp),%ecx
 100954e:	8b 55 14             	mov    0x14(%ebp),%edx
 1009551:	8a 5d 10             	mov    0x10(%ebp),%bl
 1009554:	8a 7d 0c             	mov    0xc(%ebp),%bh
 1009557:	89 45 e0             	mov    %eax,-0x20(%ebp)
 100955a:	8a 45 08             	mov    0x8(%ebp),%al
 100955d:	8d 35 6b f5 80 01    	lea    0x180f56b,%esi
 1009563:	88 45 f7             	mov    %al,-0x9(%ebp)
 1009566:	88 7d f6             	mov    %bh,-0xa(%ebp)
 1009569:	88 5d f5             	mov    %bl,-0xb(%ebp)
 100956c:	89 55 f0             	mov    %edx,-0x10(%ebp)
 100956f:	89 4d ec             	mov    %ecx,-0x14(%ebp)
 1009572:	8b 4d e0             	mov    -0x20(%ebp),%ecx
 1009575:	89 4d e8             	mov    %ecx,-0x18(%ebp)
 1009578:	8b 55 e8             	mov    -0x18(%ebp),%edx
 100957b:	89 32                	mov    %esi,(%edx)
 100957d:	8b 55 ec             	mov    -0x14(%ebp),%edx
 1009580:	89 32                	mov    %esi,(%edx)
 1009582:	8b 55 f0             	mov    -0x10(%ebp),%edx
 1009585:	89 32                	mov    %esi,(%edx)
 1009587:	c7 45 e4 00 00 00 00 	movl   $0x0,-0x1c(%ebp)
 100958e:	83 7d e4 47          	cmpl   $0x47,-0x1c(%ebp)
 1009592:	0f 83 bd 00 00 00    	jae    1009655 <pci_GetPCIClass3+0x115>
 1009598:	8d 05 d0 9b 84 01    	lea    0x1849bd0,%eax
 100959e:	8b 4d e4             	mov    -0x1c(%ebp),%ecx
 10095a1:	c1 e1 04             	shl    $0x4,%ecx
 10095a4:	01 c8                	add    %ecx,%eax
 10095a6:	0f b6 00             	movzbl (%eax),%eax
 10095a9:	0f b6 4d f7          	movzbl -0x9(%ebp),%ecx
 10095ad:	39 c8                	cmp    %ecx,%eax
 10095af:	0f 85 90 00 00 00    	jne    1009645 <pci_GetPCIClass3+0x105>
 10095b5:	8b 45 f0             	mov    -0x10(%ebp),%eax
 10095b8:	8b 00                	mov    (%eax),%eax
 10095ba:	80 38 00             	cmpb   $0x0,(%eax)
 10095bd:	75 16                	jne    10095d5 <pci_GetPCIClass3+0x95>
 10095bf:	8d 05 d0 9b 84 01    	lea    0x1849bd0,%eax
 10095c5:	8b 4d e4             	mov    -0x1c(%ebp),%ecx
 10095c8:	c1 e1 04             	shl    $0x4,%ecx
 10095cb:	01 c8                	add    %ecx,%eax
 10095cd:	8b 40 04             	mov    0x4(%eax),%eax
 10095d0:	8b 4d f0             	mov    -0x10(%ebp),%ecx
 10095d3:	89 01                	mov    %eax,(%ecx)
 10095d5:	8d 05 d0 9b 84 01    	lea    0x1849bd0,%eax
 10095db:	8b 4d e4             	mov    -0x1c(%ebp),%ecx
 10095de:	c1 e1 04             	shl    $0x4,%ecx
 10095e1:	01 c8                	add    %ecx,%eax
 10095e3:	0f b6 40 01          	movzbl 0x1(%eax),%eax
 10095e7:	0f b6 4d f6          	movzbl -0xa(%ebp),%ecx
 10095eb:	39 c8                	cmp    %ecx,%eax
 10095ed:	75 54                	jne    1009643 <pci_GetPCIClass3+0x103>
 10095ef:	8b 45 ec             	mov    -0x14(%ebp),%eax
 10095f2:	8b 00                	mov    (%eax),%eax
 10095f4:	80 38 00             	cmpb   $0x0,(%eax)
 10095f7:	75 16                	jne    100960f <pci_GetPCIClass3+0xcf>
 10095f9:	8d 05 d0 9b 84 01    	lea    0x1849bd0,%eax
 10095ff:	8b 4d e4             	mov    -0x1c(%ebp),%ecx
 1009602:	c1 e1 04             	shl    $0x4,%ecx
 1009605:	01 c8                	add    %ecx,%eax
 1009607:	8b 40 08             	mov    0x8(%eax),%eax
 100960a:	8b 4d ec             	mov    -0x14(%ebp),%ecx
 100960d:	89 01                	mov    %eax,(%ecx)
 100960f:	8d 05 d0 9b 84 01    	lea    0x1849bd0,%eax
 1009615:	8b 4d e4             	mov    -0x1c(%ebp),%ecx
 1009618:	c1 e1 04             	shl    $0x4,%ecx
 100961b:	01 c8                	add    %ecx,%eax
 100961d:	0f b6 40 02          	movzbl 0x2(%eax),%eax
 1009621:	0f b6 4d f5          	movzbl -0xb(%ebp),%ecx
 1009625:	39 c8                	cmp    %ecx,%eax
 1009627:	75 18                	jne    1009641 <pci_GetPCIClass3+0x101>
 1009629:	8d 05 d0 9b 84 01    	lea    0x1849bd0,%eax
 100962f:	8b 4d e4             	mov    -0x1c(%ebp),%ecx
 1009632:	c1 e1 04             	shl    $0x4,%ecx
 1009635:	01 c8                	add    %ecx,%eax
 1009637:	8b 40 0c             	mov    0xc(%eax),%eax
 100963a:	8b 4d e8             	mov    -0x18(%ebp),%ecx
 100963d:	89 01                	mov    %eax,(%ecx)
 100963f:	eb 14                	jmp    1009655 <pci_GetPCIClass3+0x115>
 1009641:	eb 00                	jmp    1009643 <pci_GetPCIClass3+0x103>
 1009643:	eb 00                	jmp    1009645 <pci_GetPCIClass3+0x105>
 1009645:	eb 00                	jmp    1009647 <pci_GetPCIClass3+0x107>
 1009647:	8b 45 e4             	mov    -0x1c(%ebp),%eax
 100964a:	83 c0 01             	add    $0x1,%eax
 100964d:	89 45 e4             	mov    %eax,-0x1c(%ebp)
 1009650:	e9 39 ff ff ff       	jmp    100958e <pci_GetPCIClass3+0x4e>
 1009655:	83 c4 18             	add    $0x18,%esp
 1009658:	5e                   	pop    %esi
 1009659:	5b                   	pop    %ebx
 100965a:	5d                   	pop    %ebp
 100965b:	c3                   	ret    
 100965c:	8d 74 26 00          	lea    0x0(%esi,%eiz,1),%esi

01009660 <pci_GetPCIClass>:
 1009660:	55                   	push   %ebp
 1009661:	89 e5                	mov    %esp,%ebp
 1009663:	53                   	push   %ebx
 1009664:	57                   	push   %edi
 1009665:	56                   	push   %esi
 1009666:	83 ec 2c             	sub    $0x2c,%esp
 1009669:	8b 45 14             	mov    0x14(%ebp),%eax
 100966c:	8b 4d 10             	mov    0x10(%ebp),%ecx
 100966f:	8b 55 0c             	mov    0xc(%ebp),%edx
 1009672:	8b 75 08             	mov    0x8(%ebp),%esi
 1009675:	89 75 f0             	mov    %esi,-0x10(%ebp)
 1009678:	89 55 ec             	mov    %edx,-0x14(%ebp)
 100967b:	89 4d e8             	mov    %ecx,-0x18(%ebp)
 100967e:	89 45 e4             	mov    %eax,-0x1c(%ebp)
 1009681:	8b 45 f0             	mov    -0x10(%ebp),%eax
 1009684:	c1 f8 18             	sar    $0x18,%eax
 1009687:	25 ff 00 00 00       	and    $0xff,%eax
 100968c:	88 c3                	mov    %al,%bl
 100968e:	88 5d e3             	mov    %bl,-0x1d(%ebp)
 1009691:	8b 45 f0             	mov    -0x10(%ebp),%eax
 1009694:	c1 f8 10             	sar    $0x10,%eax
 1009697:	25 ff 00 00 00       	and    $0xff,%eax
 100969c:	88 c3                	mov    %al,%bl
 100969e:	88 5d e2             	mov    %bl,-0x1e(%ebp)
 10096a1:	8b 45 f0             	mov    -0x10(%ebp),%eax
 10096a4:	c1 f8 08             	sar    $0x8,%eax
 10096a7:	25 ff 00 00 00       	and    $0xff,%eax
 10096ac:	88 c3                	mov    %al,%bl
 10096ae:	88 5d e1             	mov    %bl,-0x1f(%ebp)
 10096b1:	8a 5d e3             	mov    -0x1d(%ebp),%bl
 10096b4:	8a 7d e2             	mov    -0x1e(%ebp),%bh
 10096b7:	8a 45 e1             	mov    -0x1f(%ebp),%al
 10096ba:	8b 4d ec             	mov    -0x14(%ebp),%ecx
 10096bd:	8b 55 e8             	mov    -0x18(%ebp),%edx
 10096c0:	8b 75 e4             	mov    -0x1c(%ebp),%esi
 10096c3:	0f b6 fb             	movzbl %bl,%edi
 10096c6:	89 3c 24             	mov    %edi,(%esp)
 10096c9:	0f b6 ff             	movzbl %bh,%edi
 10096cc:	89 7c 24 04          	mov    %edi,0x4(%esp)
 10096d0:	0f b6 f8             	movzbl %al,%edi
 10096d3:	89 7c 24 08          	mov    %edi,0x8(%esp)
 10096d7:	89 4c 24 0c          	mov    %ecx,0xc(%esp)
 10096db:	89 54 24 10          	mov    %edx,0x10(%esp)
 10096df:	89 74 24 14          	mov    %esi,0x14(%esp)
 10096e3:	e8 58 fe ff ff       	call   1009540 <pci_GetPCIClass3>
 10096e8:	83 c4 2c             	add    $0x2c,%esp
 10096eb:	5e                   	pop    %esi
 10096ec:	5f                   	pop    %edi
 10096ed:	5b                   	pop    %ebx
 10096ee:	5d                   	pop    %ebp
 10096ef:	c3                   	ret    

010096f0 <PIT_SetFrequency>:
 10096f0:	55                   	push   %ebp
 10096f1:	89 e5                	mov    %esp,%ebp
 10096f3:	57                   	push   %edi
 10096f4:	56                   	push   %esi
 10096f5:	83 ec 1c             	sub    $0x1c,%esp
 10096f8:	8b 45 18             	mov    0x18(%ebp),%eax
 10096fb:	8a 4d 14             	mov    0x14(%ebp),%cl
 10096fe:	8a 55 10             	mov    0x10(%ebp),%dl
 1009701:	8a 6d 0c             	mov    0xc(%ebp),%ch
 1009704:	8a 75 08             	mov    0x8(%ebp),%dh
 1009707:	be 43 00 00 00       	mov    $0x43,%esi
 100970c:	bf dc 34 12 00       	mov    $0x1234dc,%edi
 1009711:	88 75 f7             	mov    %dh,-0x9(%ebp)
 1009714:	88 6d f6             	mov    %ch,-0xa(%ebp)
 1009717:	88 55 f5             	mov    %dl,-0xb(%ebp)
 100971a:	88 4d f4             	mov    %cl,-0xc(%ebp)
 100971d:	89 45 f0             	mov    %eax,-0x10(%ebp)
 1009720:	89 f8                	mov    %edi,%eax
 1009722:	31 d2                	xor    %edx,%edx
 1009724:	f7 75 f0             	divl   -0x10(%ebp)
 1009727:	89 45 ec             	mov    %eax,-0x14(%ebp)
 100972a:	69 45 ec dc 34 12 00 	imul   $0x1234dc,-0x14(%ebp),%eax
 1009731:	a3 bc f0 a8 04       	mov    %eax,0x4a8f0bc
 1009736:	0f b6 45 f7          	movzbl -0x9(%ebp),%eax
 100973a:	83 e0 03             	and    $0x3,%eax
 100973d:	88 c1                	mov    %al,%cl
 100973f:	88 4d f7             	mov    %cl,-0x9(%ebp)
 1009742:	0f b6 45 f6          	movzbl -0xa(%ebp),%eax
 1009746:	83 e0 03             	and    $0x3,%eax
 1009749:	88 c1                	mov    %al,%cl
 100974b:	88 4d f6             	mov    %cl,-0xa(%ebp)
 100974e:	0f b6 45 f5          	movzbl -0xb(%ebp),%eax
 1009752:	83 e0 07             	and    $0x7,%eax
 1009755:	88 c1                	mov    %al,%cl
 1009757:	88 4d f5             	mov    %cl,-0xb(%ebp)
 100975a:	0f b6 45 f4          	movzbl -0xc(%ebp),%eax
 100975e:	83 e0 01             	and    $0x1,%eax
 1009761:	88 c1                	mov    %al,%cl
 1009763:	88 4d f4             	mov    %cl,-0xc(%ebp)
 1009766:	c6 45 eb 00          	movb   $0x0,-0x15(%ebp)
 100976a:	0f b6 45 f7          	movzbl -0x9(%ebp),%eax
 100976e:	c1 e0 06             	shl    $0x6,%eax
 1009771:	0f b6 55 f6          	movzbl -0xa(%ebp),%edx
 1009775:	c1 e2 04             	shl    $0x4,%edx
 1009778:	09 d0                	or     %edx,%eax
 100977a:	0f b6 55 f5          	movzbl -0xb(%ebp),%edx
 100977e:	d1 e2                	shl    %edx
 1009780:	09 d0                	or     %edx,%eax
 1009782:	0f b6 55 f4          	movzbl -0xc(%ebp),%edx
 1009786:	09 d0                	or     %edx,%eax
 1009788:	88 c1                	mov    %al,%cl
 100978a:	88 4d eb             	mov    %cl,-0x15(%ebp)
 100978d:	c7 04 24 43 00 00 00 	movl   $0x43,(%esp)
 1009794:	0f b6 45 eb          	movzbl -0x15(%ebp),%eax
 1009798:	89 44 24 04          	mov    %eax,0x4(%esp)
 100979c:	89 75 e4             	mov    %esi,-0x1c(%ebp)
 100979f:	e8 8c 9e ff ff       	call   1003630 <outb>
 10097a4:	0f b6 45 f6          	movzbl -0xa(%ebp),%eax
 10097a8:	83 e0 01             	and    $0x1,%eax
 10097ab:	83 f8 01             	cmp    $0x1,%eax
 10097ae:	75 2a                	jne    10097da <PIT_SetFrequency+0xea>
 10097b0:	8b 45 ec             	mov    -0x14(%ebp),%eax
 10097b3:	25 ff 00 00 00       	and    $0xff,%eax
 10097b8:	88 c1                	mov    %al,%cl
 10097ba:	88 4d ea             	mov    %cl,-0x16(%ebp)
 10097bd:	0f b6 45 f7          	movzbl -0x9(%ebp),%eax
 10097c1:	83 c0 40             	add    $0x40,%eax
 10097c4:	66 89 c2             	mov    %ax,%dx
 10097c7:	0f b7 c2             	movzwl %dx,%eax
 10097ca:	89 04 24             	mov    %eax,(%esp)
 10097cd:	0f b6 45 ea          	movzbl -0x16(%ebp),%eax
 10097d1:	89 44 24 04          	mov    %eax,0x4(%esp)
 10097d5:	e8 56 9e ff ff       	call   1003630 <outb>
 10097da:	0f b6 45 f6          	movzbl -0xa(%ebp),%eax
 10097de:	83 e0 02             	and    $0x2,%eax
 10097e1:	83 f8 02             	cmp    $0x2,%eax
 10097e4:	75 2d                	jne    1009813 <PIT_SetFrequency+0x123>
 10097e6:	8b 45 ec             	mov    -0x14(%ebp),%eax
 10097e9:	c1 e8 08             	shr    $0x8,%eax
 10097ec:	25 ff 00 00 00       	and    $0xff,%eax
 10097f1:	88 c1                	mov    %al,%cl
 10097f3:	88 4d e9             	mov    %cl,-0x17(%ebp)
 10097f6:	0f b6 45 f7          	movzbl -0x9(%ebp),%eax
 10097fa:	83 c0 40             	add    $0x40,%eax
 10097fd:	66 89 c2             	mov    %ax,%dx
 1009800:	0f b7 c2             	movzwl %dx,%eax
 1009803:	89 04 24             	mov    %eax,(%esp)
 1009806:	0f b6 45 e9          	movzbl -0x17(%ebp),%eax
 100980a:	89 44 24 04          	mov    %eax,0x4(%esp)
 100980e:	e8 1d 9e ff ff       	call   1003630 <outb>
 1009813:	83 c4 1c             	add    $0x1c,%esp
 1009816:	5e                   	pop    %esi
 1009817:	5f                   	pop    %edi
 1009818:	5d                   	pop    %ebp
 1009819:	c3                   	ret    
 100981a:	8d b6 00 00 00 00    	lea    0x0(%esi),%esi

01009820 <PIT_TempIntHandler>:
 1009820:	55                   	push   %ebp
 1009821:	89 e5                	mov    %esp,%ebp
 1009823:	50                   	push   %eax
 1009824:	8b 45 08             	mov    0x8(%ebp),%eax
 1009827:	89 45 fc             	mov    %eax,-0x4(%ebp)
 100982a:	83 3d c4 f0 a8 04 00 	cmpl   $0x0,0x4a8f0c4
 1009831:	75 18                	jne    100984b <PIT_TempIntHandler+0x2b>
 1009833:	83 3d c0 f0 a8 04 00 	cmpl   $0x0,0x4a8f0c0
 100983a:	74 0d                	je     1009849 <PIT_TempIntHandler+0x29>
 100983c:	a1 c0 f0 a8 04       	mov    0x4a8f0c0,%eax
 1009841:	83 c0 ff             	add    $0xffffffff,%eax
 1009844:	a3 c0 f0 a8 04       	mov    %eax,0x4a8f0c0
 1009849:	eb 00                	jmp    100984b <PIT_TempIntHandler+0x2b>
 100984b:	b8 01 00 00 00       	mov    $0x1,%eax
 1009850:	83 c4 04             	add    $0x4,%esp
 1009853:	5d                   	pop    %ebp
 1009854:	c3                   	ret    
 1009855:	8d 74 26 00          	lea    0x0(%esi,%eiz,1),%esi
 1009859:	8d bc 27 00 00 00 00 	lea    0x0(%edi,%eiz,1),%edi

01009860 <PIT_Sleep>:
 1009860:	55                   	push   %ebp
 1009861:	89 e5                	mov    %esp,%ebp
 1009863:	57                   	push   %edi
 1009864:	56                   	push   %esi
 1009865:	83 ec 5c             	sub    $0x5c,%esp
 1009868:	8b 45 08             	mov    0x8(%ebp),%eax
 100986b:	b9 20 00 00 00       	mov    $0x20,%ecx
 1009870:	ba 00 00 00 00       	mov    $0x0,%edx
 1009875:	89 45 f4             	mov    %eax,-0xc(%ebp)
 1009878:	c7 04 24 20 00 00 00 	movl   $0x20,(%esp)
 100987f:	c7 44 24 04 00 00 00 	movl   $0x0,0x4(%esp)
 1009886:	00 
 1009887:	89 55 e8             	mov    %edx,-0x18(%ebp)
 100988a:	89 4d e4             	mov    %ecx,-0x1c(%ebp)
 100988d:	e8 fe 92 ff ff       	call   1002b90 <Interrupts_SetInterruptEnableMode>
 1009892:	b8 20 00 00 00       	mov    $0x20,%eax
 1009897:	b9 00 00 00 00       	mov    $0x0,%ecx
 100989c:	8d 55 f0             	lea    -0x10(%ebp),%edx
 100989f:	c7 45 f0 00 00 00 00 	movl   $0x0,-0x10(%ebp)
 10098a6:	c7 04 24 20 00 00 00 	movl   $0x20,(%esp)
 10098ad:	c7 44 24 04 00 00 00 	movl   $0x0,0x4(%esp)
 10098b4:	00 
 10098b5:	89 54 24 08          	mov    %edx,0x8(%esp)
 10098b9:	89 45 e0             	mov    %eax,-0x20(%ebp)
 10098bc:	89 4d dc             	mov    %ecx,-0x24(%ebp)
 10098bf:	e8 5c 92 ff ff       	call   1002b20 <Interrupts_GetHandler>
 10098c4:	b8 20 00 00 00       	mov    $0x20,%eax
 10098c9:	b9 00 00 00 00       	mov    $0x0,%ecx
 10098ce:	8d 15 20 98 00 01    	lea    0x1009820,%edx
 10098d4:	c7 04 24 20 00 00 00 	movl   $0x20,(%esp)
 10098db:	c7 44 24 04 00 00 00 	movl   $0x0,0x4(%esp)
 10098e2:	00 
 10098e3:	89 54 24 08          	mov    %edx,0x8(%esp)
 10098e7:	89 45 d8             	mov    %eax,-0x28(%ebp)
 10098ea:	89 4d d4             	mov    %ecx,-0x2c(%ebp)
 10098ed:	e8 3e 91 ff ff       	call   1002a30 <Interrupts_RegisterHandler>
 10098f2:	b8 00 00 00 00       	mov    $0x0,%eax
 10098f7:	b9 03 00 00 00       	mov    $0x3,%ecx
 10098fc:	ba ae 4d 00 00       	mov    $0x4dae,%edx
 1009901:	be e8 03 00 00       	mov    $0x3e8,%esi
 1009906:	8b 7d f4             	mov    -0xc(%ebp),%edi
 1009909:	0f af 3d bc f0 a8 04 	imul   0x4a8f0bc,%edi
 1009910:	89 45 d0             	mov    %eax,-0x30(%ebp)
 1009913:	89 f8                	mov    %edi,%eax
 1009915:	31 ff                	xor    %edi,%edi
 1009917:	89 55 cc             	mov    %edx,-0x34(%ebp)
 100991a:	89 fa                	mov    %edi,%edx
 100991c:	f7 f6                	div    %esi
 100991e:	a3 c0 f0 a8 04       	mov    %eax,0x4a8f0c0
 1009923:	c7 05 c4 f0 a8 04 00 	movl   $0x0,0x4a8f0c4
 100992a:	00 00 00 
 100992d:	c7 04 24 00 00 00 00 	movl   $0x0,(%esp)
 1009934:	c7 44 24 04 03 00 00 	movl   $0x3,0x4(%esp)
 100993b:	00 
 100993c:	c7 44 24 08 03 00 00 	movl   $0x3,0x8(%esp)
 1009943:	00 
 1009944:	c7 44 24 0c 00 00 00 	movl   $0x0,0xc(%esp)
 100994b:	00 
 100994c:	c7 44 24 10 ae 4d 00 	movl   $0x4dae,0x10(%esp)
 1009953:	00 
 1009954:	89 4d c8             	mov    %ecx,-0x38(%ebp)
 1009957:	e8 94 fd ff ff       	call   10096f0 <PIT_SetFrequency>
 100995c:	b8 20 00 00 00       	mov    $0x20,%eax
 1009961:	b9 01 00 00 00       	mov    $0x1,%ecx
 1009966:	c7 04 24 20 00 00 00 	movl   $0x20,(%esp)
 100996d:	c7 44 24 04 01 00 00 	movl   $0x1,0x4(%esp)
 1009974:	00 
 1009975:	89 45 c4             	mov    %eax,-0x3c(%ebp)
 1009978:	89 4d c0             	mov    %ecx,-0x40(%ebp)
 100997b:	e8 10 92 ff ff       	call   1002b90 <Interrupts_SetInterruptEnableMode>
 1009980:	fa                   	cli    
 1009981:	83 3d c0 f0 a8 04 00 	cmpl   $0x0,0x4a8f0c0
 1009988:	75 02                	jne    100998c <PIT_Sleep+0x12c>
 100998a:	eb 20                	jmp    10099ac <PIT_Sleep+0x14c>
 100998c:	fb                   	sti    
 100998d:	c7 45 ec 00 00 00 00 	movl   $0x0,-0x14(%ebp)
 1009994:	83 7d ec 32          	cmpl   $0x32,-0x14(%ebp)
 1009998:	7d 10                	jge    10099aa <PIT_Sleep+0x14a>
 100999a:	90                   	nop
 100999b:	90                   	nop
 100999c:	90                   	nop
 100999d:	90                   	nop
 100999e:	90                   	nop
 100999f:	8b 45 ec             	mov    -0x14(%ebp),%eax
 10099a2:	83 c0 01             	add    $0x1,%eax
 10099a5:	89 45 ec             	mov    %eax,-0x14(%ebp)
 10099a8:	eb ea                	jmp    1009994 <PIT_Sleep+0x134>
 10099aa:	eb d4                	jmp    1009980 <PIT_Sleep+0x120>
 10099ac:	b8 20 00 00 00       	mov    $0x20,%eax
 10099b1:	b9 00 00 00 00       	mov    $0x0,%ecx
 10099b6:	c7 04 24 20 00 00 00 	movl   $0x20,(%esp)
 10099bd:	c7 44 24 04 00 00 00 	movl   $0x0,0x4(%esp)
 10099c4:	00 
 10099c5:	89 45 bc             	mov    %eax,-0x44(%ebp)
 10099c8:	89 4d b8             	mov    %ecx,-0x48(%ebp)
 10099cb:	e8 c0 91 ff ff       	call   1002b90 <Interrupts_SetInterruptEnableMode>
 10099d0:	b8 20 00 00 00       	mov    $0x20,%eax
 10099d5:	b9 00 00 00 00       	mov    $0x0,%ecx
 10099da:	8b 55 f0             	mov    -0x10(%ebp),%edx
 10099dd:	c7 04 24 20 00 00 00 	movl   $0x20,(%esp)
 10099e4:	c7 44 24 04 00 00 00 	movl   $0x0,0x4(%esp)
 10099eb:	00 
 10099ec:	89 54 24 08          	mov    %edx,0x8(%esp)
 10099f0:	89 45 b4             	mov    %eax,-0x4c(%ebp)
 10099f3:	89 4d b0             	mov    %ecx,-0x50(%ebp)
 10099f6:	e8 35 90 ff ff       	call   1002a30 <Interrupts_RegisterHandler>
 10099fb:	fb                   	sti    
 10099fc:	83 c4 5c             	add    $0x5c,%esp
 10099ff:	5e                   	pop    %esi
 1009a00:	5f                   	pop    %edi
 1009a01:	5d                   	pop    %ebp
 1009a02:	c3                   	ret    
 1009a03:	8d b6 00 00 00 00    	lea    0x0(%esi),%esi
 1009a09:	8d bc 27 00 00 00 00 	lea    0x0(%edi,%eiz,1),%edi

01009a10 <PIT_SetEnableMode>:
 1009a10:	55                   	push   %ebp
 1009a11:	89 e5                	mov    %esp,%ebp
 1009a13:	83 ec 10             	sub    $0x10,%esp
 1009a16:	8a 45 08             	mov    0x8(%ebp),%al
 1009a19:	b9 20 00 00 00       	mov    $0x20,%ecx
 1009a1e:	88 45 ff             	mov    %al,-0x1(%ebp)
 1009a21:	c7 04 24 20 00 00 00 	movl   $0x20,(%esp)
 1009a28:	0f b6 55 ff          	movzbl -0x1(%ebp),%edx
 1009a2c:	89 54 24 04          	mov    %edx,0x4(%esp)
 1009a30:	89 4d f8             	mov    %ecx,-0x8(%ebp)
 1009a33:	e8 58 91 ff ff       	call   1002b90 <Interrupts_SetInterruptEnableMode>
 1009a38:	83 c4 10             	add    $0x10,%esp
 1009a3b:	5d                   	pop    %ebp
 1009a3c:	c3                   	ret    
 1009a3d:	8d 76 00             	lea    0x0(%esi),%esi

01009a40 <PIT_Initialize>:
 1009a40:	55                   	push   %ebp
 1009a41:	89 e5                	mov    %esp,%ebp
 1009a43:	56                   	push   %esi
 1009a44:	83 ec 24             	sub    $0x24,%esp
 1009a47:	b8 00 00 00 00       	mov    $0x0,%eax
 1009a4c:	b9 03 00 00 00       	mov    $0x3,%ecx
 1009a51:	ba 02 00 00 00       	mov    $0x2,%edx
 1009a56:	be ae 4d 00 00       	mov    $0x4dae,%esi
 1009a5b:	c7 04 24 00 00 00 00 	movl   $0x0,(%esp)
 1009a62:	c7 44 24 04 03 00 00 	movl   $0x3,0x4(%esp)
 1009a69:	00 
 1009a6a:	c7 44 24 08 02 00 00 	movl   $0x2,0x8(%esp)
 1009a71:	00 
 1009a72:	c7 44 24 0c 00 00 00 	movl   $0x0,0xc(%esp)
 1009a79:	00 
 1009a7a:	c7 44 24 10 ae 4d 00 	movl   $0x4dae,0x10(%esp)
 1009a81:	00 
 1009a82:	89 45 f8             	mov    %eax,-0x8(%ebp)
 1009a85:	89 4d f4             	mov    %ecx,-0xc(%ebp)
 1009a88:	89 55 f0             	mov    %edx,-0x10(%ebp)
 1009a8b:	89 75 ec             	mov    %esi,-0x14(%ebp)
 1009a8e:	e8 5d fc ff ff       	call   10096f0 <PIT_SetFrequency>
 1009a93:	83 c4 24             	add    $0x24,%esp
 1009a96:	5e                   	pop    %esi
 1009a97:	5d                   	pop    %ebp
 1009a98:	c3                   	ret    
 1009a99:	66 90                	xchg   %ax,%ax
 1009a9b:	66 90                	xchg   %ax,%ax
 1009a9d:	66 90                	xchg   %ax,%ax
 1009a9f:	90                   	nop

01009aa0 <PS2_Initialize>:
 1009aa0:	55                   	push   %ebp
 1009aa1:	89 e5                	mov    %esp,%ebp
 1009aa3:	83 ec 70             	sub    $0x70,%esp
 1009aa6:	b8 64 00 00 00       	mov    $0x64,%eax
 1009aab:	b9 ad 00 00 00       	mov    $0xad,%ecx
 1009ab0:	c7 04 24 64 00 00 00 	movl   $0x64,(%esp)
 1009ab7:	c7 44 24 04 ad 00 00 	movl   $0xad,0x4(%esp)
 1009abe:	00 
 1009abf:	89 45 f4             	mov    %eax,-0xc(%ebp)
 1009ac2:	89 4d f0             	mov    %ecx,-0x10(%ebp)
 1009ac5:	e8 66 9b ff ff       	call   1003630 <outb>
 1009aca:	e8 21 04 00 00       	call   1009ef0 <PS2_ReadStatus>
 1009acf:	0f b6 c8             	movzbl %al,%ecx
 1009ad2:	83 e1 02             	and    $0x2,%ecx
 1009ad5:	83 f9 00             	cmp    $0x0,%ecx
 1009ad8:	0f 95 c0             	setne  %al
 1009adb:	34 01                	xor    $0x1,%al
 1009add:	34 01                	xor    $0x1,%al
 1009adf:	a8 01                	test   $0x1,%al
 1009ae1:	75 02                	jne    1009ae5 <PS2_Initialize+0x45>
 1009ae3:	eb 02                	jmp    1009ae7 <PS2_Initialize+0x47>
 1009ae5:	eb e3                	jmp    1009aca <PS2_Initialize+0x2a>
 1009ae7:	b8 64 00 00 00       	mov    $0x64,%eax
 1009aec:	b9 a7 00 00 00       	mov    $0xa7,%ecx
 1009af1:	c7 04 24 64 00 00 00 	movl   $0x64,(%esp)
 1009af8:	c7 44 24 04 a7 00 00 	movl   $0xa7,0x4(%esp)
 1009aff:	00 
 1009b00:	89 45 ec             	mov    %eax,-0x14(%ebp)
 1009b03:	89 4d e8             	mov    %ecx,-0x18(%ebp)
 1009b06:	e8 25 9b ff ff       	call   1003630 <outb>
 1009b0b:	e8 e0 03 00 00       	call   1009ef0 <PS2_ReadStatus>
 1009b10:	0f b6 c8             	movzbl %al,%ecx
 1009b13:	83 e1 02             	and    $0x2,%ecx
 1009b16:	83 f9 00             	cmp    $0x0,%ecx
 1009b19:	0f 95 c0             	setne  %al
 1009b1c:	34 01                	xor    $0x1,%al
 1009b1e:	34 01                	xor    $0x1,%al
 1009b20:	a8 01                	test   $0x1,%al
 1009b22:	75 02                	jne    1009b26 <PS2_Initialize+0x86>
 1009b24:	eb 02                	jmp    1009b28 <PS2_Initialize+0x88>
 1009b26:	eb e3                	jmp    1009b0b <PS2_Initialize+0x6b>
 1009b28:	eb 00                	jmp    1009b2a <PS2_Initialize+0x8a>
 1009b2a:	e8 c1 03 00 00       	call   1009ef0 <PS2_ReadStatus>
 1009b2f:	0f b6 c8             	movzbl %al,%ecx
 1009b32:	83 e1 01             	and    $0x1,%ecx
 1009b35:	83 f9 00             	cmp    $0x0,%ecx
 1009b38:	74 19                	je     1009b53 <PS2_Initialize+0xb3>
 1009b3a:	b8 60 00 00 00       	mov    $0x60,%eax
 1009b3f:	c7 04 24 60 00 00 00 	movl   $0x60,(%esp)
 1009b46:	89 45 e4             	mov    %eax,-0x1c(%ebp)
 1009b49:	e8 12 9b ff ff       	call   1003660 <inb>
 1009b4e:	88 45 e3             	mov    %al,-0x1d(%ebp)
 1009b51:	eb d7                	jmp    1009b2a <PS2_Initialize+0x8a>
 1009b53:	e8 c8 03 00 00       	call   1009f20 <PS2_ReadConfig>
 1009b58:	88 45 fe             	mov    %al,-0x2(%ebp)
 1009b5b:	0f b6 4d fe          	movzbl -0x2(%ebp),%ecx
 1009b5f:	83 e1 fe             	and    $0xfffffffe,%ecx
 1009b62:	88 c8                	mov    %cl,%al
 1009b64:	88 45 fe             	mov    %al,-0x2(%ebp)
 1009b67:	0f b6 4d fe          	movzbl -0x2(%ebp),%ecx
 1009b6b:	83 e1 fd             	and    $0xfffffffd,%ecx
 1009b6e:	88 c8                	mov    %cl,%al
 1009b70:	88 45 fe             	mov    %al,-0x2(%ebp)
 1009b73:	0f b6 4d fe          	movzbl -0x2(%ebp),%ecx
 1009b77:	83 e1 bf             	and    $0xffffffbf,%ecx
 1009b7a:	88 c8                	mov    %cl,%al
 1009b7c:	88 45 fe             	mov    %al,-0x2(%ebp)
 1009b7f:	0f b6 4d fe          	movzbl -0x2(%ebp),%ecx
 1009b83:	83 e1 20             	and    $0x20,%ecx
 1009b86:	88 c8                	mov    %cl,%al
 1009b88:	88 45 fd             	mov    %al,-0x3(%ebp)
 1009b8b:	0f b6 4d fe          	movzbl -0x2(%ebp),%ecx
 1009b8f:	89 0c 24             	mov    %ecx,(%esp)
 1009b92:	e8 b9 02 00 00       	call   1009e50 <PS2_WriteConfig>
 1009b97:	b9 64 00 00 00       	mov    $0x64,%ecx
 1009b9c:	ba aa 00 00 00       	mov    $0xaa,%edx
 1009ba1:	c7 04 24 64 00 00 00 	movl   $0x64,(%esp)
 1009ba8:	c7 44 24 04 aa 00 00 	movl   $0xaa,0x4(%esp)
 1009baf:	00 
 1009bb0:	89 4d dc             	mov    %ecx,-0x24(%ebp)
 1009bb3:	89 55 d8             	mov    %edx,-0x28(%ebp)
 1009bb6:	e8 75 9a ff ff       	call   1003630 <outb>
 1009bbb:	e8 30 03 00 00       	call   1009ef0 <PS2_ReadStatus>
 1009bc0:	0f b6 c8             	movzbl %al,%ecx
 1009bc3:	83 e1 01             	and    $0x1,%ecx
 1009bc6:	83 f9 00             	cmp    $0x0,%ecx
 1009bc9:	0f 95 c0             	setne  %al
 1009bcc:	34 01                	xor    $0x1,%al
 1009bce:	a8 01                	test   $0x1,%al
 1009bd0:	75 02                	jne    1009bd4 <PS2_Initialize+0x134>
 1009bd2:	eb 02                	jmp    1009bd6 <PS2_Initialize+0x136>
 1009bd4:	eb e5                	jmp    1009bbb <PS2_Initialize+0x11b>
 1009bd6:	b8 60 00 00 00       	mov    $0x60,%eax
 1009bdb:	c7 04 24 60 00 00 00 	movl   $0x60,(%esp)
 1009be2:	89 45 d4             	mov    %eax,-0x2c(%ebp)
 1009be5:	e8 76 9a ff ff       	call   1003660 <inb>
 1009bea:	88 45 fc             	mov    %al,-0x4(%ebp)
 1009bed:	0f b6 4d fc          	movzbl -0x4(%ebp),%ecx
 1009bf1:	83 f9 55             	cmp    $0x55,%ecx
 1009bf4:	74 09                	je     1009bff <PS2_Initialize+0x15f>
 1009bf6:	c6 45 ff ff          	movb   $0xff,-0x1(%ebp)
 1009bfa:	e9 3b 02 00 00       	jmp    1009e3a <PS2_Initialize+0x39a>
 1009bff:	80 7d fd 00          	cmpb   $0x0,-0x3(%ebp)
 1009c03:	74 68                	je     1009c6d <PS2_Initialize+0x1cd>
 1009c05:	b8 64 00 00 00       	mov    $0x64,%eax
 1009c0a:	b9 a8 00 00 00       	mov    $0xa8,%ecx
 1009c0f:	c7 04 24 64 00 00 00 	movl   $0x64,(%esp)
 1009c16:	c7 44 24 04 a8 00 00 	movl   $0xa8,0x4(%esp)
 1009c1d:	00 
 1009c1e:	89 45 d0             	mov    %eax,-0x30(%ebp)
 1009c21:	89 4d cc             	mov    %ecx,-0x34(%ebp)
 1009c24:	e8 07 9a ff ff       	call   1003630 <outb>
 1009c29:	e8 f2 02 00 00       	call   1009f20 <PS2_ReadConfig>
 1009c2e:	88 45 fe             	mov    %al,-0x2(%ebp)
 1009c31:	0f b6 4d fe          	movzbl -0x2(%ebp),%ecx
 1009c35:	83 e1 20             	and    $0x20,%ecx
 1009c38:	83 f9 00             	cmp    $0x0,%ecx
 1009c3b:	74 04                	je     1009c41 <PS2_Initialize+0x1a1>
 1009c3d:	c6 45 fd 00          	movb   $0x0,-0x3(%ebp)
 1009c41:	80 7d fd 00          	cmpb   $0x0,-0x3(%ebp)
 1009c45:	74 24                	je     1009c6b <PS2_Initialize+0x1cb>
 1009c47:	b8 64 00 00 00       	mov    $0x64,%eax
 1009c4c:	b9 a7 00 00 00       	mov    $0xa7,%ecx
 1009c51:	c7 04 24 64 00 00 00 	movl   $0x64,(%esp)
 1009c58:	c7 44 24 04 a7 00 00 	movl   $0xa7,0x4(%esp)
 1009c5f:	00 
 1009c60:	89 45 c8             	mov    %eax,-0x38(%ebp)
 1009c63:	89 4d c4             	mov    %ecx,-0x3c(%ebp)
 1009c66:	e8 c5 99 ff ff       	call   1003630 <outb>
 1009c6b:	eb 00                	jmp    1009c6d <PS2_Initialize+0x1cd>
 1009c6d:	b8 64 00 00 00       	mov    $0x64,%eax
 1009c72:	b9 ab 00 00 00       	mov    $0xab,%ecx
 1009c77:	c7 04 24 64 00 00 00 	movl   $0x64,(%esp)
 1009c7e:	c7 44 24 04 ab 00 00 	movl   $0xab,0x4(%esp)
 1009c85:	00 
 1009c86:	89 45 c0             	mov    %eax,-0x40(%ebp)
 1009c89:	89 4d bc             	mov    %ecx,-0x44(%ebp)
 1009c8c:	e8 9f 99 ff ff       	call   1003630 <outb>
 1009c91:	e8 5a 02 00 00       	call   1009ef0 <PS2_ReadStatus>
 1009c96:	0f b6 c8             	movzbl %al,%ecx
 1009c99:	83 e1 01             	and    $0x1,%ecx
 1009c9c:	83 f9 00             	cmp    $0x0,%ecx
 1009c9f:	0f 95 c0             	setne  %al
 1009ca2:	34 01                	xor    $0x1,%al
 1009ca4:	a8 01                	test   $0x1,%al
 1009ca6:	75 02                	jne    1009caa <PS2_Initialize+0x20a>
 1009ca8:	eb 02                	jmp    1009cac <PS2_Initialize+0x20c>
 1009caa:	eb e5                	jmp    1009c91 <PS2_Initialize+0x1f1>
 1009cac:	b8 60 00 00 00       	mov    $0x60,%eax
 1009cb1:	c7 04 24 60 00 00 00 	movl   $0x60,(%esp)
 1009cb8:	89 45 b8             	mov    %eax,-0x48(%ebp)
 1009cbb:	e8 a0 99 ff ff       	call   1003660 <inb>
 1009cc0:	88 45 fb             	mov    %al,-0x5(%ebp)
 1009cc3:	c6 45 fa 01          	movb   $0x1,-0x6(%ebp)
 1009cc7:	80 7d fd 00          	cmpb   $0x0,-0x3(%ebp)
 1009ccb:	74 56                	je     1009d23 <PS2_Initialize+0x283>
 1009ccd:	b8 64 00 00 00       	mov    $0x64,%eax
 1009cd2:	b9 a9 00 00 00       	mov    $0xa9,%ecx
 1009cd7:	c7 04 24 64 00 00 00 	movl   $0x64,(%esp)
 1009cde:	c7 44 24 04 a9 00 00 	movl   $0xa9,0x4(%esp)
 1009ce5:	00 
 1009ce6:	89 45 b4             	mov    %eax,-0x4c(%ebp)
 1009ce9:	89 4d b0             	mov    %ecx,-0x50(%ebp)
 1009cec:	e8 3f 99 ff ff       	call   1003630 <outb>
 1009cf1:	e8 fa 01 00 00       	call   1009ef0 <PS2_ReadStatus>
 1009cf6:	0f b6 c8             	movzbl %al,%ecx
 1009cf9:	83 e1 01             	and    $0x1,%ecx
 1009cfc:	83 f9 00             	cmp    $0x0,%ecx
 1009cff:	0f 95 c0             	setne  %al
 1009d02:	34 01                	xor    $0x1,%al
 1009d04:	a8 01                	test   $0x1,%al
 1009d06:	75 02                	jne    1009d0a <PS2_Initialize+0x26a>
 1009d08:	eb 02                	jmp    1009d0c <PS2_Initialize+0x26c>
 1009d0a:	eb e5                	jmp    1009cf1 <PS2_Initialize+0x251>
 1009d0c:	b8 60 00 00 00       	mov    $0x60,%eax
 1009d11:	c7 04 24 60 00 00 00 	movl   $0x60,(%esp)
 1009d18:	89 45 ac             	mov    %eax,-0x54(%ebp)
 1009d1b:	e8 40 99 ff ff       	call   1003660 <inb>
 1009d20:	88 45 fa             	mov    %al,-0x6(%ebp)
 1009d23:	0f b6 45 fb          	movzbl -0x5(%ebp),%eax
 1009d27:	83 f8 00             	cmp    $0x0,%eax
 1009d2a:	74 12                	je     1009d3e <PS2_Initialize+0x29e>
 1009d2c:	0f b6 45 fa          	movzbl -0x6(%ebp),%eax
 1009d30:	83 f8 00             	cmp    $0x0,%eax
 1009d33:	74 09                	je     1009d3e <PS2_Initialize+0x29e>
 1009d35:	c6 45 ff ff          	movb   $0xff,-0x1(%ebp)
 1009d39:	e9 fc 00 00 00       	jmp    1009e3a <PS2_Initialize+0x39a>
 1009d3e:	e8 dd 01 00 00       	call   1009f20 <PS2_ReadConfig>
 1009d43:	88 45 fe             	mov    %al,-0x2(%ebp)
 1009d46:	0f b6 4d fb          	movzbl -0x5(%ebp),%ecx
 1009d4a:	83 f9 00             	cmp    $0x0,%ecx
 1009d4d:	75 5b                	jne    1009daa <PS2_Initialize+0x30a>
 1009d4f:	b8 64 00 00 00       	mov    $0x64,%eax
 1009d54:	b9 ae 00 00 00       	mov    $0xae,%ecx
 1009d59:	c7 04 24 64 00 00 00 	movl   $0x64,(%esp)
 1009d60:	c7 44 24 04 ae 00 00 	movl   $0xae,0x4(%esp)
 1009d67:	00 
 1009d68:	89 45 a8             	mov    %eax,-0x58(%ebp)
 1009d6b:	89 4d a4             	mov    %ecx,-0x5c(%ebp)
 1009d6e:	e8 bd 98 ff ff       	call   1003630 <outb>
 1009d73:	0f b6 45 fe          	movzbl -0x2(%ebp),%eax
 1009d77:	83 c8 01             	or     $0x1,%eax
 1009d7a:	88 c2                	mov    %al,%dl
 1009d7c:	88 55 fe             	mov    %dl,-0x2(%ebp)
 1009d7f:	0f b6 45 fe          	movzbl -0x2(%ebp),%eax
 1009d83:	83 e0 ef             	and    $0xffffffef,%eax
 1009d86:	88 c2                	mov    %al,%dl
 1009d88:	88 55 fe             	mov    %dl,-0x2(%ebp)
 1009d8b:	e8 60 01 00 00       	call   1009ef0 <PS2_ReadStatus>
 1009d90:	0f b6 c8             	movzbl %al,%ecx
 1009d93:	83 e1 02             	and    $0x2,%ecx
 1009d96:	83 f9 00             	cmp    $0x0,%ecx
 1009d99:	0f 95 c0             	setne  %al
 1009d9c:	34 01                	xor    $0x1,%al
 1009d9e:	34 01                	xor    $0x1,%al
 1009da0:	a8 01                	test   $0x1,%al
 1009da2:	75 02                	jne    1009da6 <PS2_Initialize+0x306>
 1009da4:	eb 02                	jmp    1009da8 <PS2_Initialize+0x308>
 1009da6:	eb e3                	jmp    1009d8b <PS2_Initialize+0x2eb>
 1009da8:	eb 00                	jmp    1009daa <PS2_Initialize+0x30a>
 1009daa:	0f b6 45 fa          	movzbl -0x6(%ebp),%eax
 1009dae:	83 f8 00             	cmp    $0x0,%eax
 1009db1:	75 5b                	jne    1009e0e <PS2_Initialize+0x36e>
 1009db3:	b8 64 00 00 00       	mov    $0x64,%eax
 1009db8:	b9 a8 00 00 00       	mov    $0xa8,%ecx
 1009dbd:	c7 04 24 64 00 00 00 	movl   $0x64,(%esp)
 1009dc4:	c7 44 24 04 a8 00 00 	movl   $0xa8,0x4(%esp)
 1009dcb:	00 
 1009dcc:	89 45 a0             	mov    %eax,-0x60(%ebp)
 1009dcf:	89 4d 9c             	mov    %ecx,-0x64(%ebp)
 1009dd2:	e8 59 98 ff ff       	call   1003630 <outb>
 1009dd7:	0f b6 45 fe          	movzbl -0x2(%ebp),%eax
 1009ddb:	83 c8 02             	or     $0x2,%eax
 1009dde:	88 c2                	mov    %al,%dl
 1009de0:	88 55 fe             	mov    %dl,-0x2(%ebp)
 1009de3:	0f b6 45 fe          	movzbl -0x2(%ebp),%eax
 1009de7:	83 e0 df             	and    $0xffffffdf,%eax
 1009dea:	88 c2                	mov    %al,%dl
 1009dec:	88 55 fe             	mov    %dl,-0x2(%ebp)
 1009def:	e8 fc 00 00 00       	call   1009ef0 <PS2_ReadStatus>
 1009df4:	0f b6 c8             	movzbl %al,%ecx
 1009df7:	83 e1 02             	and    $0x2,%ecx
 1009dfa:	83 f9 00             	cmp    $0x0,%ecx
 1009dfd:	0f 95 c0             	setne  %al
 1009e00:	34 01                	xor    $0x1,%al
 1009e02:	34 01                	xor    $0x1,%al
 1009e04:	a8 01                	test   $0x1,%al
 1009e06:	75 02                	jne    1009e0a <PS2_Initialize+0x36a>
 1009e08:	eb 02                	jmp    1009e0c <PS2_Initialize+0x36c>
 1009e0a:	eb e3                	jmp    1009def <PS2_Initialize+0x34f>
 1009e0c:	eb 00                	jmp    1009e0e <PS2_Initialize+0x36e>
 1009e0e:	0f b6 45 fe          	movzbl -0x2(%ebp),%eax
 1009e12:	89 04 24             	mov    %eax,(%esp)
 1009e15:	e8 36 00 00 00       	call   1009e50 <PS2_WriteConfig>
 1009e1a:	0f b6 45 fb          	movzbl -0x5(%ebp),%eax
 1009e1e:	83 f8 00             	cmp    $0x0,%eax
 1009e21:	75 08                	jne    1009e2b <PS2_Initialize+0x38b>
 1009e23:	e8 78 01 00 00       	call   1009fa0 <PS2Keyboard_Initialize>
 1009e28:	88 45 9b             	mov    %al,-0x65(%ebp)
 1009e2b:	0f b6 45 fa          	movzbl -0x6(%ebp),%eax
 1009e2f:	83 f8 00             	cmp    $0x0,%eax
 1009e32:	75 02                	jne    1009e36 <PS2_Initialize+0x396>
 1009e34:	eb 00                	jmp    1009e36 <PS2_Initialize+0x396>
 1009e36:	c6 45 ff 00          	movb   $0x0,-0x1(%ebp)
 1009e3a:	0f b6 45 ff          	movzbl -0x1(%ebp),%eax
 1009e3e:	83 c4 70             	add    $0x70,%esp
 1009e41:	5d                   	pop    %ebp
 1009e42:	c3                   	ret    
 1009e43:	8d b6 00 00 00 00    	lea    0x0(%esi),%esi
 1009e49:	8d bc 27 00 00 00 00 	lea    0x0(%edi,%eiz,1),%edi

01009e50 <PS2_WriteConfig>:
 1009e50:	55                   	push   %ebp
 1009e51:	89 e5                	mov    %esp,%ebp
 1009e53:	83 ec 18             	sub    $0x18,%esp
 1009e56:	8a 45 08             	mov    0x8(%ebp),%al
 1009e59:	b9 64 00 00 00       	mov    $0x64,%ecx
 1009e5e:	ba 60 00 00 00       	mov    $0x60,%edx
 1009e63:	88 45 ff             	mov    %al,-0x1(%ebp)
 1009e66:	c7 04 24 64 00 00 00 	movl   $0x64,(%esp)
 1009e6d:	c7 44 24 04 60 00 00 	movl   $0x60,0x4(%esp)
 1009e74:	00 
 1009e75:	89 55 f8             	mov    %edx,-0x8(%ebp)
 1009e78:	89 4d f4             	mov    %ecx,-0xc(%ebp)
 1009e7b:	e8 b0 97 ff ff       	call   1003630 <outb>
 1009e80:	e8 6b 00 00 00       	call   1009ef0 <PS2_ReadStatus>
 1009e85:	0f b6 c8             	movzbl %al,%ecx
 1009e88:	83 e1 02             	and    $0x2,%ecx
 1009e8b:	83 f9 00             	cmp    $0x0,%ecx
 1009e8e:	0f 95 c0             	setne  %al
 1009e91:	34 01                	xor    $0x1,%al
 1009e93:	34 01                	xor    $0x1,%al
 1009e95:	a8 01                	test   $0x1,%al
 1009e97:	75 02                	jne    1009e9b <PS2_WriteConfig+0x4b>
 1009e99:	eb 02                	jmp    1009e9d <PS2_WriteConfig+0x4d>
 1009e9b:	eb e3                	jmp    1009e80 <PS2_WriteConfig+0x30>
 1009e9d:	eb 00                	jmp    1009e9f <PS2_WriteConfig+0x4f>
 1009e9f:	e8 4c 00 00 00       	call   1009ef0 <PS2_ReadStatus>
 1009ea4:	0f b6 c8             	movzbl %al,%ecx
 1009ea7:	83 e1 01             	and    $0x1,%ecx
 1009eaa:	83 f9 00             	cmp    $0x0,%ecx
 1009ead:	74 02                	je     1009eb1 <PS2_WriteConfig+0x61>
 1009eaf:	eb ee                	jmp    1009e9f <PS2_WriteConfig+0x4f>
 1009eb1:	b8 60 00 00 00       	mov    $0x60,%eax
 1009eb6:	c7 04 24 60 00 00 00 	movl   $0x60,(%esp)
 1009ebd:	0f b6 4d ff          	movzbl -0x1(%ebp),%ecx
 1009ec1:	89 4c 24 04          	mov    %ecx,0x4(%esp)
 1009ec5:	89 45 f0             	mov    %eax,-0x10(%ebp)
 1009ec8:	e8 63 97 ff ff       	call   1003630 <outb>
 1009ecd:	e8 1e 00 00 00       	call   1009ef0 <PS2_ReadStatus>
 1009ed2:	0f b6 c8             	movzbl %al,%ecx
 1009ed5:	83 e1 02             	and    $0x2,%ecx
 1009ed8:	83 f9 00             	cmp    $0x0,%ecx
 1009edb:	0f 95 c0             	setne  %al
 1009ede:	34 01                	xor    $0x1,%al
 1009ee0:	34 01                	xor    $0x1,%al
 1009ee2:	a8 01                	test   $0x1,%al
 1009ee4:	75 02                	jne    1009ee8 <PS2_WriteConfig+0x98>
 1009ee6:	eb 02                	jmp    1009eea <PS2_WriteConfig+0x9a>
 1009ee8:	eb e3                	jmp    1009ecd <PS2_WriteConfig+0x7d>
 1009eea:	83 c4 18             	add    $0x18,%esp
 1009eed:	5d                   	pop    %ebp
 1009eee:	c3                   	ret    
 1009eef:	90                   	nop

01009ef0 <PS2_ReadStatus>:
 1009ef0:	55                   	push   %ebp
 1009ef1:	89 e5                	mov    %esp,%ebp
 1009ef3:	83 ec 08             	sub    $0x8,%esp
 1009ef6:	b8 64 00 00 00       	mov    $0x64,%eax
 1009efb:	c7 04 24 64 00 00 00 	movl   $0x64,(%esp)
 1009f02:	89 45 fc             	mov    %eax,-0x4(%ebp)
 1009f05:	e8 56 97 ff ff       	call   1003660 <inb>
 1009f0a:	0f b6 c0             	movzbl %al,%eax
 1009f0d:	83 c4 08             	add    $0x8,%esp
 1009f10:	5d                   	pop    %ebp
 1009f11:	c3                   	ret    
 1009f12:	8d b4 26 00 00 00 00 	lea    0x0(%esi,%eiz,1),%esi
 1009f19:	8d bc 27 00 00 00 00 	lea    0x0(%edi,%eiz,1),%edi

01009f20 <PS2_ReadConfig>:
 1009f20:	55                   	push   %ebp
 1009f21:	89 e5                	mov    %esp,%ebp
 1009f23:	83 ec 14             	sub    $0x14,%esp
 1009f26:	b8 64 00 00 00       	mov    $0x64,%eax
 1009f2b:	b9 20 00 00 00       	mov    $0x20,%ecx
 1009f30:	c7 04 24 64 00 00 00 	movl   $0x64,(%esp)
 1009f37:	c7 44 24 04 20 00 00 	movl   $0x20,0x4(%esp)
 1009f3e:	00 
 1009f3f:	89 45 fc             	mov    %eax,-0x4(%ebp)
 1009f42:	89 4d f8             	mov    %ecx,-0x8(%ebp)
 1009f45:	e8 e6 96 ff ff       	call   1003630 <outb>
 1009f4a:	e8 a1 ff ff ff       	call   1009ef0 <PS2_ReadStatus>
 1009f4f:	0f b6 c8             	movzbl %al,%ecx
 1009f52:	83 e1 02             	and    $0x2,%ecx
 1009f55:	83 f9 00             	cmp    $0x0,%ecx
 1009f58:	0f 95 c0             	setne  %al
 1009f5b:	34 01                	xor    $0x1,%al
 1009f5d:	34 01                	xor    $0x1,%al
 1009f5f:	a8 01                	test   $0x1,%al
 1009f61:	75 02                	jne    1009f65 <PS2_ReadConfig+0x45>
 1009f63:	eb 02                	jmp    1009f67 <PS2_ReadConfig+0x47>
 1009f65:	eb e3                	jmp    1009f4a <PS2_ReadConfig+0x2a>
 1009f67:	eb 00                	jmp    1009f69 <PS2_ReadConfig+0x49>
 1009f69:	e8 82 ff ff ff       	call   1009ef0 <PS2_ReadStatus>
 1009f6e:	0f b6 c8             	movzbl %al,%ecx
 1009f71:	83 e1 01             	and    $0x1,%ecx
 1009f74:	83 f9 00             	cmp    $0x0,%ecx
 1009f77:	0f 95 c0             	setne  %al
 1009f7a:	34 01                	xor    $0x1,%al
 1009f7c:	a8 01                	test   $0x1,%al
 1009f7e:	75 02                	jne    1009f82 <PS2_ReadConfig+0x62>
 1009f80:	eb 02                	jmp    1009f84 <PS2_ReadConfig+0x64>
 1009f82:	eb e5                	jmp    1009f69 <PS2_ReadConfig+0x49>
 1009f84:	b8 60 00 00 00       	mov    $0x60,%eax
 1009f89:	c7 04 24 60 00 00 00 	movl   $0x60,(%esp)
 1009f90:	89 45 f4             	mov    %eax,-0xc(%ebp)
 1009f93:	e8 c8 96 ff ff       	call   1003660 <inb>
 1009f98:	0f b6 c0             	movzbl %al,%eax
 1009f9b:	83 c4 14             	add    $0x14,%esp
 1009f9e:	5d                   	pop    %ebp
 1009f9f:	c3                   	ret    

01009fa0 <PS2Keyboard_Initialize>:
 1009fa0:	55                   	push   %ebp
 1009fa1:	89 e5                	mov    %esp,%ebp
 1009fa3:	83 ec 24             	sub    $0x24,%esp
 1009fa6:	e8 45 ff ff ff       	call   1009ef0 <PS2_ReadStatus>
 1009fab:	0f b6 c8             	movzbl %al,%ecx
 1009fae:	83 e1 01             	and    $0x1,%ecx
 1009fb1:	83 f9 00             	cmp    $0x0,%ecx
 1009fb4:	74 02                	je     1009fb8 <PS2Keyboard_Initialize+0x18>
 1009fb6:	eb ee                	jmp    1009fa6 <PS2Keyboard_Initialize+0x6>
 1009fb8:	b8 60 00 00 00       	mov    $0x60,%eax
 1009fbd:	b9 ff 00 00 00       	mov    $0xff,%ecx
 1009fc2:	c7 04 24 60 00 00 00 	movl   $0x60,(%esp)
 1009fc9:	c7 44 24 04 ff 00 00 	movl   $0xff,0x4(%esp)
 1009fd0:	00 
 1009fd1:	89 45 f8             	mov    %eax,-0x8(%ebp)
 1009fd4:	89 4d f4             	mov    %ecx,-0xc(%ebp)
 1009fd7:	e8 54 96 ff ff       	call   1003630 <outb>
 1009fdc:	e8 0f ff ff ff       	call   1009ef0 <PS2_ReadStatus>
 1009fe1:	0f b6 c8             	movzbl %al,%ecx
 1009fe4:	83 e1 01             	and    $0x1,%ecx
 1009fe7:	83 f9 00             	cmp    $0x0,%ecx
 1009fea:	0f 95 c0             	setne  %al
 1009fed:	34 01                	xor    $0x1,%al
 1009fef:	a8 01                	test   $0x1,%al
 1009ff1:	75 02                	jne    1009ff5 <PS2Keyboard_Initialize+0x55>
 1009ff3:	eb 02                	jmp    1009ff7 <PS2Keyboard_Initialize+0x57>
 1009ff5:	eb e5                	jmp    1009fdc <PS2Keyboard_Initialize+0x3c>
 1009ff7:	b8 60 00 00 00       	mov    $0x60,%eax
 1009ffc:	66 c7 45 fc 00 00    	movw   $0x0,-0x4(%ebp)
 100a002:	c7 04 24 60 00 00 00 	movl   $0x60,(%esp)
 100a009:	89 45 f0             	mov    %eax,-0x10(%ebp)
 100a00c:	e8 4f 96 ff ff       	call   1003660 <inb>
 100a011:	88 45 ef             	mov    %al,-0x11(%ebp)
 100a014:	e8 d7 fe ff ff       	call   1009ef0 <PS2_ReadStatus>
 100a019:	0f b6 c8             	movzbl %al,%ecx
 100a01c:	83 e1 01             	and    $0x1,%ecx
 100a01f:	83 f9 00             	cmp    $0x0,%ecx
 100a022:	0f 95 c0             	setne  %al
 100a025:	34 01                	xor    $0x1,%al
 100a027:	a8 01                	test   $0x1,%al
 100a029:	75 02                	jne    100a02d <PS2Keyboard_Initialize+0x8d>
 100a02b:	eb 02                	jmp    100a02f <PS2Keyboard_Initialize+0x8f>
 100a02d:	eb e5                	jmp    100a014 <PS2Keyboard_Initialize+0x74>
 100a02f:	b8 60 00 00 00       	mov    $0x60,%eax
 100a034:	c7 04 24 60 00 00 00 	movl   $0x60,(%esp)
 100a03b:	89 45 e8             	mov    %eax,-0x18(%ebp)
 100a03e:	e8 1d 96 ff ff       	call   1003660 <inb>
 100a043:	0f b6 4d ff          	movzbl -0x1(%ebp),%ecx
 100a047:	88 45 e7             	mov    %al,-0x19(%ebp)
 100a04a:	89 c8                	mov    %ecx,%eax
 100a04c:	83 c4 24             	add    $0x24,%esp
 100a04f:	5d                   	pop    %ebp
 100a050:	c3                   	ret    
 100a051:	66 90                	xchg   %ax,%ax
 100a053:	66 90                	xchg   %ax,%ax
 100a055:	66 90                	xchg   %ax,%ax
 100a057:	66 90                	xchg   %ax,%ax
 100a059:	66 90                	xchg   %ax,%ax
 100a05b:	66 90                	xchg   %ax,%ax
 100a05d:	66 90                	xchg   %ax,%ax
 100a05f:	90                   	nop

0100a060 <kmalloc_init>:
 100a060:	55                   	push   %ebp
 100a061:	89 e5                	mov    %esp,%ebp
 100a063:	56                   	push   %esi
 100a064:	83 e4 f8             	and    $0xfffffff8,%esp
 100a067:	83 ec 50             	sub    $0x50,%esp
 100a06a:	b8 00 00 00 08       	mov    $0x8000000,%eax
 100a06f:	b9 00 00 00 00       	mov    $0x0,%ecx
 100a074:	c7 04 24 00 00 00 08 	movl   $0x8000000,(%esp)
 100a07b:	c7 44 24 04 00 00 00 	movl   $0x0,0x4(%esp)
 100a082:	00 
 100a083:	89 44 24 34          	mov    %eax,0x34(%esp)
 100a087:	89 4c 24 30          	mov    %ecx,0x30(%esp)
 100a08b:	e8 b0 e5 ff ff       	call   1008640 <virtMemMan_FindEmptyAddress>
 100a090:	89 44 24 48          	mov    %eax,0x48(%esp)
 100a094:	c7 44 24 44 00 00 00 	movl   $0x8000000,0x44(%esp)
 100a09b:	08 
 100a09c:	83 7c 24 44 00       	cmpl   $0x0,0x44(%esp)
 100a0a1:	76 5e                	jbe    100a101 <kmalloc_init+0xa1>
 100a0a3:	e8 a8 c3 ff ff       	call   1006450 <physMemMan_Alloc>
 100a0a8:	89 54 24 3c          	mov    %edx,0x3c(%esp)
 100a0ac:	89 44 24 38          	mov    %eax,0x38(%esp)
 100a0b0:	8b 4c 24 48          	mov    0x48(%esp),%ecx
 100a0b4:	89 e6                	mov    %esp,%esi
 100a0b6:	89 56 08             	mov    %edx,0x8(%esi)
 100a0b9:	89 46 04             	mov    %eax,0x4(%esi)
 100a0bc:	89 0e                	mov    %ecx,(%esi)
 100a0be:	c7 46 18 00 00 00 00 	movl   $0x0,0x18(%esi)
 100a0c5:	c7 46 14 03 00 00 00 	movl   $0x3,0x14(%esi)
 100a0cc:	c7 46 10 00 00 00 00 	movl   $0x0,0x10(%esi)
 100a0d3:	c7 46 0c 00 10 00 00 	movl   $0x1000,0xc(%esi)
 100a0da:	e8 61 da ff ff       	call   1007b40 <virtMemMan_Map>
 100a0df:	8b 4c 24 48          	mov    0x48(%esp),%ecx
 100a0e3:	81 c1 00 10 00 00    	add    $0x1000,%ecx
 100a0e9:	89 4c 24 48          	mov    %ecx,0x48(%esp)
 100a0ed:	8b 4c 24 44          	mov    0x44(%esp),%ecx
 100a0f1:	81 e9 00 10 00 00    	sub    $0x1000,%ecx
 100a0f7:	89 4c 24 44          	mov    %ecx,0x44(%esp)
 100a0fb:	89 44 24 2c          	mov    %eax,0x2c(%esp)
 100a0ff:	eb 9b                	jmp    100a09c <kmalloc_init+0x3c>
 100a101:	b8 00 00 00 00       	mov    $0x0,%eax
 100a106:	b9 00 00 10 00       	mov    $0x100000,%ecx
 100a10b:	8b 54 24 48          	mov    0x48(%esp),%edx
 100a10f:	81 ea 00 00 00 08    	sub    $0x8000000,%edx
 100a115:	89 54 24 48          	mov    %edx,0x48(%esp)
 100a119:	8b 54 24 48          	mov    0x48(%esp),%edx
 100a11d:	89 15 d0 f0 a8 04    	mov    %edx,0x4a8f0d0
 100a123:	89 15 d4 f0 a8 04    	mov    %edx,0x4a8f0d4
 100a129:	8b 54 24 48          	mov    0x48(%esp),%edx
 100a12d:	81 c2 00 00 10 00    	add    $0x100000,%edx
 100a133:	89 15 24 f0 a8 04    	mov    %edx,0x4a8f024
 100a139:	c7 05 c8 f0 a8 04 55 	movl   $0x15555,0x4a8f0c8
 100a140:	55 01 00 
 100a143:	c7 05 cc f0 a8 04 00 	movl   $0x7f00000,0x4a8f0cc
 100a14a:	00 f0 07 
 100a14d:	8b 15 d0 f0 a8 04    	mov    0x4a8f0d0,%edx
 100a153:	89 14 24             	mov    %edx,(%esp)
 100a156:	c7 44 24 04 00 00 00 	movl   $0x0,0x4(%esp)
 100a15d:	00 
 100a15e:	c7 44 24 08 00 00 10 	movl   $0x100000,0x8(%esp)
 100a165:	00 
 100a166:	89 44 24 28          	mov    %eax,0x28(%esp)
 100a16a:	89 4c 24 24          	mov    %ecx,0x24(%esp)
 100a16e:	e8 8d 96 ff ff       	call   1003800 <memset>
 100a173:	8b 0d 24 f0 a8 04    	mov    0x4a8f024,%ecx
 100a179:	8b 15 d0 f0 a8 04    	mov    0x4a8f0d0,%edx
 100a17f:	89 0a                	mov    %ecx,(%edx)
 100a181:	8b 0d cc f0 a8 04    	mov    0x4a8f0cc,%ecx
 100a187:	8b 15 d0 f0 a8 04    	mov    0x4a8f0d0,%edx
 100a18d:	89 4a 04             	mov    %ecx,0x4(%edx)
 100a190:	8b 0d d0 f0 a8 04    	mov    0x4a8f0d0,%ecx
 100a196:	c7 41 08 00 00 00 00 	movl   $0x0,0x8(%ecx)
 100a19d:	8b 0d d0 f0 a8 04    	mov    0x4a8f0d0,%ecx
 100a1a3:	8b 09                	mov    (%ecx),%ecx
 100a1a5:	83 e1 fe             	and    $0xfffffffe,%ecx
 100a1a8:	8b 15 d0 f0 a8 04    	mov    0x4a8f0d0,%edx
 100a1ae:	89 0a                	mov    %ecx,(%edx)
 100a1b0:	8b 0d d4 f0 a8 04    	mov    0x4a8f0d4,%ecx
 100a1b6:	83 c1 0c             	add    $0xc,%ecx
 100a1b9:	89 0d d4 f0 a8 04    	mov    %ecx,0x4a8f0d4
 100a1bf:	89 44 24 20          	mov    %eax,0x20(%esp)
 100a1c3:	8d 65 fc             	lea    -0x4(%ebp),%esp
 100a1c6:	5e                   	pop    %esi
 100a1c7:	5d                   	pop    %ebp
 100a1c8:	c3                   	ret    
 100a1c9:	8d b4 26 00 00 00 00 	lea    0x0(%esi,%eiz,1),%esi

0100a1d0 <kcompact>:
 100a1d0:	55                   	push   %ebp
 100a1d1:	89 e5                	mov    %esp,%ebp
 100a1d3:	50                   	push   %eax
 100a1d4:	e8 57 8a ff ff       	call   1002c30 <Interrupts_Lock>
 100a1d9:	a1 d0 f0 a8 04       	mov    0x4a8f0d0,%eax
 100a1de:	89 45 fc             	mov    %eax,-0x4(%ebp)
 100a1e1:	8b 45 fc             	mov    -0x4(%ebp),%eax
 100a1e4:	83 78 08 00          	cmpl   $0x0,0x8(%eax)
 100a1e8:	74 5c                	je     100a246 <kcompact+0x76>
 100a1ea:	eb 00                	jmp    100a1ec <kcompact+0x1c>
 100a1ec:	8b 45 fc             	mov    -0x4(%ebp),%eax
 100a1ef:	83 78 08 00          	cmpl   $0x0,0x8(%eax)
 100a1f3:	74 1a                	je     100a20f <kcompact+0x3f>
 100a1f5:	8b 45 fc             	mov    -0x4(%ebp),%eax
 100a1f8:	8b 00                	mov    (%eax),%eax
 100a1fa:	83 e0 01             	and    $0x1,%eax
 100a1fd:	83 f8 00             	cmp    $0x0,%eax
 100a200:	75 02                	jne    100a204 <kcompact+0x34>
 100a202:	eb 0b                	jmp    100a20f <kcompact+0x3f>
 100a204:	8b 45 fc             	mov    -0x4(%ebp),%eax
 100a207:	8b 40 08             	mov    0x8(%eax),%eax
 100a20a:	89 45 fc             	mov    %eax,-0x4(%ebp)
 100a20d:	eb dd                	jmp    100a1ec <kcompact+0x1c>
 100a20f:	8b 45 fc             	mov    -0x4(%ebp),%eax
 100a212:	83 78 08 00          	cmpl   $0x0,0x8(%eax)
 100a216:	74 2c                	je     100a244 <kcompact+0x74>
 100a218:	8b 45 fc             	mov    -0x4(%ebp),%eax
 100a21b:	8b 40 08             	mov    0x8(%eax),%eax
 100a21e:	8b 40 04             	mov    0x4(%eax),%eax
 100a221:	8b 4d fc             	mov    -0x4(%ebp),%ecx
 100a224:	8b 51 04             	mov    0x4(%ecx),%edx
 100a227:	01 c2                	add    %eax,%edx
 100a229:	89 51 04             	mov    %edx,0x4(%ecx)
 100a22c:	8b 45 fc             	mov    -0x4(%ebp),%eax
 100a22f:	8b 40 08             	mov    0x8(%eax),%eax
 100a232:	8b 40 08             	mov    0x8(%eax),%eax
 100a235:	8b 4d fc             	mov    -0x4(%ebp),%ecx
 100a238:	89 41 08             	mov    %eax,0x8(%ecx)
 100a23b:	8b 45 fc             	mov    -0x4(%ebp),%eax
 100a23e:	8b 40 08             	mov    0x8(%eax),%eax
 100a241:	89 45 fc             	mov    %eax,-0x4(%ebp)
 100a244:	eb 9b                	jmp    100a1e1 <kcompact+0x11>
 100a246:	e8 35 8a ff ff       	call   1002c80 <Interrupts_Unlock>
 100a24b:	83 c4 04             	add    $0x4,%esp
 100a24e:	5d                   	pop    %ebp
 100a24f:	c3                   	ret    

0100a250 <kmalloc>:
 100a250:	55                   	push   %ebp
 100a251:	89 e5                	mov    %esp,%ebp
 100a253:	83 ec 20             	sub    $0x20,%esp
 100a256:	8b 45 08             	mov    0x8(%ebp),%eax
 100a259:	89 45 f8             	mov    %eax,-0x8(%ebp)
 100a25c:	a1 d0 f0 a8 04       	mov    0x4a8f0d0,%eax
 100a261:	89 45 f4             	mov    %eax,-0xc(%ebp)
 100a264:	b0 00                	mov    $0x0,%al
 100a266:	83 7d f4 00          	cmpl   $0x0,-0xc(%ebp)
 100a26a:	88 45 e7             	mov    %al,-0x19(%ebp)
 100a26d:	74 0d                	je     100a27c <kmalloc+0x2c>
 100a26f:	8b 45 f4             	mov    -0xc(%ebp),%eax
 100a272:	83 78 08 00          	cmpl   $0x0,0x8(%eax)
 100a276:	0f 95 c1             	setne  %cl
 100a279:	88 4d e7             	mov    %cl,-0x19(%ebp)
 100a27c:	8a 45 e7             	mov    -0x19(%ebp),%al
 100a27f:	a8 01                	test   $0x1,%al
 100a281:	75 02                	jne    100a285 <kmalloc+0x35>
 100a283:	eb 25                	jmp    100a2aa <kmalloc+0x5a>
 100a285:	8b 45 f4             	mov    -0xc(%ebp),%eax
 100a288:	8b 00                	mov    (%eax),%eax
 100a28a:	83 e0 01             	and    $0x1,%eax
 100a28d:	83 f8 00             	cmp    $0x0,%eax
 100a290:	75 0d                	jne    100a29f <kmalloc+0x4f>
 100a292:	8b 45 f4             	mov    -0xc(%ebp),%eax
 100a295:	8b 40 04             	mov    0x4(%eax),%eax
 100a298:	3b 45 f8             	cmp    -0x8(%ebp),%eax
 100a29b:	72 02                	jb     100a29f <kmalloc+0x4f>
 100a29d:	eb 0b                	jmp    100a2aa <kmalloc+0x5a>
 100a29f:	8b 45 f4             	mov    -0xc(%ebp),%eax
 100a2a2:	8b 40 08             	mov    0x8(%eax),%eax
 100a2a5:	89 45 f4             	mov    %eax,-0xc(%ebp)
 100a2a8:	eb ba                	jmp    100a264 <kmalloc+0x14>
 100a2aa:	8b 45 f4             	mov    -0xc(%ebp),%eax
 100a2ad:	8b 00                	mov    (%eax),%eax
 100a2af:	83 e0 01             	and    $0x1,%eax
 100a2b2:	83 f8 01             	cmp    $0x1,%eax
 100a2b5:	0f 94 c1             	sete   %cl
 100a2b8:	80 e1 01             	and    $0x1,%cl
 100a2bb:	0f b6 c1             	movzbl %cl,%eax
 100a2be:	8b 55 f4             	mov    -0xc(%ebp),%edx
 100a2c1:	8b 52 04             	mov    0x4(%edx),%edx
 100a2c4:	3b 55 f8             	cmp    -0x8(%ebp),%edx
 100a2c7:	0f 92 c1             	setb   %cl
 100a2ca:	80 e1 01             	and    $0x1,%cl
 100a2cd:	0f b6 d1             	movzbl %cl,%edx
 100a2d0:	09 d0                	or     %edx,%eax
 100a2d2:	83 f8 00             	cmp    $0x0,%eax
 100a2d5:	74 3c                	je     100a313 <kmalloc+0xc3>
 100a2d7:	80 3d d8 f0 a8 04 00 	cmpb   $0x0,0x4a8f0d8
 100a2de:	75 27                	jne    100a307 <kmalloc+0xb7>
 100a2e0:	c6 05 d8 f0 a8 04 01 	movb   $0x1,0x4a8f0d8
 100a2e7:	8b 45 f8             	mov    -0x8(%ebp),%eax
 100a2ea:	89 04 24             	mov    %eax,(%esp)
 100a2ed:	e8 5e ff ff ff       	call   100a250 <kmalloc>
 100a2f2:	89 45 f0             	mov    %eax,-0x10(%ebp)
 100a2f5:	c6 05 d8 f0 a8 04 00 	movb   $0x0,0x4a8f0d8
 100a2fc:	8b 45 f0             	mov    -0x10(%ebp),%eax
 100a2ff:	89 45 fc             	mov    %eax,-0x4(%ebp)
 100a302:	e9 98 00 00 00       	jmp    100a39f <kmalloc+0x14f>
 100a307:	c7 45 fc 00 00 00 00 	movl   $0x0,-0x4(%ebp)
 100a30e:	e9 8c 00 00 00       	jmp    100a39f <kmalloc+0x14f>
 100a313:	8b 45 f4             	mov    -0xc(%ebp),%eax
 100a316:	8b 00                	mov    (%eax),%eax
 100a318:	83 e0 fe             	and    $0xfffffffe,%eax
 100a31b:	89 45 ec             	mov    %eax,-0x14(%ebp)
 100a31e:	8b 45 f4             	mov    -0xc(%ebp),%eax
 100a321:	8b 40 04             	mov    0x4(%eax),%eax
 100a324:	2b 45 f8             	sub    -0x8(%ebp),%eax
 100a327:	89 45 e8             	mov    %eax,-0x18(%ebp)
 100a32a:	83 7d e8 00          	cmpl   $0x0,-0x18(%ebp)
 100a32e:	74 53                	je     100a383 <kmalloc+0x133>
 100a330:	8b 45 ec             	mov    -0x14(%ebp),%eax
 100a333:	03 45 f8             	add    -0x8(%ebp),%eax
 100a336:	8b 0d d4 f0 a8 04    	mov    0x4a8f0d4,%ecx
 100a33c:	89 01                	mov    %eax,(%ecx)
 100a33e:	8b 45 e8             	mov    -0x18(%ebp),%eax
 100a341:	8b 0d d4 f0 a8 04    	mov    0x4a8f0d4,%ecx
 100a347:	89 41 04             	mov    %eax,0x4(%ecx)
 100a34a:	8b 45 f4             	mov    -0xc(%ebp),%eax
 100a34d:	8b 40 08             	mov    0x8(%eax),%eax
 100a350:	8b 0d d4 f0 a8 04    	mov    0x4a8f0d4,%ecx
 100a356:	89 41 08             	mov    %eax,0x8(%ecx)
 100a359:	a1 d4 f0 a8 04       	mov    0x4a8f0d4,%eax
 100a35e:	8b 00                	mov    (%eax),%eax
 100a360:	83 e0 fe             	and    $0xfffffffe,%eax
 100a363:	8b 0d d4 f0 a8 04    	mov    0x4a8f0d4,%ecx
 100a369:	89 01                	mov    %eax,(%ecx)
 100a36b:	a1 d4 f0 a8 04       	mov    0x4a8f0d4,%eax
 100a370:	8b 4d f4             	mov    -0xc(%ebp),%ecx
 100a373:	89 41 08             	mov    %eax,0x8(%ecx)
 100a376:	a1 d4 f0 a8 04       	mov    0x4a8f0d4,%eax
 100a37b:	83 c0 0c             	add    $0xc,%eax
 100a37e:	a3 d4 f0 a8 04       	mov    %eax,0x4a8f0d4
 100a383:	8b 45 f4             	mov    -0xc(%ebp),%eax
 100a386:	8b 00                	mov    (%eax),%eax
 100a388:	83 c8 01             	or     $0x1,%eax
 100a38b:	8b 4d f4             	mov    -0xc(%ebp),%ecx
 100a38e:	89 01                	mov    %eax,(%ecx)
 100a390:	8b 45 f8             	mov    -0x8(%ebp),%eax
 100a393:	8b 4d f4             	mov    -0xc(%ebp),%ecx
 100a396:	89 41 04             	mov    %eax,0x4(%ecx)
 100a399:	8b 45 ec             	mov    -0x14(%ebp),%eax
 100a39c:	89 45 fc             	mov    %eax,-0x4(%ebp)
 100a39f:	8b 45 fc             	mov    -0x4(%ebp),%eax
 100a3a2:	83 c4 20             	add    $0x20,%esp
 100a3a5:	5d                   	pop    %ebp
 100a3a6:	c3                   	ret    
 100a3a7:	89 f6                	mov    %esi,%esi
 100a3a9:	8d bc 27 00 00 00 00 	lea    0x0(%edi,%eiz,1),%edi

0100a3b0 <kfree>:
 100a3b0:	55                   	push   %ebp
 100a3b1:	89 e5                	mov    %esp,%ebp
 100a3b3:	83 ec 08             	sub    $0x8,%esp
 100a3b6:	8b 45 08             	mov    0x8(%ebp),%eax
 100a3b9:	89 45 fc             	mov    %eax,-0x4(%ebp)
 100a3bc:	a1 d0 f0 a8 04       	mov    0x4a8f0d0,%eax
 100a3c1:	89 45 f8             	mov    %eax,-0x8(%ebp)
 100a3c4:	8b 45 f8             	mov    -0x8(%ebp),%eax
 100a3c7:	83 78 08 00          	cmpl   $0x0,0x8(%eax)
 100a3cb:	74 26                	je     100a3f3 <kfree+0x43>
 100a3cd:	8b 45 f8             	mov    -0x8(%ebp),%eax
 100a3d0:	8b 00                	mov    (%eax),%eax
 100a3d2:	83 e0 01             	and    $0x1,%eax
 100a3d5:	83 f8 01             	cmp    $0x1,%eax
 100a3d8:	75 0e                	jne    100a3e8 <kfree+0x38>
 100a3da:	8b 45 f8             	mov    -0x8(%ebp),%eax
 100a3dd:	8b 00                	mov    (%eax),%eax
 100a3df:	8b 4d fc             	mov    -0x4(%ebp),%ecx
 100a3e2:	39 c8                	cmp    %ecx,%eax
 100a3e4:	75 02                	jne    100a3e8 <kfree+0x38>
 100a3e6:	eb 0b                	jmp    100a3f3 <kfree+0x43>
 100a3e8:	8b 45 f8             	mov    -0x8(%ebp),%eax
 100a3eb:	8b 40 08             	mov    0x8(%eax),%eax
 100a3ee:	89 45 f8             	mov    %eax,-0x8(%ebp)
 100a3f1:	eb d1                	jmp    100a3c4 <kfree+0x14>
 100a3f3:	8b 45 f8             	mov    -0x8(%ebp),%eax
 100a3f6:	8b 00                	mov    (%eax),%eax
 100a3f8:	83 e0 fe             	and    $0xfffffffe,%eax
 100a3fb:	8b 4d f8             	mov    -0x8(%ebp),%ecx
 100a3fe:	89 01                	mov    %eax,(%ecx)
 100a400:	83 c4 08             	add    $0x8,%esp
 100a403:	5d                   	pop    %ebp
 100a404:	c3                   	ret    
 100a405:	66 90                	xchg   %ax,%ax
 100a407:	66 90                	xchg   %ax,%ax
 100a409:	66 90                	xchg   %ax,%ax
 100a40b:	66 90                	xchg   %ax,%ax
 100a40d:	66 90                	xchg   %ax,%ax
 100a40f:	90                   	nop

0100a410 <__divdi3>:
 100a410:	55                   	push   %ebp
 100a411:	57                   	push   %edi
 100a412:	56                   	push   %esi
 100a413:	53                   	push   %ebx
 100a414:	83 ec 1c             	sub    $0x1c,%esp
 100a417:	8b 5c 24 34          	mov    0x34(%esp),%ebx
 100a41b:	8b 74 24 3c          	mov    0x3c(%esp),%esi
 100a41f:	8b 6c 24 38          	mov    0x38(%esp),%ebp
 100a423:	8b 44 24 30          	mov    0x30(%esp),%eax
 100a427:	c7 44 24 08 00 00 00 	movl   $0x0,0x8(%esp)
 100a42e:	00 
 100a42f:	85 db                	test   %ebx,%ebx
 100a431:	89 f7                	mov    %esi,%edi
 100a433:	89 da                	mov    %ebx,%edx
 100a435:	0f 88 d5 00 00 00    	js     100a510 <__divdi3+0x100>
 100a43b:	85 ff                	test   %edi,%edi
 100a43d:	89 2c 24             	mov    %ebp,(%esp)
 100a440:	89 74 24 04          	mov    %esi,0x4(%esp)
 100a444:	0f 88 a6 00 00 00    	js     100a4f0 <__divdi3+0xe0>
 100a44a:	8b 5c 24 04          	mov    0x4(%esp),%ebx
 100a44e:	8b 0c 24             	mov    (%esp),%ecx
 100a451:	89 d6                	mov    %edx,%esi
 100a453:	89 44 24 0c          	mov    %eax,0xc(%esp)
 100a457:	89 c5                	mov    %eax,%ebp
 100a459:	85 db                	test   %ebx,%ebx
 100a45b:	89 cf                	mov    %ecx,%edi
 100a45d:	8b 0c 24             	mov    (%esp),%ecx
 100a460:	75 0e                	jne    100a470 <__divdi3+0x60>
 100a462:	39 d7                	cmp    %edx,%edi
 100a464:	76 5a                	jbe    100a4c0 <__divdi3+0xb0>
 100a466:	f7 f7                	div    %edi
 100a468:	31 ed                	xor    %ebp,%ebp
 100a46a:	89 c1                	mov    %eax,%ecx
 100a46c:	eb 0a                	jmp    100a478 <__divdi3+0x68>
 100a46e:	66 90                	xchg   %ax,%ax
 100a470:	39 d3                	cmp    %edx,%ebx
 100a472:	76 2c                	jbe    100a4a0 <__divdi3+0x90>
 100a474:	31 ed                	xor    %ebp,%ebp
 100a476:	31 c9                	xor    %ecx,%ecx
 100a478:	89 c8                	mov    %ecx,%eax
 100a47a:	8b 4c 24 08          	mov    0x8(%esp),%ecx
 100a47e:	89 ea                	mov    %ebp,%edx
 100a480:	85 c9                	test   %ecx,%ecx
 100a482:	74 07                	je     100a48b <__divdi3+0x7b>
 100a484:	f7 d8                	neg    %eax
 100a486:	83 d2 00             	adc    $0x0,%edx
 100a489:	f7 da                	neg    %edx
 100a48b:	83 c4 1c             	add    $0x1c,%esp
 100a48e:	5b                   	pop    %ebx
 100a48f:	5e                   	pop    %esi
 100a490:	5f                   	pop    %edi
 100a491:	5d                   	pop    %ebp
 100a492:	c3                   	ret    
 100a493:	8d b6 00 00 00 00    	lea    0x0(%esi),%esi
 100a499:	8d bc 27 00 00 00 00 	lea    0x0(%edi,%eiz,1),%edi
 100a4a0:	0f bd eb             	bsr    %ebx,%ebp
 100a4a3:	83 f5 1f             	xor    $0x1f,%ebp
 100a4a6:	0f 85 84 00 00 00    	jne    100a530 <__divdi3+0x120>
 100a4ac:	39 d3                	cmp    %edx,%ebx
 100a4ae:	72 08                	jb     100a4b8 <__divdi3+0xa8>
 100a4b0:	31 c9                	xor    %ecx,%ecx
 100a4b2:	3b 7c 24 0c          	cmp    0xc(%esp),%edi
 100a4b6:	77 c0                	ja     100a478 <__divdi3+0x68>
 100a4b8:	b9 01 00 00 00       	mov    $0x1,%ecx
 100a4bd:	eb b9                	jmp    100a478 <__divdi3+0x68>
 100a4bf:	90                   	nop
 100a4c0:	85 c9                	test   %ecx,%ecx
 100a4c2:	75 0b                	jne    100a4cf <__divdi3+0xbf>
 100a4c4:	b8 01 00 00 00       	mov    $0x1,%eax
 100a4c9:	31 d2                	xor    %edx,%edx
 100a4cb:	f7 f1                	div    %ecx
 100a4cd:	89 c1                	mov    %eax,%ecx
 100a4cf:	31 d2                	xor    %edx,%edx
 100a4d1:	89 f0                	mov    %esi,%eax
 100a4d3:	f7 f1                	div    %ecx
 100a4d5:	89 c3                	mov    %eax,%ebx
 100a4d7:	89 e8                	mov    %ebp,%eax
 100a4d9:	89 dd                	mov    %ebx,%ebp
 100a4db:	f7 f1                	div    %ecx
 100a4dd:	89 c1                	mov    %eax,%ecx
 100a4df:	eb 97                	jmp    100a478 <__divdi3+0x68>
 100a4e1:	eb 0d                	jmp    100a4f0 <__divdi3+0xe0>
 100a4e3:	90                   	nop
 100a4e4:	90                   	nop
 100a4e5:	90                   	nop
 100a4e6:	90                   	nop
 100a4e7:	90                   	nop
 100a4e8:	90                   	nop
 100a4e9:	90                   	nop
 100a4ea:	90                   	nop
 100a4eb:	90                   	nop
 100a4ec:	90                   	nop
 100a4ed:	90                   	nop
 100a4ee:	90                   	nop
 100a4ef:	90                   	nop
 100a4f0:	f7 1c 24             	negl   (%esp)
 100a4f3:	f7 54 24 08          	notl   0x8(%esp)
 100a4f7:	83 54 24 04 00       	adcl   $0x0,0x4(%esp)
 100a4fc:	f7 5c 24 04          	negl   0x4(%esp)
 100a500:	e9 45 ff ff ff       	jmp    100a44a <__divdi3+0x3a>
 100a505:	8d 74 26 00          	lea    0x0(%esi,%eiz,1),%esi
 100a509:	8d bc 27 00 00 00 00 	lea    0x0(%edi,%eiz,1),%edi
 100a510:	f7 d8                	neg    %eax
 100a512:	c7 44 24 08 ff ff ff 	movl   $0xffffffff,0x8(%esp)
 100a519:	ff 
 100a51a:	83 d2 00             	adc    $0x0,%edx
 100a51d:	f7 da                	neg    %edx
 100a51f:	e9 17 ff ff ff       	jmp    100a43b <__divdi3+0x2b>
 100a524:	8d b6 00 00 00 00    	lea    0x0(%esi),%esi
 100a52a:	8d bf 00 00 00 00    	lea    0x0(%edi),%edi
 100a530:	b8 20 00 00 00       	mov    $0x20,%eax
 100a535:	89 e9                	mov    %ebp,%ecx
 100a537:	89 fa                	mov    %edi,%edx
 100a539:	29 e8                	sub    %ebp,%eax
 100a53b:	d3 e3                	shl    %cl,%ebx
 100a53d:	89 c1                	mov    %eax,%ecx
 100a53f:	d3 ea                	shr    %cl,%edx
 100a541:	89 e9                	mov    %ebp,%ecx
 100a543:	09 da                	or     %ebx,%edx
 100a545:	d3 e7                	shl    %cl,%edi
 100a547:	89 f3                	mov    %esi,%ebx
 100a549:	89 c1                	mov    %eax,%ecx
 100a54b:	89 14 24             	mov    %edx,(%esp)
 100a54e:	8b 54 24 0c          	mov    0xc(%esp),%edx
 100a552:	d3 eb                	shr    %cl,%ebx
 100a554:	89 e9                	mov    %ebp,%ecx
 100a556:	d3 e6                	shl    %cl,%esi
 100a558:	89 c1                	mov    %eax,%ecx
 100a55a:	d3 ea                	shr    %cl,%edx
 100a55c:	09 d6                	or     %edx,%esi
 100a55e:	89 da                	mov    %ebx,%edx
 100a560:	89 f0                	mov    %esi,%eax
 100a562:	f7 34 24             	divl   (%esp)
 100a565:	89 d3                	mov    %edx,%ebx
 100a567:	89 c6                	mov    %eax,%esi
 100a569:	f7 e7                	mul    %edi
 100a56b:	39 d3                	cmp    %edx,%ebx
 100a56d:	72 21                	jb     100a590 <__divdi3+0x180>
 100a56f:	8b 7c 24 0c          	mov    0xc(%esp),%edi
 100a573:	89 e9                	mov    %ebp,%ecx
 100a575:	d3 e7                	shl    %cl,%edi
 100a577:	39 c7                	cmp    %eax,%edi
 100a579:	73 04                	jae    100a57f <__divdi3+0x16f>
 100a57b:	39 d3                	cmp    %edx,%ebx
 100a57d:	74 11                	je     100a590 <__divdi3+0x180>
 100a57f:	89 f1                	mov    %esi,%ecx
 100a581:	31 ed                	xor    %ebp,%ebp
 100a583:	e9 f0 fe ff ff       	jmp    100a478 <__divdi3+0x68>
 100a588:	90                   	nop
 100a589:	8d b4 26 00 00 00 00 	lea    0x0(%esi,%eiz,1),%esi
 100a590:	8d 4e ff             	lea    -0x1(%esi),%ecx
 100a593:	31 ed                	xor    %ebp,%ebp
 100a595:	e9 de fe ff ff       	jmp    100a478 <__divdi3+0x68>
 100a59a:	66 90                	xchg   %ax,%ax
 100a59c:	66 90                	xchg   %ax,%ax
 100a59e:	66 90                	xchg   %ax,%ax

0100a5a0 <__moddi3>:
 100a5a0:	55                   	push   %ebp
 100a5a1:	57                   	push   %edi
 100a5a2:	31 ed                	xor    %ebp,%ebp
 100a5a4:	56                   	push   %esi
 100a5a5:	53                   	push   %ebx
 100a5a6:	83 ec 2c             	sub    $0x2c,%esp
 100a5a9:	8b 5c 24 44          	mov    0x44(%esp),%ebx
 100a5ad:	8b 44 24 4c          	mov    0x4c(%esp),%eax
 100a5b1:	8b 7c 24 40          	mov    0x40(%esp),%edi
 100a5b5:	8b 74 24 48          	mov    0x48(%esp),%esi
 100a5b9:	85 db                	test   %ebx,%ebx
 100a5bb:	89 c2                	mov    %eax,%edx
 100a5bd:	89 5c 24 0c          	mov    %ebx,0xc(%esp)
 100a5c1:	89 7c 24 08          	mov    %edi,0x8(%esp)
 100a5c5:	0f 88 c5 00 00 00    	js     100a690 <__moddi3+0xf0>
 100a5cb:	85 d2                	test   %edx,%edx
 100a5cd:	89 f1                	mov    %esi,%ecx
 100a5cf:	89 c3                	mov    %eax,%ebx
 100a5d1:	0f 88 a9 00 00 00    	js     100a680 <__moddi3+0xe0>
 100a5d7:	8b 74 24 08          	mov    0x8(%esp),%esi
 100a5db:	8b 7c 24 0c          	mov    0xc(%esp),%edi
 100a5df:	89 4c 24 10          	mov    %ecx,0x10(%esp)
 100a5e3:	89 f0                	mov    %esi,%eax
 100a5e5:	89 fe                	mov    %edi,%esi
 100a5e7:	89 df                	mov    %ebx,%edi
 100a5e9:	85 ff                	test   %edi,%edi
 100a5eb:	8b 5c 24 08          	mov    0x8(%esp),%ebx
 100a5ef:	89 74 24 14          	mov    %esi,0x14(%esp)
 100a5f3:	75 1b                	jne    100a610 <__moddi3+0x70>
 100a5f5:	39 f1                	cmp    %esi,%ecx
 100a5f7:	76 67                	jbe    100a660 <__moddi3+0xc0>
 100a5f9:	89 f2                	mov    %esi,%edx
 100a5fb:	f7 f1                	div    %ecx
 100a5fd:	89 d6                	mov    %edx,%esi
 100a5ff:	89 f0                	mov    %esi,%eax
 100a601:	31 d2                	xor    %edx,%edx
 100a603:	eb 15                	jmp    100a61a <__moddi3+0x7a>
 100a605:	8d 74 26 00          	lea    0x0(%esi,%eiz,1),%esi
 100a609:	8d bc 27 00 00 00 00 	lea    0x0(%edi,%eiz,1),%edi
 100a610:	39 f7                	cmp    %esi,%edi
 100a612:	76 1c                	jbe    100a630 <__moddi3+0x90>
 100a614:	8b 44 24 08          	mov    0x8(%esp),%eax
 100a618:	89 f2                	mov    %esi,%edx
 100a61a:	85 ed                	test   %ebp,%ebp
 100a61c:	74 07                	je     100a625 <__moddi3+0x85>
 100a61e:	f7 d8                	neg    %eax
 100a620:	83 d2 00             	adc    $0x0,%edx
 100a623:	f7 da                	neg    %edx
 100a625:	83 c4 2c             	add    $0x2c,%esp
 100a628:	5b                   	pop    %ebx
 100a629:	5e                   	pop    %esi
 100a62a:	5f                   	pop    %edi
 100a62b:	5d                   	pop    %ebp
 100a62c:	c3                   	ret    
 100a62d:	8d 76 00             	lea    0x0(%esi),%esi
 100a630:	0f bd d7             	bsr    %edi,%edx
 100a633:	83 f2 1f             	xor    $0x1f,%edx
 100a636:	89 54 24 08          	mov    %edx,0x8(%esp)
 100a63a:	75 74                	jne    100a6b0 <__moddi3+0x110>
 100a63c:	39 f7                	cmp    %esi,%edi
 100a63e:	0f 82 1c 01 00 00    	jb     100a760 <__moddi3+0x1c0>
 100a644:	39 d9                	cmp    %ebx,%ecx
 100a646:	0f 86 14 01 00 00    	jbe    100a760 <__moddi3+0x1c0>
 100a64c:	89 d8                	mov    %ebx,%eax
 100a64e:	8b 54 24 14          	mov    0x14(%esp),%edx
 100a652:	eb c6                	jmp    100a61a <__moddi3+0x7a>
 100a654:	8d b6 00 00 00 00    	lea    0x0(%esi),%esi
 100a65a:	8d bf 00 00 00 00    	lea    0x0(%edi),%edi
 100a660:	85 c9                	test   %ecx,%ecx
 100a662:	75 0b                	jne    100a66f <__moddi3+0xcf>
 100a664:	b8 01 00 00 00       	mov    $0x1,%eax
 100a669:	31 d2                	xor    %edx,%edx
 100a66b:	f7 f1                	div    %ecx
 100a66d:	89 c1                	mov    %eax,%ecx
 100a66f:	89 f0                	mov    %esi,%eax
 100a671:	31 d2                	xor    %edx,%edx
 100a673:	f7 f1                	div    %ecx
 100a675:	89 d8                	mov    %ebx,%eax
 100a677:	f7 f1                	div    %ecx
 100a679:	89 d6                	mov    %edx,%esi
 100a67b:	eb 82                	jmp    100a5ff <__moddi3+0x5f>
 100a67d:	8d 76 00             	lea    0x0(%esi),%esi
 100a680:	f7 d9                	neg    %ecx
 100a682:	83 d3 00             	adc    $0x0,%ebx
 100a685:	f7 db                	neg    %ebx
 100a687:	e9 4b ff ff ff       	jmp    100a5d7 <__moddi3+0x37>
 100a68c:	8d 74 26 00          	lea    0x0(%esi,%eiz,1),%esi
 100a690:	f7 5c 24 08          	negl   0x8(%esp)
 100a694:	bd ff ff ff ff       	mov    $0xffffffff,%ebp
 100a699:	83 54 24 0c 00       	adcl   $0x0,0xc(%esp)
 100a69e:	f7 5c 24 0c          	negl   0xc(%esp)
 100a6a2:	e9 24 ff ff ff       	jmp    100a5cb <__moddi3+0x2b>
 100a6a7:	89 f6                	mov    %esi,%esi
 100a6a9:	8d bc 27 00 00 00 00 	lea    0x0(%edi,%eiz,1),%edi
 100a6b0:	8b 4c 24 08          	mov    0x8(%esp),%ecx
 100a6b4:	ba 20 00 00 00       	mov    $0x20,%edx
 100a6b9:	29 ca                	sub    %ecx,%edx
 100a6bb:	d3 e7                	shl    %cl,%edi
 100a6bd:	89 d3                	mov    %edx,%ebx
 100a6bf:	89 54 24 18          	mov    %edx,0x18(%esp)
 100a6c3:	8b 54 24 10          	mov    0x10(%esp),%edx
 100a6c7:	89 d9                	mov    %ebx,%ecx
 100a6c9:	d3 ea                	shr    %cl,%edx
 100a6cb:	0f b6 4c 24 08       	movzbl 0x8(%esp),%ecx
 100a6d0:	09 d7                	or     %edx,%edi
 100a6d2:	8b 54 24 10          	mov    0x10(%esp),%edx
 100a6d6:	89 7c 24 14          	mov    %edi,0x14(%esp)
 100a6da:	89 f7                	mov    %esi,%edi
 100a6dc:	d3 e2                	shl    %cl,%edx
 100a6de:	89 d9                	mov    %ebx,%ecx
 100a6e0:	d3 ef                	shr    %cl,%edi
 100a6e2:	0f b6 4c 24 08       	movzbl 0x8(%esp),%ecx
 100a6e7:	89 54 24 10          	mov    %edx,0x10(%esp)
 100a6eb:	89 da                	mov    %ebx,%edx
 100a6ed:	89 fb                	mov    %edi,%ebx
 100a6ef:	89 c7                	mov    %eax,%edi
 100a6f1:	d3 e6                	shl    %cl,%esi
 100a6f3:	89 d1                	mov    %edx,%ecx
 100a6f5:	89 da                	mov    %ebx,%edx
 100a6f7:	d3 ef                	shr    %cl,%edi
 100a6f9:	0f b6 4c 24 08       	movzbl 0x8(%esp),%ecx
 100a6fe:	09 fe                	or     %edi,%esi
 100a700:	d3 e0                	shl    %cl,%eax
 100a702:	89 c7                	mov    %eax,%edi
 100a704:	89 44 24 1c          	mov    %eax,0x1c(%esp)
 100a708:	89 f0                	mov    %esi,%eax
 100a70a:	f7 74 24 14          	divl   0x14(%esp)
 100a70e:	89 d3                	mov    %edx,%ebx
 100a710:	f7 64 24 10          	mull   0x10(%esp)
 100a714:	39 d3                	cmp    %edx,%ebx
 100a716:	89 c6                	mov    %eax,%esi
 100a718:	89 d1                	mov    %edx,%ecx
 100a71a:	72 06                	jb     100a722 <__moddi3+0x182>
 100a71c:	75 10                	jne    100a72e <__moddi3+0x18e>
 100a71e:	39 c7                	cmp    %eax,%edi
 100a720:	73 0c                	jae    100a72e <__moddi3+0x18e>
 100a722:	2b 44 24 10          	sub    0x10(%esp),%eax
 100a726:	1b 54 24 14          	sbb    0x14(%esp),%edx
 100a72a:	89 d1                	mov    %edx,%ecx
 100a72c:	89 c6                	mov    %eax,%esi
 100a72e:	8b 44 24 1c          	mov    0x1c(%esp),%eax
 100a732:	8b 7c 24 08          	mov    0x8(%esp),%edi
 100a736:	29 f0                	sub    %esi,%eax
 100a738:	19 cb                	sbb    %ecx,%ebx
 100a73a:	0f b6 4c 24 18       	movzbl 0x18(%esp),%ecx
 100a73f:	89 de                	mov    %ebx,%esi
 100a741:	d3 e6                	shl    %cl,%esi
 100a743:	89 f9                	mov    %edi,%ecx
 100a745:	d3 e8                	shr    %cl,%eax
 100a747:	89 f9                	mov    %edi,%ecx
 100a749:	09 c6                	or     %eax,%esi
 100a74b:	d3 eb                	shr    %cl,%ebx
 100a74d:	89 f0                	mov    %esi,%eax
 100a74f:	89 da                	mov    %ebx,%edx
 100a751:	e9 c4 fe ff ff       	jmp    100a61a <__moddi3+0x7a>
 100a756:	8d 76 00             	lea    0x0(%esi),%esi
 100a759:	8d bc 27 00 00 00 00 	lea    0x0(%edi,%eiz,1),%edi
 100a760:	29 cb                	sub    %ecx,%ebx
 100a762:	19 fe                	sbb    %edi,%esi
 100a764:	89 74 24 14          	mov    %esi,0x14(%esp)
 100a768:	e9 df fe ff ff       	jmp    100a64c <__moddi3+0xac>
 100a76d:	66 90                	xchg   %ax,%ax
 100a76f:	90                   	nop

0100a770 <__udivdi3>:
 100a770:	55                   	push   %ebp
 100a771:	57                   	push   %edi
 100a772:	56                   	push   %esi
 100a773:	53                   	push   %ebx
 100a774:	83 ec 1c             	sub    $0x1c,%esp
 100a777:	8b 74 24 3c          	mov    0x3c(%esp),%esi
 100a77b:	8b 5c 24 30          	mov    0x30(%esp),%ebx
 100a77f:	8b 4c 24 34          	mov    0x34(%esp),%ecx
 100a783:	8b 7c 24 38          	mov    0x38(%esp),%edi
 100a787:	85 f6                	test   %esi,%esi
 100a789:	89 5c 24 08          	mov    %ebx,0x8(%esp)
 100a78d:	89 ca                	mov    %ecx,%edx
 100a78f:	89 f8                	mov    %edi,%eax
 100a791:	75 3d                	jne    100a7d0 <__udivdi3+0x60>
 100a793:	39 cf                	cmp    %ecx,%edi
 100a795:	0f 87 c5 00 00 00    	ja     100a860 <__udivdi3+0xf0>
 100a79b:	85 ff                	test   %edi,%edi
 100a79d:	89 fd                	mov    %edi,%ebp
 100a79f:	75 0b                	jne    100a7ac <__udivdi3+0x3c>
 100a7a1:	b8 01 00 00 00       	mov    $0x1,%eax
 100a7a6:	31 d2                	xor    %edx,%edx
 100a7a8:	f7 f7                	div    %edi
 100a7aa:	89 c5                	mov    %eax,%ebp
 100a7ac:	89 c8                	mov    %ecx,%eax
 100a7ae:	31 d2                	xor    %edx,%edx
 100a7b0:	f7 f5                	div    %ebp
 100a7b2:	89 c1                	mov    %eax,%ecx
 100a7b4:	89 d8                	mov    %ebx,%eax
 100a7b6:	89 cf                	mov    %ecx,%edi
 100a7b8:	f7 f5                	div    %ebp
 100a7ba:	89 c3                	mov    %eax,%ebx
 100a7bc:	89 d8                	mov    %ebx,%eax
 100a7be:	89 fa                	mov    %edi,%edx
 100a7c0:	83 c4 1c             	add    $0x1c,%esp
 100a7c3:	5b                   	pop    %ebx
 100a7c4:	5e                   	pop    %esi
 100a7c5:	5f                   	pop    %edi
 100a7c6:	5d                   	pop    %ebp
 100a7c7:	c3                   	ret    
 100a7c8:	90                   	nop
 100a7c9:	8d b4 26 00 00 00 00 	lea    0x0(%esi,%eiz,1),%esi
 100a7d0:	39 ce                	cmp    %ecx,%esi
 100a7d2:	77 7c                	ja     100a850 <__udivdi3+0xe0>
 100a7d4:	0f bd fe             	bsr    %esi,%edi
 100a7d7:	83 f7 1f             	xor    $0x1f,%edi
 100a7da:	0f 84 a0 00 00 00    	je     100a880 <__udivdi3+0x110>
 100a7e0:	bb 20 00 00 00       	mov    $0x20,%ebx
 100a7e5:	89 f9                	mov    %edi,%ecx
 100a7e7:	89 c5                	mov    %eax,%ebp
 100a7e9:	29 fb                	sub    %edi,%ebx
 100a7eb:	d3 e6                	shl    %cl,%esi
 100a7ed:	89 d9                	mov    %ebx,%ecx
 100a7ef:	d3 ed                	shr    %cl,%ebp
 100a7f1:	89 f9                	mov    %edi,%ecx
 100a7f3:	d3 e0                	shl    %cl,%eax
 100a7f5:	09 ee                	or     %ebp,%esi
 100a7f7:	89 d9                	mov    %ebx,%ecx
 100a7f9:	89 44 24 0c          	mov    %eax,0xc(%esp)
 100a7fd:	89 d5                	mov    %edx,%ebp
 100a7ff:	8b 44 24 08          	mov    0x8(%esp),%eax
 100a803:	d3 ed                	shr    %cl,%ebp
 100a805:	89 f9                	mov    %edi,%ecx
 100a807:	d3 e2                	shl    %cl,%edx
 100a809:	89 d9                	mov    %ebx,%ecx
 100a80b:	d3 e8                	shr    %cl,%eax
 100a80d:	09 c2                	or     %eax,%edx
 100a80f:	89 d0                	mov    %edx,%eax
 100a811:	89 ea                	mov    %ebp,%edx
 100a813:	f7 f6                	div    %esi
 100a815:	89 d5                	mov    %edx,%ebp
 100a817:	89 c3                	mov    %eax,%ebx
 100a819:	f7 64 24 0c          	mull   0xc(%esp)
 100a81d:	39 d5                	cmp    %edx,%ebp
 100a81f:	72 10                	jb     100a831 <__udivdi3+0xc1>
 100a821:	8b 74 24 08          	mov    0x8(%esp),%esi
 100a825:	89 f9                	mov    %edi,%ecx
 100a827:	d3 e6                	shl    %cl,%esi
 100a829:	39 c6                	cmp    %eax,%esi
 100a82b:	73 07                	jae    100a834 <__udivdi3+0xc4>
 100a82d:	39 d5                	cmp    %edx,%ebp
 100a82f:	75 03                	jne    100a834 <__udivdi3+0xc4>
 100a831:	83 eb 01             	sub    $0x1,%ebx
 100a834:	31 ff                	xor    %edi,%edi
 100a836:	89 d8                	mov    %ebx,%eax
 100a838:	89 fa                	mov    %edi,%edx
 100a83a:	83 c4 1c             	add    $0x1c,%esp
 100a83d:	5b                   	pop    %ebx
 100a83e:	5e                   	pop    %esi
 100a83f:	5f                   	pop    %edi
 100a840:	5d                   	pop    %ebp
 100a841:	c3                   	ret    
 100a842:	8d b4 26 00 00 00 00 	lea    0x0(%esi,%eiz,1),%esi
 100a849:	8d bc 27 00 00 00 00 	lea    0x0(%edi,%eiz,1),%edi
 100a850:	31 ff                	xor    %edi,%edi
 100a852:	31 db                	xor    %ebx,%ebx
 100a854:	89 d8                	mov    %ebx,%eax
 100a856:	89 fa                	mov    %edi,%edx
 100a858:	83 c4 1c             	add    $0x1c,%esp
 100a85b:	5b                   	pop    %ebx
 100a85c:	5e                   	pop    %esi
 100a85d:	5f                   	pop    %edi
 100a85e:	5d                   	pop    %ebp
 100a85f:	c3                   	ret    
 100a860:	89 d8                	mov    %ebx,%eax
 100a862:	f7 f7                	div    %edi
 100a864:	31 ff                	xor    %edi,%edi
 100a866:	89 c3                	mov    %eax,%ebx
 100a868:	89 d8                	mov    %ebx,%eax
 100a86a:	89 fa                	mov    %edi,%edx
 100a86c:	83 c4 1c             	add    $0x1c,%esp
 100a86f:	5b                   	pop    %ebx
 100a870:	5e                   	pop    %esi
 100a871:	5f                   	pop    %edi
 100a872:	5d                   	pop    %ebp
 100a873:	c3                   	ret    
 100a874:	8d b6 00 00 00 00    	lea    0x0(%esi),%esi
 100a87a:	8d bf 00 00 00 00    	lea    0x0(%edi),%edi
 100a880:	39 ce                	cmp    %ecx,%esi
 100a882:	72 0c                	jb     100a890 <__udivdi3+0x120>
 100a884:	31 db                	xor    %ebx,%ebx
 100a886:	3b 44 24 08          	cmp    0x8(%esp),%eax
 100a88a:	0f 87 2c ff ff ff    	ja     100a7bc <__udivdi3+0x4c>
 100a890:	bb 01 00 00 00       	mov    $0x1,%ebx
 100a895:	e9 22 ff ff ff       	jmp    100a7bc <__udivdi3+0x4c>
 100a89a:	66 90                	xchg   %ax,%ax
 100a89c:	66 90                	xchg   %ax,%ax
 100a89e:	66 90                	xchg   %ax,%ax

0100a8a0 <__umoddi3>:
 100a8a0:	55                   	push   %ebp
 100a8a1:	57                   	push   %edi
 100a8a2:	56                   	push   %esi
 100a8a3:	53                   	push   %ebx
 100a8a4:	83 ec 1c             	sub    $0x1c,%esp
 100a8a7:	8b 54 24 3c          	mov    0x3c(%esp),%edx
 100a8ab:	8b 4c 24 30          	mov    0x30(%esp),%ecx
 100a8af:	8b 74 24 34          	mov    0x34(%esp),%esi
 100a8b3:	8b 7c 24 38          	mov    0x38(%esp),%edi
 100a8b7:	85 d2                	test   %edx,%edx
 100a8b9:	89 4c 24 0c          	mov    %ecx,0xc(%esp)
 100a8bd:	89 4c 24 08          	mov    %ecx,0x8(%esp)
 100a8c1:	89 f3                	mov    %esi,%ebx
 100a8c3:	89 3c 24             	mov    %edi,(%esp)
 100a8c6:	89 74 24 04          	mov    %esi,0x4(%esp)
 100a8ca:	75 24                	jne    100a8f0 <__umoddi3+0x50>
 100a8cc:	39 f7                	cmp    %esi,%edi
 100a8ce:	76 60                	jbe    100a930 <__umoddi3+0x90>
 100a8d0:	89 c8                	mov    %ecx,%eax
 100a8d2:	89 f2                	mov    %esi,%edx
 100a8d4:	f7 f7                	div    %edi
 100a8d6:	89 d0                	mov    %edx,%eax
 100a8d8:	31 d2                	xor    %edx,%edx
 100a8da:	83 c4 1c             	add    $0x1c,%esp
 100a8dd:	5b                   	pop    %ebx
 100a8de:	5e                   	pop    %esi
 100a8df:	5f                   	pop    %edi
 100a8e0:	5d                   	pop    %ebp
 100a8e1:	c3                   	ret    
 100a8e2:	8d b4 26 00 00 00 00 	lea    0x0(%esi,%eiz,1),%esi
 100a8e9:	8d bc 27 00 00 00 00 	lea    0x0(%edi,%eiz,1),%edi
 100a8f0:	39 f2                	cmp    %esi,%edx
 100a8f2:	89 d0                	mov    %edx,%eax
 100a8f4:	77 5a                	ja     100a950 <__umoddi3+0xb0>
 100a8f6:	0f bd ea             	bsr    %edx,%ebp
 100a8f9:	83 f5 1f             	xor    $0x1f,%ebp
 100a8fc:	75 62                	jne    100a960 <__umoddi3+0xc0>
 100a8fe:	3b 54 24 04          	cmp    0x4(%esp),%edx
 100a902:	0f 82 e8 00 00 00    	jb     100a9f0 <__umoddi3+0x150>
 100a908:	39 0c 24             	cmp    %ecx,(%esp)
 100a90b:	0f 86 df 00 00 00    	jbe    100a9f0 <__umoddi3+0x150>
 100a911:	8b 44 24 08          	mov    0x8(%esp),%eax
 100a915:	8b 54 24 04          	mov    0x4(%esp),%edx
 100a919:	83 c4 1c             	add    $0x1c,%esp
 100a91c:	5b                   	pop    %ebx
 100a91d:	5e                   	pop    %esi
 100a91e:	5f                   	pop    %edi
 100a91f:	5d                   	pop    %ebp
 100a920:	c3                   	ret    
 100a921:	eb 0d                	jmp    100a930 <__umoddi3+0x90>
 100a923:	90                   	nop
 100a924:	90                   	nop
 100a925:	90                   	nop
 100a926:	90                   	nop
 100a927:	90                   	nop
 100a928:	90                   	nop
 100a929:	90                   	nop
 100a92a:	90                   	nop
 100a92b:	90                   	nop
 100a92c:	90                   	nop
 100a92d:	90                   	nop
 100a92e:	90                   	nop
 100a92f:	90                   	nop
 100a930:	85 ff                	test   %edi,%edi
 100a932:	89 fd                	mov    %edi,%ebp
 100a934:	75 0b                	jne    100a941 <__umoddi3+0xa1>
 100a936:	b8 01 00 00 00       	mov    $0x1,%eax
 100a93b:	31 d2                	xor    %edx,%edx
 100a93d:	f7 f7                	div    %edi
 100a93f:	89 c5                	mov    %eax,%ebp
 100a941:	89 f0                	mov    %esi,%eax
 100a943:	31 d2                	xor    %edx,%edx
 100a945:	f7 f5                	div    %ebp
 100a947:	89 c8                	mov    %ecx,%eax
 100a949:	f7 f5                	div    %ebp
 100a94b:	89 d0                	mov    %edx,%eax
 100a94d:	eb 89                	jmp    100a8d8 <__umoddi3+0x38>
 100a94f:	90                   	nop
 100a950:	89 c8                	mov    %ecx,%eax
 100a952:	89 f2                	mov    %esi,%edx
 100a954:	83 c4 1c             	add    $0x1c,%esp
 100a957:	5b                   	pop    %ebx
 100a958:	5e                   	pop    %esi
 100a959:	5f                   	pop    %edi
 100a95a:	5d                   	pop    %ebp
 100a95b:	c3                   	ret    
 100a95c:	8d 74 26 00          	lea    0x0(%esi,%eiz,1),%esi
 100a960:	8b 34 24             	mov    (%esp),%esi
 100a963:	bf 20 00 00 00       	mov    $0x20,%edi
 100a968:	89 e9                	mov    %ebp,%ecx
 100a96a:	29 ef                	sub    %ebp,%edi
 100a96c:	d3 e0                	shl    %cl,%eax
 100a96e:	89 f9                	mov    %edi,%ecx
 100a970:	89 f2                	mov    %esi,%edx
 100a972:	d3 ea                	shr    %cl,%edx
 100a974:	89 e9                	mov    %ebp,%ecx
 100a976:	09 c2                	or     %eax,%edx
 100a978:	89 d8                	mov    %ebx,%eax
 100a97a:	89 14 24             	mov    %edx,(%esp)
 100a97d:	89 f2                	mov    %esi,%edx
 100a97f:	d3 e2                	shl    %cl,%edx
 100a981:	89 f9                	mov    %edi,%ecx
 100a983:	89 54 24 04          	mov    %edx,0x4(%esp)
 100a987:	8b 54 24 0c          	mov    0xc(%esp),%edx
 100a98b:	d3 e8                	shr    %cl,%eax
 100a98d:	89 e9                	mov    %ebp,%ecx
 100a98f:	89 c6                	mov    %eax,%esi
 100a991:	d3 e3                	shl    %cl,%ebx
 100a993:	89 f9                	mov    %edi,%ecx
 100a995:	89 d0                	mov    %edx,%eax
 100a997:	d3 e8                	shr    %cl,%eax
 100a999:	89 e9                	mov    %ebp,%ecx
 100a99b:	09 d8                	or     %ebx,%eax
 100a99d:	89 d3                	mov    %edx,%ebx
 100a99f:	89 f2                	mov    %esi,%edx
 100a9a1:	f7 34 24             	divl   (%esp)
 100a9a4:	89 d6                	mov    %edx,%esi
 100a9a6:	d3 e3                	shl    %cl,%ebx
 100a9a8:	f7 64 24 04          	mull   0x4(%esp)
 100a9ac:	39 d6                	cmp    %edx,%esi
 100a9ae:	89 5c 24 08          	mov    %ebx,0x8(%esp)
 100a9b2:	89 d1                	mov    %edx,%ecx
 100a9b4:	89 c3                	mov    %eax,%ebx
 100a9b6:	72 08                	jb     100a9c0 <__umoddi3+0x120>
 100a9b8:	75 11                	jne    100a9cb <__umoddi3+0x12b>
 100a9ba:	39 44 24 08          	cmp    %eax,0x8(%esp)
 100a9be:	73 0b                	jae    100a9cb <__umoddi3+0x12b>
 100a9c0:	2b 44 24 04          	sub    0x4(%esp),%eax
 100a9c4:	1b 14 24             	sbb    (%esp),%edx
 100a9c7:	89 d1                	mov    %edx,%ecx
 100a9c9:	89 c3                	mov    %eax,%ebx
 100a9cb:	8b 54 24 08          	mov    0x8(%esp),%edx
 100a9cf:	29 da                	sub    %ebx,%edx
 100a9d1:	19 ce                	sbb    %ecx,%esi
 100a9d3:	89 f9                	mov    %edi,%ecx
 100a9d5:	89 f0                	mov    %esi,%eax
 100a9d7:	d3 e0                	shl    %cl,%eax
 100a9d9:	89 e9                	mov    %ebp,%ecx
 100a9db:	d3 ea                	shr    %cl,%edx
 100a9dd:	89 e9                	mov    %ebp,%ecx
 100a9df:	d3 ee                	shr    %cl,%esi
 100a9e1:	09 d0                	or     %edx,%eax
 100a9e3:	89 f2                	mov    %esi,%edx
 100a9e5:	83 c4 1c             	add    $0x1c,%esp
 100a9e8:	5b                   	pop    %ebx
 100a9e9:	5e                   	pop    %esi
 100a9ea:	5f                   	pop    %edi
 100a9eb:	5d                   	pop    %ebp
 100a9ec:	c3                   	ret    
 100a9ed:	8d 76 00             	lea    0x0(%esi),%esi
 100a9f0:	29 f9                	sub    %edi,%ecx
 100a9f2:	19 d6                	sbb    %edx,%esi
 100a9f4:	89 74 24 04          	mov    %esi,0x4(%esp)
 100a9f8:	89 4c 24 08          	mov    %ecx,0x8(%esp)
 100a9fc:	e9 10 ff ff ff       	jmp    100a911 <__umoddi3+0x71>
