
build/RELEASE/kernel.bin:     file format elf32-i386


Disassembly of section .text:

01000000 <outb-0x30>:
 1000000:	02 b0 ad 1b 07 00    	add    0x71bad(%eax),%dh
 1000006:	00 00                	add    %al,(%eax)
 1000008:	f7                   	(bad)  
 1000009:	4f                   	dec    %edi
 100000a:	52                   	push   %edx
 100000b:	e4 00                	in     $0x0,%al
	...
 1000021:	00 00                	add    %al,(%eax)
 1000023:	00 80 07 00 00 38    	add    %al,0x38000007(%eax)
 1000029:	04 00                	add    $0x0,%al
 100002b:	00 20                	add    %ah,(%eax)
 100002d:	00 00                	add    %al,(%eax)
	...

01000030 <outb>:
 1000030:	55                   	push   %ebp
 1000031:	89 e5                	mov    %esp,%ebp
 1000033:	0f b7 55 08          	movzwl 0x8(%ebp),%edx
 1000037:	8a 45 0c             	mov    0xc(%ebp),%al
 100003a:	ee                   	out    %al,(%dx)
 100003b:	5d                   	pop    %ebp
 100003c:	c3                   	ret    
 100003d:	8d 76 00             	lea    0x0(%esi),%esi

01000040 <inb>:
 1000040:	55                   	push   %ebp
 1000041:	89 e5                	mov    %esp,%ebp
 1000043:	0f b7 55 08          	movzwl 0x8(%ebp),%edx
 1000047:	ec                   	in     (%dx),%al
 1000048:	0f b6 c0             	movzbl %al,%eax
 100004b:	5d                   	pop    %ebp
 100004c:	c3                   	ret    
 100004d:	8d 76 00             	lea    0x0(%esi),%esi

01000050 <outw>:
 1000050:	55                   	push   %ebp
 1000051:	89 e5                	mov    %esp,%ebp
 1000053:	0f b7 55 08          	movzwl 0x8(%ebp),%edx
 1000057:	0f b7 45 0c          	movzwl 0xc(%ebp),%eax
 100005b:	66 ef                	out    %ax,(%dx)
 100005d:	5d                   	pop    %ebp
 100005e:	c3                   	ret    
 100005f:	90                   	nop

01000060 <inw>:
 1000060:	55                   	push   %ebp
 1000061:	89 e5                	mov    %esp,%ebp
 1000063:	0f b7 55 08          	movzwl 0x8(%ebp),%edx
 1000067:	66 ed                	in     (%dx),%ax
 1000069:	0f b7 c0             	movzwl %ax,%eax
 100006c:	5d                   	pop    %ebp
 100006d:	c3                   	ret    
 100006e:	66 90                	xchg   %ax,%ax

01000070 <outl>:
 1000070:	55                   	push   %ebp
 1000071:	89 e5                	mov    %esp,%ebp
 1000073:	0f b7 55 08          	movzwl 0x8(%ebp),%edx
 1000077:	8b 45 0c             	mov    0xc(%ebp),%eax
 100007a:	ef                   	out    %eax,(%dx)
 100007b:	5d                   	pop    %ebp
 100007c:	c3                   	ret    
 100007d:	8d 76 00             	lea    0x0(%esi),%esi

01000080 <inl>:
 1000080:	55                   	push   %ebp
 1000081:	89 e5                	mov    %esp,%ebp
 1000083:	0f b7 55 08          	movzwl 0x8(%ebp),%edx
 1000087:	ed                   	in     (%dx),%eax
 1000088:	5d                   	pop    %ebp
 1000089:	c3                   	ret    
 100008a:	8d b6 00 00 00 00    	lea    0x0(%esi),%esi

01000090 <wrmsr>:
 1000090:	55                   	push   %ebp
 1000091:	89 e5                	mov    %esp,%ebp
 1000093:	8b 45 0c             	mov    0xc(%ebp),%eax
 1000096:	8b 55 10             	mov    0x10(%ebp),%edx
 1000099:	8b 4d 08             	mov    0x8(%ebp),%ecx
 100009c:	0f 30                	wrmsr  
 100009e:	5d                   	pop    %ebp
 100009f:	c3                   	ret    

010000a0 <rdmsr>:
 10000a0:	55                   	push   %ebp
 10000a1:	89 e5                	mov    %esp,%ebp
 10000a3:	8b 4d 08             	mov    0x8(%ebp),%ecx
 10000a6:	0f 32                	rdmsr  
 10000a8:	5d                   	pop    %ebp
 10000a9:	c3                   	ret    
 10000aa:	8d b6 00 00 00 00    	lea    0x0(%esi),%esi

010000b0 <interrupts_lock>:
 10000b0:	55                   	push   %ebp
 10000b1:	89 e5                	mov    %esp,%ebp
 10000b3:	fa                   	cli    
 10000b4:	5d                   	pop    %ebp
 10000b5:	c3                   	ret    
 10000b6:	8d 76 00             	lea    0x0(%esi),%esi
 10000b9:	8d bc 27 00 00 00 00 	lea    0x0(%edi,%eiz,1),%edi

010000c0 <interrupts_unlock>:
 10000c0:	55                   	push   %ebp
 10000c1:	89 e5                	mov    %esp,%ebp
 10000c3:	fb                   	sti    
 10000c4:	5d                   	pop    %ebp
 10000c5:	c3                   	ret    
 10000c6:	66 90                	xchg   %ax,%ax
 10000c8:	66 90                	xchg   %ax,%ax
 10000ca:	66 90                	xchg   %ax,%ax
 10000cc:	66 90                	xchg   %ax,%ax
 10000ce:	66 90                	xchg   %ax,%ax

010000d0 <memcpy>:
 10000d0:	55                   	push   %ebp
 10000d1:	89 e5                	mov    %esp,%ebp
 10000d3:	57                   	push   %edi
 10000d4:	56                   	push   %esi
 10000d5:	50                   	push   %eax
 10000d6:	8b 45 08             	mov    0x8(%ebp),%eax
 10000d9:	8b 75 0c             	mov    0xc(%ebp),%esi
 10000dc:	8b 55 10             	mov    0x10(%ebp),%edx
 10000df:	89 d1                	mov    %edx,%ecx
 10000e1:	c1 e9 02             	shr    $0x2,%ecx
 10000e4:	83 e2 03             	and    $0x3,%edx
 10000e7:	89 55 f4             	mov    %edx,-0xc(%ebp)
 10000ea:	89 c7                	mov    %eax,%edi
 10000ec:	f3 a5                	rep movsl %ds:(%esi),%es:(%edi)
 10000ee:	8b 4d f4             	mov    -0xc(%ebp),%ecx
 10000f1:	f3 a4                	rep movsb %ds:(%esi),%es:(%edi)
 10000f3:	83 c4 04             	add    $0x4,%esp
 10000f6:	5e                   	pop    %esi
 10000f7:	5f                   	pop    %edi
 10000f8:	5d                   	pop    %ebp
 10000f9:	c3                   	ret    
 10000fa:	8d b6 00 00 00 00    	lea    0x0(%esi),%esi

01000100 <memset>:
 1000100:	55                   	push   %ebp
 1000101:	89 e5                	mov    %esp,%ebp
 1000103:	57                   	push   %edi
 1000104:	56                   	push   %esi
 1000105:	8b 75 10             	mov    0x10(%ebp),%esi
 1000108:	8b 55 08             	mov    0x8(%ebp),%edx
 100010b:	0f b6 45 0c          	movzbl 0xc(%ebp),%eax
 100010f:	fc                   	cld    
 1000110:	83 fe 0c             	cmp    $0xc,%esi
 1000113:	72 27                	jb     100013c <memset+0x3c>
 1000115:	89 c1                	mov    %eax,%ecx
 1000117:	c1 e1 08             	shl    $0x8,%ecx
 100011a:	09 c1                	or     %eax,%ecx
 100011c:	89 c8                	mov    %ecx,%eax
 100011e:	c1 e0 10             	shl    $0x10,%eax
 1000121:	09 c8                	or     %ecx,%eax
 1000123:	89 d1                	mov    %edx,%ecx
 1000125:	f7 d9                	neg    %ecx
 1000127:	83 e1 03             	and    $0x3,%ecx
 100012a:	29 ce                	sub    %ecx,%esi
 100012c:	89 d7                	mov    %edx,%edi
 100012e:	f3 aa                	rep stos %al,%es:(%edi)
 1000130:	89 f1                	mov    %esi,%ecx
 1000132:	c1 e9 02             	shr    $0x2,%ecx
 1000135:	f3 ab                	rep stos %eax,%es:(%edi)
 1000137:	83 e6 03             	and    $0x3,%esi
 100013a:	eb 02                	jmp    100013e <memset+0x3e>
 100013c:	89 d7                	mov    %edx,%edi
 100013e:	89 f1                	mov    %esi,%ecx
 1000140:	f3 aa                	rep stos %al,%es:(%edi)
 1000142:	89 d0                	mov    %edx,%eax
 1000144:	5e                   	pop    %esi
 1000145:	5f                   	pop    %edi
 1000146:	5d                   	pop    %ebp
 1000147:	c3                   	ret    
 1000148:	90                   	nop
 1000149:	8d b4 26 00 00 00 00 	lea    0x0(%esi,%eiz,1),%esi

01000150 <strrev>:
 1000150:	55                   	push   %ebp
 1000151:	89 e5                	mov    %esp,%ebp
 1000153:	56                   	push   %esi
 1000154:	8b 45 08             	mov    0x8(%ebp),%eax
 1000157:	85 c0                	test   %eax,%eax
 1000159:	74 46                	je     10001a1 <strrev+0x51>
 100015b:	8a 08                	mov    (%eax),%cl
 100015d:	84 c9                	test   %cl,%cl
 100015f:	74 40                	je     10001a1 <strrev+0x51>
 1000161:	31 d2                	xor    %edx,%edx
 1000163:	88 cd                	mov    %cl,%ch
 1000165:	eb 0e                	jmp    1000175 <strrev+0x25>
 1000167:	89 f6                	mov    %esi,%esi
 1000169:	8d bc 27 00 00 00 00 	lea    0x0(%edi,%eiz,1),%edi
 1000170:	8a 6c 10 01          	mov    0x1(%eax,%edx,1),%ch
 1000174:	42                   	inc    %edx
 1000175:	84 ed                	test   %ch,%ch
 1000177:	75 f7                	jne    1000170 <strrev+0x20>
 1000179:	8d 72 ff             	lea    -0x1(%edx),%esi
 100017c:	85 f6                	test   %esi,%esi
 100017e:	7e 21                	jle    10001a1 <strrev+0x51>
 1000180:	8d 54 02 fe          	lea    -0x2(%edx,%eax,1),%edx
 1000184:	eb 0d                	jmp    1000193 <strrev+0x43>
 1000186:	8d 76 00             	lea    0x0(%esi),%esi
 1000189:	8d bc 27 00 00 00 00 	lea    0x0(%edi,%eiz,1),%edi
 1000190:	8a 08                	mov    (%eax),%cl
 1000192:	4a                   	dec    %edx
 1000193:	40                   	inc    %eax
 1000194:	8a 6a 01             	mov    0x1(%edx),%ch
 1000197:	88 68 ff             	mov    %ch,-0x1(%eax)
 100019a:	88 4a 01             	mov    %cl,0x1(%edx)
 100019d:	39 c2                	cmp    %eax,%edx
 100019f:	77 ef                	ja     1000190 <strrev+0x40>
 10001a1:	5e                   	pop    %esi
 10001a2:	5d                   	pop    %ebp
 10001a3:	c3                   	ret    
 10001a4:	8d b6 00 00 00 00    	lea    0x0(%esi),%esi
 10001aa:	8d bf 00 00 00 00    	lea    0x0(%edi),%edi

010001b0 <strlen>:
 10001b0:	55                   	push   %ebp
 10001b1:	89 e5                	mov    %esp,%ebp
 10001b3:	b8 ff ff ff ff       	mov    $0xffffffff,%eax
 10001b8:	8b 4d 08             	mov    0x8(%ebp),%ecx
 10001bb:	90                   	nop
 10001bc:	8d 74 26 00          	lea    0x0(%esi,%eiz,1),%esi
 10001c0:	80 7c 01 01 00       	cmpb   $0x0,0x1(%ecx,%eax,1)
 10001c5:	8d 40 01             	lea    0x1(%eax),%eax
 10001c8:	75 f6                	jne    10001c0 <strlen+0x10>
 10001ca:	5d                   	pop    %ebp
 10001cb:	c3                   	ret    
 10001cc:	8d 74 26 00          	lea    0x0(%esi,%eiz,1),%esi

010001d0 <strncmp>:
 10001d0:	55                   	push   %ebp
 10001d1:	89 e5                	mov    %esp,%ebp
 10001d3:	57                   	push   %edi
 10001d4:	56                   	push   %esi
 10001d5:	8b 4d 10             	mov    0x10(%ebp),%ecx
 10001d8:	8b 55 0c             	mov    0xc(%ebp),%edx
 10001db:	8b 75 08             	mov    0x8(%ebp),%esi
 10001de:	66 90                	xchg   %ax,%ax
 10001e0:	31 c0                	xor    %eax,%eax
 10001e2:	85 c9                	test   %ecx,%ecx
 10001e4:	74 0d                	je     10001f3 <strncmp+0x23>
 10001e6:	49                   	dec    %ecx
 10001e7:	0f b6 06             	movzbl (%esi),%eax
 10001ea:	46                   	inc    %esi
 10001eb:	0f b6 3a             	movzbl (%edx),%edi
 10001ee:	42                   	inc    %edx
 10001ef:	29 f8                	sub    %edi,%eax
 10001f1:	74 ed                	je     10001e0 <strncmp+0x10>
 10001f3:	5e                   	pop    %esi
 10001f4:	5f                   	pop    %edi
 10001f5:	5d                   	pop    %ebp
 10001f6:	c3                   	ret    
 10001f7:	89 f6                	mov    %esi,%esi
 10001f9:	8d bc 27 00 00 00 00 	lea    0x0(%edi,%eiz,1),%edi

01000200 <strcpy>:
 1000200:	55                   	push   %ebp
 1000201:	89 e5                	mov    %esp,%ebp
 1000203:	57                   	push   %edi
 1000204:	56                   	push   %esi
 1000205:	50                   	push   %eax
 1000206:	ba ff ff ff ff       	mov    $0xffffffff,%edx
 100020b:	8b 75 0c             	mov    0xc(%ebp),%esi
 100020e:	8b 45 08             	mov    0x8(%ebp),%eax
 1000211:	eb 0d                	jmp    1000220 <strcpy+0x20>
 1000213:	90                   	nop
 1000214:	90                   	nop
 1000215:	90                   	nop
 1000216:	90                   	nop
 1000217:	90                   	nop
 1000218:	90                   	nop
 1000219:	90                   	nop
 100021a:	90                   	nop
 100021b:	90                   	nop
 100021c:	90                   	nop
 100021d:	90                   	nop
 100021e:	90                   	nop
 100021f:	90                   	nop
 1000220:	80 7c 16 01 00       	cmpb   $0x0,0x1(%esi,%edx,1)
 1000225:	8d 52 01             	lea    0x1(%edx),%edx
 1000228:	75 f6                	jne    1000220 <strcpy+0x20>
 100022a:	89 d1                	mov    %edx,%ecx
 100022c:	c1 e9 02             	shr    $0x2,%ecx
 100022f:	83 e2 03             	and    $0x3,%edx
 1000232:	89 55 f4             	mov    %edx,-0xc(%ebp)
 1000235:	89 c7                	mov    %eax,%edi
 1000237:	f3 a5                	rep movsl %ds:(%esi),%es:(%edi)
 1000239:	8b 4d f4             	mov    -0xc(%ebp),%ecx
 100023c:	f3 a4                	rep movsb %ds:(%esi),%es:(%edi)
 100023e:	83 c4 04             	add    $0x4,%esp
 1000241:	5e                   	pop    %esi
 1000242:	5f                   	pop    %edi
 1000243:	5d                   	pop    %ebp
 1000244:	c3                   	ret    
 1000245:	66 90                	xchg   %ax,%ax
 1000247:	66 90                	xchg   %ax,%ax
 1000249:	66 90                	xchg   %ax,%ax
 100024b:	66 90                	xchg   %ax,%ax
 100024d:	66 90                	xchg   %ax,%ax
 100024f:	90                   	nop

01000250 <itoa>:
 1000250:	55                   	push   %ebp
 1000251:	89 e5                	mov    %esp,%ebp
 1000253:	53                   	push   %ebx
 1000254:	57                   	push   %edi
 1000255:	56                   	push   %esi
 1000256:	81 ec 1c 02 00 00    	sub    $0x21c,%esp
 100025c:	8b 7d 0c             	mov    0xc(%ebp),%edi
 100025f:	8b 45 08             	mov    0x8(%ebp),%eax
 1000262:	8b 4d 14             	mov    0x14(%ebp),%ecx
 1000265:	8b 5d 10             	mov    0x10(%ebp),%ebx
 1000268:	83 f9 10             	cmp    $0x10,%ecx
 100026b:	75 47                	jne    10002b4 <itoa+0x64>
 100026d:	8d b5 03 fe ff ff    	lea    -0x1fd(%ebp),%esi
 1000273:	31 c9                	xor    %ecx,%ecx
 1000275:	8d 74 26 00          	lea    0x0(%esi,%eiz,1),%esi
 1000279:	8d bc 27 00 00 00 00 	lea    0x0(%edi,%eiz,1),%edi
 1000280:	89 c2                	mov    %eax,%edx
 1000282:	0f ad fa             	shrd   %cl,%edi,%edx
 1000285:	89 fb                	mov    %edi,%ebx
 1000287:	d3 ff                	sar    %cl,%edi
 1000289:	f6 c1 20             	test   $0x20,%cl
 100028c:	0f 44 fa             	cmove  %edx,%edi
 100028f:	83 e7 0f             	and    $0xf,%edi
 1000292:	8a 97 e0 80 00 01    	mov    0x10080e0(%edi),%dl
 1000298:	89 df                	mov    %ebx,%edi
 100029a:	88 16                	mov    %dl,(%esi)
 100029c:	4e                   	dec    %esi
 100029d:	83 c1 04             	add    $0x4,%ecx
 10002a0:	83 f9 40             	cmp    $0x40,%ecx
 10002a3:	75 db                	jne    1000280 <itoa+0x30>
 10002a5:	c6 85 04 fe ff ff 00 	movb   $0x0,-0x1fc(%ebp)
 10002ac:	8b 5d 10             	mov    0x10(%ebp),%ebx
 10002af:	e9 0e 01 00 00       	jmp    10003c2 <itoa+0x172>
 10002b4:	83 f9 02             	cmp    $0x2,%ecx
 10002b7:	75 49                	jne    1000302 <itoa+0xb2>
 10002b9:	8d b5 33 fe ff ff    	lea    -0x1cd(%ebp),%esi
 10002bf:	31 c9                	xor    %ecx,%ecx
 10002c1:	eb 0d                	jmp    10002d0 <itoa+0x80>
 10002c3:	90                   	nop
 10002c4:	90                   	nop
 10002c5:	90                   	nop
 10002c6:	90                   	nop
 10002c7:	90                   	nop
 10002c8:	90                   	nop
 10002c9:	90                   	nop
 10002ca:	90                   	nop
 10002cb:	90                   	nop
 10002cc:	90                   	nop
 10002cd:	90                   	nop
 10002ce:	90                   	nop
 10002cf:	90                   	nop
 10002d0:	89 c2                	mov    %eax,%edx
 10002d2:	0f ad fa             	shrd   %cl,%edi,%edx
 10002d5:	89 fb                	mov    %edi,%ebx
 10002d7:	d3 ef                	shr    %cl,%edi
 10002d9:	f6 c1 20             	test   $0x20,%cl
 10002dc:	0f 44 fa             	cmove  %edx,%edi
 10002df:	83 e7 01             	and    $0x1,%edi
 10002e2:	8a 97 e0 80 00 01    	mov    0x10080e0(%edi),%dl
 10002e8:	89 df                	mov    %ebx,%edi
 10002ea:	88 16                	mov    %dl,(%esi)
 10002ec:	41                   	inc    %ecx
 10002ed:	4e                   	dec    %esi
 10002ee:	83 f9 40             	cmp    $0x40,%ecx
 10002f1:	75 dd                	jne    10002d0 <itoa+0x80>
 10002f3:	c6 85 34 fe ff ff 00 	movb   $0x0,-0x1cc(%ebp)
 10002fa:	8b 5d 10             	mov    0x10(%ebp),%ebx
 10002fd:	e9 c0 00 00 00       	jmp    10003c2 <itoa+0x172>
 1000302:	83 f9 0f             	cmp    $0xf,%ecx
 1000305:	0f 8f b0 00 00 00    	jg     10003bb <itoa+0x16b>
 100030b:	89 fe                	mov    %edi,%esi
 100030d:	c1 fe 1f             	sar    $0x1f,%esi
 1000310:	01 f0                	add    %esi,%eax
 1000312:	89 fa                	mov    %edi,%edx
 1000314:	11 f2                	adc    %esi,%edx
 1000316:	31 f0                	xor    %esi,%eax
 1000318:	31 f2                	xor    %esi,%edx
 100031a:	31 f6                	xor    %esi,%esi
 100031c:	89 cb                	mov    %ecx,%ebx
 100031e:	66 90                	xchg   %ax,%ax
 1000320:	89 95 e8 fd ff ff    	mov    %edx,-0x218(%ebp)
 1000326:	89 85 ec fd ff ff    	mov    %eax,-0x214(%ebp)
 100032c:	89 f7                	mov    %esi,%edi
 100032e:	89 de                	mov    %ebx,%esi
 1000330:	c1 fb 1f             	sar    $0x1f,%ebx
 1000333:	89 5c 24 0c          	mov    %ebx,0xc(%esp)
 1000337:	89 74 24 08          	mov    %esi,0x8(%esp)
 100033b:	89 54 24 04          	mov    %edx,0x4(%esp)
 100033f:	89 04 24             	mov    %eax,(%esp)
 1000342:	e8 d9 70 00 00       	call   1007420 <__moddi3>
 1000347:	8a 80 e0 80 00 01    	mov    0x10080e0(%eax),%al
 100034d:	8d 4f 01             	lea    0x1(%edi),%ecx
 1000350:	89 8d f0 fd ff ff    	mov    %ecx,-0x210(%ebp)
 1000356:	88 84 3d f4 fd ff ff 	mov    %al,-0x20c(%ebp,%edi,1)
 100035d:	89 5c 24 0c          	mov    %ebx,0xc(%esp)
 1000361:	89 f3                	mov    %esi,%ebx
 1000363:	89 5c 24 08          	mov    %ebx,0x8(%esp)
 1000367:	8b 85 e8 fd ff ff    	mov    -0x218(%ebp),%eax
 100036d:	89 44 24 04          	mov    %eax,0x4(%esp)
 1000371:	8b 85 ec fd ff ff    	mov    -0x214(%ebp),%eax
 1000377:	89 04 24             	mov    %eax,(%esp)
 100037a:	e8 c1 6e 00 00       	call   1007240 <__divdi3>
 100037f:	8b b5 f0 fd ff ff    	mov    -0x210(%ebp),%esi
 1000385:	89 c1                	mov    %eax,%ecx
 1000387:	09 d1                	or     %edx,%ecx
 1000389:	75 95                	jne    1000320 <itoa+0xd0>
 100038b:	89 f8                	mov    %edi,%eax
 100038d:	83 7d 0c 00          	cmpl   $0x0,0xc(%ebp)
 1000391:	79 0d                	jns    10003a0 <itoa+0x150>
 1000393:	83 c0 02             	add    $0x2,%eax
 1000396:	c6 84 35 f4 fd ff ff 	movb   $0x2d,-0x20c(%ebp,%esi,1)
 100039d:	2d 
 100039e:	89 c6                	mov    %eax,%esi
 10003a0:	8b 5d 10             	mov    0x10(%ebp),%ebx
 10003a3:	c6 84 35 f4 fd ff ff 	movb   $0x0,-0x20c(%ebp,%esi,1)
 10003aa:	00 
 10003ab:	8d 85 f4 fd ff ff    	lea    -0x20c(%ebp),%eax
 10003b1:	89 04 24             	mov    %eax,(%esp)
 10003b4:	e8 97 fd ff ff       	call   1000150 <strrev>
 10003b9:	eb 07                	jmp    10003c2 <itoa+0x172>
 10003bb:	c6 85 f4 fd ff ff 00 	movb   $0x0,-0x20c(%ebp)
 10003c2:	8d b5 f4 fd ff ff    	lea    -0x20c(%ebp),%esi
 10003c8:	89 34 24             	mov    %esi,(%esp)
 10003cb:	e8 e0 fd ff ff       	call   10001b0 <strlen>
 10003d0:	89 44 24 08          	mov    %eax,0x8(%esp)
 10003d4:	89 74 24 04          	mov    %esi,0x4(%esp)
 10003d8:	89 1c 24             	mov    %ebx,(%esp)
 10003db:	e8 f0 fc ff ff       	call   10000d0 <memcpy>
 10003e0:	89 34 24             	mov    %esi,(%esp)
 10003e3:	e8 c8 fd ff ff       	call   10001b0 <strlen>
 10003e8:	01 d8                	add    %ebx,%eax
 10003ea:	81 c4 1c 02 00 00    	add    $0x21c,%esp
 10003f0:	5e                   	pop    %esi
 10003f1:	5f                   	pop    %edi
 10003f2:	5b                   	pop    %ebx
 10003f3:	5d                   	pop    %ebp
 10003f4:	c3                   	ret    
 10003f5:	8d 74 26 00          	lea    0x0(%esi,%eiz,1),%esi
 10003f9:	8d bc 27 00 00 00 00 	lea    0x0(%edi,%eiz,1),%edi

01000400 <utoa>:
 1000400:	55                   	push   %ebp
 1000401:	89 e5                	mov    %esp,%ebp
 1000403:	53                   	push   %ebx
 1000404:	57                   	push   %edi
 1000405:	56                   	push   %esi
 1000406:	81 ec 14 02 00 00    	sub    $0x214,%esp
 100040c:	8b 7d 0c             	mov    0xc(%ebp),%edi
 100040f:	8b 45 08             	mov    0x8(%ebp),%eax
 1000412:	8b 4d 14             	mov    0x14(%ebp),%ecx
 1000415:	8b 5d 10             	mov    0x10(%ebp),%ebx
 1000418:	83 f9 10             	cmp    $0x10,%ecx
 100041b:	75 45                	jne    1000462 <utoa+0x62>
 100041d:	8d b5 03 fe ff ff    	lea    -0x1fd(%ebp),%esi
 1000423:	31 c9                	xor    %ecx,%ecx
 1000425:	8d 74 26 00          	lea    0x0(%esi,%eiz,1),%esi
 1000429:	8d bc 27 00 00 00 00 	lea    0x0(%edi,%eiz,1),%edi
 1000430:	89 c2                	mov    %eax,%edx
 1000432:	0f ad fa             	shrd   %cl,%edi,%edx
 1000435:	89 fb                	mov    %edi,%ebx
 1000437:	d3 eb                	shr    %cl,%ebx
 1000439:	f6 c1 20             	test   $0x20,%cl
 100043c:	0f 44 da             	cmove  %edx,%ebx
 100043f:	83 e3 0f             	and    $0xf,%ebx
 1000442:	8a 93 e0 80 00 01    	mov    0x10080e0(%ebx),%dl
 1000448:	88 16                	mov    %dl,(%esi)
 100044a:	4e                   	dec    %esi
 100044b:	83 c1 04             	add    $0x4,%ecx
 100044e:	83 f9 40             	cmp    $0x40,%ecx
 1000451:	75 dd                	jne    1000430 <utoa+0x30>
 1000453:	c6 85 04 fe ff ff 00 	movb   $0x0,-0x1fc(%ebp)
 100045a:	8b 5d 10             	mov    0x10(%ebp),%ebx
 100045d:	e9 c6 00 00 00       	jmp    1000528 <utoa+0x128>
 1000462:	83 f9 02             	cmp    $0x2,%ecx
 1000465:	75 39                	jne    10004a0 <utoa+0xa0>
 1000467:	8d b5 33 fe ff ff    	lea    -0x1cd(%ebp),%esi
 100046d:	31 c9                	xor    %ecx,%ecx
 100046f:	90                   	nop
 1000470:	89 c2                	mov    %eax,%edx
 1000472:	0f ad fa             	shrd   %cl,%edi,%edx
 1000475:	89 fb                	mov    %edi,%ebx
 1000477:	d3 eb                	shr    %cl,%ebx
 1000479:	f6 c1 20             	test   $0x20,%cl
 100047c:	0f 44 da             	cmove  %edx,%ebx
 100047f:	83 e3 01             	and    $0x1,%ebx
 1000482:	8a 93 e0 80 00 01    	mov    0x10080e0(%ebx),%dl
 1000488:	88 16                	mov    %dl,(%esi)
 100048a:	41                   	inc    %ecx
 100048b:	4e                   	dec    %esi
 100048c:	83 f9 40             	cmp    $0x40,%ecx
 100048f:	75 df                	jne    1000470 <utoa+0x70>
 1000491:	c6 85 34 fe ff ff 00 	movb   $0x0,-0x1cc(%ebp)
 1000498:	8b 5d 10             	mov    0x10(%ebp),%ebx
 100049b:	e9 88 00 00 00       	jmp    1000528 <utoa+0x128>
 10004a0:	83 f9 0f             	cmp    $0xf,%ecx
 10004a3:	7f 7c                	jg     1000521 <utoa+0x121>
 10004a5:	31 db                	xor    %ebx,%ebx
 10004a7:	89 f6                	mov    %esi,%esi
 10004a9:	8d bc 27 00 00 00 00 	lea    0x0(%edi,%eiz,1),%edi
 10004b0:	89 85 f0 fd ff ff    	mov    %eax,-0x210(%ebp)
 10004b6:	8b 75 14             	mov    0x14(%ebp),%esi
 10004b9:	c1 fe 1f             	sar    $0x1f,%esi
 10004bc:	89 74 24 0c          	mov    %esi,0xc(%esp)
 10004c0:	8b 4d 14             	mov    0x14(%ebp),%ecx
 10004c3:	89 4c 24 08          	mov    %ecx,0x8(%esp)
 10004c7:	89 7c 24 04          	mov    %edi,0x4(%esp)
 10004cb:	89 04 24             	mov    %eax,(%esp)
 10004ce:	e8 bd 72 00 00       	call   1007790 <__umoddi3>
 10004d3:	8a 80 e0 80 00 01    	mov    0x10080e0(%eax),%al
 10004d9:	88 84 1d f4 fd ff ff 	mov    %al,-0x20c(%ebp,%ebx,1)
 10004e0:	43                   	inc    %ebx
 10004e1:	89 74 24 0c          	mov    %esi,0xc(%esp)
 10004e5:	8b 45 14             	mov    0x14(%ebp),%eax
 10004e8:	89 44 24 08          	mov    %eax,0x8(%esp)
 10004ec:	89 7c 24 04          	mov    %edi,0x4(%esp)
 10004f0:	8b 85 f0 fd ff ff    	mov    -0x210(%ebp),%eax
 10004f6:	89 04 24             	mov    %eax,(%esp)
 10004f9:	e8 52 71 00 00       	call   1007650 <__udivdi3>
 10004fe:	89 d7                	mov    %edx,%edi
 1000500:	89 c1                	mov    %eax,%ecx
 1000502:	09 f9                	or     %edi,%ecx
 1000504:	75 aa                	jne    10004b0 <utoa+0xb0>
 1000506:	c6 84 1d f4 fd ff ff 	movb   $0x0,-0x20c(%ebp,%ebx,1)
 100050d:	00 
 100050e:	8d 85 f4 fd ff ff    	lea    -0x20c(%ebp),%eax
 1000514:	89 04 24             	mov    %eax,(%esp)
 1000517:	e8 34 fc ff ff       	call   1000150 <strrev>
 100051c:	8b 5d 10             	mov    0x10(%ebp),%ebx
 100051f:	eb 07                	jmp    1000528 <utoa+0x128>
 1000521:	c6 85 f4 fd ff ff 00 	movb   $0x0,-0x20c(%ebp)
 1000528:	8d b5 f4 fd ff ff    	lea    -0x20c(%ebp),%esi
 100052e:	89 34 24             	mov    %esi,(%esp)
 1000531:	e8 7a fc ff ff       	call   10001b0 <strlen>
 1000536:	89 44 24 08          	mov    %eax,0x8(%esp)
 100053a:	89 74 24 04          	mov    %esi,0x4(%esp)
 100053e:	89 1c 24             	mov    %ebx,(%esp)
 1000541:	e8 8a fb ff ff       	call   10000d0 <memcpy>
 1000546:	89 34 24             	mov    %esi,(%esp)
 1000549:	e8 62 fc ff ff       	call   10001b0 <strlen>
 100054e:	01 d8                	add    %ebx,%eax
 1000550:	81 c4 14 02 00 00    	add    $0x214,%esp
 1000556:	5e                   	pop    %esi
 1000557:	5f                   	pop    %edi
 1000558:	5b                   	pop    %ebx
 1000559:	5d                   	pop    %ebp
 100055a:	c3                   	ret    
 100055b:	90                   	nop
 100055c:	8d 74 26 00          	lea    0x0(%esi,%eiz,1),%esi

01000560 <vsnprintf>:
 1000560:	55                   	push   %ebp
 1000561:	89 e5                	mov    %esp,%ebp
 1000563:	53                   	push   %ebx
 1000564:	57                   	push   %edi
 1000565:	56                   	push   %esi
 1000566:	81 ec 34 02 00 00    	sub    $0x234,%esp
 100056c:	8b 7d 0c             	mov    0xc(%ebp),%edi
 100056f:	89 3c 24             	mov    %edi,(%esp)
 1000572:	e8 39 fc ff ff       	call   10001b0 <strlen>
 1000577:	85 c0                	test   %eax,%eax
 1000579:	74 12                	je     100058d <vsnprintf+0x2d>
 100057b:	31 f6                	xor    %esi,%esi
 100057d:	8d 76 00             	lea    0x0(%esi),%esi
 1000580:	46                   	inc    %esi
 1000581:	89 3c 24             	mov    %edi,(%esp)
 1000584:	e8 27 fc ff ff       	call   10001b0 <strlen>
 1000589:	39 c6                	cmp    %eax,%esi
 100058b:	72 f3                	jb     1000580 <vsnprintf+0x20>
 100058d:	8b 75 08             	mov    0x8(%ebp),%esi
 1000590:	89 3c 24             	mov    %edi,(%esp)
 1000593:	e8 18 fc ff ff       	call   10001b0 <strlen>
 1000598:	85 c0                	test   %eax,%eax
 100059a:	0f 84 c5 05 00 00    	je     1000b65 <vsnprintf+0x605>
 10005a0:	8b 45 10             	mov    0x10(%ebp),%eax
 10005a3:	89 85 dc fd ff ff    	mov    %eax,-0x224(%ebp)
 10005a9:	31 db                	xor    %ebx,%ebx
 10005ab:	90                   	nop
 10005ac:	8d 74 26 00          	lea    0x0(%esi,%eiz,1),%esi
 10005b0:	0f b6 04 1f          	movzbl (%edi,%ebx,1),%eax
 10005b4:	83 f8 25             	cmp    $0x25,%eax
 10005b7:	0f 85 e3 00 00 00    	jne    10006a0 <vsnprintf+0x140>
 10005bd:	89 b5 e0 fd ff ff    	mov    %esi,-0x220(%ebp)
 10005c3:	43                   	inc    %ebx
 10005c4:	c6 85 db fd ff ff 20 	movb   $0x20,-0x225(%ebp)
 10005cb:	31 f6                	xor    %esi,%esi
 10005cd:	8b 95 dc fd ff ff    	mov    -0x224(%ebp),%edx
 10005d3:	eb 0b                	jmp    10005e0 <vsnprintf+0x80>
 10005d5:	8b 32                	mov    (%edx),%esi
 10005d7:	83 c2 04             	add    $0x4,%edx
 10005da:	8d b6 00 00 00 00    	lea    0x0(%esi),%esi
 10005e0:	0f be 04 1f          	movsbl (%edi,%ebx,1),%eax
 10005e4:	83 f8 57             	cmp    $0x57,%eax
 10005e7:	7f 27                	jg     1000610 <vsnprintf+0xb0>
 10005e9:	8d 48 dd             	lea    -0x23(%eax),%ecx
 10005ec:	83 f9 23             	cmp    $0x23,%ecx
 10005ef:	77 ef                	ja     10005e0 <vsnprintf+0x80>
 10005f1:	ff 24 8d 50 80 00 01 	jmp    *0x1008050(,%ecx,4)
 10005f8:	8b 85 e0 fd ff ff    	mov    -0x220(%ebp),%eax
 10005fe:	66 c7 00 30 78       	movw   $0x7830,(%eax)
 1000603:	83 c0 02             	add    $0x2,%eax
 1000606:	89 85 e0 fd ff ff    	mov    %eax,-0x220(%ebp)
 100060c:	43                   	inc    %ebx
 100060d:	eb d1                	jmp    10005e0 <vsnprintf+0x80>
 100060f:	90                   	nop
 1000610:	83 f8 61             	cmp    $0x61,%eax
 1000613:	7f 0b                	jg     1000620 <vsnprintf+0xc0>
 1000615:	83 f8 58             	cmp    $0x58,%eax
 1000618:	75 c6                	jne    10005e0 <vsnprintf+0x80>
 100061a:	e9 89 00 00 00       	jmp    10006a8 <vsnprintf+0x148>
 100061f:	90                   	nop
 1000620:	83 f8 77             	cmp    $0x77,%eax
 1000623:	7f 0f                	jg     1000634 <vsnprintf+0xd4>
 1000625:	83 c0 9e             	add    $0xffffff9e,%eax
 1000628:	83 f8 13             	cmp    $0x13,%eax
 100062b:	77 b3                	ja     10005e0 <vsnprintf+0x80>
 100062d:	ff 24 85 00 80 00 01 	jmp    *0x1008000(,%eax,4)
 1000634:	83 f8 78             	cmp    $0x78,%eax
 1000637:	75 a7                	jne    10005e0 <vsnprintf+0x80>
 1000639:	eb 6d                	jmp    10006a8 <vsnprintf+0x148>
 100063b:	90                   	nop
 100063c:	8d 74 26 00          	lea    0x0(%esi,%eiz,1),%esi
 1000640:	6b f6 0a             	imul   $0xa,%esi,%esi
 1000643:	01 c6                	add    %eax,%esi
 1000645:	0f be 44 1f 01       	movsbl 0x1(%edi,%ebx,1),%eax
 100064a:	43                   	inc    %ebx
 100064b:	83 c0 d0             	add    $0xffffffd0,%eax
 100064e:	83 f8 0a             	cmp    $0xa,%eax
 1000651:	73 8d                	jae    10005e0 <vsnprintf+0x80>
 1000653:	eb eb                	jmp    1000640 <vsnprintf+0xe0>
 1000655:	0f be 44 1f 01       	movsbl 0x1(%edi,%ebx,1),%eax
 100065a:	43                   	inc    %ebx
 100065b:	83 f8 2a             	cmp    $0x2a,%eax
 100065e:	75 2b                	jne    100068b <vsnprintf+0x12b>
 1000660:	83 c2 04             	add    $0x4,%edx
 1000663:	e9 78 ff ff ff       	jmp    10005e0 <vsnprintf+0x80>
 1000668:	c6 85 db fd ff ff 30 	movb   $0x30,-0x225(%ebp)
 100066f:	e9 6c ff ff ff       	jmp    10005e0 <vsnprintf+0x80>
 1000674:	8d b6 00 00 00 00    	lea    0x0(%esi),%esi
 100067a:	8d bf 00 00 00 00    	lea    0x0(%edi),%edi
 1000680:	6b f6 0a             	imul   $0xa,%esi,%esi
 1000683:	01 c6                	add    %eax,%esi
 1000685:	0f be 44 1f 01       	movsbl 0x1(%edi,%ebx,1),%eax
 100068a:	43                   	inc    %ebx
 100068b:	83 c0 d0             	add    $0xffffffd0,%eax
 100068e:	83 f8 0a             	cmp    $0xa,%eax
 1000691:	0f 83 49 ff ff ff    	jae    10005e0 <vsnprintf+0x80>
 1000697:	eb e7                	jmp    1000680 <vsnprintf+0x120>
 1000699:	8d b4 26 00 00 00 00 	lea    0x0(%esi,%eiz,1),%esi
 10006a0:	88 06                	mov    %al,(%esi)
 10006a2:	46                   	inc    %esi
 10006a3:	e9 a8 04 00 00       	jmp    1000b50 <vsnprintf+0x5f0>
 10006a8:	8b 02                	mov    (%edx),%eax
 10006aa:	89 85 f0 fd ff ff    	mov    %eax,-0x210(%ebp)
 10006b0:	89 95 dc fd ff ff    	mov    %edx,-0x224(%ebp)
 10006b6:	31 c9                	xor    %ecx,%ecx
 10006b8:	8d 95 03 fe ff ff    	lea    -0x1fd(%ebp),%edx
 10006be:	31 ff                	xor    %edi,%edi
 10006c0:	8b b5 f0 fd ff ff    	mov    -0x210(%ebp),%esi
 10006c6:	0f ad fe             	shrd   %cl,%edi,%esi
 10006c9:	f6 c1 20             	test   $0x20,%cl
 10006cc:	0f 45 f7             	cmovne %edi,%esi
 10006cf:	83 e6 0f             	and    $0xf,%esi
 10006d2:	8a 86 e0 80 00 01    	mov    0x10080e0(%esi),%al
 10006d8:	88 02                	mov    %al,(%edx)
 10006da:	83 c1 04             	add    $0x4,%ecx
 10006dd:	4a                   	dec    %edx
 10006de:	83 f9 40             	cmp    $0x40,%ecx
 10006e1:	75 dd                	jne    10006c0 <vsnprintf+0x160>
 10006e3:	83 85 dc fd ff ff 04 	addl   $0x4,-0x224(%ebp)
 10006ea:	c6 85 04 fe ff ff 00 	movb   $0x0,-0x1fc(%ebp)
 10006f1:	8d 85 f4 fd ff ff    	lea    -0x20c(%ebp),%eax
 10006f7:	89 c6                	mov    %eax,%esi
 10006f9:	89 34 24             	mov    %esi,(%esp)
 10006fc:	e8 af fa ff ff       	call   10001b0 <strlen>
 1000701:	89 44 24 08          	mov    %eax,0x8(%esp)
 1000705:	89 74 24 04          	mov    %esi,0x4(%esp)
 1000709:	8b bd e0 fd ff ff    	mov    -0x220(%ebp),%edi
 100070f:	89 3c 24             	mov    %edi,(%esp)
 1000712:	e8 b9 f9 ff ff       	call   10000d0 <memcpy>
 1000717:	89 34 24             	mov    %esi,(%esp)
 100071a:	e8 91 fa ff ff       	call   10001b0 <strlen>
 100071f:	8d 74 38 01          	lea    0x1(%eax,%edi,1),%esi
 1000723:	8b 7d 0c             	mov    0xc(%ebp),%edi
 1000726:	e9 25 04 00 00       	jmp    1000b50 <vsnprintf+0x5f0>
 100072b:	89 95 dc fd ff ff    	mov    %edx,-0x224(%ebp)
 1000731:	8b 85 e0 fd ff ff    	mov    -0x220(%ebp),%eax
 1000737:	e9 f2 01 00 00       	jmp    100092e <vsnprintf+0x3ce>
 100073c:	8b 0a                	mov    (%edx),%ecx
 100073e:	89 8d d4 fd ff ff    	mov    %ecx,-0x22c(%ebp)
 1000744:	89 95 dc fd ff ff    	mov    %edx,-0x224(%ebp)
 100074a:	89 c8                	mov    %ecx,%eax
 100074c:	c1 f8 1f             	sar    $0x1f,%eax
 100074f:	89 ca                	mov    %ecx,%edx
 1000751:	01 c2                	add    %eax,%edx
 1000753:	89 c7                	mov    %eax,%edi
 1000755:	11 ff                	adc    %edi,%edi
 1000757:	31 c2                	xor    %eax,%edx
 1000759:	31 c7                	xor    %eax,%edi
 100075b:	31 c9                	xor    %ecx,%ecx
 100075d:	8d 76 00             	lea    0x0(%esi),%esi
 1000760:	89 95 ec fd ff ff    	mov    %edx,-0x214(%ebp)
 1000766:	89 8d f0 fd ff ff    	mov    %ecx,-0x210(%ebp)
 100076c:	89 7c 24 04          	mov    %edi,0x4(%esp)
 1000770:	89 14 24             	mov    %edx,(%esp)
 1000773:	c7 44 24 0c 00 00 00 	movl   $0x0,0xc(%esp)
 100077a:	00 
 100077b:	c7 44 24 08 0a 00 00 	movl   $0xa,0x8(%esp)
 1000782:	00 
 1000783:	e8 98 6c 00 00       	call   1007420 <__moddi3>
 1000788:	8a 80 e0 80 00 01    	mov    0x10080e0(%eax),%al
 100078e:	8b 8d f0 fd ff ff    	mov    -0x210(%ebp),%ecx
 1000794:	88 84 0d f4 fd ff ff 	mov    %al,-0x20c(%ebp,%ecx,1)
 100079b:	89 7c 24 04          	mov    %edi,0x4(%esp)
 100079f:	8b 85 ec fd ff ff    	mov    -0x214(%ebp),%eax
 10007a5:	89 04 24             	mov    %eax,(%esp)
 10007a8:	c7 44 24 0c 00 00 00 	movl   $0x0,0xc(%esp)
 10007af:	00 
 10007b0:	c7 44 24 08 0a 00 00 	movl   $0xa,0x8(%esp)
 10007b7:	00 
 10007b8:	e8 83 6a 00 00       	call   1007240 <__divdi3>
 10007bd:	89 85 e8 fd ff ff    	mov    %eax,-0x218(%ebp)
 10007c3:	89 95 e4 fd ff ff    	mov    %edx,-0x21c(%ebp)
 10007c9:	8b 85 ec fd ff ff    	mov    -0x214(%ebp),%eax
 10007cf:	83 c0 09             	add    $0x9,%eax
 10007d2:	83 d7 00             	adc    $0x0,%edi
 10007d5:	83 f8 12             	cmp    $0x12,%eax
 10007d8:	0f 97 c2             	seta   %dl
 10007db:	85 ff                	test   %edi,%edi
 10007dd:	0f 95 c1             	setne  %cl
 10007e0:	74 02                	je     10007e4 <vsnprintf+0x284>
 10007e2:	88 ca                	mov    %cl,%dl
 10007e4:	8b 85 f0 fd ff ff    	mov    -0x210(%ebp),%eax
 10007ea:	8d 48 01             	lea    0x1(%eax),%ecx
 10007ed:	84 d2                	test   %dl,%dl
 10007ef:	8b 95 e8 fd ff ff    	mov    -0x218(%ebp),%edx
 10007f5:	8b bd e4 fd ff ff    	mov    -0x21c(%ebp),%edi
 10007fb:	0f 85 5f ff ff ff    	jne    1000760 <vsnprintf+0x200>
 1000801:	83 bd d4 fd ff ff 00 	cmpl   $0x0,-0x22c(%ebp)
 1000808:	8b 7d 0c             	mov    0xc(%ebp),%edi
 100080b:	79 0d                	jns    100081a <vsnprintf+0x2ba>
 100080d:	83 c0 02             	add    $0x2,%eax
 1000810:	c6 84 0d f4 fd ff ff 	movb   $0x2d,-0x20c(%ebp,%ecx,1)
 1000817:	2d 
 1000818:	89 c1                	mov    %eax,%ecx
 100081a:	8b 85 dc fd ff ff    	mov    -0x224(%ebp),%eax
 1000820:	83 c0 04             	add    $0x4,%eax
 1000823:	89 85 dc fd ff ff    	mov    %eax,-0x224(%ebp)
 1000829:	c6 84 0d f4 fd ff ff 	movb   $0x0,-0x20c(%ebp,%ecx,1)
 1000830:	00 
 1000831:	8d 85 f4 fd ff ff    	lea    -0x20c(%ebp),%eax
 1000837:	89 04 24             	mov    %eax,(%esp)
 100083a:	e8 11 f9 ff ff       	call   1000150 <strrev>
 100083f:	8d 85 f4 fd ff ff    	lea    -0x20c(%ebp),%eax
 1000845:	89 04 24             	mov    %eax,(%esp)
 1000848:	e8 63 f9 ff ff       	call   10001b0 <strlen>
 100084d:	89 44 24 08          	mov    %eax,0x8(%esp)
 1000851:	8d 85 f4 fd ff ff    	lea    -0x20c(%ebp),%eax
 1000857:	89 44 24 04          	mov    %eax,0x4(%esp)
 100085b:	8b 85 e0 fd ff ff    	mov    -0x220(%ebp),%eax
 1000861:	89 04 24             	mov    %eax,(%esp)
 1000864:	e8 67 f8 ff ff       	call   10000d0 <memcpy>
 1000869:	8d 85 f4 fd ff ff    	lea    -0x20c(%ebp),%eax
 100086f:	89 04 24             	mov    %eax,(%esp)
 1000872:	e8 39 f9 ff ff       	call   10001b0 <strlen>
 1000877:	8d 50 ff             	lea    -0x1(%eax),%edx
 100087a:	8b 8d e0 fd ff ff    	mov    -0x220(%ebp),%ecx
 1000880:	8d 0c 01             	lea    (%ecx,%eax,1),%ecx
 1000883:	89 8d f0 fd ff ff    	mov    %ecx,-0x210(%ebp)
 1000889:	89 d1                	mov    %edx,%ecx
 100088b:	39 f1                	cmp    %esi,%ecx
 100088d:	0f 8d 7e 02 00 00    	jge    1000b11 <vsnprintf+0x5b1>
 1000893:	89 f2                	mov    %esi,%edx
 1000895:	29 c2                	sub    %eax,%edx
 1000897:	83 fa ff             	cmp    $0xffffffff,%edx
 100089a:	0f 84 79 02 00 00    	je     1000b19 <vsnprintf+0x5b9>
 10008a0:	8d 56 01             	lea    0x1(%esi),%edx
 10008a3:	29 c2                	sub    %eax,%edx
 10008a5:	89 d7                	mov    %edx,%edi
 10008a7:	83 e7 e0             	and    $0xffffffe0,%edi
 10008aa:	83 e2 e0             	and    $0xffffffe0,%edx
 10008ad:	74 52                	je     1000901 <vsnprintf+0x3a1>
 10008af:	01 f9                	add    %edi,%ecx
 10008b1:	01 c7                	add    %eax,%edi
 10008b3:	89 bd f0 fd ff ff    	mov    %edi,-0x210(%ebp)
 10008b9:	8b bd e0 fd ff ff    	mov    -0x220(%ebp),%edi
 10008bf:	01 bd f0 fd ff ff    	add    %edi,-0x210(%ebp)
 10008c5:	0f b6 bd db fd ff ff 	movzbl -0x225(%ebp),%edi
 10008cc:	66 0f 6e c7          	movd   %edi,%xmm0
 10008d0:	66 0f 60 c0          	punpcklbw %xmm0,%xmm0
 10008d4:	66 0f 60 c0          	punpcklbw %xmm0,%xmm0
 10008d8:	66 0f 70 c0 00       	pshufd $0x0,%xmm0,%xmm0
 10008dd:	8b bd e0 fd ff ff    	mov    -0x220(%ebp),%edi
 10008e3:	8d 44 07 10          	lea    0x10(%edi,%eax,1),%eax
 10008e7:	89 f6                	mov    %esi,%esi
 10008e9:	8d bc 27 00 00 00 00 	lea    0x0(%edi,%eiz,1),%edi
 10008f0:	f3 0f 7f 40 f0       	movdqu %xmm0,-0x10(%eax)
 10008f5:	f3 0f 7f 00          	movdqu %xmm0,(%eax)
 10008f9:	83 c0 20             	add    $0x20,%eax
 10008fc:	83 c2 e0             	add    $0xffffffe0,%edx
 10008ff:	75 ef                	jne    10008f0 <vsnprintf+0x390>
 1000901:	8b 7d 0c             	mov    0xc(%ebp),%edi
 1000904:	39 ce                	cmp    %ecx,%esi
 1000906:	8a 95 db fd ff ff    	mov    -0x225(%ebp),%dl
 100090c:	89 c8                	mov    %ecx,%eax
 100090e:	8b 8d f0 fd ff ff    	mov    -0x210(%ebp),%ecx
 1000914:	0f 84 2c 02 00 00    	je     1000b46 <vsnprintf+0x5e6>
 100091a:	e9 08 02 00 00       	jmp    1000b27 <vsnprintf+0x5c7>
 100091f:	89 95 dc fd ff ff    	mov    %edx,-0x224(%ebp)
 1000925:	8b 85 e0 fd ff ff    	mov    -0x220(%ebp),%eax
 100092b:	c6 00 25             	movb   $0x25,(%eax)
 100092e:	40                   	inc    %eax
 100092f:	89 c6                	mov    %eax,%esi
 1000931:	e9 1a 02 00 00       	jmp    1000b50 <vsnprintf+0x5f0>
 1000936:	8b 02                	mov    (%edx),%eax
 1000938:	89 85 f0 fd ff ff    	mov    %eax,-0x210(%ebp)
 100093e:	89 95 dc fd ff ff    	mov    %edx,-0x224(%ebp)
 1000944:	31 c9                	xor    %ecx,%ecx
 1000946:	8d 95 33 fe ff ff    	lea    -0x1cd(%ebp),%edx
 100094c:	31 ff                	xor    %edi,%edi
 100094e:	66 90                	xchg   %ax,%ax
 1000950:	8b b5 f0 fd ff ff    	mov    -0x210(%ebp),%esi
 1000956:	0f ad fe             	shrd   %cl,%edi,%esi
 1000959:	f6 c1 20             	test   $0x20,%cl
 100095c:	0f 45 f7             	cmovne %edi,%esi
 100095f:	83 e6 01             	and    $0x1,%esi
 1000962:	8a 86 e0 80 00 01    	mov    0x10080e0(%esi),%al
 1000968:	88 02                	mov    %al,(%edx)
 100096a:	41                   	inc    %ecx
 100096b:	4a                   	dec    %edx
 100096c:	83 f9 40             	cmp    $0x40,%ecx
 100096f:	75 df                	jne    1000950 <vsnprintf+0x3f0>
 1000971:	83 85 dc fd ff ff 04 	addl   $0x4,-0x224(%ebp)
 1000978:	c6 85 34 fe ff ff 00 	movb   $0x0,-0x1cc(%ebp)
 100097f:	8d 85 f4 fd ff ff    	lea    -0x20c(%ebp),%eax
 1000985:	89 c6                	mov    %eax,%esi
 1000987:	e9 56 01 00 00       	jmp    1000ae2 <vsnprintf+0x582>
 100098c:	8a 02                	mov    (%edx),%al
 100098e:	83 c2 04             	add    $0x4,%edx
 1000991:	89 95 dc fd ff ff    	mov    %edx,-0x224(%ebp)
 1000997:	8b 8d e0 fd ff ff    	mov    -0x220(%ebp),%ecx
 100099d:	88 01                	mov    %al,(%ecx)
 100099f:	41                   	inc    %ecx
 10009a0:	89 ce                	mov    %ecx,%esi
 10009a2:	e9 a9 01 00 00       	jmp    1000b50 <vsnprintf+0x5f0>
 10009a7:	89 95 dc fd ff ff    	mov    %edx,-0x224(%ebp)
 10009ad:	8b 12                	mov    (%edx),%edx
 10009af:	31 c0                	xor    %eax,%eax
 10009b1:	31 c9                	xor    %ecx,%ecx
 10009b3:	8d b6 00 00 00 00    	lea    0x0(%esi),%esi
 10009b9:	8d bc 27 00 00 00 00 	lea    0x0(%edi,%eiz,1),%edi
 10009c0:	89 ce                	mov    %ecx,%esi
 10009c2:	0f a4 d6 1d          	shld   $0x1d,%edx,%esi
 10009c6:	83 e2 07             	and    $0x7,%edx
 10009c9:	8a 92 e0 80 00 01    	mov    0x10080e0(%edx),%dl
 10009cf:	88 94 05 f4 fd ff ff 	mov    %dl,-0x20c(%ebp,%eax,1)
 10009d6:	40                   	inc    %eax
 10009d7:	c1 e9 03             	shr    $0x3,%ecx
 10009da:	89 f2                	mov    %esi,%edx
 10009dc:	09 ca                	or     %ecx,%edx
 10009de:	89 f2                	mov    %esi,%edx
 10009e0:	75 de                	jne    10009c0 <vsnprintf+0x460>
 10009e2:	83 85 dc fd ff ff 04 	addl   $0x4,-0x224(%ebp)
 10009e9:	c6 84 05 f4 fd ff ff 	movb   $0x0,-0x20c(%ebp,%eax,1)
 10009f0:	00 
 10009f1:	8d 85 f4 fd ff ff    	lea    -0x20c(%ebp),%eax
 10009f7:	89 c6                	mov    %eax,%esi
 10009f9:	89 34 24             	mov    %esi,(%esp)
 10009fc:	e8 4f f7 ff ff       	call   1000150 <strrev>
 1000a01:	eb 0b                	jmp    1000a0e <vsnprintf+0x4ae>
 1000a03:	8b 32                	mov    (%edx),%esi
 1000a05:	83 c2 04             	add    $0x4,%edx
 1000a08:	89 95 dc fd ff ff    	mov    %edx,-0x224(%ebp)
 1000a0e:	89 34 24             	mov    %esi,(%esp)
 1000a11:	e8 9a f7 ff ff       	call   10001b0 <strlen>
 1000a16:	89 44 24 08          	mov    %eax,0x8(%esp)
 1000a1a:	89 74 24 04          	mov    %esi,0x4(%esp)
 1000a1e:	8b 85 e0 fd ff ff    	mov    -0x220(%ebp),%eax
 1000a24:	89 04 24             	mov    %eax,(%esp)
 1000a27:	e8 a4 f6 ff ff       	call   10000d0 <memcpy>
 1000a2c:	89 34 24             	mov    %esi,(%esp)
 1000a2f:	e8 7c f7 ff ff       	call   10001b0 <strlen>
 1000a34:	89 c6                	mov    %eax,%esi
 1000a36:	03 b5 e0 fd ff ff    	add    -0x220(%ebp),%esi
 1000a3c:	e9 0f 01 00 00       	jmp    1000b50 <vsnprintf+0x5f0>
 1000a41:	8b 02                	mov    (%edx),%eax
 1000a43:	89 95 dc fd ff ff    	mov    %edx,-0x224(%ebp)
 1000a49:	31 ff                	xor    %edi,%edi
 1000a4b:	31 f6                	xor    %esi,%esi
 1000a4d:	8d 76 00             	lea    0x0(%esi),%esi
 1000a50:	89 85 ec fd ff ff    	mov    %eax,-0x214(%ebp)
 1000a56:	89 bd f0 fd ff ff    	mov    %edi,-0x210(%ebp)
 1000a5c:	89 74 24 04          	mov    %esi,0x4(%esp)
 1000a60:	89 04 24             	mov    %eax,(%esp)
 1000a63:	c7 44 24 0c 00 00 00 	movl   $0x0,0xc(%esp)
 1000a6a:	00 
 1000a6b:	c7 44 24 08 0a 00 00 	movl   $0xa,0x8(%esp)
 1000a72:	00 
 1000a73:	e8 18 6d 00 00       	call   1007790 <__umoddi3>
 1000a78:	8a 80 e0 80 00 01    	mov    0x10080e0(%eax),%al
 1000a7e:	88 84 3d f4 fd ff ff 	mov    %al,-0x20c(%ebp,%edi,1)
 1000a85:	89 74 24 04          	mov    %esi,0x4(%esp)
 1000a89:	8b bd ec fd ff ff    	mov    -0x214(%ebp),%edi
 1000a8f:	89 3c 24             	mov    %edi,(%esp)
 1000a92:	c7 44 24 0c 00 00 00 	movl   $0x0,0xc(%esp)
 1000a99:	00 
 1000a9a:	c7 44 24 08 0a 00 00 	movl   $0xa,0x8(%esp)
 1000aa1:	00 
 1000aa2:	e8 a9 6b 00 00       	call   1007650 <__udivdi3>
 1000aa7:	83 ff 09             	cmp    $0x9,%edi
 1000aaa:	0f 97 c1             	seta   %cl
 1000aad:	85 f6                	test   %esi,%esi
 1000aaf:	0f 95 c5             	setne  %ch
 1000ab2:	74 02                	je     1000ab6 <vsnprintf+0x556>
 1000ab4:	88 e9                	mov    %ch,%cl
 1000ab6:	8b bd f0 fd ff ff    	mov    -0x210(%ebp),%edi
 1000abc:	47                   	inc    %edi
 1000abd:	84 c9                	test   %cl,%cl
 1000abf:	89 d6                	mov    %edx,%esi
 1000ac1:	75 8d                	jne    1000a50 <vsnprintf+0x4f0>
 1000ac3:	83 85 dc fd ff ff 04 	addl   $0x4,-0x224(%ebp)
 1000aca:	c6 84 3d f4 fd ff ff 	movb   $0x0,-0x20c(%ebp,%edi,1)
 1000ad1:	00 
 1000ad2:	8d 85 f4 fd ff ff    	lea    -0x20c(%ebp),%eax
 1000ad8:	89 c6                	mov    %eax,%esi
 1000ada:	89 34 24             	mov    %esi,(%esp)
 1000add:	e8 6e f6 ff ff       	call   1000150 <strrev>
 1000ae2:	89 34 24             	mov    %esi,(%esp)
 1000ae5:	e8 c6 f6 ff ff       	call   10001b0 <strlen>
 1000aea:	89 44 24 08          	mov    %eax,0x8(%esp)
 1000aee:	89 74 24 04          	mov    %esi,0x4(%esp)
 1000af2:	8b bd e0 fd ff ff    	mov    -0x220(%ebp),%edi
 1000af8:	89 3c 24             	mov    %edi,(%esp)
 1000afb:	e8 d0 f5 ff ff       	call   10000d0 <memcpy>
 1000b00:	89 34 24             	mov    %esi,(%esp)
 1000b03:	e8 a8 f6 ff ff       	call   10001b0 <strlen>
 1000b08:	89 c6                	mov    %eax,%esi
 1000b0a:	01 fe                	add    %edi,%esi
 1000b0c:	8b 7d 0c             	mov    0xc(%ebp),%edi
 1000b0f:	eb 3f                	jmp    1000b50 <vsnprintf+0x5f0>
 1000b11:	8b b5 f0 fd ff ff    	mov    -0x210(%ebp),%esi
 1000b17:	eb 37                	jmp    1000b50 <vsnprintf+0x5f0>
 1000b19:	8a 95 db fd ff ff    	mov    -0x225(%ebp),%dl
 1000b1f:	89 c8                	mov    %ecx,%eax
 1000b21:	8b 8d f0 fd ff ff    	mov    -0x210(%ebp),%ecx
 1000b27:	89 85 f0 fd ff ff    	mov    %eax,-0x210(%ebp)
 1000b2d:	89 f0                	mov    %esi,%eax
 1000b2f:	2b 85 f0 fd ff ff    	sub    -0x210(%ebp),%eax
 1000b35:	8d 74 26 00          	lea    0x0(%esi,%eiz,1),%esi
 1000b39:	8d bc 27 00 00 00 00 	lea    0x0(%edi,%eiz,1),%edi
 1000b40:	88 11                	mov    %dl,(%ecx)
 1000b42:	41                   	inc    %ecx
 1000b43:	48                   	dec    %eax
 1000b44:	75 fa                	jne    1000b40 <vsnprintf+0x5e0>
 1000b46:	8b 85 e0 fd ff ff    	mov    -0x220(%ebp),%eax
 1000b4c:	8d 74 06 01          	lea    0x1(%esi,%eax,1),%esi
 1000b50:	43                   	inc    %ebx
 1000b51:	89 3c 24             	mov    %edi,(%esp)
 1000b54:	e8 57 f6 ff ff       	call   10001b0 <strlen>
 1000b59:	39 c3                	cmp    %eax,%ebx
 1000b5b:	89 f0                	mov    %esi,%eax
 1000b5d:	0f 82 4d fa ff ff    	jb     10005b0 <vsnprintf+0x50>
 1000b63:	eb 02                	jmp    1000b67 <vsnprintf+0x607>
 1000b65:	89 f0                	mov    %esi,%eax
 1000b67:	c6 00 00             	movb   $0x0,(%eax)
 1000b6a:	31 c0                	xor    %eax,%eax
 1000b6c:	81 c4 34 02 00 00    	add    $0x234,%esp
 1000b72:	5e                   	pop    %esi
 1000b73:	5f                   	pop    %edi
 1000b74:	5b                   	pop    %ebx
 1000b75:	5d                   	pop    %ebp
 1000b76:	c3                   	ret    
 1000b77:	89 f6                	mov    %esi,%esi
 1000b79:	8d bc 27 00 00 00 00 	lea    0x0(%edi,%eiz,1),%edi

01000b80 <sprintf>:
 1000b80:	55                   	push   %ebp
 1000b81:	89 e5                	mov    %esp,%ebp
 1000b83:	83 ec 10             	sub    $0x10,%esp
 1000b86:	8b 45 08             	mov    0x8(%ebp),%eax
 1000b89:	8b 4d 0c             	mov    0xc(%ebp),%ecx
 1000b8c:	8d 55 10             	lea    0x10(%ebp),%edx
 1000b8f:	89 55 fc             	mov    %edx,-0x4(%ebp)
 1000b92:	89 54 24 08          	mov    %edx,0x8(%esp)
 1000b96:	89 4c 24 04          	mov    %ecx,0x4(%esp)
 1000b9a:	89 04 24             	mov    %eax,(%esp)
 1000b9d:	e8 be f9 ff ff       	call   1000560 <vsnprintf>
 1000ba2:	31 c0                	xor    %eax,%eax
 1000ba4:	83 c4 10             	add    $0x10,%esp
 1000ba7:	5d                   	pop    %ebp
 1000ba8:	c3                   	ret    
 1000ba9:	66 90                	xchg   %ax,%ax
 1000bab:	66 90                	xchg   %ax,%ax
 1000bad:	66 90                	xchg   %ax,%ax
 1000baf:	90                   	nop

01000bb0 <graphics_Initialize>:
 1000bb0:	55                   	push   %ebp
 1000bb1:	89 e5                	mov    %esp,%ebp
 1000bb3:	53                   	push   %ebx
 1000bb4:	57                   	push   %edi
 1000bb5:	56                   	push   %esi
 1000bb6:	83 ec 1c             	sub    $0x1c,%esp
 1000bb9:	8b 35 14 10 03 02    	mov    0x2031014,%esi
 1000bbf:	8b 7e 60             	mov    0x60(%esi),%edi
 1000bc2:	c1 ef 02             	shr    $0x2,%edi
 1000bc5:	89 3d 24 10 03 02    	mov    %edi,0x2031024
 1000bcb:	8b 46 64             	mov    0x64(%esi),%eax
 1000bce:	a3 30 10 03 02       	mov    %eax,0x2031030
 1000bd3:	8b 4e 68             	mov    0x68(%esi),%ecx
 1000bd6:	89 0d 2c 10 03 02    	mov    %ecx,0x203102c
 1000bdc:	8a 56 6c             	mov    0x6c(%esi),%dl
 1000bdf:	88 15 18 10 03 02    	mov    %dl,0x2031018
 1000be5:	bb cd cc cc cc       	mov    $0xcccccccd,%ebx
 1000bea:	f7 e3                	mul    %ebx
 1000bec:	c1 ea 03             	shr    $0x3,%edx
 1000bef:	89 15 7c 4c 27 05    	mov    %edx,0x5274c7c
 1000bf5:	89 c8                	mov    %ecx,%eax
 1000bf7:	f7 e3                	mul    %ebx
 1000bf9:	c1 ea 04             	shr    $0x4,%edx
 1000bfc:	89 15 80 4c 27 05    	mov    %edx,0x5274c80
 1000c02:	0f af f9             	imul   %ecx,%edi
 1000c05:	c1 e7 02             	shl    $0x2,%edi
 1000c08:	89 3d 20 10 03 02    	mov    %edi,0x2031020
 1000c0e:	8b 46 58             	mov    0x58(%esi),%eax
 1000c11:	a3 1c 10 03 02       	mov    %eax,0x203101c
 1000c16:	89 3c 24             	mov    %edi,(%esp)
 1000c19:	e8 62 0a 00 00       	call   1001680 <bootstrap_malloc>
 1000c1e:	a3 08 80 84 01       	mov    %eax,0x1848008
 1000c23:	a1 20 10 03 02       	mov    0x2031020,%eax
 1000c28:	89 04 24             	mov    %eax,(%esp)
 1000c2b:	c7 44 24 04 00 00 00 	movl   $0x0,0x4(%esp)
 1000c32:	00 
 1000c33:	e8 68 2d 00 00       	call   10039a0 <virtMemMan_FindEmptyAddress>
 1000c38:	89 c6                	mov    %eax,%esi
 1000c3a:	a1 1c 10 03 02       	mov    0x203101c,%eax
 1000c3f:	8b 0d 20 10 03 02    	mov    0x2031020,%ecx
 1000c45:	89 4c 24 0c          	mov    %ecx,0xc(%esp)
 1000c49:	89 44 24 04          	mov    %eax,0x4(%esp)
 1000c4d:	89 34 24             	mov    %esi,(%esp)
 1000c50:	c7 44 24 18 00 00 00 	movl   $0x0,0x18(%esp)
 1000c57:	00 
 1000c58:	c7 44 24 14 01 00 00 	movl   $0x1,0x14(%esp)
 1000c5f:	00 
 1000c60:	c7 44 24 10 03 00 00 	movl   $0x3,0x10(%esp)
 1000c67:	00 
 1000c68:	c7 44 24 08 00 00 00 	movl   $0x0,0x8(%esp)
 1000c6f:	00 
 1000c70:	e8 cb 26 00 00       	call   1003340 <virtMemMan_Map>
 1000c75:	89 35 1c 10 03 02    	mov    %esi,0x203101c
 1000c7b:	a1 08 80 84 01       	mov    0x1848008,%eax
 1000c80:	a3 0c 10 03 02       	mov    %eax,0x203100c
 1000c85:	a1 20 10 03 02       	mov    0x2031020,%eax
 1000c8a:	89 44 24 08          	mov    %eax,0x8(%esp)
 1000c8e:	89 34 24             	mov    %esi,(%esp)
 1000c91:	c7 44 24 04 01 00 00 	movl   $0x1,0x4(%esp)
 1000c98:	00 
 1000c99:	e8 62 f4 ff ff       	call   1000100 <memset>
 1000c9e:	a1 08 80 84 01       	mov    0x1848008,%eax
 1000ca3:	8b 0d 20 10 03 02    	mov    0x2031020,%ecx
 1000ca9:	89 4c 24 08          	mov    %ecx,0x8(%esp)
 1000cad:	89 04 24             	mov    %eax,(%esp)
 1000cb0:	c7 44 24 04 01 00 00 	movl   $0x1,0x4(%esp)
 1000cb7:	00 
 1000cb8:	e8 43 f4 ff ff       	call   1000100 <memset>
 1000cbd:	83 c4 1c             	add    $0x1c,%esp
 1000cc0:	5e                   	pop    %esi
 1000cc1:	5f                   	pop    %edi
 1000cc2:	5b                   	pop    %ebx
 1000cc3:	5d                   	pop    %ebp
 1000cc4:	c3                   	ret    
 1000cc5:	8d 74 26 00          	lea    0x0(%esi,%eiz,1),%esi
 1000cc9:	8d bc 27 00 00 00 00 	lea    0x0(%edi,%eiz,1),%edi

01000cd0 <graphics_SwapBuffer>:
 1000cd0:	55                   	push   %ebp
 1000cd1:	89 e5                	mov    %esp,%ebp
 1000cd3:	83 ec 0c             	sub    $0xc,%esp
 1000cd6:	a1 1c 10 03 02       	mov    0x203101c,%eax
 1000cdb:	8b 0d 08 80 84 01    	mov    0x1848008,%ecx
 1000ce1:	8b 15 20 10 03 02    	mov    0x2031020,%edx
 1000ce7:	89 54 24 08          	mov    %edx,0x8(%esp)
 1000ceb:	89 4c 24 04          	mov    %ecx,0x4(%esp)
 1000cef:	89 04 24             	mov    %eax,(%esp)
 1000cf2:	e8 d9 f3 ff ff       	call   10000d0 <memcpy>
 1000cf7:	83 c4 0c             	add    $0xc,%esp
 1000cfa:	5d                   	pop    %ebp
 1000cfb:	c3                   	ret    
 1000cfc:	8d 74 26 00          	lea    0x0(%esi,%eiz,1),%esi

01000d00 <graphics_Clear>:
 1000d00:	55                   	push   %ebp
 1000d01:	89 e5                	mov    %esp,%ebp
 1000d03:	83 ec 0c             	sub    $0xc,%esp
 1000d06:	a1 08 80 84 01       	mov    0x1848008,%eax
 1000d0b:	8b 0d 20 10 03 02    	mov    0x2031020,%ecx
 1000d11:	89 4c 24 08          	mov    %ecx,0x8(%esp)
 1000d15:	89 04 24             	mov    %eax,(%esp)
 1000d18:	c7 44 24 04 01 00 00 	movl   $0x1,0x4(%esp)
 1000d1f:	00 
 1000d20:	e8 db f3 ff ff       	call   1000100 <memset>
 1000d25:	83 c4 0c             	add    $0xc,%esp
 1000d28:	5d                   	pop    %ebp
 1000d29:	c3                   	ret    
 1000d2a:	8d b6 00 00 00 00    	lea    0x0(%esi),%esi

01000d30 <graphics_WriteStr>:
 1000d30:	55                   	push   %ebp
 1000d31:	89 e5                	mov    %esp,%ebp
 1000d33:	53                   	push   %ebx
 1000d34:	57                   	push   %edi
 1000d35:	56                   	push   %esi
 1000d36:	83 ec 18             	sub    $0x18,%esp
 1000d39:	8b 45 08             	mov    0x8(%ebp),%eax
 1000d3c:	80 38 00             	cmpb   $0x0,(%eax)
 1000d3f:	0f 84 87 00 00 00    	je     1000dcc <graphics_WriteStr+0x9c>
 1000d45:	8b 75 10             	mov    0x10(%ebp),%esi
 1000d48:	8b 45 0c             	mov    0xc(%ebp),%eax
 1000d4b:	89 45 e4             	mov    %eax,-0x1c(%ebp)
 1000d4e:	31 c9                	xor    %ecx,%ecx
 1000d50:	a1 0c 10 03 02       	mov    0x203100c,%eax
 1000d55:	89 45 e8             	mov    %eax,-0x18(%ebp)
 1000d58:	8b 45 08             	mov    0x8(%ebp),%eax
 1000d5b:	89 c2                	mov    %eax,%edx
 1000d5d:	8d 76 00             	lea    0x0(%esi),%esi
 1000d60:	89 55 ec             	mov    %edx,-0x14(%ebp)
 1000d63:	89 4d e0             	mov    %ecx,-0x20(%ebp)
 1000d66:	83 45 e4 08          	addl   $0x8,-0x1c(%ebp)
 1000d6a:	31 c9                	xor    %ecx,%ecx
 1000d6c:	8d 74 26 00          	lea    0x0(%esi,%eiz,1),%esi
 1000d70:	8b 55 e4             	mov    -0x1c(%ebp),%edx
 1000d73:	29 ca                	sub    %ecx,%edx
 1000d75:	89 55 f0             	mov    %edx,-0x10(%ebp)
 1000d78:	bf 6d ae 82 01       	mov    $0x182ae6d,%edi
 1000d7d:	89 f2                	mov    %esi,%edx
 1000d7f:	90                   	nop
 1000d80:	8b 45 ec             	mov    -0x14(%ebp),%eax
 1000d83:	0f be 18             	movsbl (%eax),%ebx
 1000d86:	6b db 0d             	imul   $0xd,%ebx,%ebx
 1000d89:	0f b6 1c 1f          	movzbl (%edi,%ebx,1),%ebx
 1000d8d:	d3 eb                	shr    %cl,%ebx
 1000d8f:	a1 24 10 03 02       	mov    0x2031024,%eax
 1000d94:	0f af c2             	imul   %edx,%eax
 1000d97:	03 45 f0             	add    -0x10(%ebp),%eax
 1000d9a:	83 cb fe             	or     $0xfffffffe,%ebx
 1000d9d:	43                   	inc    %ebx
 1000d9e:	8b 75 e8             	mov    -0x18(%ebp),%esi
 1000da1:	21 1c 86             	and    %ebx,(%esi,%eax,4)
 1000da4:	8b 75 10             	mov    0x10(%ebp),%esi
 1000da7:	8d 46 0c             	lea    0xc(%esi),%eax
 1000daa:	4f                   	dec    %edi
 1000dab:	39 c2                	cmp    %eax,%edx
 1000dad:	8d 52 01             	lea    0x1(%edx),%edx
 1000db0:	7c ce                	jl     1000d80 <graphics_WriteStr+0x50>
 1000db2:	41                   	inc    %ecx
 1000db3:	83 f9 08             	cmp    $0x8,%ecx
 1000db6:	75 b8                	jne    1000d70 <graphics_WriteStr+0x40>
 1000db8:	8b 45 08             	mov    0x8(%ebp),%eax
 1000dbb:	8b 4d e0             	mov    -0x20(%ebp),%ecx
 1000dbe:	8d 54 08 01          	lea    0x1(%eax,%ecx,1),%edx
 1000dc2:	80 7c 08 01 00       	cmpb   $0x0,0x1(%eax,%ecx,1)
 1000dc7:	8d 49 01             	lea    0x1(%ecx),%ecx
 1000dca:	75 94                	jne    1000d60 <graphics_WriteStr+0x30>
 1000dcc:	83 c4 18             	add    $0x18,%esp
 1000dcf:	5e                   	pop    %esi
 1000dd0:	5f                   	pop    %edi
 1000dd1:	5b                   	pop    %ebx
 1000dd2:	5d                   	pop    %ebp
 1000dd3:	c3                   	ret    
 1000dd4:	8d b6 00 00 00 00    	lea    0x0(%esi),%esi
 1000dda:	8d bf 00 00 00 00    	lea    0x0(%edi),%edi

01000de0 <graphics_WriteUInt32>:
 1000de0:	55                   	push   %ebp
 1000de1:	89 e5                	mov    %esp,%ebp
 1000de3:	53                   	push   %ebx
 1000de4:	57                   	push   %edi
 1000de5:	56                   	push   %esi
 1000de6:	81 ec a4 00 00 00    	sub    $0xa4,%esp
 1000dec:	8b 45 10             	mov    0x10(%ebp),%eax
 1000def:	89 85 60 ff ff ff    	mov    %eax,-0xa0(%ebp)
 1000df5:	8b 4d 0c             	mov    0xc(%ebp),%ecx
 1000df8:	8b 45 08             	mov    0x8(%ebp),%eax
 1000dfb:	83 f9 02             	cmp    $0x2,%ecx
 1000dfe:	74 1c                	je     1000e1c <graphics_WriteUInt32+0x3c>
 1000e00:	83 f9 10             	cmp    $0x10,%ecx
 1000e03:	75 2e                	jne    1000e33 <graphics_WriteUInt32+0x53>
 1000e05:	89 44 24 08          	mov    %eax,0x8(%esp)
 1000e09:	8d 85 74 ff ff ff    	lea    -0x8c(%ebp),%eax
 1000e0f:	89 04 24             	mov    %eax,(%esp)
 1000e12:	c7 44 24 04 f4 80 00 	movl   $0x10080f4,0x4(%esp)
 1000e19:	01 
 1000e1a:	eb 31                	jmp    1000e4d <graphics_WriteUInt32+0x6d>
 1000e1c:	89 44 24 08          	mov    %eax,0x8(%esp)
 1000e20:	8d 85 74 ff ff ff    	lea    -0x8c(%ebp),%eax
 1000e26:	89 04 24             	mov    %eax,(%esp)
 1000e29:	c7 44 24 04 f8 80 00 	movl   $0x10080f8,0x4(%esp)
 1000e30:	01 
 1000e31:	eb 1a                	jmp    1000e4d <graphics_WriteUInt32+0x6d>
 1000e33:	83 f9 0a             	cmp    $0xa,%ecx
 1000e36:	75 1a                	jne    1000e52 <graphics_WriteUInt32+0x72>
 1000e38:	89 44 24 08          	mov    %eax,0x8(%esp)
 1000e3c:	8d 85 74 ff ff ff    	lea    -0x8c(%ebp),%eax
 1000e42:	89 04 24             	mov    %eax,(%esp)
 1000e45:	c7 44 24 04 f1 80 00 	movl   $0x10080f1,0x4(%esp)
 1000e4c:	01 
 1000e4d:	e8 2e fd ff ff       	call   1000b80 <sprintf>
 1000e52:	80 bd 74 ff ff ff 00 	cmpb   $0x0,-0x8c(%ebp)
 1000e59:	0f 84 c5 00 00 00    	je     1000f24 <graphics_WriteUInt32+0x144>
 1000e5f:	8d 95 74 ff ff ff    	lea    -0x8c(%ebp),%edx
 1000e65:	a1 0c 10 03 02       	mov    0x203100c,%eax
 1000e6a:	89 85 64 ff ff ff    	mov    %eax,-0x9c(%ebp)
 1000e70:	8b 45 14             	mov    0x14(%ebp),%eax
 1000e73:	8d 40 0c             	lea    0xc(%eax),%eax
 1000e76:	89 85 68 ff ff ff    	mov    %eax,-0x98(%ebp)
 1000e7c:	31 c0                	xor    %eax,%eax
 1000e7e:	66 90                	xchg   %ax,%ax
 1000e80:	89 95 6c ff ff ff    	mov    %edx,-0x94(%ebp)
 1000e86:	89 85 5c ff ff ff    	mov    %eax,-0xa4(%ebp)
 1000e8c:	83 85 60 ff ff ff 08 	addl   $0x8,-0xa0(%ebp)
 1000e93:	31 c0                	xor    %eax,%eax
 1000e95:	8d 74 26 00          	lea    0x0(%esi,%eiz,1),%esi
 1000e99:	8d bc 27 00 00 00 00 	lea    0x0(%edi,%eiz,1),%edi
 1000ea0:	8b 8d 60 ff ff ff    	mov    -0xa0(%ebp),%ecx
 1000ea6:	29 c1                	sub    %eax,%ecx
 1000ea8:	89 8d 70 ff ff ff    	mov    %ecx,-0x90(%ebp)
 1000eae:	89 c7                	mov    %eax,%edi
 1000eb0:	be 6d ae 82 01       	mov    $0x182ae6d,%esi
 1000eb5:	8b 45 14             	mov    0x14(%ebp),%eax
 1000eb8:	90                   	nop
 1000eb9:	8d b4 26 00 00 00 00 	lea    0x0(%esi,%eiz,1),%esi
 1000ec0:	0f be 12             	movsbl (%edx),%edx
 1000ec3:	6b d2 0d             	imul   $0xd,%edx,%edx
 1000ec6:	0f b6 14 16          	movzbl (%esi,%edx,1),%edx
 1000eca:	89 f9                	mov    %edi,%ecx
 1000ecc:	d3 ea                	shr    %cl,%edx
 1000ece:	8b 1d 24 10 03 02    	mov    0x2031024,%ebx
 1000ed4:	0f af d8             	imul   %eax,%ebx
 1000ed7:	03 9d 70 ff ff ff    	add    -0x90(%ebp),%ebx
 1000edd:	83 ca fe             	or     $0xfffffffe,%edx
 1000ee0:	42                   	inc    %edx
 1000ee1:	8b 8d 64 ff ff ff    	mov    -0x9c(%ebp),%ecx
 1000ee7:	21 14 99             	and    %edx,(%ecx,%ebx,4)
 1000eea:	8b 95 6c ff ff ff    	mov    -0x94(%ebp),%edx
 1000ef0:	8b 8d 68 ff ff ff    	mov    -0x98(%ebp),%ecx
 1000ef6:	4e                   	dec    %esi
 1000ef7:	39 c8                	cmp    %ecx,%eax
 1000ef9:	8d 40 01             	lea    0x1(%eax),%eax
 1000efc:	7c c2                	jl     1000ec0 <graphics_WriteUInt32+0xe0>
 1000efe:	47                   	inc    %edi
 1000eff:	83 ff 08             	cmp    $0x8,%edi
 1000f02:	89 f8                	mov    %edi,%eax
 1000f04:	75 9a                	jne    1000ea0 <graphics_WriteUInt32+0xc0>
 1000f06:	8b 85 5c ff ff ff    	mov    -0xa4(%ebp),%eax
 1000f0c:	8d 94 05 75 ff ff ff 	lea    -0x8b(%ebp,%eax,1),%edx
 1000f13:	80 bc 05 75 ff ff ff 	cmpb   $0x0,-0x8b(%ebp,%eax,1)
 1000f1a:	00 
 1000f1b:	8d 40 01             	lea    0x1(%eax),%eax
 1000f1e:	0f 85 5c ff ff ff    	jne    1000e80 <graphics_WriteUInt32+0xa0>
 1000f24:	81 c4 a4 00 00 00    	add    $0xa4,%esp
 1000f2a:	5e                   	pop    %esi
 1000f2b:	5f                   	pop    %edi
 1000f2c:	5b                   	pop    %ebx
 1000f2d:	5d                   	pop    %ebp
 1000f2e:	c3                   	ret    
 1000f2f:	90                   	nop

01000f30 <graphics_WriteUInt64>:
 1000f30:	55                   	push   %ebp
 1000f31:	89 e5                	mov    %esp,%ebp
 1000f33:	53                   	push   %ebx
 1000f34:	57                   	push   %edi
 1000f35:	56                   	push   %esi
 1000f36:	81 ec 28 02 00 00    	sub    $0x228,%esp
 1000f3c:	8b 4d 0c             	mov    0xc(%ebp),%ecx
 1000f3f:	8b 45 08             	mov    0x8(%ebp),%eax
 1000f42:	8b 55 14             	mov    0x14(%ebp),%edx
 1000f45:	89 95 e0 fd ff ff    	mov    %edx,-0x220(%ebp)
 1000f4b:	8b 55 10             	mov    0x10(%ebp),%edx
 1000f4e:	83 fa 02             	cmp    $0x2,%edx
 1000f51:	74 20                	je     1000f73 <graphics_WriteUInt64+0x43>
 1000f53:	83 fa 10             	cmp    $0x10,%edx
 1000f56:	75 36                	jne    1000f8e <graphics_WriteUInt64+0x5e>
 1000f58:	89 4c 24 0c          	mov    %ecx,0xc(%esp)
 1000f5c:	89 44 24 08          	mov    %eax,0x8(%esp)
 1000f60:	8d 85 f4 fd ff ff    	lea    -0x20c(%ebp),%eax
 1000f66:	89 04 24             	mov    %eax,(%esp)
 1000f69:	c7 44 24 04 f4 80 00 	movl   $0x10080f4,0x4(%esp)
 1000f70:	01 
 1000f71:	eb 39                	jmp    1000fac <graphics_WriteUInt64+0x7c>
 1000f73:	89 4c 24 0c          	mov    %ecx,0xc(%esp)
 1000f77:	89 44 24 08          	mov    %eax,0x8(%esp)
 1000f7b:	8d 85 f4 fd ff ff    	lea    -0x20c(%ebp),%eax
 1000f81:	89 04 24             	mov    %eax,(%esp)
 1000f84:	c7 44 24 04 f8 80 00 	movl   $0x10080f8,0x4(%esp)
 1000f8b:	01 
 1000f8c:	eb 1e                	jmp    1000fac <graphics_WriteUInt64+0x7c>
 1000f8e:	83 fa 0a             	cmp    $0xa,%edx
 1000f91:	75 1e                	jne    1000fb1 <graphics_WriteUInt64+0x81>
 1000f93:	89 4c 24 0c          	mov    %ecx,0xc(%esp)
 1000f97:	89 44 24 08          	mov    %eax,0x8(%esp)
 1000f9b:	8d 85 f4 fd ff ff    	lea    -0x20c(%ebp),%eax
 1000fa1:	89 04 24             	mov    %eax,(%esp)
 1000fa4:	c7 44 24 04 f1 80 00 	movl   $0x10080f1,0x4(%esp)
 1000fab:	01 
 1000fac:	e8 cf fb ff ff       	call   1000b80 <sprintf>
 1000fb1:	80 bd f4 fd ff ff 00 	cmpb   $0x0,-0x20c(%ebp)
 1000fb8:	0f 84 c6 00 00 00    	je     1001084 <graphics_WriteUInt64+0x154>
 1000fbe:	8d 95 f4 fd ff ff    	lea    -0x20c(%ebp),%edx
 1000fc4:	a1 0c 10 03 02       	mov    0x203100c,%eax
 1000fc9:	89 85 e4 fd ff ff    	mov    %eax,-0x21c(%ebp)
 1000fcf:	8b 45 18             	mov    0x18(%ebp),%eax
 1000fd2:	8d 40 0c             	lea    0xc(%eax),%eax
 1000fd5:	89 85 e8 fd ff ff    	mov    %eax,-0x218(%ebp)
 1000fdb:	31 c0                	xor    %eax,%eax
 1000fdd:	8d 76 00             	lea    0x0(%esi),%esi
 1000fe0:	89 95 ec fd ff ff    	mov    %edx,-0x214(%ebp)
 1000fe6:	89 85 dc fd ff ff    	mov    %eax,-0x224(%ebp)
 1000fec:	83 85 e0 fd ff ff 08 	addl   $0x8,-0x220(%ebp)
 1000ff3:	31 c0                	xor    %eax,%eax
 1000ff5:	8d 74 26 00          	lea    0x0(%esi,%eiz,1),%esi
 1000ff9:	8d bc 27 00 00 00 00 	lea    0x0(%edi,%eiz,1),%edi
 1001000:	8b 8d e0 fd ff ff    	mov    -0x220(%ebp),%ecx
 1001006:	29 c1                	sub    %eax,%ecx
 1001008:	89 8d f0 fd ff ff    	mov    %ecx,-0x210(%ebp)
 100100e:	89 c7                	mov    %eax,%edi
 1001010:	be 6d ae 82 01       	mov    $0x182ae6d,%esi
 1001015:	8b 45 18             	mov    0x18(%ebp),%eax
 1001018:	90                   	nop
 1001019:	8d b4 26 00 00 00 00 	lea    0x0(%esi,%eiz,1),%esi
 1001020:	0f be 12             	movsbl (%edx),%edx
 1001023:	6b d2 0d             	imul   $0xd,%edx,%edx
 1001026:	0f b6 14 16          	movzbl (%esi,%edx,1),%edx
 100102a:	89 f9                	mov    %edi,%ecx
 100102c:	d3 ea                	shr    %cl,%edx
 100102e:	8b 1d 24 10 03 02    	mov    0x2031024,%ebx
 1001034:	0f af d8             	imul   %eax,%ebx
 1001037:	03 9d f0 fd ff ff    	add    -0x210(%ebp),%ebx
 100103d:	83 ca fe             	or     $0xfffffffe,%edx
 1001040:	42                   	inc    %edx
 1001041:	8b 8d e4 fd ff ff    	mov    -0x21c(%ebp),%ecx
 1001047:	21 14 99             	and    %edx,(%ecx,%ebx,4)
 100104a:	8b 95 ec fd ff ff    	mov    -0x214(%ebp),%edx
 1001050:	8b 8d e8 fd ff ff    	mov    -0x218(%ebp),%ecx
 1001056:	4e                   	dec    %esi
 1001057:	39 c8                	cmp    %ecx,%eax
 1001059:	8d 40 01             	lea    0x1(%eax),%eax
 100105c:	7c c2                	jl     1001020 <graphics_WriteUInt64+0xf0>
 100105e:	47                   	inc    %edi
 100105f:	83 ff 08             	cmp    $0x8,%edi
 1001062:	89 f8                	mov    %edi,%eax
 1001064:	75 9a                	jne    1001000 <graphics_WriteUInt64+0xd0>
 1001066:	8b 85 dc fd ff ff    	mov    -0x224(%ebp),%eax
 100106c:	8d 94 05 f5 fd ff ff 	lea    -0x20b(%ebp,%eax,1),%edx
 1001073:	80 bc 05 f5 fd ff ff 	cmpb   $0x0,-0x20b(%ebp,%eax,1)
 100107a:	00 
 100107b:	8d 40 01             	lea    0x1(%eax),%eax
 100107e:	0f 85 5c ff ff ff    	jne    1000fe0 <graphics_WriteUInt64+0xb0>
 1001084:	81 c4 28 02 00 00    	add    $0x228,%esp
 100108a:	5e                   	pop    %esi
 100108b:	5f                   	pop    %edi
 100108c:	5b                   	pop    %ebx
 100108d:	5d                   	pop    %ebp
 100108e:	c3                   	ret    
 100108f:	90                   	nop

01001090 <graphics_WriteFloat>:
 1001090:	55                   	push   %ebp
 1001091:	89 e5                	mov    %esp,%ebp
 1001093:	53                   	push   %ebx
 1001094:	57                   	push   %edi
 1001095:	56                   	push   %esi
 1001096:	83 e4 f8             	and    $0xfffffff8,%esp
 1001099:	81 ec 68 01 00 00    	sub    $0x168,%esp
 100109f:	8b 45 10             	mov    0x10(%ebp),%eax
 10010a2:	89 44 24 18          	mov    %eax,0x18(%esp)
 10010a6:	f3 0f 10 45 08       	movss  0x8(%ebp),%xmm0
 10010ab:	f3 0f 11 44 24 58    	movss  %xmm0,0x58(%esp)
 10010b1:	d9 44 24 58          	flds   0x58(%esp)
 10010b5:	d9 7c 24 2e          	fnstcw 0x2e(%esp)
 10010b9:	66 8b 44 24 2e       	mov    0x2e(%esp),%ax
 10010be:	66 c7 44 24 2e 7f 0c 	movw   $0xc7f,0x2e(%esp)
 10010c5:	d9 6c 24 2e          	fldcw  0x2e(%esp)
 10010c9:	66 89 44 24 2e       	mov    %ax,0x2e(%esp)
 10010ce:	df 7c 24 50          	fistpll 0x50(%esp)
 10010d2:	d9 6c 24 2e          	fldcw  0x2e(%esp)
 10010d6:	8b 5c 24 50          	mov    0x50(%esp),%ebx
 10010da:	8b 74 24 54          	mov    0x54(%esp),%esi
 10010de:	f2 0f 10 0d c8 a7 82 	movsd  0x182a7c8,%xmm1
 10010e5:	01 
 10010e6:	66 0f 6e 55 0c       	movd   0xc(%ebp),%xmm2
 10010eb:	0f 56 d1             	orps   %xmm1,%xmm2
 10010ee:	f2 0f 5c d1          	subsd  %xmm1,%xmm2
 10010f2:	0f 57 c9             	xorps  %xmm1,%xmm1
 10010f5:	f2 0f 5a ca          	cvtsd2ss %xmm2,%xmm1
 10010f9:	f3 0f 59 c8          	mulss  %xmm0,%xmm1
 10010fd:	89 74 24 4c          	mov    %esi,0x4c(%esp)
 1001101:	89 5c 24 48          	mov    %ebx,0x48(%esp)
 1001105:	df 6c 24 48          	fildll 0x48(%esp)
 1001109:	d9 5c 24 44          	fstps  0x44(%esp)
 100110d:	f3 0f 5c 4c 24 44    	subss  0x44(%esp),%xmm1
 1001113:	f3 0f 11 4c 24 28    	movss  %xmm1,0x28(%esp)
 1001119:	31 c9                	xor    %ecx,%ecx
 100111b:	90                   	nop
 100111c:	8d 74 26 00          	lea    0x0(%esi,%eiz,1),%esi
 1001120:	89 cf                	mov    %ecx,%edi
 1001122:	89 74 24 04          	mov    %esi,0x4(%esp)
 1001126:	89 1c 24             	mov    %ebx,(%esp)
 1001129:	c7 44 24 0c 00 00 00 	movl   $0x0,0xc(%esp)
 1001130:	00 
 1001131:	c7 44 24 08 0a 00 00 	movl   $0xa,0x8(%esp)
 1001138:	00 
 1001139:	e8 e2 62 00 00       	call   1007420 <__moddi3>
 100113e:	8a 80 fc 80 00 01    	mov    0x10080fc(%eax),%al
 1001144:	88 44 3c 64          	mov    %al,0x64(%esp,%edi,1)
 1001148:	89 74 24 04          	mov    %esi,0x4(%esp)
 100114c:	89 1c 24             	mov    %ebx,(%esp)
 100114f:	c7 44 24 0c 00 00 00 	movl   $0x0,0xc(%esp)
 1001156:	00 
 1001157:	c7 44 24 08 0a 00 00 	movl   $0xa,0x8(%esp)
 100115e:	00 
 100115f:	e8 dc 60 00 00       	call   1007240 <__divdi3>
 1001164:	83 c3 09             	add    $0x9,%ebx
 1001167:	83 d6 00             	adc    $0x0,%esi
 100116a:	83 fb 12             	cmp    $0x12,%ebx
 100116d:	0f 97 c1             	seta   %cl
 1001170:	85 f6                	test   %esi,%esi
 1001172:	0f 95 c5             	setne  %ch
 1001175:	74 02                	je     1001179 <graphics_WriteFloat+0xe9>
 1001177:	88 e9                	mov    %ch,%cl
 1001179:	8d 77 01             	lea    0x1(%edi),%esi
 100117c:	84 c9                	test   %cl,%cl
 100117e:	89 f1                	mov    %esi,%ecx
 1001180:	89 c3                	mov    %eax,%ebx
 1001182:	89 d6                	mov    %edx,%esi
 1001184:	75 9a                	jne    1001120 <graphics_WriteFloat+0x90>
 1001186:	f3 0f 10 44 24 28    	movss  0x28(%esp),%xmm0
 100118c:	f3 0f 11 44 24 38    	movss  %xmm0,0x38(%esp)
 1001192:	d9 44 24 38          	flds   0x38(%esp)
 1001196:	d9 7c 24 2c          	fnstcw 0x2c(%esp)
 100119a:	66 8b 44 24 2c       	mov    0x2c(%esp),%ax
 100119f:	66 c7 44 24 2c 7f 0c 	movw   $0xc7f,0x2c(%esp)
 10011a6:	d9 6c 24 2c          	fldcw  0x2c(%esp)
 10011aa:	66 89 44 24 2c       	mov    %ax,0x2c(%esp)
 10011af:	df 7c 24 30          	fistpll 0x30(%esp)
 10011b3:	d9 6c 24 2c          	fldcw  0x2c(%esp)
 10011b7:	8b 74 24 30          	mov    0x30(%esp),%esi
 10011bb:	89 fb                	mov    %edi,%ebx
 10011bd:	8b 7c 24 34          	mov    0x34(%esp),%edi
 10011c1:	c6 44 0c 64 00       	movb   $0x0,0x64(%esp,%ecx,1)
 10011c6:	8d 44 24 64          	lea    0x64(%esp),%eax
 10011ca:	89 04 24             	mov    %eax,(%esp)
 10011cd:	89 4c 24 28          	mov    %ecx,0x28(%esp)
 10011d1:	e8 7a ef ff ff       	call   1000150 <strrev>
 10011d6:	83 c3 02             	add    $0x2,%ebx
 10011d9:	8b 44 24 28          	mov    0x28(%esp),%eax
 10011dd:	c6 44 04 64 2e       	movb   $0x2e,0x64(%esp,%eax,1)
 10011e2:	8d b4 26 00 00 00 00 	lea    0x0(%esi,%eiz,1),%esi
 10011e9:	8d bc 27 00 00 00 00 	lea    0x0(%edi,%eiz,1),%edi
 10011f0:	89 7c 24 04          	mov    %edi,0x4(%esp)
 10011f4:	89 34 24             	mov    %esi,(%esp)
 10011f7:	c7 44 24 0c 00 00 00 	movl   $0x0,0xc(%esp)
 10011fe:	00 
 10011ff:	c7 44 24 08 0a 00 00 	movl   $0xa,0x8(%esp)
 1001206:	00 
 1001207:	e8 14 62 00 00       	call   1007420 <__moddi3>
 100120c:	8a 80 fc 80 00 01    	mov    0x10080fc(%eax),%al
 1001212:	88 44 1c 64          	mov    %al,0x64(%esp,%ebx,1)
 1001216:	89 7c 24 04          	mov    %edi,0x4(%esp)
 100121a:	89 34 24             	mov    %esi,(%esp)
 100121d:	c7 44 24 0c 00 00 00 	movl   $0x0,0xc(%esp)
 1001224:	00 
 1001225:	c7 44 24 08 0a 00 00 	movl   $0xa,0x8(%esp)
 100122c:	00 
 100122d:	e8 0e 60 00 00       	call   1007240 <__divdi3>
 1001232:	83 c6 09             	add    $0x9,%esi
 1001235:	83 d7 00             	adc    $0x0,%edi
 1001238:	83 fe 12             	cmp    $0x12,%esi
 100123b:	0f 97 c1             	seta   %cl
 100123e:	85 ff                	test   %edi,%edi
 1001240:	0f 95 c5             	setne  %ch
 1001243:	74 02                	je     1001247 <graphics_WriteFloat+0x1b7>
 1001245:	88 e9                	mov    %ch,%cl
 1001247:	43                   	inc    %ebx
 1001248:	84 c9                	test   %cl,%cl
 100124a:	89 c6                	mov    %eax,%esi
 100124c:	89 d7                	mov    %edx,%edi
 100124e:	75 a0                	jne    10011f0 <graphics_WriteFloat+0x160>
 1001250:	c6 44 1c 64 00       	movb   $0x0,0x64(%esp,%ebx,1)
 1001255:	80 7c 24 64 00       	cmpb   $0x0,0x64(%esp)
 100125a:	8d 54 24 64          	lea    0x64(%esp),%edx
 100125e:	0f 84 a2 00 00 00    	je     1001306 <graphics_WriteFloat+0x276>
 1001264:	a1 0c 10 03 02       	mov    0x203100c,%eax
 1001269:	89 44 24 1c          	mov    %eax,0x1c(%esp)
 100126d:	8b 45 14             	mov    0x14(%ebp),%eax
 1001270:	8d 40 0c             	lea    0xc(%eax),%eax
 1001273:	89 44 24 20          	mov    %eax,0x20(%esp)
 1001277:	31 c0                	xor    %eax,%eax
 1001279:	8b 7c 24 1c          	mov    0x1c(%esp),%edi
 100127d:	8d 76 00             	lea    0x0(%esi),%esi
 1001280:	89 44 24 14          	mov    %eax,0x14(%esp)
 1001284:	83 44 24 18 08       	addl   $0x8,0x18(%esp)
 1001289:	31 c9                	xor    %ecx,%ecx
 100128b:	90                   	nop
 100128c:	8d 74 26 00          	lea    0x0(%esi,%eiz,1),%esi
 1001290:	89 4c 24 28          	mov    %ecx,0x28(%esp)
 1001294:	8b 44 24 18          	mov    0x18(%esp),%eax
 1001298:	29 c8                	sub    %ecx,%eax
 100129a:	89 44 24 24          	mov    %eax,0x24(%esp)
 100129e:	be 6d ae 82 01       	mov    $0x182ae6d,%esi
 10012a3:	8b 5d 14             	mov    0x14(%ebp),%ebx
 10012a6:	8d 76 00             	lea    0x0(%esi),%esi
 10012a9:	8d bc 27 00 00 00 00 	lea    0x0(%edi,%eiz,1),%edi
 10012b0:	0f be 02             	movsbl (%edx),%eax
 10012b3:	6b c0 0d             	imul   $0xd,%eax,%eax
 10012b6:	0f b6 04 06          	movzbl (%esi,%eax,1),%eax
 10012ba:	8b 4c 24 28          	mov    0x28(%esp),%ecx
 10012be:	d3 e8                	shr    %cl,%eax
 10012c0:	89 d1                	mov    %edx,%ecx
 10012c2:	8b 15 24 10 03 02    	mov    0x2031024,%edx
 10012c8:	0f af d3             	imul   %ebx,%edx
 10012cb:	03 54 24 24          	add    0x24(%esp),%edx
 10012cf:	83 c8 fe             	or     $0xfffffffe,%eax
 10012d2:	40                   	inc    %eax
 10012d3:	21 04 97             	and    %eax,(%edi,%edx,4)
 10012d6:	8b 44 24 20          	mov    0x20(%esp),%eax
 10012da:	89 ca                	mov    %ecx,%edx
 10012dc:	4e                   	dec    %esi
 10012dd:	39 c3                	cmp    %eax,%ebx
 10012df:	8d 5b 01             	lea    0x1(%ebx),%ebx
 10012e2:	7c cc                	jl     10012b0 <graphics_WriteFloat+0x220>
 10012e4:	8b 44 24 28          	mov    0x28(%esp),%eax
 10012e8:	40                   	inc    %eax
 10012e9:	83 f8 08             	cmp    $0x8,%eax
 10012ec:	89 c1                	mov    %eax,%ecx
 10012ee:	75 a0                	jne    1001290 <graphics_WriteFloat+0x200>
 10012f0:	8b 44 24 14          	mov    0x14(%esp),%eax
 10012f4:	8d 54 04 65          	lea    0x65(%esp,%eax,1),%edx
 10012f8:	80 7c 04 65 00       	cmpb   $0x0,0x65(%esp,%eax,1)
 10012fd:	8d 40 01             	lea    0x1(%eax),%eax
 1001300:	0f 85 7a ff ff ff    	jne    1001280 <graphics_WriteFloat+0x1f0>
 1001306:	8d 65 f4             	lea    -0xc(%ebp),%esp
 1001309:	5e                   	pop    %esi
 100130a:	5f                   	pop    %edi
 100130b:	5b                   	pop    %ebx
 100130c:	5d                   	pop    %ebp
 100130d:	c3                   	ret    
 100130e:	66 90                	xchg   %ax,%ax

01001310 <graphics_SetPixel>:
 1001310:	55                   	push   %ebp
 1001311:	89 e5                	mov    %esp,%ebp
 1001313:	8b 45 10             	mov    0x10(%ebp),%eax
 1001316:	8b 0d 24 10 03 02    	mov    0x2031024,%ecx
 100131c:	0f af 4d 0c          	imul   0xc(%ebp),%ecx
 1001320:	03 4d 08             	add    0x8(%ebp),%ecx
 1001323:	8b 15 0c 10 03 02    	mov    0x203100c,%edx
 1001329:	89 04 8a             	mov    %eax,(%edx,%ecx,4)
 100132c:	5d                   	pop    %ebp
 100132d:	c3                   	ret    
 100132e:	66 90                	xchg   %ax,%ax

01001330 <SysMan_RegisterSystem>:
 1001330:	55                   	push   %ebp
 1001331:	89 e5                	mov    %esp,%ebp
 1001333:	56                   	push   %esi
 1001334:	83 ec 0c             	sub    $0xc,%esp
 1001337:	a1 dc b4 82 01       	mov    0x182b4dc,%eax
 100133c:	8b 0d d8 b4 82 01    	mov    0x182b4d8,%ecx
 1001342:	83 c1 ff             	add    $0xffffffff,%ecx
 1001345:	83 d0 ff             	adc    $0xffffffff,%eax
 1001348:	83 f9 1f             	cmp    $0x1f,%ecx
 100134b:	0f 97 c2             	seta   %dl
 100134e:	85 c0                	test   %eax,%eax
 1001350:	0f 95 c0             	setne  %al
 1001353:	74 02                	je     1001357 <SysMan_RegisterSystem+0x27>
 1001355:	88 c2                	mov    %al,%dl
 1001357:	31 c0                	xor    %eax,%eax
 1001359:	84 d2                	test   %dl,%dl
 100135b:	75 64                	jne    10013c1 <SysMan_RegisterSystem+0x91>
 100135d:	69 c1 1c 01 00 00    	imul   $0x11c,%ecx,%eax
 1001363:	8d 80 54 10 03 02    	lea    0x2031054(%eax),%eax
 1001369:	89 04 24             	mov    %eax,(%esp)
 100136c:	c7 44 24 08 1c 01 00 	movl   $0x11c,0x8(%esp)
 1001373:	00 
 1001374:	c7 44 24 04 00 00 00 	movl   $0x0,0x4(%esp)
 100137b:	00 
 100137c:	e8 7f ed ff ff       	call   1000100 <memset>
 1001381:	8b 0d dc b4 82 01    	mov    0x182b4dc,%ecx
 1001387:	8b 15 d8 b4 82 01    	mov    0x182b4d8,%edx
 100138d:	8d 42 ff             	lea    -0x1(%edx),%eax
 1001390:	69 f0 1c 01 00 00    	imul   $0x11c,%eax,%esi
 1001396:	8d 86 54 10 03 02    	lea    0x2031054(%esi),%eax
 100139c:	89 8e 6c 11 03 02    	mov    %ecx,0x203116c(%esi)
 10013a2:	89 96 68 11 03 02    	mov    %edx,0x2031168(%esi)
 10013a8:	c6 82 33 10 03 02 00 	movb   $0x0,0x2031033(%edx)
 10013af:	83 c2 01             	add    $0x1,%edx
 10013b2:	83 d1 00             	adc    $0x0,%ecx
 10013b5:	89 0d dc b4 82 01    	mov    %ecx,0x182b4dc
 10013bb:	89 15 d8 b4 82 01    	mov    %edx,0x182b4d8
 10013c1:	83 c4 0c             	add    $0xc,%esp
 10013c4:	5e                   	pop    %esi
 10013c5:	5d                   	pop    %ebp
 10013c6:	c3                   	ret    
 10013c7:	89 f6                	mov    %esi,%esi
 10013c9:	8d bc 27 00 00 00 00 	lea    0x0(%edi,%eiz,1),%edi

010013d0 <SysMan_GetSystemData>:
 10013d0:	55                   	push   %ebp
 10013d1:	89 e5                	mov    %esp,%ebp
 10013d3:	56                   	push   %esi
 10013d4:	83 ec 0c             	sub    $0xc,%esp
 10013d7:	8b 45 10             	mov    0x10(%ebp),%eax
 10013da:	85 c0                	test   %eax,%eax
 10013dc:	74 42                	je     1001420 <SysMan_GetSystemData+0x50>
 10013de:	8b 75 0c             	mov    0xc(%ebp),%esi
 10013e1:	8b 4d 08             	mov    0x8(%ebp),%ecx
 10013e4:	39 0d d8 b4 82 01    	cmp    %ecx,0x182b4d8
 10013ea:	0f 96 c2             	setbe  %dl
 10013ed:	39 35 dc b4 82 01    	cmp    %esi,0x182b4dc
 10013f3:	0f 96 c6             	setbe  %dh
 10013f6:	74 02                	je     10013fa <SysMan_GetSystemData+0x2a>
 10013f8:	88 f2                	mov    %dh,%dl
 10013fa:	84 d2                	test   %dl,%dl
 10013fc:	75 22                	jne    1001420 <SysMan_GetSystemData+0x50>
 10013fe:	69 c9 1c 01 00 00    	imul   $0x11c,%ecx,%ecx
 1001404:	8d 89 38 0f 03 02    	lea    0x2030f38(%ecx),%ecx
 100140a:	89 04 24             	mov    %eax,(%esp)
 100140d:	89 4c 24 04          	mov    %ecx,0x4(%esp)
 1001411:	c7 44 24 08 1c 01 00 	movl   $0x11c,0x8(%esp)
 1001418:	00 
 1001419:	e8 b2 ec ff ff       	call   10000d0 <memcpy>
 100141e:	eb 1c                	jmp    100143c <SysMan_GetSystemData+0x6c>
 1001420:	85 c0                	test   %eax,%eax
 1001422:	74 18                	je     100143c <SysMan_GetSystemData+0x6c>
 1001424:	89 04 24             	mov    %eax,(%esp)
 1001427:	c7 44 24 08 1c 01 00 	movl   $0x11c,0x8(%esp)
 100142e:	00 
 100142f:	c7 44 24 04 ff ff ff 	movl   $0xffffffff,0x4(%esp)
 1001436:	ff 
 1001437:	e8 c4 ec ff ff       	call   1000100 <memset>
 100143c:	83 c4 0c             	add    $0xc,%esp
 100143f:	5e                   	pop    %esi
 1001440:	5d                   	pop    %ebp
 1001441:	c3                   	ret    
 1001442:	8d b4 26 00 00 00 00 	lea    0x0(%esi,%eiz,1),%esi
 1001449:	8d bc 27 00 00 00 00 	lea    0x0(%edi,%eiz,1),%edi

01001450 <SysMan_StartSystem>:
 1001450:	55                   	push   %ebp
 1001451:	89 e5                	mov    %esp,%ebp
 1001453:	53                   	push   %ebx
 1001454:	57                   	push   %edi
 1001455:	56                   	push   %esi
 1001456:	83 ec 24             	sub    $0x24,%esp
 1001459:	8b 45 08             	mov    0x8(%ebp),%eax
 100145c:	c6 80 33 10 03 02 01 	movb   $0x1,0x2031033(%eax)
 1001463:	48                   	dec    %eax
 1001464:	69 c0 1c 01 00 00    	imul   $0x11c,%eax,%eax
 100146a:	89 45 e0             	mov    %eax,-0x20(%ebp)
 100146d:	8b 98 68 10 03 02    	mov    0x2031068(%eax),%ebx
 1001473:	8b 80 64 10 03 02    	mov    0x2031064(%eax),%eax
 1001479:	89 c1                	mov    %eax,%ecx
 100147b:	09 d9                	or     %ebx,%ecx
 100147d:	0f 84 f3 00 00 00    	je     1001576 <SysMan_StartSystem+0x126>
 1001483:	c7 45 e8 ff ff ff ff 	movl   $0xffffffff,-0x18(%ebp)
 100148a:	31 ff                	xor    %edi,%edi
 100148c:	31 d2                	xor    %edx,%edx
 100148e:	c7 45 e4 ff ff ff ff 	movl   $0xffffffff,-0x1c(%ebp)
 1001495:	c7 45 d8 00 00 00 00 	movl   $0x0,-0x28(%ebp)
 100149c:	c7 45 dc 00 00 00 00 	movl   $0x0,-0x24(%ebp)
 10014a3:	8d b6 00 00 00 00    	lea    0x0(%esi),%esi
 10014a9:	8d bc 27 00 00 00 00 	lea    0x0(%edi,%eiz,1),%edi
 10014b0:	89 7d f0             	mov    %edi,-0x10(%ebp)
 10014b3:	89 c6                	mov    %eax,%esi
 10014b5:	89 c7                	mov    %eax,%edi
 10014b7:	83 c6 ff             	add    $0xffffffff,%esi
 10014ba:	89 d8                	mov    %ebx,%eax
 10014bc:	83 d3 ff             	adc    $0xffffffff,%ebx
 10014bf:	8a 8e 34 10 03 02    	mov    0x2031034(%esi),%cl
 10014c5:	84 c9                	test   %cl,%cl
 10014c7:	0f 84 94 00 00 00    	je     1001561 <SysMan_StartSystem+0x111>
 10014cd:	89 55 ec             	mov    %edx,-0x14(%ebp)
 10014d0:	69 d6 1c 01 00 00    	imul   $0x11c,%esi,%edx
 10014d6:	83 ba 5c 11 03 02 00 	cmpl   $0x0,0x203115c(%edx)
 10014dd:	74 41                	je     1001520 <SysMan_StartSystem+0xd0>
 10014df:	84 c9                	test   %cl,%cl
 10014e1:	0f 84 7f 00 00 00    	je     1001566 <SysMan_StartSystem+0x116>
 10014e7:	8b 4d e8             	mov    -0x18(%ebp),%ecx
 10014ea:	31 f1                	xor    %esi,%ecx
 10014ec:	8b 55 e4             	mov    -0x1c(%ebp),%edx
 10014ef:	31 da                	xor    %ebx,%edx
 10014f1:	09 ca                	or     %ecx,%edx
 10014f3:	74 71                	je     1001566 <SysMan_StartSystem+0x116>
 10014f5:	89 44 24 04          	mov    %eax,0x4(%esp)
 10014f9:	89 3c 24             	mov    %edi,(%esp)
 10014fc:	e8 4f ff ff ff       	call   1001450 <SysMan_StartSystem>
 1001501:	8b 7d f0             	mov    -0x10(%ebp),%edi
 1001504:	83 c7 ff             	add    $0xffffffff,%edi
 1001507:	8b 55 ec             	mov    -0x14(%ebp),%edx
 100150a:	83 d2 ff             	adc    $0xffffffff,%edx
 100150d:	89 75 e8             	mov    %esi,-0x18(%ebp)
 1001510:	89 5d e4             	mov    %ebx,-0x1c(%ebp)
 1001513:	eb 19                	jmp    100152e <SysMan_StartSystem+0xde>
 1001515:	8d 74 26 00          	lea    0x0(%esi,%eiz,1),%esi
 1001519:	8d bc 27 00 00 00 00 	lea    0x0(%edi,%eiz,1),%edi
 1001520:	83 45 d8 01          	addl   $0x1,-0x28(%ebp)
 1001524:	83 55 dc 00          	adcl   $0x0,-0x24(%ebp)
 1001528:	8b 55 ec             	mov    -0x14(%ebp),%edx
 100152b:	8b 7d f0             	mov    -0x10(%ebp),%edi
 100152e:	83 c7 01             	add    $0x1,%edi
 1001531:	83 d2 00             	adc    $0x0,%edx
 1001534:	8b 45 e0             	mov    -0x20(%ebp),%eax
 1001537:	8b 9c f8 68 10 03 02 	mov    0x2031068(%eax,%edi,8),%ebx
 100153e:	8b 84 f8 64 10 03 02 	mov    0x2031064(%eax,%edi,8),%eax
 1001545:	89 c1                	mov    %eax,%ecx
 1001547:	09 d9                	or     %ebx,%ecx
 1001549:	74 21                	je     100156c <SysMan_StartSystem+0x11c>
 100154b:	83 ff 1f             	cmp    $0x1f,%edi
 100154e:	0f 92 c1             	setb   %cl
 1001551:	85 d2                	test   %edx,%edx
 1001553:	74 02                	je     1001557 <SysMan_StartSystem+0x107>
 1001555:	31 c9                	xor    %ecx,%ecx
 1001557:	84 c9                	test   %cl,%cl
 1001559:	0f 85 51 ff ff ff    	jne    10014b0 <SysMan_StartSystem+0x60>
 100155f:	eb 0b                	jmp    100156c <SysMan_StartSystem+0x11c>
 1001561:	8b 7d f0             	mov    -0x10(%ebp),%edi
 1001564:	eb 06                	jmp    100156c <SysMan_StartSystem+0x11c>
 1001566:	8b 55 ec             	mov    -0x14(%ebp),%edx
 1001569:	8b 7d f0             	mov    -0x10(%ebp),%edi
 100156c:	33 7d d8             	xor    -0x28(%ebp),%edi
 100156f:	33 55 dc             	xor    -0x24(%ebp),%edx
 1001572:	09 fa                	or     %edi,%edx
 1001574:	75 3a                	jne    10015b0 <SysMan_StartSystem+0x160>
 1001576:	8b 7d e0             	mov    -0x20(%ebp),%edi
 1001579:	8d b7 5c 11 03 02    	lea    0x203115c(%edi),%esi
 100157f:	ff 97 5c 11 03 02    	call   *0x203115c(%edi)
 1001585:	8b 8f 60 11 03 02    	mov    0x2031160(%edi),%ecx
 100158b:	85 c9                	test   %ecx,%ecx
 100158d:	74 05                	je     1001594 <SysMan_StartSystem+0x144>
 100158f:	89 04 24             	mov    %eax,(%esp)
 1001592:	ff d1                	call   *%ecx
 1001594:	c7 06 00 00 00 00    	movl   $0x0,(%esi)
 100159a:	8d 87 54 10 03 02    	lea    0x2031054(%edi),%eax
 10015a0:	89 44 24 04          	mov    %eax,0x4(%esp)
 10015a4:	c7 04 24 07 81 00 01 	movl   $0x1008107,(%esp)
 10015ab:	e8 70 50 00 00       	call   1006620 <COM_WriteStr>
 10015b0:	83 c4 24             	add    $0x24,%esp
 10015b3:	5e                   	pop    %esi
 10015b4:	5f                   	pop    %edi
 10015b5:	5b                   	pop    %ebx
 10015b6:	5d                   	pop    %ebp
 10015b7:	c3                   	ret    
 10015b8:	66 90                	xchg   %ax,%ax
 10015ba:	66 90                	xchg   %ax,%ax
 10015bc:	66 90                	xchg   %ax,%ax
 10015be:	66 90                	xchg   %ax,%ax

010015c0 <bootstrap_setup>:
 10015c0:	55                   	push   %ebp
 10015c1:	89 e5                	mov    %esp,%ebp
 10015c3:	83 ec 08             	sub    $0x8,%esp
 10015c6:	e8 65 fd ff ff       	call   1001330 <SysMan_RegisterSystem>
 10015cb:	a3 88 4c 27 05       	mov    %eax,0x5274c88
 10015d0:	89 04 24             	mov    %eax,(%esp)
 10015d3:	c7 44 24 04 18 81 00 	movl   $0x1008118,0x4(%esp)
 10015da:	01 
 10015db:	e8 20 ec ff ff       	call   1000200 <strcpy>
 10015e0:	a1 88 4c 27 05       	mov    0x5274c88,%eax
 10015e5:	c7 40 14 00 00 00 00 	movl   $0x0,0x14(%eax)
 10015ec:	c7 40 10 00 00 00 00 	movl   $0x0,0x10(%eax)
 10015f3:	c7 80 08 01 00 00 70 	movl   $0x1001670,0x108(%eax)
 10015fa:	16 00 01 
 10015fd:	a1 88 4c 27 05       	mov    0x5274c88,%eax
 1001602:	c7 80 0c 01 00 00 40 	movl   $0x1001640,0x10c(%eax)
 1001609:	16 00 01 
 100160c:	a1 88 4c 27 05       	mov    0x5274c88,%eax
 1001611:	c7 80 10 01 00 00 50 	movl   $0x1001650,0x110(%eax)
 1001618:	16 00 01 
 100161b:	a1 88 4c 27 05       	mov    0x5274c88,%eax
 1001620:	8b 88 14 01 00 00    	mov    0x114(%eax),%ecx
 1001626:	8b 80 18 01 00 00    	mov    0x118(%eax),%eax
 100162c:	89 44 24 04          	mov    %eax,0x4(%esp)
 1001630:	89 0c 24             	mov    %ecx,(%esp)
 1001633:	e8 18 fe ff ff       	call   1001450 <SysMan_StartSystem>
 1001638:	83 c4 08             	add    $0x8,%esp
 100163b:	5d                   	pop    %ebp
 100163c:	c3                   	ret    
 100163d:	8d 76 00             	lea    0x0(%esi),%esi

01001640 <bootstrap_callback>:
 1001640:	55                   	push   %ebp
 1001641:	89 e5                	mov    %esp,%ebp
 1001643:	5d                   	pop    %ebp
 1001644:	c3                   	ret    
 1001645:	8d 74 26 00          	lea    0x0(%esi,%eiz,1),%esi
 1001649:	8d bc 27 00 00 00 00 	lea    0x0(%edi,%eiz,1),%edi

01001650 <bootstrap_messageHandler>:
 1001650:	55                   	push   %ebp
 1001651:	89 e5                	mov    %esp,%ebp
 1001653:	8b 45 08             	mov    0x8(%ebp),%eax
 1001656:	83 b8 9c 00 00 00 01 	cmpl   $0x1,0x9c(%eax)
 100165d:	0f 94 c0             	sete   %al
 1001660:	0f b6 c0             	movzbl %al,%eax
 1001663:	5d                   	pop    %ebp
 1001664:	c3                   	ret    
 1001665:	8d 74 26 00          	lea    0x0(%esi,%eiz,1),%esi
 1001669:	8d bc 27 00 00 00 00 	lea    0x0(%edi,%eiz,1),%edi

01001670 <bootstrap_Initialize>:
 1001670:	55                   	push   %ebp
 1001671:	89 e5                	mov    %esp,%ebp
 1001673:	31 c0                	xor    %eax,%eax
 1001675:	5d                   	pop    %ebp
 1001676:	c3                   	ret    
 1001677:	89 f6                	mov    %esi,%esi
 1001679:	8d bc 27 00 00 00 00 	lea    0x0(%edi,%eiz,1),%edi

01001680 <bootstrap_malloc>:
 1001680:	55                   	push   %ebp
 1001681:	89 e5                	mov    %esp,%ebp
 1001683:	56                   	push   %esi
 1001684:	83 e4 f8             	and    $0xfffffff8,%esp
 1001687:	81 ec b0 00 00 00    	sub    $0xb0,%esp
 100168d:	8b 45 08             	mov    0x8(%ebp),%eax
 1001690:	89 c1                	mov    %eax,%ecx
 1001692:	83 e1 03             	and    $0x3,%ecx
 1001695:	01 c1                	add    %eax,%ecx
 1001697:	a1 84 4c 27 05       	mov    0x5274c84,%eax
 100169c:	01 c1                	add    %eax,%ecx
 100169e:	81 f9 01 00 00 02    	cmp    $0x2000001,%ecx
 10016a4:	72 6d                	jb     1001713 <bootstrap_malloc+0x93>
 10016a6:	8d 74 24 08          	lea    0x8(%esp),%esi
 10016aa:	89 34 24             	mov    %esi,(%esp)
 10016ad:	c7 44 24 04 25 81 00 	movl   $0x1008125,0x4(%esp)
 10016b4:	01 
 10016b5:	e8 46 eb ff ff       	call   1000200 <strcpy>
 10016ba:	a1 88 4c 27 05       	mov    0x5274c88,%eax
 10016bf:	66 0f 6e 80 18 01 00 	movd   0x118(%eax),%xmm0
 10016c6:	00 
 10016c7:	66 0f 70 c0 50       	pshufd $0x50,%xmm0,%xmm0
 10016cc:	66 0f 6e 88 14 01 00 	movd   0x114(%eax),%xmm1
 10016d3:	00 
 10016d4:	66 0f 70 c9 50       	pshufd $0x50,%xmm1,%xmm1
 10016d9:	66 0f 62 c8          	punpckldq %xmm0,%xmm1
 10016dd:	f3 0f 7f 8c 24 88 00 	movdqu %xmm1,0x88(%esp)
 10016e4:	00 00 
 10016e6:	c7 84 24 9c 00 00 00 	movl   $0x3,0x9c(%esp)
 10016ed:	03 00 00 00 
 10016f1:	c7 84 24 a0 00 00 00 	movl   $0x2,0xa0(%esp)
 10016f8:	02 00 00 00 
 10016fc:	c7 84 24 a4 00 00 00 	movl   $0x1,0xa4(%esp)
 1001703:	01 00 00 00 
 1001707:	89 34 24             	mov    %esi,(%esp)
 100170a:	e8 a1 01 00 00       	call   10018b0 <MessageMan_Add>
 100170f:	31 c0                	xor    %eax,%eax
 1001711:	eb 0c                	jmp    100171f <bootstrap_malloc+0x9f>
 1001713:	8d 80 d8 43 03 02    	lea    0x20343d8(%eax),%eax
 1001719:	89 0d 84 4c 27 05    	mov    %ecx,0x5274c84
 100171f:	8d 65 fc             	lea    -0x4(%ebp),%esp
 1001722:	5e                   	pop    %esi
 1001723:	5d                   	pop    %ebp
 1001724:	c3                   	ret    
 1001725:	66 90                	xchg   %ax,%ax
 1001727:	66 90                	xchg   %ax,%ax
 1001729:	66 90                	xchg   %ax,%ax
 100172b:	66 90                	xchg   %ax,%ax
 100172d:	66 90                	xchg   %ax,%ax
 100172f:	90                   	nop

01001730 <Keyboard_Setup>:
 1001730:	55                   	push   %ebp
 1001731:	89 e5                	mov    %esp,%ebp
 1001733:	83 ec 08             	sub    $0x8,%esp
 1001736:	e8 f5 fb ff ff       	call   1001330 <SysMan_RegisterSystem>
 100173b:	a3 8c 4c 27 05       	mov    %eax,0x5274c8c
 1001740:	89 04 24             	mov    %eax,(%esp)
 1001743:	c7 44 24 04 45 81 00 	movl   $0x1008145,0x4(%esp)
 100174a:	01 
 100174b:	e8 b0 ea ff ff       	call   1000200 <strcpy>
 1001750:	e8 5b 06 00 00       	call   1001db0 <Interrupts_GetSysID>
 1001755:	8b 0d 8c 4c 27 05    	mov    0x5274c8c,%ecx
 100175b:	89 51 14             	mov    %edx,0x14(%ecx)
 100175e:	89 41 10             	mov    %eax,0x10(%ecx)
 1001761:	c7 41 1c 00 00 00 00 	movl   $0x0,0x1c(%ecx)
 1001768:	c7 41 18 00 00 00 00 	movl   $0x0,0x18(%ecx)
 100176f:	c7 81 08 01 00 00 30 	movl   $0x1001830,0x108(%ecx)
 1001776:	18 00 01 
 1001779:	a1 8c 4c 27 05       	mov    0x5274c8c,%eax
 100177e:	c7 80 0c 01 00 00 c0 	movl   $0x10017c0,0x10c(%eax)
 1001785:	17 00 01 
 1001788:	a1 8c 4c 27 05       	mov    0x5274c8c,%eax
 100178d:	c7 80 10 01 00 00 d0 	movl   $0x10017d0,0x110(%eax)
 1001794:	17 00 01 
 1001797:	a1 8c 4c 27 05       	mov    0x5274c8c,%eax
 100179c:	8b 88 14 01 00 00    	mov    0x114(%eax),%ecx
 10017a2:	8b 80 18 01 00 00    	mov    0x118(%eax),%eax
 10017a8:	89 44 24 04          	mov    %eax,0x4(%esp)
 10017ac:	89 0c 24             	mov    %ecx,(%esp)
 10017af:	e8 9c fc ff ff       	call   1001450 <SysMan_StartSystem>
 10017b4:	83 c4 08             	add    $0x8,%esp
 10017b7:	5d                   	pop    %ebp
 10017b8:	c3                   	ret    
 10017b9:	8d b4 26 00 00 00 00 	lea    0x0(%esi,%eiz,1),%esi

010017c0 <kbd_callback>:
 10017c0:	55                   	push   %ebp
 10017c1:	89 e5                	mov    %esp,%ebp
 10017c3:	5d                   	pop    %ebp
 10017c4:	c3                   	ret    
 10017c5:	8d 74 26 00          	lea    0x0(%esi,%eiz,1),%esi
 10017c9:	8d bc 27 00 00 00 00 	lea    0x0(%edi,%eiz,1),%edi

010017d0 <kbd_messageHandler>:
 10017d0:	55                   	push   %ebp
 10017d1:	89 e5                	mov    %esp,%ebp
 10017d3:	31 c0                	xor    %eax,%eax
 10017d5:	5d                   	pop    %ebp
 10017d6:	c3                   	ret    
 10017d7:	89 f6                	mov    %esi,%esi
 10017d9:	8d bc 27 00 00 00 00 	lea    0x0(%edi,%eiz,1),%edi

010017e0 <keyboard_test>:
 10017e0:	55                   	push   %ebp
 10017e1:	89 e5                	mov    %esp,%ebp
 10017e3:	50                   	push   %eax
 10017e4:	c7 04 24 51 81 00 01 	movl   $0x1008151,(%esp)
 10017eb:	e8 30 4e 00 00       	call   1006620 <COM_WriteStr>
 10017f0:	eb 1a                	jmp    100180c <keyboard_test+0x2c>
 10017f2:	8d b4 26 00 00 00 00 	lea    0x0(%esi,%eiz,1),%esi
 10017f9:	8d bc 27 00 00 00 00 	lea    0x0(%edi,%eiz,1),%edi
 1001800:	c7 04 24 60 00 00 00 	movl   $0x60,(%esp)
 1001807:	e8 34 e8 ff ff       	call   1000040 <inb>
 100180c:	c7 04 24 64 00 00 00 	movl   $0x64,(%esp)
 1001813:	e8 28 e8 ff ff       	call   1000040 <inb>
 1001818:	a8 01                	test   $0x1,%al
 100181a:	75 e4                	jne    1001800 <keyboard_test+0x20>
 100181c:	83 c4 04             	add    $0x4,%esp
 100181f:	5d                   	pop    %ebp
 1001820:	c3                   	ret    
 1001821:	eb 0d                	jmp    1001830 <kbd_Initialize>
 1001823:	90                   	nop
 1001824:	90                   	nop
 1001825:	90                   	nop
 1001826:	90                   	nop
 1001827:	90                   	nop
 1001828:	90                   	nop
 1001829:	90                   	nop
 100182a:	90                   	nop
 100182b:	90                   	nop
 100182c:	90                   	nop
 100182d:	90                   	nop
 100182e:	90                   	nop
 100182f:	90                   	nop

01001830 <kbd_Initialize>:
 1001830:	55                   	push   %ebp
 1001831:	89 e5                	mov    %esp,%ebp
 1001833:	83 ec 18             	sub    $0x18,%esp
 1001836:	e8 55 2e 00 00       	call   1004690 <APIC_GetID>
 100183b:	0f b6 c0             	movzbl %al,%eax
 100183e:	89 44 24 08          	mov    %eax,0x8(%esp)
 1001842:	c7 44 24 14 00 00 00 	movl   $0x0,0x14(%esp)
 1001849:	00 
 100184a:	c7 44 24 10 00 00 00 	movl   $0x0,0x10(%esp)
 1001851:	00 
 1001852:	c7 44 24 0c 00 00 00 	movl   $0x0,0xc(%esp)
 1001859:	00 
 100185a:	c7 44 24 04 21 00 00 	movl   $0x21,0x4(%esp)
 1001861:	00 
 1001862:	c7 04 24 01 00 00 00 	movl   $0x1,(%esp)
 1001869:	e8 e2 32 00 00       	call   1004b50 <IOAPIC_MapIRQ>
 100186e:	c7 44 24 04 01 00 00 	movl   $0x1,0x4(%esp)
 1001875:	00 
 1001876:	c7 04 24 21 00 00 00 	movl   $0x21,(%esp)
 100187d:	e8 8e 33 00 00       	call   1004c10 <IOAPIC_SetEnableMode>
 1001882:	c7 44 24 08 e0 17 00 	movl   $0x10017e0,0x8(%esp)
 1001889:	01 
 100188a:	c7 44 24 04 00 00 00 	movl   $0x0,0x4(%esp)
 1001891:	00 
 1001892:	c7 04 24 21 00 00 00 	movl   $0x21,(%esp)
 1001899:	e8 f2 03 00 00       	call   1001c90 <Interrupts_RegisterHandler>
 100189e:	e8 6d 47 00 00       	call   1006010 <PS2_Initialize>
 10018a3:	83 c4 18             	add    $0x18,%esp
 10018a6:	5d                   	pop    %ebp
 10018a7:	e9 44 4c 00 00       	jmp    10064f0 <PS2Keyboard_Initialize>
 10018ac:	66 90                	xchg   %ax,%ax
 10018ae:	66 90                	xchg   %ax,%ax

010018b0 <MessageMan_Add>:
 10018b0:	55                   	push   %ebp
 10018b1:	89 e5                	mov    %esp,%ebp
 10018b3:	53                   	push   %ebx
 10018b4:	57                   	push   %edi
 10018b5:	56                   	push   %esi
 10018b6:	83 e4 f8             	and    $0xfffffff8,%esp
 10018b9:	81 ec 40 01 00 00    	sub    $0x140,%esp
 10018bf:	8b 7d 08             	mov    0x8(%ebp),%edi
 10018c2:	85 ff                	test   %edi,%edi
 10018c4:	0f 84 55 01 00 00    	je     1001a1f <MessageMan_Add+0x16f>
 10018ca:	8d 74 24 20          	lea    0x20(%esp),%esi
 10018ce:	8b 87 80 00 00 00    	mov    0x80(%edi),%eax
 10018d4:	8b 8f 84 00 00 00    	mov    0x84(%edi),%ecx
 10018da:	89 74 24 08          	mov    %esi,0x8(%esp)
 10018de:	89 4c 24 04          	mov    %ecx,0x4(%esp)
 10018e2:	89 04 24             	mov    %eax,(%esp)
 10018e5:	e8 e6 fa ff ff       	call   10013d0 <SysMan_GetSystemData>
 10018ea:	8b 84 24 34 01 00 00 	mov    0x134(%esp),%eax
 10018f1:	8b 8c 24 38 01 00 00 	mov    0x138(%esp),%ecx
 10018f8:	33 8f 84 00 00 00    	xor    0x84(%edi),%ecx
 10018fe:	33 87 80 00 00 00    	xor    0x80(%edi),%eax
 1001904:	09 c8                	or     %ecx,%eax
 1001906:	74 15                	je     100191d <MessageMan_Add+0x6d>
 1001908:	89 7c 24 04          	mov    %edi,0x4(%esp)
 100190c:	c7 04 24 74 81 00 01 	movl   $0x1008174,(%esp)
 1001913:	e8 08 4d 00 00       	call   1006620 <COM_WriteStr>
 1001918:	be 6c 81 00 01       	mov    $0x100816c,%esi
 100191d:	89 74 24 1c          	mov    %esi,0x1c(%esp)
 1001921:	8b 87 9c 00 00 00    	mov    0x9c(%edi),%eax
 1001927:	8b 8f 94 00 00 00    	mov    0x94(%edi),%ecx
 100192d:	8b 97 98 00 00 00    	mov    0x98(%edi),%edx
 1001933:	89 7c 24 14          	mov    %edi,0x14(%esp)
 1001937:	89 74 24 10          	mov    %esi,0x10(%esp)
 100193b:	89 4c 24 0c          	mov    %ecx,0xc(%esp)
 100193f:	89 54 24 08          	mov    %edx,0x8(%esp)
 1001943:	89 44 24 04          	mov    %eax,0x4(%esp)
 1001947:	c7 04 24 b4 81 00 01 	movl   $0x10081b4,(%esp)
 100194e:	e8 cd 4c 00 00       	call   1006620 <COM_WriteStr>
 1001953:	8b b4 24 34 01 00 00 	mov    0x134(%esp),%esi
 100195a:	8b 8c 24 38 01 00 00 	mov    0x138(%esp),%ecx
 1001961:	89 4c 24 18          	mov    %ecx,0x18(%esp)
 1001965:	8b 9f 80 00 00 00    	mov    0x80(%edi),%ebx
 100196b:	8b 97 84 00 00 00    	mov    0x84(%edi),%edx
 1001971:	31 d1                	xor    %edx,%ecx
 1001973:	89 f0                	mov    %esi,%eax
 1001975:	31 d8                	xor    %ebx,%eax
 1001977:	09 c8                	or     %ecx,%eax
 1001979:	75 32                	jne    10019ad <MessageMan_Add+0xfd>
 100197b:	8b 4c 24 18          	mov    0x18(%esp),%ecx
 100197f:	89 f0                	mov    %esi,%eax
 1001981:	8b 5c 24 1c          	mov    0x1c(%esp),%ebx
 1001985:	8b 94 24 30 01 00 00 	mov    0x130(%esp),%edx
 100198c:	85 d2                	test   %edx,%edx
 100198e:	74 42                	je     10019d2 <MessageMan_Add+0x122>
 1001990:	89 3c 24             	mov    %edi,(%esp)
 1001993:	ff d2                	call   *%edx
 1001995:	84 c0                	test   %al,%al
 1001997:	74 69                	je     1001a02 <MessageMan_Add+0x152>
 1001999:	0f b6 c0             	movzbl %al,%eax
 100199c:	89 44 24 08          	mov    %eax,0x8(%esp)
 10019a0:	89 5c 24 04          	mov    %ebx,0x4(%esp)
 10019a4:	c7 04 24 f5 81 00 01 	movl   $0x10081f5,(%esp)
 10019ab:	eb 6d                	jmp    1001a1a <MessageMan_Add+0x16a>
 10019ad:	83 bf 9c 00 00 00 01 	cmpl   $0x1,0x9c(%edi)
 10019b4:	75 69                	jne    1001a1f <MessageMan_Add+0x16f>
 10019b6:	89 54 24 08          	mov    %edx,0x8(%esp)
 10019ba:	89 5c 24 04          	mov    %ebx,0x4(%esp)
 10019be:	c7 04 24 fb 82 00 01 	movl   $0x10082fb,(%esp)
 10019c5:	e8 56 4c 00 00       	call   1006620 <COM_WriteStr>
 10019ca:	8d b6 00 00 00 00    	lea    0x0(%esi),%esi
 10019d0:	eb fe                	jmp    10019d0 <MessageMan_Add+0x120>
 10019d2:	83 bf 9c 00 00 00 01 	cmpl   $0x1,0x9c(%edi)
 10019d9:	75 34                	jne    1001a0f <MessageMan_Add+0x15f>
 10019db:	89 4c 24 0c          	mov    %ecx,0xc(%esp)
 10019df:	89 44 24 08          	mov    %eax,0x8(%esp)
 10019e3:	89 5c 24 04          	mov    %ebx,0x4(%esp)
 10019e7:	c7 04 24 8d 82 00 01 	movl   $0x100828d,(%esp)
 10019ee:	e8 2d 4c 00 00       	call   1006620 <COM_WriteStr>
 10019f3:	8d b6 00 00 00 00    	lea    0x0(%esi),%esi
 10019f9:	8d bc 27 00 00 00 00 	lea    0x0(%edi,%eiz,1),%edi
 1001a00:	eb fe                	jmp    1001a00 <MessageMan_Add+0x150>
 1001a02:	89 5c 24 04          	mov    %ebx,0x4(%esp)
 1001a06:	c7 04 24 dd 81 00 01 	movl   $0x10081dd,(%esp)
 1001a0d:	eb 0b                	jmp    1001a1a <MessageMan_Add+0x16a>
 1001a0f:	89 5c 24 04          	mov    %ebx,0x4(%esp)
 1001a13:	c7 04 24 23 82 00 01 	movl   $0x1008223,(%esp)
 1001a1a:	e8 01 4c 00 00       	call   1006620 <COM_WriteStr>
 1001a1f:	8d 65 f4             	lea    -0xc(%ebp),%esp
 1001a22:	5e                   	pop    %esi
 1001a23:	5f                   	pop    %edi
 1001a24:	5b                   	pop    %ebx
 1001a25:	5d                   	pop    %ebp
 1001a26:	c3                   	ret    
 1001a27:	66 90                	xchg   %ax,%ax
 1001a29:	66 90                	xchg   %ax,%ax
 1001a2b:	66 90                	xchg   %ax,%ax
 1001a2d:	66 90                	xchg   %ax,%ax
 1001a2f:	90                   	nop

01001a30 <Interrupts_Setup>:
 1001a30:	55                   	push   %ebp
 1001a31:	89 e5                	mov    %esp,%ebp
 1001a33:	83 ec 08             	sub    $0x8,%esp
 1001a36:	e8 f5 f8 ff ff       	call   1001330 <SysMan_RegisterSystem>
 1001a3b:	a3 90 4c 27 05       	mov    %eax,0x5274c90
 1001a40:	89 04 24             	mov    %eax,(%esp)
 1001a43:	c7 44 24 04 6c 83 00 	movl   $0x100836c,0x4(%esp)
 1001a4a:	01 
 1001a4b:	e8 b0 e7 ff ff       	call   1000200 <strcpy>
 1001a50:	a1 90 4c 27 05       	mov    0x5274c90,%eax
 1001a55:	c7 40 14 00 00 00 00 	movl   $0x0,0x14(%eax)
 1001a5c:	c7 40 10 00 00 00 00 	movl   $0x0,0x10(%eax)
 1001a63:	c7 80 08 01 00 00 80 	movl   $0x1001b80,0x108(%eax)
 1001a6a:	1b 00 01 
 1001a6d:	a1 90 4c 27 05       	mov    0x5274c90,%eax
 1001a72:	c7 80 0c 01 00 00 b0 	movl   $0x1001ab0,0x10c(%eax)
 1001a79:	1a 00 01 
 1001a7c:	a1 90 4c 27 05       	mov    0x5274c90,%eax
 1001a81:	c7 80 10 01 00 00 40 	movl   $0x1001b40,0x110(%eax)
 1001a88:	1b 00 01 
 1001a8b:	a1 90 4c 27 05       	mov    0x5274c90,%eax
 1001a90:	8b 88 14 01 00 00    	mov    0x114(%eax),%ecx
 1001a96:	8b 80 18 01 00 00    	mov    0x118(%eax),%eax
 1001a9c:	89 44 24 04          	mov    %eax,0x4(%esp)
 1001aa0:	89 0c 24             	mov    %ecx,(%esp)
 1001aa3:	e8 a8 f9 ff ff       	call   1001450 <SysMan_StartSystem>
 1001aa8:	83 c4 08             	add    $0x8,%esp
 1001aab:	5d                   	pop    %ebp
 1001aac:	c3                   	ret    
 1001aad:	8d 76 00             	lea    0x0(%esi),%esi

01001ab0 <interrupts_callback>:
 1001ab0:	55                   	push   %ebp
 1001ab1:	89 e5                	mov    %esp,%ebp
 1001ab3:	56                   	push   %esi
 1001ab4:	83 e4 f8             	and    $0xfffffff8,%esp
 1001ab7:	81 ec b0 00 00 00    	sub    $0xb0,%esp
 1001abd:	83 7d 08 ff          	cmpl   $0xffffffff,0x8(%ebp)
 1001ac1:	75 69                	jne    1001b2c <interrupts_callback+0x7c>
 1001ac3:	8d 74 24 08          	lea    0x8(%esp),%esi
 1001ac7:	89 34 24             	mov    %esi,(%esp)
 1001aca:	c7 44 24 04 8f 83 00 	movl   $0x100838f,0x4(%esp)
 1001ad1:	01 
 1001ad2:	e8 29 e7 ff ff       	call   1000200 <strcpy>
 1001ad7:	a1 90 4c 27 05       	mov    0x5274c90,%eax
 1001adc:	66 0f 6e 80 18 01 00 	movd   0x118(%eax),%xmm0
 1001ae3:	00 
 1001ae4:	66 0f 70 c0 50       	pshufd $0x50,%xmm0,%xmm0
 1001ae9:	66 0f 6e 88 14 01 00 	movd   0x114(%eax),%xmm1
 1001af0:	00 
 1001af1:	66 0f 70 c9 50       	pshufd $0x50,%xmm1,%xmm1
 1001af6:	66 0f 62 c8          	punpckldq %xmm0,%xmm1
 1001afa:	f3 0f 7f 8c 24 88 00 	movdqu %xmm1,0x88(%esp)
 1001b01:	00 00 
 1001b03:	c7 84 24 9c 00 00 00 	movl   $0x1,0x9c(%esp)
 1001b0a:	01 00 00 00 
 1001b0e:	c7 84 24 a0 00 00 00 	movl   $0x2,0xa0(%esp)
 1001b15:	02 00 00 00 
 1001b19:	c7 84 24 a4 00 00 00 	movl   $0x1,0xa4(%esp)
 1001b20:	01 00 00 00 
 1001b24:	89 34 24             	mov    %esi,(%esp)
 1001b27:	e8 84 fd ff ff       	call   10018b0 <MessageMan_Add>
 1001b2c:	8d 65 fc             	lea    -0x4(%ebp),%esp
 1001b2f:	5e                   	pop    %esi
 1001b30:	5d                   	pop    %ebp
 1001b31:	c3                   	ret    
 1001b32:	8d b4 26 00 00 00 00 	lea    0x0(%esi,%eiz,1),%esi
 1001b39:	8d bc 27 00 00 00 00 	lea    0x0(%edi,%eiz,1),%edi

01001b40 <interrupts_messageHandler>:
 1001b40:	55                   	push   %ebp
 1001b41:	89 e5                	mov    %esp,%ebp
 1001b43:	8b 45 08             	mov    0x8(%ebp),%eax
 1001b46:	83 b8 94 00 00 00 01 	cmpl   $0x1,0x94(%eax)
 1001b4d:	0f 94 c0             	sete   %al
 1001b50:	0f b6 c0             	movzbl %al,%eax
 1001b53:	5d                   	pop    %ebp
 1001b54:	c3                   	ret    
 1001b55:	8d 74 26 00          	lea    0x0(%esi,%eiz,1),%esi
 1001b59:	8d bc 27 00 00 00 00 	lea    0x0(%edi,%eiz,1),%edi

01001b60 <Interrupts_Virtualize>:
 1001b60:	55                   	push   %ebp
 1001b61:	89 e5                	mov    %esp,%ebp
 1001b63:	80 3d 94 4c 27 05 00 	cmpb   $0x0,0x5274c94
 1001b6a:	74 0b                	je     1001b77 <Interrupts_Virtualize+0x17>
 1001b6c:	e8 6f 29 00 00       	call   10044e0 <APIC_Virtualize>
 1001b71:	5d                   	pop    %ebp
 1001b72:	e9 e9 30 00 00       	jmp    1004c60 <IOAPIC_VirtualizeAll>
 1001b77:	5d                   	pop    %ebp
 1001b78:	c3                   	ret    
 1001b79:	8d b4 26 00 00 00 00 	lea    0x0(%esi,%eiz,1),%esi

01001b80 <interrupts_Initialize>:
 1001b80:	55                   	push   %ebp
 1001b81:	89 e5                	mov    %esp,%ebp
 1001b83:	53                   	push   %ebx
 1001b84:	57                   	push   %edi
 1001b85:	56                   	push   %esi
 1001b86:	83 ec 0c             	sub    $0xc,%esp
 1001b89:	e8 42 3d 00 00       	call   10058d0 <PIC_Initialize>
 1001b8e:	89 c7                	mov    %eax,%edi
 1001b90:	e8 ab 2b 00 00       	call   1004740 <APIC_Initialize>
 1001b95:	be ff ff ff ff       	mov    $0xffffffff,%esi
 1001b9a:	85 f8                	test   %edi,%eax
 1001b9c:	78 5e                	js     1001bfc <interrupts_Initialize+0x7c>
 1001b9e:	85 c0                	test   %eax,%eax
 1001ba0:	78 0b                	js     1001bad <interrupts_Initialize+0x2d>
 1001ba2:	75 10                	jne    1001bb4 <interrupts_Initialize+0x34>
 1001ba4:	c6 05 94 4c 27 05 01 	movb   $0x1,0x5274c94
 1001bab:	eb 07                	jmp    1001bb4 <interrupts_Initialize+0x34>
 1001bad:	c6 05 94 4c 27 05 00 	movb   $0x0,0x5274c94
 1001bb4:	c7 44 24 08 00 00 02 	movl   $0x20000,0x8(%esp)
 1001bbb:	00 
 1001bbc:	c7 44 24 04 00 00 00 	movl   $0x0,0x4(%esp)
 1001bc3:	00 
 1001bc4:	c7 04 24 d8 43 03 04 	movl   $0x40343d8,(%esp)
 1001bcb:	e8 30 e5 ff ff       	call   1000100 <memset>
 1001bd0:	31 f6                	xor    %esi,%esi
 1001bd2:	31 db                	xor    %ebx,%ebx
 1001bd4:	8d b6 00 00 00 00    	lea    0x0(%esi),%esi
 1001bda:	8d bf 00 00 00 00    	lea    0x0(%edi),%edi
 1001be0:	0f b6 c3             	movzbl %bl,%eax
 1001be3:	89 04 24             	mov    %eax,(%esp)
 1001be6:	c7 44 24 04 10 1c 00 	movl   $0x1001c10,0x4(%esp)
 1001bed:	01 
 1001bee:	e8 bd 55 00 00       	call   10071b0 <IDT_RegisterHandler>
 1001bf3:	43                   	inc    %ebx
 1001bf4:	81 fb 00 01 00 00    	cmp    $0x100,%ebx
 1001bfa:	75 e4                	jne    1001be0 <interrupts_Initialize+0x60>
 1001bfc:	89 f0                	mov    %esi,%eax
 1001bfe:	83 c4 0c             	add    $0xc,%esp
 1001c01:	5e                   	pop    %esi
 1001c02:	5f                   	pop    %edi
 1001c03:	5b                   	pop    %ebx
 1001c04:	5d                   	pop    %ebp
 1001c05:	c3                   	ret    
 1001c06:	8d 76 00             	lea    0x0(%esi),%esi
 1001c09:	8d bc 27 00 00 00 00 	lea    0x0(%edi,%eiz,1),%edi

01001c10 <interrupts_IDTHandler>:
 1001c10:	55                   	push   %ebp
 1001c11:	89 e5                	mov    %esp,%ebp
 1001c13:	57                   	push   %edi
 1001c14:	56                   	push   %esi
 1001c15:	83 ec 0c             	sub    $0xc,%esp
 1001c18:	8b 75 08             	mov    0x8(%ebp),%esi
 1001c1b:	8b 46 24             	mov    0x24(%esi),%eax
 1001c1e:	8b 4e 28             	mov    0x28(%esi),%ecx
 1001c21:	89 4c 24 08          	mov    %ecx,0x8(%esp)
 1001c25:	89 44 24 04          	mov    %eax,0x4(%esp)
 1001c29:	c7 04 24 79 83 00 01 	movl   $0x1008379,(%esp)
 1001c30:	e8 eb 49 00 00       	call   1006620 <COM_WriteStr>
 1001c35:	31 ff                	xor    %edi,%edi
 1001c37:	89 f6                	mov    %esi,%esi
 1001c39:	8d bc 27 00 00 00 00 	lea    0x0(%edi,%eiz,1),%edi
 1001c40:	69 46 24 04 02 00 00 	imul   $0x204,0x24(%esi),%eax
 1001c47:	8b 84 b8 d8 43 03 04 	mov    0x40343d8(%eax,%edi,4),%eax
 1001c4e:	85 c0                	test   %eax,%eax
 1001c50:	74 09                	je     1001c5b <interrupts_IDTHandler+0x4b>
 1001c52:	89 34 24             	mov    %esi,(%esp)
 1001c55:	ff d0                	call   *%eax
 1001c57:	85 c0                	test   %eax,%eax
 1001c59:	75 09                	jne    1001c64 <interrupts_IDTHandler+0x54>
 1001c5b:	47                   	inc    %edi
 1001c5c:	81 ff 81 00 00 00    	cmp    $0x81,%edi
 1001c62:	7c dc                	jl     1001c40 <interrupts_IDTHandler+0x30>
 1001c64:	80 3d 94 4c 27 05 00 	cmpb   $0x0,0x5274c94
 1001c6b:	8a 46 24             	mov    0x24(%esi),%al
 1001c6e:	0f b6 c0             	movzbl %al,%eax
 1001c71:	74 0a                	je     1001c7d <interrupts_IDTHandler+0x6d>
 1001c73:	89 04 24             	mov    %eax,(%esp)
 1001c76:	e8 55 2a 00 00       	call   10046d0 <APIC_SendEOI>
 1001c7b:	eb 08                	jmp    1001c85 <interrupts_IDTHandler+0x75>
 1001c7d:	89 04 24             	mov    %eax,(%esp)
 1001c80:	e8 eb 3f 00 00       	call   1005c70 <PIC_SendEOI>
 1001c85:	83 c4 0c             	add    $0xc,%esp
 1001c88:	5e                   	pop    %esi
 1001c89:	5f                   	pop    %edi
 1001c8a:	5d                   	pop    %ebp
 1001c8b:	c3                   	ret    
 1001c8c:	8d 74 26 00          	lea    0x0(%esi,%eiz,1),%esi

01001c90 <Interrupts_RegisterHandler>:
 1001c90:	55                   	push   %ebp
 1001c91:	89 e5                	mov    %esp,%ebp
 1001c93:	8b 45 10             	mov    0x10(%ebp),%eax
 1001c96:	0f b6 4d 0c          	movzbl 0xc(%ebp),%ecx
 1001c9a:	0f b6 55 08          	movzbl 0x8(%ebp),%edx
 1001c9e:	69 d2 04 02 00 00    	imul   $0x204,%edx,%edx
 1001ca4:	89 84 8a d8 43 03 04 	mov    %eax,0x40343d8(%edx,%ecx,4)
 1001cab:	5d                   	pop    %ebp
 1001cac:	c3                   	ret    
 1001cad:	8d 76 00             	lea    0x0(%esi),%esi

01001cb0 <Interrupts_GetFreeSlot>:
 1001cb0:	55                   	push   %ebp
 1001cb1:	89 e5                	mov    %esp,%ebp
 1001cb3:	0f b6 45 08          	movzbl 0x8(%ebp),%eax
 1001cb7:	69 c0 04 02 00 00    	imul   $0x204,%eax,%eax
 1001cbd:	8d 88 d8 43 03 04    	lea    0x40343d8(%eax),%ecx
 1001cc3:	31 c0                	xor    %eax,%eax
 1001cc5:	8d 74 26 00          	lea    0x0(%esi,%eiz,1),%esi
 1001cc9:	8d bc 27 00 00 00 00 	lea    0x0(%edi,%eiz,1),%edi
 1001cd0:	84 c0                	test   %al,%al
 1001cd2:	78 0d                	js     1001ce1 <Interrupts_GetFreeSlot+0x31>
 1001cd4:	8d 50 01             	lea    0x1(%eax),%edx
 1001cd7:	83 3c 81 00          	cmpl   $0x0,(%ecx,%eax,4)
 1001cdb:	89 d0                	mov    %edx,%eax
 1001cdd:	75 f1                	jne    1001cd0 <Interrupts_GetFreeSlot+0x20>
 1001cdf:	eb 02                	jmp    1001ce3 <Interrupts_GetFreeSlot+0x33>
 1001ce1:	88 c2                	mov    %al,%dl
 1001ce3:	fe ca                	dec    %dl
 1001ce5:	0f b6 c2             	movzbl %dl,%eax
 1001ce8:	5d                   	pop    %ebp
 1001ce9:	c3                   	ret    
 1001cea:	8d b6 00 00 00 00    	lea    0x0(%esi),%esi

01001cf0 <Interrupts_EmptySlot>:
 1001cf0:	55                   	push   %ebp
 1001cf1:	89 e5                	mov    %esp,%ebp
 1001cf3:	8a 45 0c             	mov    0xc(%ebp),%al
 1001cf6:	84 c0                	test   %al,%al
 1001cf8:	78 18                	js     1001d12 <Interrupts_EmptySlot+0x22>
 1001cfa:	0f b6 c0             	movzbl %al,%eax
 1001cfd:	0f b6 4d 08          	movzbl 0x8(%ebp),%ecx
 1001d01:	69 c9 04 02 00 00    	imul   $0x204,%ecx,%ecx
 1001d07:	c7 84 81 d8 43 03 04 	movl   $0x0,0x40343d8(%ecx,%eax,4)
 1001d0e:	00 00 00 00 
 1001d12:	5d                   	pop    %ebp
 1001d13:	c3                   	ret    
 1001d14:	8d b6 00 00 00 00    	lea    0x0(%esi),%esi
 1001d1a:	8d bf 00 00 00 00    	lea    0x0(%edi),%edi

01001d20 <Interrupts_GetHandler>:
 1001d20:	55                   	push   %ebp
 1001d21:	89 e5                	mov    %esp,%ebp
 1001d23:	8a 45 0c             	mov    0xc(%ebp),%al
 1001d26:	84 c0                	test   %al,%al
 1001d28:	78 19                	js     1001d43 <Interrupts_GetHandler+0x23>
 1001d2a:	8b 4d 10             	mov    0x10(%ebp),%ecx
 1001d2d:	0f b6 c0             	movzbl %al,%eax
 1001d30:	0f b6 55 08          	movzbl 0x8(%ebp),%edx
 1001d34:	69 d2 04 02 00 00    	imul   $0x204,%edx,%edx
 1001d3a:	8b 84 82 d8 43 03 04 	mov    0x40343d8(%edx,%eax,4),%eax
 1001d41:	89 01                	mov    %eax,(%ecx)
 1001d43:	5d                   	pop    %ebp
 1001d44:	c3                   	ret    
 1001d45:	8d 74 26 00          	lea    0x0(%esi,%eiz,1),%esi
 1001d49:	8d bc 27 00 00 00 00 	lea    0x0(%edi,%eiz,1),%edi

01001d50 <Interrupts_SetEnableMode>:
 1001d50:	55                   	push   %ebp
 1001d51:	89 e5                	mov    %esp,%ebp
 1001d53:	80 7d 08 00          	cmpb   $0x0,0x8(%ebp)
 1001d57:	74 03                	je     1001d5c <Interrupts_SetEnableMode+0xc>
 1001d59:	fb                   	sti    
 1001d5a:	5d                   	pop    %ebp
 1001d5b:	c3                   	ret    
 1001d5c:	fa                   	cli    
 1001d5d:	5d                   	pop    %ebp
 1001d5e:	c3                   	ret    
 1001d5f:	90                   	nop

01001d60 <Interrupts_SetInterruptEnableMode>:
 1001d60:	55                   	push   %ebp
 1001d61:	89 e5                	mov    %esp,%ebp
 1001d63:	83 ec 08             	sub    $0x8,%esp
 1001d66:	0f b6 45 08          	movzbl 0x8(%ebp),%eax
 1001d6a:	83 f8 20             	cmp    $0x20,%eax
 1001d6d:	72 39                	jb     1001da8 <Interrupts_SetInterruptEnableMode+0x48>
 1001d6f:	8a 4d 0c             	mov    0xc(%ebp),%cl
 1001d72:	80 3d 94 4c 27 05 00 	cmpb   $0x0,0x5274c94
 1001d79:	74 14                	je     1001d8f <Interrupts_SetInterruptEnableMode+0x2f>
 1001d7b:	0f b6 c9             	movzbl %cl,%ecx
 1001d7e:	89 4c 24 04          	mov    %ecx,0x4(%esp)
 1001d82:	0f b6 c0             	movzbl %al,%eax
 1001d85:	89 04 24             	mov    %eax,(%esp)
 1001d88:	e8 83 2e 00 00       	call   1004c10 <IOAPIC_SetEnableMode>
 1001d8d:	eb 19                	jmp    1001da8 <Interrupts_SetInterruptEnableMode+0x48>
 1001d8f:	0f b6 c0             	movzbl %al,%eax
 1001d92:	84 c9                	test   %cl,%cl
 1001d94:	74 0a                	je     1001da0 <Interrupts_SetInterruptEnableMode+0x40>
 1001d96:	89 04 24             	mov    %eax,(%esp)
 1001d99:	e8 e2 3d 00 00       	call   1005b80 <PIC_UnMaskIRQ>
 1001d9e:	eb 08                	jmp    1001da8 <Interrupts_SetInterruptEnableMode+0x48>
 1001da0:	89 04 24             	mov    %eax,(%esp)
 1001da3:	e8 78 3d 00 00       	call   1005b20 <PIC_MaskIRQ>
 1001da8:	83 c4 08             	add    $0x8,%esp
 1001dab:	5d                   	pop    %ebp
 1001dac:	c3                   	ret    
 1001dad:	8d 76 00             	lea    0x0(%esi),%esi

01001db0 <Interrupts_GetSysID>:
 1001db0:	55                   	push   %ebp
 1001db1:	89 e5                	mov    %esp,%ebp
 1001db3:	8b 0d 90 4c 27 05    	mov    0x5274c90,%ecx
 1001db9:	8b 81 14 01 00 00    	mov    0x114(%ecx),%eax
 1001dbf:	8b 91 18 01 00 00    	mov    0x118(%ecx),%edx
 1001dc5:	5d                   	pop    %ebp
 1001dc6:	c3                   	ret    
 1001dc7:	89 f6                	mov    %esi,%esi
 1001dc9:	8d bc 27 00 00 00 00 	lea    0x0(%edi,%eiz,1),%edi

01001dd0 <Interrupts_IsAPICEnabled>:
 1001dd0:	55                   	push   %ebp
 1001dd1:	89 e5                	mov    %esp,%ebp
 1001dd3:	0f b6 05 94 4c 27 05 	movzbl 0x5274c94,%eax
 1001dda:	5d                   	pop    %ebp
 1001ddb:	c3                   	ret    
 1001ddc:	66 90                	xchg   %ax,%ax
 1001dde:	66 90                	xchg   %ax,%ax

01001de0 <physMemMan_Setup>:
 1001de0:	55                   	push   %ebp
 1001de1:	89 e5                	mov    %esp,%ebp
 1001de3:	83 ec 08             	sub    $0x8,%esp
 1001de6:	e8 45 f5 ff ff       	call   1001330 <SysMan_RegisterSystem>
 1001deb:	a3 98 4c 27 05       	mov    %eax,0x5274c98
 1001df0:	89 04 24             	mov    %eax,(%esp)
 1001df3:	c7 44 24 04 b9 83 00 	movl   $0x10083b9,0x4(%esp)
 1001dfa:	01 
 1001dfb:	e8 00 e4 ff ff       	call   1000200 <strcpy>
 1001e00:	a1 98 4c 27 05       	mov    0x5274c98,%eax
 1001e05:	c7 40 14 00 00 00 00 	movl   $0x0,0x14(%eax)
 1001e0c:	c7 40 10 00 00 00 00 	movl   $0x0,0x10(%eax)
 1001e13:	c7 80 08 01 00 00 80 	movl   $0x1001e80,0x108(%eax)
 1001e1a:	1e 00 01 
 1001e1d:	a1 98 4c 27 05       	mov    0x5274c98,%eax
 1001e22:	c7 80 0c 01 00 00 60 	movl   $0x1001e60,0x10c(%eax)
 1001e29:	1e 00 01 
 1001e2c:	a1 98 4c 27 05       	mov    0x5274c98,%eax
 1001e31:	c7 80 10 01 00 00 70 	movl   $0x1001e70,0x110(%eax)
 1001e38:	1e 00 01 
 1001e3b:	a1 98 4c 27 05       	mov    0x5274c98,%eax
 1001e40:	8b 88 14 01 00 00    	mov    0x114(%eax),%ecx
 1001e46:	8b 80 18 01 00 00    	mov    0x118(%eax),%eax
 1001e4c:	89 44 24 04          	mov    %eax,0x4(%esp)
 1001e50:	89 0c 24             	mov    %ecx,(%esp)
 1001e53:	e8 f8 f5 ff ff       	call   1001450 <SysMan_StartSystem>
 1001e58:	83 c4 08             	add    $0x8,%esp
 1001e5b:	5d                   	pop    %ebp
 1001e5c:	c3                   	ret    
 1001e5d:	8d 76 00             	lea    0x0(%esi),%esi

01001e60 <pmem_callback>:
 1001e60:	55                   	push   %ebp
 1001e61:	89 e5                	mov    %esp,%ebp
 1001e63:	5d                   	pop    %ebp
 1001e64:	c3                   	ret    
 1001e65:	8d 74 26 00          	lea    0x0(%esi,%eiz,1),%esi
 1001e69:	8d bc 27 00 00 00 00 	lea    0x0(%edi,%eiz,1),%edi

01001e70 <pmem_messageHandler>:
 1001e70:	55                   	push   %ebp
 1001e71:	89 e5                	mov    %esp,%ebp
 1001e73:	31 c0                	xor    %eax,%eax
 1001e75:	5d                   	pop    %ebp
 1001e76:	c3                   	ret    
 1001e77:	89 f6                	mov    %esi,%esi
 1001e79:	8d bc 27 00 00 00 00 	lea    0x0(%edi,%eiz,1),%edi

01001e80 <pmem_Initialize>:
 1001e80:	55                   	push   %ebp
 1001e81:	89 e5                	mov    %esp,%ebp
 1001e83:	53                   	push   %ebx
 1001e84:	57                   	push   %edi
 1001e85:	56                   	push   %esi
 1001e86:	83 ec 18             	sub    $0x18,%esp
 1001e89:	a1 14 10 03 02       	mov    0x2031014,%eax
 1001e8e:	8b 48 08             	mov    0x8(%eax),%ecx
 1001e91:	03 48 04             	add    0x4(%eax),%ecx
 1001e94:	89 c8                	mov    %ecx,%eax
 1001e96:	c1 e0 0a             	shl    $0xa,%eax
 1001e99:	a3 a0 4c 27 05       	mov    %eax,0x5274ca0
 1001e9e:	c7 05 a4 4c 27 05 00 	movl   $0x0,0x5274ca4
 1001ea5:	00 00 00 
 1001ea8:	c1 e9 02             	shr    $0x2,%ecx
 1001eab:	81 e1 ff ff 0f 00    	and    $0xfffff,%ecx
 1001eb1:	89 0d e0 47 05 04    	mov    %ecx,0x40547e0
 1001eb7:	c7 05 e4 47 05 04 00 	movl   $0x0,0x40547e4
 1001ebe:	00 00 00 
 1001ec1:	89 0d f8 47 05 04    	mov    %ecx,0x40547f8
 1001ec7:	c7 05 fc 47 05 04 00 	movl   $0x0,0x40547fc
 1001ece:	00 00 00 
 1001ed1:	89 0d e8 47 05 04    	mov    %ecx,0x40547e8
 1001ed7:	c7 05 ec 47 05 04 00 	movl   $0x0,0x40547ec
 1001ede:	00 00 00 
 1001ee1:	c7 05 14 48 05 04 00 	movl   $0x0,0x4054814
 1001ee8:	00 00 00 
 1001eeb:	c7 05 10 48 05 04 00 	movl   $0x0,0x4054810
 1001ef2:	00 00 00 
 1001ef5:	c1 e8 11             	shr    $0x11,%eax
 1001ef8:	a3 f0 47 05 04       	mov    %eax,0x40547f0
 1001efd:	c7 05 f4 47 05 04 00 	movl   $0x0,0x40547f4
 1001f04:	00 00 00 
 1001f07:	c1 e0 02             	shl    $0x2,%eax
 1001f0a:	89 04 24             	mov    %eax,(%esp)
 1001f0d:	e8 6e f7 ff ff       	call   1001680 <bootstrap_malloc>
 1001f12:	a3 04 48 05 04       	mov    %eax,0x4054804
 1001f17:	a1 f0 47 05 04       	mov    0x40547f0,%eax
 1001f1c:	8b 0d f4 47 05 04    	mov    0x40547f4,%ecx
 1001f22:	89 4c 24 04          	mov    %ecx,0x4(%esp)
 1001f26:	89 04 24             	mov    %eax,(%esp)
 1001f29:	c7 44 24 0c 00 00 00 	movl   $0x0,0xc(%esp)
 1001f30:	00 
 1001f31:	c7 44 24 08 05 00 00 	movl   $0x5,0x8(%esp)
 1001f38:	00 
 1001f39:	e8 12 57 00 00       	call   1007650 <__udivdi3>
 1001f3e:	89 15 0c 48 05 04    	mov    %edx,0x405480c
 1001f44:	a3 08 48 05 04       	mov    %eax,0x4054808
 1001f49:	c1 e0 02             	shl    $0x2,%eax
 1001f4c:	89 04 24             	mov    %eax,(%esp)
 1001f4f:	e8 2c f7 ff ff       	call   1001680 <bootstrap_malloc>
 1001f54:	a3 00 48 05 04       	mov    %eax,0x4054800
 1001f59:	a1 04 48 05 04       	mov    0x4054804,%eax
 1001f5e:	8b 0d f0 47 05 04    	mov    0x40547f0,%ecx
 1001f64:	c1 e1 02             	shl    $0x2,%ecx
 1001f67:	89 4c 24 08          	mov    %ecx,0x8(%esp)
 1001f6b:	89 04 24             	mov    %eax,(%esp)
 1001f6e:	c7 44 24 04 00 00 00 	movl   $0x0,0x4(%esp)
 1001f75:	00 
 1001f76:	e8 85 e1 ff ff       	call   1000100 <memset>
 1001f7b:	8b 0d f4 47 05 04    	mov    0x40547f4,%ecx
 1001f81:	89 4d f0             	mov    %ecx,-0x10(%ebp)
 1001f84:	a1 f0 47 05 04       	mov    0x40547f0,%eax
 1001f89:	89 45 ec             	mov    %eax,-0x14(%ebp)
 1001f8c:	09 c8                	or     %ecx,%eax
 1001f8e:	74 5e                	je     1001fee <pmem_Initialize+0x16e>
 1001f90:	31 f6                	xor    %esi,%esi
 1001f92:	8b 3d 00 48 05 04    	mov    0x4054800,%edi
 1001f98:	90                   	nop
 1001f99:	8d b4 26 00 00 00 00 	lea    0x0(%esi,%eiz,1),%esi
 1001fa0:	89 f0                	mov    %esi,%eax
 1001fa2:	b9 67 66 66 66       	mov    $0x66666667,%ecx
 1001fa7:	f7 e9                	imul   %ecx
 1001fa9:	89 d0                	mov    %edx,%eax
 1001fab:	c1 e8 1f             	shr    $0x1f,%eax
 1001fae:	d1 fa                	sar    %edx
 1001fb0:	01 c2                	add    %eax,%edx
 1001fb2:	8d 04 92             	lea    (%edx,%edx,4),%eax
 1001fb5:	89 f1                	mov    %esi,%ecx
 1001fb7:	29 c1                	sub    %eax,%ecx
 1001fb9:	6b c9 06             	imul   $0x6,%ecx,%ecx
 1001fbc:	b8 3f 00 00 00       	mov    $0x3f,%eax
 1001fc1:	d3 e0                	shl    %cl,%eax
 1001fc3:	bb 20 00 00 00       	mov    $0x20,%ebx
 1001fc8:	d3 e3                	shl    %cl,%ebx
 1001fca:	f7 d0                	not    %eax
 1001fcc:	23 04 97             	and    (%edi,%edx,4),%eax
 1001fcf:	09 c3                	or     %eax,%ebx
 1001fd1:	89 1c 97             	mov    %ebx,(%edi,%edx,4)
 1001fd4:	46                   	inc    %esi
 1001fd5:	89 f1                	mov    %esi,%ecx
 1001fd7:	c1 f9 1f             	sar    $0x1f,%ecx
 1001fda:	3b 75 ec             	cmp    -0x14(%ebp),%esi
 1001fdd:	0f 92 c0             	setb   %al
 1001fe0:	3b 4d f0             	cmp    -0x10(%ebp),%ecx
 1001fe3:	0f 92 c1             	setb   %cl
 1001fe6:	74 02                	je     1001fea <pmem_Initialize+0x16a>
 1001fe8:	88 c8                	mov    %cl,%al
 1001fea:	84 c0                	test   %al,%al
 1001fec:	75 b2                	jne    1001fa0 <pmem_Initialize+0x120>
 1001fee:	8b 35 14 10 03 02    	mov    0x2031014,%esi
 1001ff4:	8b 46 1c             	mov    0x1c(%esi),%eax
 1001ff7:	85 c0                	test   %eax,%eax
 1001ff9:	74 45                	je     1002040 <pmem_Initialize+0x1c0>
 1001ffb:	8b 7e 24             	mov    0x24(%esi),%edi
 1001ffe:	83 c7 14             	add    $0x14,%edi
 1002001:	31 db                	xor    %ebx,%ebx
 1002003:	8d b6 00 00 00 00    	lea    0x0(%esi),%esi
 1002009:	8d bc 27 00 00 00 00 	lea    0x0(%edi,%eiz,1),%edi
 1002010:	8b 0f                	mov    (%edi),%ecx
 1002012:	85 c9                	test   %ecx,%ecx
 1002014:	74 22                	je     1002038 <pmem_Initialize+0x1b8>
 1002016:	8b 47 f8             	mov    -0x8(%edi),%eax
 1002019:	89 4c 24 08          	mov    %ecx,0x8(%esp)
 100201d:	89 04 24             	mov    %eax,(%esp)
 1002020:	c7 44 24 0c 00 00 00 	movl   $0x0,0xc(%esp)
 1002027:	00 
 1002028:	c7 44 24 04 00 00 00 	movl   $0x0,0x4(%esp)
 100202f:	00 
 1002030:	e8 bb 00 00 00       	call   10020f0 <MemMan_MarkKB4Used>
 1002035:	8b 46 1c             	mov    0x1c(%esi),%eax
 1002038:	43                   	inc    %ebx
 1002039:	83 c7 28             	add    $0x28,%edi
 100203c:	39 c3                	cmp    %eax,%ebx
 100203e:	72 d0                	jb     1002010 <pmem_Initialize+0x190>
 1002040:	8b 35 04 80 84 01    	mov    0x1848004,%esi
 1002046:	a1 10 10 03 02       	mov    0x2031010,%eax
 100204b:	8d 0c 06             	lea    (%esi,%eax,1),%ecx
 100204e:	39 ce                	cmp    %ecx,%esi
 1002050:	73 51                	jae    10020a3 <pmem_Initialize+0x223>
 1002052:	89 f1                	mov    %esi,%ecx
 1002054:	8d b6 00 00 00 00    	lea    0x0(%esi),%esi
 100205a:	8d bf 00 00 00 00    	lea    0x0(%edi),%edi
 1002060:	8b 56 14             	mov    0x14(%esi),%edx
 1002063:	83 ca 02             	or     $0x2,%edx
 1002066:	83 fa 03             	cmp    $0x3,%edx
 1002069:	74 2b                	je     1002096 <pmem_Initialize+0x216>
 100206b:	8b 46 04             	mov    0x4(%esi),%eax
 100206e:	8b 4e 08             	mov    0x8(%esi),%ecx
 1002071:	8b 56 0c             	mov    0xc(%esi),%edx
 1002074:	8b 7e 10             	mov    0x10(%esi),%edi
 1002077:	89 7c 24 0c          	mov    %edi,0xc(%esp)
 100207b:	89 54 24 08          	mov    %edx,0x8(%esp)
 100207f:	89 4c 24 04          	mov    %ecx,0x4(%esp)
 1002083:	89 04 24             	mov    %eax,(%esp)
 1002086:	e8 65 00 00 00       	call   10020f0 <MemMan_MarkKB4Used>
 100208b:	8b 0d 04 80 84 01    	mov    0x1848004,%ecx
 1002091:	a1 10 10 03 02       	mov    0x2031010,%eax
 1002096:	8b 16                	mov    (%esi),%edx
 1002098:	8d 74 16 04          	lea    0x4(%esi,%edx,1),%esi
 100209c:	8d 14 01             	lea    (%ecx,%eax,1),%edx
 100209f:	39 d6                	cmp    %edx,%esi
 10020a1:	72 bd                	jb     1002060 <pmem_Initialize+0x1e0>
 10020a3:	31 c0                	xor    %eax,%eax
 10020a5:	83 c4 18             	add    $0x18,%esp
 10020a8:	5e                   	pop    %esi
 10020a9:	5f                   	pop    %edi
 10020aa:	5b                   	pop    %ebx
 10020ab:	5d                   	pop    %ebp
 10020ac:	c3                   	ret    
 10020ad:	8d 76 00             	lea    0x0(%esi),%esi

010020b0 <MemMan_MarkUsed>:
 10020b0:	55                   	push   %ebp
 10020b1:	89 e5                	mov    %esp,%ebp
 10020b3:	5d                   	pop    %ebp
 10020b4:	e9 37 00 00 00       	jmp    10020f0 <MemMan_MarkKB4Used>
 10020b9:	8d b4 26 00 00 00 00 	lea    0x0(%esi,%eiz,1),%esi

010020c0 <MemMan_CalculateBitmapIndex>:
 10020c0:	55                   	push   %ebp
 10020c1:	89 e5                	mov    %esp,%ebp
 10020c3:	83 ec 10             	sub    $0x10,%esp
 10020c6:	8b 45 08             	mov    0x8(%ebp),%eax
 10020c9:	8b 4d 0c             	mov    0xc(%ebp),%ecx
 10020cc:	8b 55 10             	mov    0x10(%ebp),%edx
 10020cf:	89 54 24 08          	mov    %edx,0x8(%esp)
 10020d3:	89 4c 24 04          	mov    %ecx,0x4(%esp)
 10020d7:	89 04 24             	mov    %eax,(%esp)
 10020da:	c7 44 24 0c 00 00 00 	movl   $0x0,0xc(%esp)
 10020e1:	00 
 10020e2:	e8 69 55 00 00       	call   1007650 <__udivdi3>
 10020e7:	83 c4 10             	add    $0x10,%esp
 10020ea:	5d                   	pop    %ebp
 10020eb:	c3                   	ret    
 10020ec:	8d 74 26 00          	lea    0x0(%esi,%eiz,1),%esi

010020f0 <MemMan_MarkKB4Used>:
 10020f0:	55                   	push   %ebp
 10020f1:	89 e5                	mov    %esp,%ebp
 10020f3:	53                   	push   %ebx
 10020f4:	57                   	push   %edi
 10020f5:	56                   	push   %esi
 10020f6:	83 ec 2c             	sub    $0x2c,%esp
 10020f9:	8b 45 14             	mov    0x14(%ebp),%eax
 10020fc:	8b 4d 10             	mov    0x10(%ebp),%ecx
 10020ff:	89 ca                	mov    %ecx,%edx
 1002101:	09 c2                	or     %eax,%edx
 1002103:	0f 84 ce 01 00 00    	je     10022d7 <MemMan_MarkKB4Used+0x1e7>
 1002109:	8b 55 0c             	mov    0xc(%ebp),%edx
 100210c:	89 d7                	mov    %edx,%edi
 100210e:	89 d6                	mov    %edx,%esi
 1002110:	c1 ee 0c             	shr    $0xc,%esi
 1002113:	89 f3                	mov    %esi,%ebx
 1002115:	8b 55 08             	mov    0x8(%ebp),%edx
 1002118:	0f a4 d7 14          	shld   $0x14,%edx,%edi
 100211c:	89 fa                	mov    %edi,%edx
 100211e:	0f a4 fb 0c          	shld   $0xc,%edi,%ebx
 1002122:	c1 e2 0c             	shl    $0xc,%edx
 1002125:	03 4d 08             	add    0x8(%ebp),%ecx
 1002128:	13 45 0c             	adc    0xc(%ebp),%eax
 100212b:	29 d1                	sub    %edx,%ecx
 100212d:	19 d8                	sbb    %ebx,%eax
 100212f:	0f ac c1 0c          	shrd   $0xc,%eax,%ecx
 1002133:	c1 e8 0c             	shr    $0xc,%eax
 1002136:	89 ca                	mov    %ecx,%edx
 1002138:	01 fa                	add    %edi,%edx
 100213a:	89 55 ec             	mov    %edx,-0x14(%ebp)
 100213d:	89 c2                	mov    %eax,%edx
 100213f:	11 f2                	adc    %esi,%edx
 1002141:	89 55 e8             	mov    %edx,-0x18(%ebp)
 1002144:	09 c8                	or     %ecx,%eax
 1002146:	0f 84 8b 01 00 00    	je     10022d7 <MemMan_MarkKB4Used+0x1e7>
 100214c:	a1 04 48 05 04       	mov    0x4054804,%eax
 1002151:	89 45 e0             	mov    %eax,-0x20(%ebp)
 1002154:	a1 00 48 05 04       	mov    0x4054800,%eax
 1002159:	89 45 e4             	mov    %eax,-0x1c(%ebp)
 100215c:	8d 74 26 00          	lea    0x0(%esi,%eiz,1),%esi
 1002160:	89 75 f0             	mov    %esi,-0x10(%ebp)
 1002163:	89 f8                	mov    %edi,%eax
 1002165:	83 c0 20             	add    $0x20,%eax
 1002168:	89 f2                	mov    %esi,%edx
 100216a:	83 d2 00             	adc    $0x0,%edx
 100216d:	89 f3                	mov    %esi,%ebx
 100216f:	0f a4 fb 1b          	shld   $0x1b,%edi,%ebx
 1002173:	c1 ee 05             	shr    $0x5,%esi
 1002176:	89 f9                	mov    %edi,%ecx
 1002178:	83 e1 1f             	and    $0x1f,%ecx
 100217b:	0f 85 9f 00 00 00    	jne    1002220 <MemMan_MarkKB4Used+0x130>
 1002181:	3b 45 ec             	cmp    -0x14(%ebp),%eax
 1002184:	0f 93 c0             	setae  %al
 1002187:	3b 55 e8             	cmp    -0x18(%ebp),%edx
 100218a:	0f 93 c2             	setae  %dl
 100218d:	74 02                	je     1002191 <MemMan_MarkKB4Used+0xa1>
 100218f:	88 d0                	mov    %dl,%al
 1002191:	84 c0                	test   %al,%al
 1002193:	0f 85 87 00 00 00    	jne    1002220 <MemMan_MarkKB4Used+0x130>
 1002199:	8b 45 e0             	mov    -0x20(%ebp),%eax
 100219c:	c7 04 98 ff ff ff ff 	movl   $0xffffffff,(%eax,%ebx,4)
 10021a3:	8b 45 f0             	mov    -0x10(%ebp),%eax
 10021a6:	89 44 24 04          	mov    %eax,0x4(%esp)
 10021aa:	89 3c 24             	mov    %edi,(%esp)
 10021ad:	c7 44 24 0c 00 00 00 	movl   $0x0,0xc(%esp)
 10021b4:	00 
 10021b5:	c7 44 24 08 a0 00 00 	movl   $0xa0,0x8(%esp)
 10021bc:	00 
 10021bd:	e8 8e 54 00 00       	call   1007650 <__udivdi3>
 10021c2:	89 45 dc             	mov    %eax,-0x24(%ebp)
 10021c5:	89 74 24 04          	mov    %esi,0x4(%esp)
 10021c9:	8b 75 f0             	mov    -0x10(%ebp),%esi
 10021cc:	89 1c 24             	mov    %ebx,(%esp)
 10021cf:	c7 44 24 0c 00 00 00 	movl   $0x0,0xc(%esp)
 10021d6:	00 
 10021d7:	c7 44 24 08 05 00 00 	movl   $0x5,0x8(%esp)
 10021de:	00 
 10021df:	e8 ac 55 00 00       	call   1007790 <__umoddi3>
 10021e4:	6b c8 06             	imul   $0x6,%eax,%ecx
 10021e7:	b8 3f 00 00 00       	mov    $0x3f,%eax
 10021ec:	d3 e0                	shl    %cl,%eax
 10021ee:	f7 d0                	not    %eax
 10021f0:	8b 4d e4             	mov    -0x1c(%ebp),%ecx
 10021f3:	8b 55 dc             	mov    -0x24(%ebp),%edx
 10021f6:	21 04 91             	and    %eax,(%ecx,%edx,4)
 10021f9:	a1 ec 47 05 04       	mov    0x40547ec,%eax
 10021fe:	8b 0d e8 47 05 04    	mov    0x40547e8,%ecx
 1002204:	83 c1 e0             	add    $0xffffffe0,%ecx
 1002207:	83 d0 ff             	adc    $0xffffffff,%eax
 100220a:	89 0d e8 47 05 04    	mov    %ecx,0x40547e8
 1002210:	a3 ec 47 05 04       	mov    %eax,0x40547ec
 1002215:	83 c7 1f             	add    $0x1f,%edi
 1002218:	83 d6 00             	adc    $0x0,%esi
 100221b:	e9 99 00 00 00       	jmp    10022b9 <MemMan_MarkKB4Used+0x1c9>
 1002220:	b8 01 00 00 00       	mov    $0x1,%eax
 1002225:	d3 e0                	shl    %cl,%eax
 1002227:	8b 4d e0             	mov    -0x20(%ebp),%ecx
 100222a:	09 04 99             	or     %eax,(%ecx,%ebx,4)
 100222d:	8b 45 f0             	mov    -0x10(%ebp),%eax
 1002230:	89 44 24 04          	mov    %eax,0x4(%esp)
 1002234:	89 3c 24             	mov    %edi,(%esp)
 1002237:	c7 44 24 0c 00 00 00 	movl   $0x0,0xc(%esp)
 100223e:	00 
 100223f:	c7 44 24 08 a0 00 00 	movl   $0xa0,0x8(%esp)
 1002246:	00 
 1002247:	e8 04 54 00 00       	call   1007650 <__udivdi3>
 100224c:	89 45 d8             	mov    %eax,-0x28(%ebp)
 100224f:	89 7d dc             	mov    %edi,-0x24(%ebp)
 1002252:	8b 4d e4             	mov    -0x1c(%ebp),%ecx
 1002255:	8b 3c 81             	mov    (%ecx,%eax,4),%edi
 1002258:	89 74 24 04          	mov    %esi,0x4(%esp)
 100225c:	8b 75 f0             	mov    -0x10(%ebp),%esi
 100225f:	89 1c 24             	mov    %ebx,(%esp)
 1002262:	c7 44 24 0c 00 00 00 	movl   $0x0,0xc(%esp)
 1002269:	00 
 100226a:	c7 44 24 08 05 00 00 	movl   $0x5,0x8(%esp)
 1002271:	00 
 1002272:	e8 19 55 00 00       	call   1007790 <__umoddi3>
 1002277:	6b c8 06             	imul   $0x6,%eax,%ecx
 100227a:	b8 3f 00 00 00       	mov    $0x3f,%eax
 100227f:	d3 e0                	shl    %cl,%eax
 1002281:	f7 d0                	not    %eax
 1002283:	21 f8                	and    %edi,%eax
 1002285:	d3 ef                	shr    %cl,%edi
 1002287:	83 c7 3f             	add    $0x3f,%edi
 100228a:	83 e7 3f             	and    $0x3f,%edi
 100228d:	d3 e7                	shl    %cl,%edi
 100228f:	09 c7                	or     %eax,%edi
 1002291:	8b 45 e4             	mov    -0x1c(%ebp),%eax
 1002294:	8b 4d d8             	mov    -0x28(%ebp),%ecx
 1002297:	89 3c 88             	mov    %edi,(%eax,%ecx,4)
 100229a:	8b 7d dc             	mov    -0x24(%ebp),%edi
 100229d:	a1 ec 47 05 04       	mov    0x40547ec,%eax
 10022a2:	8b 0d e8 47 05 04    	mov    0x40547e8,%ecx
 10022a8:	83 c1 ff             	add    $0xffffffff,%ecx
 10022ab:	83 d0 ff             	adc    $0xffffffff,%eax
 10022ae:	89 0d e8 47 05 04    	mov    %ecx,0x40547e8
 10022b4:	a3 ec 47 05 04       	mov    %eax,0x40547ec
 10022b9:	83 c7 01             	add    $0x1,%edi
 10022bc:	83 d6 00             	adc    $0x0,%esi
 10022bf:	3b 7d ec             	cmp    -0x14(%ebp),%edi
 10022c2:	0f 92 c0             	setb   %al
 10022c5:	3b 75 e8             	cmp    -0x18(%ebp),%esi
 10022c8:	0f 92 c1             	setb   %cl
 10022cb:	74 02                	je     10022cf <MemMan_MarkKB4Used+0x1df>
 10022cd:	88 c8                	mov    %cl,%al
 10022cf:	84 c0                	test   %al,%al
 10022d1:	0f 85 89 fe ff ff    	jne    1002160 <MemMan_MarkKB4Used+0x70>
 10022d7:	83 c4 2c             	add    $0x2c,%esp
 10022da:	5e                   	pop    %esi
 10022db:	5f                   	pop    %edi
 10022dc:	5b                   	pop    %ebx
 10022dd:	5d                   	pop    %ebp
 10022de:	c3                   	ret    
 10022df:	90                   	nop

010022e0 <find_first_zero>:
 10022e0:	55                   	push   %ebp
 10022e1:	89 e5                	mov    %esp,%ebp
 10022e3:	8b 4d 08             	mov    0x8(%ebp),%ecx
 10022e6:	31 c0                	xor    %eax,%eax
 10022e8:	85 c9                	test   %ecx,%ecx
 10022ea:	74 0f                	je     10022fb <find_first_zero+0x1b>
 10022ec:	f7 d1                	not    %ecx
 10022ee:	0f bc c1             	bsf    %ecx,%eax
 10022f1:	75 05                	jne    10022f8 <find_first_zero+0x18>
 10022f3:	b8 20 00 00 00       	mov    $0x20,%eax
 10022f8:	0f b7 c0             	movzwl %ax,%eax
 10022fb:	5d                   	pop    %ebp
 10022fc:	c3                   	ret    
 10022fd:	8d 76 00             	lea    0x0(%esi),%esi

01002300 <physMemMan_Alloc>:
 1002300:	55                   	push   %ebp
 1002301:	89 e5                	mov    %esp,%ebp
 1002303:	53                   	push   %ebx
 1002304:	57                   	push   %edi
 1002305:	56                   	push   %esi
 1002306:	83 ec 28             	sub    $0x28,%esp
 1002309:	8b 3d 14 48 05 04    	mov    0x4054814,%edi
 100230f:	8b 35 10 48 05 04    	mov    0x4054810,%esi
 1002315:	8b 0d f4 47 05 04    	mov    0x40547f4,%ecx
 100231b:	89 4d f0             	mov    %ecx,-0x10(%ebp)
 100231e:	8b 15 f0 47 05 04    	mov    0x40547f0,%edx
 1002324:	31 db                	xor    %ebx,%ebx
 1002326:	39 d6                	cmp    %edx,%esi
 1002328:	0f 93 c0             	setae  %al
 100232b:	39 cf                	cmp    %ecx,%edi
 100232d:	0f 93 c1             	setae  %cl
 1002330:	74 02                	je     1002334 <physMemMan_Alloc+0x34>
 1002332:	88 c8                	mov    %cl,%al
 1002334:	84 c0                	test   %al,%al
 1002336:	0f 85 80 00 00 00    	jne    10023bc <physMemMan_Alloc+0xbc>
 100233c:	a1 04 48 05 04       	mov    0x4054804,%eax
 1002341:	c7 45 ec 00 00 00 00 	movl   $0x0,-0x14(%ebp)
 1002348:	90                   	nop
 1002349:	8d b4 26 00 00 00 00 	lea    0x0(%esi,%eiz,1),%esi
 1002350:	8b 0c b0             	mov    (%eax,%esi,4),%ecx
 1002353:	83 f9 ff             	cmp    $0xffffffff,%ecx
 1002356:	75 1d                	jne    1002375 <physMemMan_Alloc+0x75>
 1002358:	83 c6 01             	add    $0x1,%esi
 100235b:	83 d7 00             	adc    $0x0,%edi
 100235e:	39 d6                	cmp    %edx,%esi
 1002360:	0f 92 c1             	setb   %cl
 1002363:	3b 7d f0             	cmp    -0x10(%ebp),%edi
 1002366:	0f 92 c5             	setb   %ch
 1002369:	74 02                	je     100236d <physMemMan_Alloc+0x6d>
 100236b:	88 e9                	mov    %ch,%cl
 100236d:	31 db                	xor    %ebx,%ebx
 100236f:	84 c9                	test   %cl,%cl
 1002371:	75 dd                	jne    1002350 <physMemMan_Alloc+0x50>
 1002373:	eb 47                	jmp    10023bc <physMemMan_Alloc+0xbc>
 1002375:	85 c9                	test   %ecx,%ecx
 1002377:	bb 00 00 00 00       	mov    $0x0,%ebx
 100237c:	74 29                	je     10023a7 <physMemMan_Alloc+0xa7>
 100237e:	f7 d1                	not    %ecx
 1002380:	0f bc c1             	bsf    %ecx,%eax
 1002383:	75 05                	jne    100238a <physMemMan_Alloc+0x8a>
 1002385:	b8 20 00 00 00       	mov    $0x20,%eax
 100238a:	0f b7 d8             	movzwl %ax,%ebx
 100238d:	a1 04 48 05 04       	mov    0x4054804,%eax
 1002392:	8b 0c b0             	mov    (%eax,%esi,4),%ecx
 1002395:	89 4d ec             	mov    %ecx,-0x14(%ebp)
 1002398:	8b 0d f4 47 05 04    	mov    0x40547f4,%ecx
 100239e:	89 4d f0             	mov    %ecx,-0x10(%ebp)
 10023a1:	8b 15 f0 47 05 04    	mov    0x40547f0,%edx
 10023a7:	c7 45 e8 01 00 00 00 	movl   $0x1,-0x18(%ebp)
 10023ae:	88 d9                	mov    %bl,%cl
 10023b0:	d3 65 e8             	shll   %cl,-0x18(%ebp)
 10023b3:	8b 4d e8             	mov    -0x18(%ebp),%ecx
 10023b6:	0b 4d ec             	or     -0x14(%ebp),%ecx
 10023b9:	89 0c b0             	mov    %ecx,(%eax,%esi,4)
 10023bc:	c7 45 ec 00 00 00 00 	movl   $0x0,-0x14(%ebp)
 10023c3:	89 d0                	mov    %edx,%eax
 10023c5:	89 45 e8             	mov    %eax,-0x18(%ebp)
 10023c8:	31 d2                	xor    %edx,%edx
 10023ca:	39 c6                	cmp    %eax,%esi
 10023cc:	0f 93 c0             	setae  %al
 10023cf:	3b 7d f0             	cmp    -0x10(%ebp),%edi
 10023d2:	0f 93 c1             	setae  %cl
 10023d5:	74 02                	je     10023d9 <physMemMan_Alloc+0xd9>
 10023d7:	88 c8                	mov    %cl,%al
 10023d9:	84 c0                	test   %al,%al
 10023db:	b8 00 00 00 00       	mov    $0x0,%eax
 10023e0:	0f 85 8d 01 00 00    	jne    1002573 <physMemMan_Alloc+0x273>
 10023e6:	89 7c 24 04          	mov    %edi,0x4(%esp)
 10023ea:	89 34 24             	mov    %esi,(%esp)
 10023ed:	c7 44 24 0c 00 00 00 	movl   $0x0,0xc(%esp)
 10023f4:	00 
 10023f5:	c7 44 24 08 05 00 00 	movl   $0x5,0x8(%esp)
 10023fc:	00 
 10023fd:	e8 4e 52 00 00       	call   1007650 <__udivdi3>
 1002402:	89 45 e0             	mov    %eax,-0x20(%ebp)
 1002405:	8b 0d 00 48 05 04    	mov    0x4054800,%ecx
 100240b:	89 4d e4             	mov    %ecx,-0x1c(%ebp)
 100240e:	8b 04 81             	mov    (%ecx,%eax,4),%eax
 1002411:	89 45 dc             	mov    %eax,-0x24(%ebp)
 1002414:	89 7c 24 04          	mov    %edi,0x4(%esp)
 1002418:	89 34 24             	mov    %esi,(%esp)
 100241b:	c7 44 24 0c 00 00 00 	movl   $0x0,0xc(%esp)
 1002422:	00 
 1002423:	c7 44 24 08 05 00 00 	movl   $0x5,0x8(%esp)
 100242a:	00 
 100242b:	e8 60 53 00 00       	call   1007790 <__umoddi3>
 1002430:	ba 3f 00 00 00       	mov    $0x3f,%edx
 1002435:	6b c8 06             	imul   $0x6,%eax,%ecx
 1002438:	d3 e2                	shl    %cl,%edx
 100243a:	f7 d2                	not    %edx
 100243c:	8b 45 dc             	mov    -0x24(%ebp),%eax
 100243f:	21 c2                	and    %eax,%edx
 1002441:	d3 e8                	shr    %cl,%eax
 1002443:	83 c0 3f             	add    $0x3f,%eax
 1002446:	83 e0 3f             	and    $0x3f,%eax
 1002449:	d3 e0                	shl    %cl,%eax
 100244b:	09 d0                	or     %edx,%eax
 100244d:	89 c1                	mov    %eax,%ecx
 100244f:	8b 45 e4             	mov    -0x1c(%ebp),%eax
 1002452:	8b 55 e0             	mov    -0x20(%ebp),%edx
 1002455:	89 0c 90             	mov    %ecx,(%eax,%edx,4)
 1002458:	a1 ec 47 05 04       	mov    0x40547ec,%eax
 100245d:	8b 0d e8 47 05 04    	mov    0x40547e8,%ecx
 1002463:	83 c1 ff             	add    $0xffffffff,%ecx
 1002466:	89 0d e8 47 05 04    	mov    %ecx,0x40547e8
 100246c:	83 d0 ff             	adc    $0xffffffff,%eax
 100246f:	a3 ec 47 05 04       	mov    %eax,0x40547ec
 1002474:	0f a4 f7 05          	shld   $0x5,%esi,%edi
 1002478:	c1 e6 05             	shl    $0x5,%esi
 100247b:	01 f3                	add    %esi,%ebx
 100247d:	8b 45 ec             	mov    -0x14(%ebp),%eax
 1002480:	11 f8                	adc    %edi,%eax
 1002482:	0f a4 d8 0c          	shld   $0xc,%ebx,%eax
 1002486:	89 45 e0             	mov    %eax,-0x20(%ebp)
 1002489:	c1 e3 0c             	shl    $0xc,%ebx
 100248c:	89 5d dc             	mov    %ebx,-0x24(%ebp)
 100248f:	8b 1d 14 48 05 04    	mov    0x4054814,%ebx
 1002495:	8b 35 10 48 05 04    	mov    0x4054810,%esi
 100249b:	89 5c 24 04          	mov    %ebx,0x4(%esp)
 100249f:	89 34 24             	mov    %esi,(%esp)
 10024a2:	c7 44 24 0c 00 00 00 	movl   $0x0,0xc(%esp)
 10024a9:	00 
 10024aa:	c7 44 24 08 05 00 00 	movl   $0x5,0x8(%esp)
 10024b1:	00 
 10024b2:	e8 99 51 00 00       	call   1007650 <__udivdi3>
 10024b7:	89 45 ec             	mov    %eax,-0x14(%ebp)
 10024ba:	89 5c 24 04          	mov    %ebx,0x4(%esp)
 10024be:	89 34 24             	mov    %esi,(%esp)
 10024c1:	c7 44 24 0c 00 00 00 	movl   $0x0,0xc(%esp)
 10024c8:	00 
 10024c9:	c7 44 24 08 05 00 00 	movl   $0x5,0x8(%esp)
 10024d0:	00 
 10024d1:	e8 ba 52 00 00       	call   1007790 <__umoddi3>
 10024d6:	6b c8 06             	imul   $0x6,%eax,%ecx
 10024d9:	8b 7d e4             	mov    -0x1c(%ebp),%edi
 10024dc:	b8 3f 00 00 00       	mov    $0x3f,%eax
 10024e1:	d3 e0                	shl    %cl,%eax
 10024e3:	8b 4d ec             	mov    -0x14(%ebp),%ecx
 10024e6:	85 04 8f             	test   %eax,(%edi,%ecx,4)
 10024e9:	0f 85 7e 00 00 00    	jne    100256d <physMemMan_Alloc+0x26d>
 10024ef:	90                   	nop
 10024f0:	83 c6 01             	add    $0x1,%esi
 10024f3:	83 d3 00             	adc    $0x0,%ebx
 10024f6:	8b 45 f0             	mov    -0x10(%ebp),%eax
 10024f9:	89 44 24 0c          	mov    %eax,0xc(%esp)
 10024fd:	8b 45 e8             	mov    -0x18(%ebp),%eax
 1002500:	89 44 24 08          	mov    %eax,0x8(%esp)
 1002504:	89 34 24             	mov    %esi,(%esp)
 1002507:	89 5c 24 04          	mov    %ebx,0x4(%esp)
 100250b:	e8 80 52 00 00       	call   1007790 <__umoddi3>
 1002510:	89 c6                	mov    %eax,%esi
 1002512:	89 d3                	mov    %edx,%ebx
 1002514:	89 5c 24 04          	mov    %ebx,0x4(%esp)
 1002518:	89 34 24             	mov    %esi,(%esp)
 100251b:	c7 44 24 0c 00 00 00 	movl   $0x0,0xc(%esp)
 1002522:	00 
 1002523:	c7 44 24 08 05 00 00 	movl   $0x5,0x8(%esp)
 100252a:	00 
 100252b:	e8 20 51 00 00       	call   1007650 <__udivdi3>
 1002530:	89 45 ec             	mov    %eax,-0x14(%ebp)
 1002533:	89 5c 24 04          	mov    %ebx,0x4(%esp)
 1002537:	89 34 24             	mov    %esi,(%esp)
 100253a:	c7 44 24 0c 00 00 00 	movl   $0x0,0xc(%esp)
 1002541:	00 
 1002542:	c7 44 24 08 05 00 00 	movl   $0x5,0x8(%esp)
 1002549:	00 
 100254a:	e8 41 52 00 00       	call   1007790 <__umoddi3>
 100254f:	6b c8 06             	imul   $0x6,%eax,%ecx
 1002552:	b8 3f 00 00 00       	mov    $0x3f,%eax
 1002557:	d3 e0                	shl    %cl,%eax
 1002559:	8b 4d ec             	mov    -0x14(%ebp),%ecx
 100255c:	85 04 8f             	test   %eax,(%edi,%ecx,4)
 100255f:	74 8f                	je     10024f0 <physMemMan_Alloc+0x1f0>
 1002561:	89 35 10 48 05 04    	mov    %esi,0x4054810
 1002567:	89 1d 14 48 05 04    	mov    %ebx,0x4054814
 100256d:	8b 55 e0             	mov    -0x20(%ebp),%edx
 1002570:	8b 45 dc             	mov    -0x24(%ebp),%eax
 1002573:	83 c4 28             	add    $0x28,%esp
 1002576:	5e                   	pop    %esi
 1002577:	5f                   	pop    %edi
 1002578:	5b                   	pop    %ebx
 1002579:	5d                   	pop    %ebp
 100257a:	c3                   	ret    
 100257b:	90                   	nop
 100257c:	8d 74 26 00          	lea    0x0(%esi,%eiz,1),%esi

01002580 <physMemMan_Free>:
 1002580:	55                   	push   %ebp
 1002581:	89 e5                	mov    %esp,%ebp
 1002583:	53                   	push   %ebx
 1002584:	57                   	push   %edi
 1002585:	56                   	push   %esi
 1002586:	83 ec 20             	sub    $0x20,%esp
 1002589:	8b 45 08             	mov    0x8(%ebp),%eax
 100258c:	8b 55 0c             	mov    0xc(%ebp),%edx
 100258f:	89 c1                	mov    %eax,%ecx
 1002591:	c1 e9 0c             	shr    $0xc,%ecx
 1002594:	8b 35 04 48 05 04    	mov    0x4054804,%esi
 100259a:	8b 3d 00 48 05 04    	mov    0x4054800,%edi
 10025a0:	89 7d f0             	mov    %edi,-0x10(%ebp)
 10025a3:	bb 01 00 00 00       	mov    $0x1,%ebx
 10025a8:	d3 e3                	shl    %cl,%ebx
 10025aa:	8b 0d ec 47 05 04    	mov    0x40547ec,%ecx
 10025b0:	89 4d ec             	mov    %ecx,-0x14(%ebp)
 10025b3:	8b 0d e8 47 05 04    	mov    0x40547e8,%ecx
 10025b9:	89 4d e8             	mov    %ecx,-0x18(%ebp)
 10025bc:	89 d7                	mov    %edx,%edi
 10025be:	0f a4 c7 0f          	shld   $0xf,%eax,%edi
 10025c2:	f7 d3                	not    %ebx
 10025c4:	21 1c be             	and    %ebx,(%esi,%edi,4)
 10025c7:	89 d3                	mov    %edx,%ebx
 10025c9:	c1 eb 11             	shr    $0x11,%ebx
 10025cc:	89 54 24 04          	mov    %edx,0x4(%esp)
 10025d0:	89 04 24             	mov    %eax,(%esp)
 10025d3:	c7 44 24 0c 00 00 00 	movl   $0x0,0xc(%esp)
 10025da:	00 
 10025db:	c7 44 24 08 00 00 0a 	movl   $0xa0000,0x8(%esp)
 10025e2:	00 
 10025e3:	e8 68 50 00 00       	call   1007650 <__udivdi3>
 10025e8:	89 c1                	mov    %eax,%ecx
 10025ea:	89 4d e4             	mov    %ecx,-0x1c(%ebp)
 10025ed:	8b 45 f0             	mov    -0x10(%ebp),%eax
 10025f0:	8b 34 88             	mov    (%eax,%ecx,4),%esi
 10025f3:	89 5c 24 04          	mov    %ebx,0x4(%esp)
 10025f7:	89 3c 24             	mov    %edi,(%esp)
 10025fa:	c7 44 24 0c 00 00 00 	movl   $0x0,0xc(%esp)
 1002601:	00 
 1002602:	c7 44 24 08 05 00 00 	movl   $0x5,0x8(%esp)
 1002609:	00 
 100260a:	e8 81 51 00 00       	call   1007790 <__umoddi3>
 100260f:	6b c8 06             	imul   $0x6,%eax,%ecx
 1002612:	b8 3f 00 00 00       	mov    $0x3f,%eax
 1002617:	d3 e0                	shl    %cl,%eax
 1002619:	f7 d0                	not    %eax
 100261b:	21 f0                	and    %esi,%eax
 100261d:	d3 ee                	shr    %cl,%esi
 100261f:	46                   	inc    %esi
 1002620:	83 e6 3f             	and    $0x3f,%esi
 1002623:	d3 e6                	shl    %cl,%esi
 1002625:	09 c6                	or     %eax,%esi
 1002627:	8b 45 f0             	mov    -0x10(%ebp),%eax
 100262a:	8b 4d e4             	mov    -0x1c(%ebp),%ecx
 100262d:	89 34 88             	mov    %esi,(%eax,%ecx,4)
 1002630:	39 3d 10 48 05 04    	cmp    %edi,0x4054810
 1002636:	0f 96 c0             	setbe  %al
 1002639:	39 1d 14 48 05 04    	cmp    %ebx,0x4054814
 100263f:	0f 96 c1             	setbe  %cl
 1002642:	74 02                	je     1002646 <physMemMan_Free+0xc6>
 1002644:	88 c8                	mov    %cl,%al
 1002646:	84 c0                	test   %al,%al
 1002648:	75 0c                	jne    1002656 <physMemMan_Free+0xd6>
 100264a:	89 3d 10 48 05 04    	mov    %edi,0x4054810
 1002650:	89 1d 14 48 05 04    	mov    %ebx,0x4054814
 1002656:	8b 4d e8             	mov    -0x18(%ebp),%ecx
 1002659:	83 c1 01             	add    $0x1,%ecx
 100265c:	8b 45 ec             	mov    -0x14(%ebp),%eax
 100265f:	83 d0 00             	adc    $0x0,%eax
 1002662:	89 0d e8 47 05 04    	mov    %ecx,0x40547e8
 1002668:	a3 ec 47 05 04       	mov    %eax,0x40547ec
 100266d:	83 c4 20             	add    $0x20,%esp
 1002670:	5e                   	pop    %esi
 1002671:	5f                   	pop    %edi
 1002672:	5b                   	pop    %ebx
 1002673:	5d                   	pop    %ebp
 1002674:	c3                   	ret    
 1002675:	66 90                	xchg   %ax,%ax
 1002677:	66 90                	xchg   %ax,%ax
 1002679:	66 90                	xchg   %ax,%ax
 100267b:	66 90                	xchg   %ax,%ax
 100267d:	66 90                	xchg   %ax,%ax
 100267f:	90                   	nop

01002680 <memSearch_isFree>:
 1002680:	55                   	push   %ebp
 1002681:	89 e5                	mov    %esp,%ebp
 1002683:	53                   	push   %ebx
 1002684:	57                   	push   %edi
 1002685:	56                   	push   %esi
 1002686:	83 ec 0c             	sub    $0xc,%esp
 1002689:	a1 14 10 03 02       	mov    0x2031014,%eax
 100268e:	8b 15 04 80 84 01    	mov    0x1848004,%edx
 1002694:	8b 48 1c             	mov    0x1c(%eax),%ecx
 1002697:	89 4d f0             	mov    %ecx,-0x10(%ebp)
 100269a:	85 c9                	test   %ecx,%ecx
 100269c:	74 66                	je     1002704 <memSearch_isFree+0x84>
 100269e:	8b 78 24             	mov    0x24(%eax),%edi
 10026a1:	83 c7 14             	add    $0x14,%edi
 10026a4:	31 db                	xor    %ebx,%ebx
 10026a6:	8d 76 00             	lea    0x0(%esi),%esi
 10026a9:	8d bc 27 00 00 00 00 	lea    0x0(%edi,%eiz,1),%edi
 10026b0:	8b 07                	mov    (%edi),%eax
 10026b2:	85 c0                	test   %eax,%eax
 10026b4:	74 45                	je     10026fb <memSearch_isFree+0x7b>
 10026b6:	8b 4f f8             	mov    -0x8(%edi),%ecx
 10026b9:	89 4d ec             	mov    %ecx,-0x14(%ebp)
 10026bc:	39 4d 08             	cmp    %ecx,0x8(%ebp)
 10026bf:	0f 92 c1             	setb   %cl
 10026c2:	89 ce                	mov    %ecx,%esi
 10026c4:	83 7d 0c 00          	cmpl   $0x0,0xc(%ebp)
 10026c8:	74 02                	je     10026cc <memSearch_isFree+0x4c>
 10026ca:	31 f6                	xor    %esi,%esi
 10026cc:	89 f1                	mov    %esi,%ecx
 10026ce:	84 c9                	test   %cl,%cl
 10026d0:	75 29                	jne    10026fb <memSearch_isFree+0x7b>
 10026d2:	8b 4d ec             	mov    -0x14(%ebp),%ecx
 10026d5:	01 c1                	add    %eax,%ecx
 10026d7:	19 c0                	sbb    %eax,%eax
 10026d9:	83 e0 01             	and    $0x1,%eax
 10026dc:	c7 45 ec 00 00 00 00 	movl   $0x0,-0x14(%ebp)
 10026e3:	3b 4d 08             	cmp    0x8(%ebp),%ecx
 10026e6:	0f 93 c1             	setae  %cl
 10026e9:	3b 45 0c             	cmp    0xc(%ebp),%eax
 10026ec:	0f 93 c5             	setae  %ch
 10026ef:	74 02                	je     10026f3 <memSearch_isFree+0x73>
 10026f1:	88 e9                	mov    %ch,%cl
 10026f3:	84 c9                	test   %cl,%cl
 10026f5:	0f 85 95 00 00 00    	jne    1002790 <memSearch_isFree+0x110>
 10026fb:	43                   	inc    %ebx
 10026fc:	83 c7 28             	add    $0x28,%edi
 10026ff:	3b 5d f0             	cmp    -0x10(%ebp),%ebx
 1002702:	72 ac                	jb     10026b0 <memSearch_isFree+0x30>
 1002704:	a1 10 10 03 02       	mov    0x2031010,%eax
 1002709:	85 c0                	test   %eax,%eax
 100270b:	7e 7e                	jle    100278b <memSearch_isFree+0x10b>
 100270d:	6b c0 18             	imul   $0x18,%eax,%eax
 1002710:	01 d0                	add    %edx,%eax
 1002712:	89 45 f0             	mov    %eax,-0x10(%ebp)
 1002715:	8d 74 26 00          	lea    0x0(%esi,%eiz,1),%esi
 1002719:	8d bc 27 00 00 00 00 	lea    0x0(%edi,%eiz,1),%edi
 1002720:	8b 42 14             	mov    0x14(%edx),%eax
 1002723:	83 c8 02             	or     $0x2,%eax
 1002726:	83 f8 03             	cmp    $0x3,%eax
 1002729:	74 55                	je     1002780 <memSearch_isFree+0x100>
 100272b:	8b 5a 0c             	mov    0xc(%edx),%ebx
 100272e:	8b 72 10             	mov    0x10(%edx),%esi
 1002731:	89 d9                	mov    %ebx,%ecx
 1002733:	09 f1                	or     %esi,%ecx
 1002735:	74 49                	je     1002780 <memSearch_isFree+0x100>
 1002737:	8b 7a 04             	mov    0x4(%edx),%edi
 100273a:	8b 4a 08             	mov    0x8(%edx),%ecx
 100273d:	39 7d 08             	cmp    %edi,0x8(%ebp)
 1002740:	0f 92 45 ec          	setb   -0x14(%ebp)
 1002744:	3b 4d 0c             	cmp    0xc(%ebp),%ecx
 1002747:	0f 97 45 eb          	seta   -0x15(%ebp)
 100274b:	74 06                	je     1002753 <memSearch_isFree+0xd3>
 100274d:	8a 45 eb             	mov    -0x15(%ebp),%al
 1002750:	88 45 ec             	mov    %al,-0x14(%ebp)
 1002753:	01 df                	add    %ebx,%edi
 1002755:	11 f1                	adc    %esi,%ecx
 1002757:	80 7d ec 00          	cmpb   $0x0,-0x14(%ebp)
 100275b:	75 23                	jne    1002780 <memSearch_isFree+0x100>
 100275d:	c7 45 ec 00 00 00 00 	movl   $0x0,-0x14(%ebp)
 1002764:	3b 7d 08             	cmp    0x8(%ebp),%edi
 1002767:	0f 93 c3             	setae  %bl
 100276a:	3b 4d 0c             	cmp    0xc(%ebp),%ecx
 100276d:	0f 93 c1             	setae  %cl
 1002770:	74 02                	je     1002774 <memSearch_isFree+0xf4>
 1002772:	88 cb                	mov    %cl,%bl
 1002774:	84 db                	test   %bl,%bl
 1002776:	75 18                	jne    1002790 <memSearch_isFree+0x110>
 1002778:	90                   	nop
 1002779:	8d b4 26 00 00 00 00 	lea    0x0(%esi,%eiz,1),%esi
 1002780:	8b 02                	mov    (%edx),%eax
 1002782:	8d 54 02 04          	lea    0x4(%edx,%eax,1),%edx
 1002786:	3b 55 f0             	cmp    -0x10(%ebp),%edx
 1002789:	72 95                	jb     1002720 <memSearch_isFree+0xa0>
 100278b:	b0 01                	mov    $0x1,%al
 100278d:	89 45 ec             	mov    %eax,-0x14(%ebp)
 1002790:	8b 45 ec             	mov    -0x14(%ebp),%eax
 1002793:	0f b6 c0             	movzbl %al,%eax
 1002796:	83 c4 0c             	add    $0xc,%esp
 1002799:	5e                   	pop    %esi
 100279a:	5f                   	pop    %edi
 100279b:	5b                   	pop    %ebx
 100279c:	5d                   	pop    %ebp
 100279d:	c3                   	ret    
 100279e:	66 90                	xchg   %ax,%ax

010027a0 <ProcessMan_Setup>:
 10027a0:	55                   	push   %ebp
 10027a1:	89 e5                	mov    %esp,%ebp
 10027a3:	83 ec 08             	sub    $0x8,%esp
 10027a6:	e8 85 eb ff ff       	call   1001330 <SysMan_RegisterSystem>
 10027ab:	a3 ac 4c 27 05       	mov    %eax,0x5274cac
 10027b0:	89 04 24             	mov    %eax,(%esp)
 10027b3:	c7 44 24 04 c7 83 00 	movl   $0x10083c7,0x4(%esp)
 10027ba:	01 
 10027bb:	e8 40 da ff ff       	call   1000200 <strcpy>
 10027c0:	a1 ac 4c 27 05       	mov    0x5274cac,%eax
 10027c5:	c7 40 14 00 00 00 00 	movl   $0x0,0x14(%eax)
 10027cc:	c7 40 10 00 00 00 00 	movl   $0x0,0x10(%eax)
 10027d3:	c7 80 08 01 00 00 40 	movl   $0x1002840,0x108(%eax)
 10027da:	28 00 01 
 10027dd:	a1 ac 4c 27 05       	mov    0x5274cac,%eax
 10027e2:	c7 80 0c 01 00 00 20 	movl   $0x1002820,0x10c(%eax)
 10027e9:	28 00 01 
 10027ec:	a1 ac 4c 27 05       	mov    0x5274cac,%eax
 10027f1:	c7 80 10 01 00 00 30 	movl   $0x1002830,0x110(%eax)
 10027f8:	28 00 01 
 10027fb:	a1 ac 4c 27 05       	mov    0x5274cac,%eax
 1002800:	8b 88 14 01 00 00    	mov    0x114(%eax),%ecx
 1002806:	8b 80 18 01 00 00    	mov    0x118(%eax),%eax
 100280c:	89 44 24 04          	mov    %eax,0x4(%esp)
 1002810:	89 0c 24             	mov    %ecx,(%esp)
 1002813:	e8 38 ec ff ff       	call   1001450 <SysMan_StartSystem>
 1002818:	83 c4 08             	add    $0x8,%esp
 100281b:	5d                   	pop    %ebp
 100281c:	c3                   	ret    
 100281d:	8d 76 00             	lea    0x0(%esi),%esi

01002820 <processMan_callback>:
 1002820:	55                   	push   %ebp
 1002821:	89 e5                	mov    %esp,%ebp
 1002823:	5d                   	pop    %ebp
 1002824:	c3                   	ret    
 1002825:	8d 74 26 00          	lea    0x0(%esi,%eiz,1),%esi
 1002829:	8d bc 27 00 00 00 00 	lea    0x0(%edi,%eiz,1),%edi

01002830 <processMan_messageHandler>:
 1002830:	55                   	push   %ebp
 1002831:	89 e5                	mov    %esp,%ebp
 1002833:	31 c0                	xor    %eax,%eax
 1002835:	5d                   	pop    %ebp
 1002836:	c3                   	ret    
 1002837:	89 f6                	mov    %esi,%esi
 1002839:	8d bc 27 00 00 00 00 	lea    0x0(%edi,%eiz,1),%edi

01002840 <processMan_Initialize>:
 1002840:	55                   	push   %ebp
 1002841:	89 e5                	mov    %esp,%ebp
 1002843:	83 ec 0c             	sub    $0xc,%esp
 1002846:	c7 44 24 08 00 08 00 	movl   $0x800,0x8(%esp)
 100284d:	00 
 100284e:	c7 44 24 04 00 00 00 	movl   $0x0,0x4(%esp)
 1002855:	00 
 1002856:	c7 04 24 20 48 05 04 	movl   $0x4054820,(%esp)
 100285d:	e8 9e d8 ff ff       	call   1000100 <memset>
 1002862:	c7 44 24 08 00 68 00 	movl   $0x6800,0x8(%esp)
 1002869:	00 
 100286a:	c7 44 24 04 00 00 00 	movl   $0x0,0x4(%esp)
 1002871:	00 
 1002872:	c7 04 24 20 50 05 04 	movl   $0x4055020,(%esp)
 1002879:	e8 82 d8 ff ff       	call   1000100 <memset>
 100287e:	c7 05 e4 b4 82 01 00 	movl   $0x0,0x182b4e4
 1002885:	00 00 00 
 1002888:	c7 05 e0 b4 82 01 01 	movl   $0x1,0x182b4e0
 100288f:	00 00 00 
 1002892:	c7 05 1c 48 05 04 00 	movl   $0x0,0x405481c
 1002899:	00 00 00 
 100289c:	c7 05 24 b8 05 04 00 	movl   $0x0,0x405b824
 10028a3:	00 00 00 
 10028a6:	c7 05 28 b8 05 04 00 	movl   $0x0,0x405b828
 10028ad:	00 00 00 
 10028b0:	c7 05 20 b8 05 04 00 	movl   $0x0,0x405b820
 10028b7:	00 00 00 
 10028ba:	31 c0                	xor    %eax,%eax
 10028bc:	83 c4 0c             	add    $0xc,%esp
 10028bf:	5d                   	pop    %ebp
 10028c0:	c3                   	ret    
 10028c1:	eb 0d                	jmp    10028d0 <ProcessMan_Create>
 10028c3:	90                   	nop
 10028c4:	90                   	nop
 10028c5:	90                   	nop
 10028c6:	90                   	nop
 10028c7:	90                   	nop
 10028c8:	90                   	nop
 10028c9:	90                   	nop
 10028ca:	90                   	nop
 10028cb:	90                   	nop
 10028cc:	90                   	nop
 10028cd:	90                   	nop
 10028ce:	90                   	nop
 10028cf:	90                   	nop

010028d0 <ProcessMan_Create>:
 10028d0:	55                   	push   %ebp
 10028d1:	89 e5                	mov    %esp,%ebp
 10028d3:	53                   	push   %ebx
 10028d4:	57                   	push   %edi
 10028d5:	56                   	push   %esi
 10028d6:	83 ec 18             	sub    $0x18,%esp
 10028d9:	31 c9                	xor    %ecx,%ecx
 10028db:	be 20 48 05 04       	mov    $0x4054820,%esi
 10028e0:	8b 06                	mov    (%esi),%eax
 10028e2:	0b 46 04             	or     0x4(%esi),%eax
 10028e5:	74 0e                	je     10028f5 <ProcessMan_Create+0x25>
 10028e7:	41                   	inc    %ecx
 10028e8:	83 c6 10             	add    $0x10,%esi
 10028eb:	83 f9 7f             	cmp    $0x7f,%ecx
 10028ee:	7e f0                	jle    10028e0 <ProcessMan_Create+0x10>
 10028f0:	e9 4e 01 00 00       	jmp    1002a43 <ProcessMan_Create+0x173>
 10028f5:	8b 3d e4 b4 82 01    	mov    0x182b4e4,%edi
 10028fb:	89 7d e4             	mov    %edi,-0x1c(%ebp)
 10028fe:	8b 15 e0 b4 82 01    	mov    0x182b4e0,%edx
 1002904:	89 55 e0             	mov    %edx,-0x20(%ebp)
 1002907:	83 c2 01             	add    $0x1,%edx
 100290a:	83 d7 00             	adc    $0x0,%edi
 100290d:	6b c1 34             	imul   $0x34,%ecx,%eax
 1002910:	c1 e1 04             	shl    $0x4,%ecx
 1002913:	89 4d dc             	mov    %ecx,-0x24(%ebp)
 1002916:	8d 99 28 48 05 04    	lea    0x4054828(%ecx),%ebx
 100291c:	89 5d f0             	mov    %ebx,-0x10(%ebp)
 100291f:	8d 98 20 50 05 04    	lea    0x4055020(%eax),%ebx
 1002925:	89 5d ec             	mov    %ebx,-0x14(%ebp)
 1002928:	31 db                	xor    %ebx,%ebx
 100292a:	89 15 e0 b4 82 01    	mov    %edx,0x182b4e0
 1002930:	89 3d e4 b4 82 01    	mov    %edi,0x182b4e4
 1002936:	8b 4d e4             	mov    -0x1c(%ebp),%ecx
 1002939:	89 4e 04             	mov    %ecx,0x4(%esi)
 100293c:	8b 4d e0             	mov    -0x20(%ebp),%ecx
 100293f:	89 0e                	mov    %ecx,(%esi)
 1002941:	8d 80 4c 50 05 04    	lea    0x405504c(%eax),%eax
 1002947:	89 45 e8             	mov    %eax,-0x18(%ebp)
 100294a:	8d b6 00 00 00 00    	lea    0x0(%esi),%esi
 1002950:	8b 83 20 50 05 04    	mov    0x4055020(%ebx),%eax
 1002956:	0b 83 24 50 05 04    	or     0x4055024(%ebx),%eax
 100295c:	74 12                	je     1002970 <ProcessMan_Create+0xa0>
 100295e:	89 f8                	mov    %edi,%eax
 1002960:	e9 99 00 00 00       	jmp    10029fe <ProcessMan_Create+0x12e>
 1002965:	8d 74 26 00          	lea    0x0(%esi,%eiz,1),%esi
 1002969:	8d bc 27 00 00 00 00 	lea    0x0(%edi,%eiz,1),%edi
 1002970:	89 d1                	mov    %edx,%ecx
 1002972:	83 c1 01             	add    $0x1,%ecx
 1002975:	89 f8                	mov    %edi,%eax
 1002977:	83 d0 00             	adc    $0x0,%eax
 100297a:	89 0d e0 b4 82 01    	mov    %ecx,0x182b4e0
 1002980:	a3 e4 b4 82 01       	mov    %eax,0x182b4e4
 1002985:	89 bb 24 50 05 04    	mov    %edi,0x4055024(%ebx)
 100298b:	8d bb 20 50 05 04    	lea    0x4055020(%ebx),%edi
 1002991:	89 93 20 50 05 04    	mov    %edx,0x4055020(%ebx)
 1002997:	8b 55 08             	mov    0x8(%ebp),%edx
 100299a:	89 93 3c 50 05 04    	mov    %edx,0x405503c(%ebx)
 10029a0:	c7 83 4c 50 05 04 00 	movl   $0x0,0x405504c(%ebx)
 10029a7:	00 00 00 
 10029aa:	8b 55 0c             	mov    0xc(%ebp),%edx
 10029ad:	89 93 40 50 05 04    	mov    %edx,0x4055040(%ebx)
 10029b3:	8b 55 10             	mov    0x10(%ebp),%edx
 10029b6:	89 93 44 50 05 04    	mov    %edx,0x4055044(%ebx)
 10029bc:	c6 83 48 50 05 04 00 	movb   $0x0,0x4055048(%ebx)
 10029c3:	89 b3 50 50 05 04    	mov    %esi,0x4055050(%ebx)
 10029c9:	8b 55 f0             	mov    -0x10(%ebp),%edx
 10029cc:	89 3a                	mov    %edi,(%edx)
 10029ce:	8b 15 20 b8 05 04    	mov    0x405b820,%edx
 10029d4:	85 d2                	test   %edx,%edx
 10029d6:	74 03                	je     10029db <ProcessMan_Create+0x10b>
 10029d8:	89 7a 2c             	mov    %edi,0x2c(%edx)
 10029db:	83 3d 28 b8 05 04 00 	cmpl   $0x0,0x405b828
 10029e2:	75 06                	jne    10029ea <ProcessMan_Create+0x11a>
 10029e4:	89 3d 28 b8 05 04    	mov    %edi,0x405b828
 10029ea:	8b 55 ec             	mov    -0x14(%ebp),%edx
 10029ed:	89 15 20 b8 05 04    	mov    %edx,0x405b820
 10029f3:	8b 55 e8             	mov    -0x18(%ebp),%edx
 10029f6:	c7 02 00 00 00 00    	movl   $0x0,(%edx)
 10029fc:	89 ca                	mov    %ecx,%edx
 10029fe:	83 c3 34             	add    $0x34,%ebx
 1002a01:	81 fb 00 68 00 00    	cmp    $0x6800,%ebx
 1002a07:	89 c7                	mov    %eax,%edi
 1002a09:	0f 85 41 ff ff ff    	jne    1002950 <ProcessMan_Create+0x80>
 1002a0f:	a1 24 b8 05 04       	mov    0x405b824,%eax
 1002a14:	85 c0                	test   %eax,%eax
 1002a16:	74 03                	je     1002a1b <ProcessMan_Create+0x14b>
 1002a18:	89 70 0c             	mov    %esi,0xc(%eax)
 1002a1b:	83 3d 1c 48 05 04 00 	cmpl   $0x0,0x405481c
 1002a22:	8b 55 e4             	mov    -0x1c(%ebp),%edx
 1002a25:	8b 45 e0             	mov    -0x20(%ebp),%eax
 1002a28:	8b 4d dc             	mov    -0x24(%ebp),%ecx
 1002a2b:	75 06                	jne    1002a33 <ProcessMan_Create+0x163>
 1002a2d:	89 35 1c 48 05 04    	mov    %esi,0x405481c
 1002a33:	89 35 24 b8 05 04    	mov    %esi,0x405b824
 1002a39:	c7 81 2c 48 05 04 00 	movl   $0x0,0x405482c(%ecx)
 1002a40:	00 00 00 
 1002a43:	83 c4 18             	add    $0x18,%esp
 1002a46:	5e                   	pop    %esi
 1002a47:	5f                   	pop    %edi
 1002a48:	5b                   	pop    %ebx
 1002a49:	5d                   	pop    %ebp
 1002a4a:	c3                   	ret    
 1002a4b:	90                   	nop
 1002a4c:	8d 74 26 00          	lea    0x0(%esi,%eiz,1),%esi

01002a50 <ProcessMan_StartProcess>:
 1002a50:	55                   	push   %ebp
 1002a51:	89 e5                	mov    %esp,%ebp
 1002a53:	53                   	push   %ebx
 1002a54:	57                   	push   %edi
 1002a55:	56                   	push   %esi
 1002a56:	8b 4d 0c             	mov    0xc(%ebp),%ecx
 1002a59:	8b 55 08             	mov    0x8(%ebp),%edx
 1002a5c:	8b 35 1c 48 05 04    	mov    0x405481c,%esi
 1002a62:	8d b4 26 00 00 00 00 	lea    0x0(%esi,%eiz,1),%esi
 1002a69:	8d bc 27 00 00 00 00 	lea    0x0(%edi,%eiz,1),%edi
 1002a70:	89 f0                	mov    %esi,%eax
 1002a72:	8b 70 0c             	mov    0xc(%eax),%esi
 1002a75:	85 f6                	test   %esi,%esi
 1002a77:	74 49                	je     1002ac2 <ProcessMan_StartProcess+0x72>
 1002a79:	8b 38                	mov    (%eax),%edi
 1002a7b:	31 d7                	xor    %edx,%edi
 1002a7d:	8b 58 04             	mov    0x4(%eax),%ebx
 1002a80:	31 cb                	xor    %ecx,%ebx
 1002a82:	09 fb                	or     %edi,%ebx
 1002a84:	75 ea                	jne    1002a70 <ProcessMan_StartProcess+0x20>
 1002a86:	8b 0d 28 b8 05 04    	mov    0x405b828,%ecx
 1002a8c:	83 79 2c 00          	cmpl   $0x0,0x2c(%ecx)
 1002a90:	74 30                	je     1002ac2 <ProcessMan_StartProcess+0x72>
 1002a92:	8b 40 08             	mov    0x8(%eax),%eax
 1002a95:	8b 11                	mov    (%ecx),%edx
 1002a97:	8b 49 04             	mov    0x4(%ecx),%ecx
 1002a9a:	33 48 04             	xor    0x4(%eax),%ecx
 1002a9d:	33 10                	xor    (%eax),%edx
 1002a9f:	09 ca                	or     %ecx,%edx
 1002aa1:	75 1d                	jne    1002ac0 <ProcessMan_StartProcess+0x70>
 1002aa3:	8d b6 00 00 00 00    	lea    0x0(%esi),%esi
 1002aa9:	8d bc 27 00 00 00 00 	lea    0x0(%edi,%eiz,1),%edi
 1002ab0:	eb fe                	jmp    1002ab0 <ProcessMan_StartProcess+0x60>
 1002ab2:	8d b4 26 00 00 00 00 	lea    0x0(%esi,%eiz,1),%esi
 1002ab9:	8d bc 27 00 00 00 00 	lea    0x0(%edi,%eiz,1),%edi
 1002ac0:	eb fe                	jmp    1002ac0 <ProcessMan_StartProcess+0x70>
 1002ac2:	b8 ff ff ff ff       	mov    $0xffffffff,%eax
 1002ac7:	5e                   	pop    %esi
 1002ac8:	5f                   	pop    %edi
 1002ac9:	5b                   	pop    %ebx
 1002aca:	5d                   	pop    %ebp
 1002acb:	c3                   	ret    
 1002acc:	8d 74 26 00          	lea    0x0(%esi,%eiz,1),%esi

01002ad0 <ProcessMan_StartThread>:
 1002ad0:	55                   	push   %ebp
 1002ad1:	89 e5                	mov    %esp,%ebp
 1002ad3:	a1 28 b8 05 04       	mov    0x405b828,%eax
 1002ad8:	83 78 2c 00          	cmpl   $0x0,0x2c(%eax)
 1002adc:	74 24                	je     1002b02 <ProcessMan_StartThread+0x32>
 1002ade:	8b 4d 0c             	mov    0xc(%ebp),%ecx
 1002ae1:	8b 55 08             	mov    0x8(%ebp),%edx
 1002ae4:	33 10                	xor    (%eax),%edx
 1002ae6:	33 48 04             	xor    0x4(%eax),%ecx
 1002ae9:	09 d1                	or     %edx,%ecx
 1002aeb:	75 13                	jne    1002b00 <ProcessMan_StartThread+0x30>
 1002aed:	8d 76 00             	lea    0x0(%esi),%esi
 1002af0:	c6 40 28 01          	movb   $0x1,0x28(%eax)
 1002af4:	eb fa                	jmp    1002af0 <ProcessMan_StartThread+0x20>
 1002af6:	8d 76 00             	lea    0x0(%esi),%esi
 1002af9:	8d bc 27 00 00 00 00 	lea    0x0(%edi,%eiz,1),%edi
 1002b00:	eb fe                	jmp    1002b00 <ProcessMan_StartThread+0x30>
 1002b02:	5d                   	pop    %ebp
 1002b03:	c3                   	ret    
 1002b04:	66 90                	xchg   %ax,%ax
 1002b06:	66 90                	xchg   %ax,%ax
 1002b08:	66 90                	xchg   %ax,%ax
 1002b0a:	66 90                	xchg   %ax,%ax
 1002b0c:	66 90                	xchg   %ax,%ax
 1002b0e:	66 90                	xchg   %ax,%ax

01002b10 <ThreadMan_Setup>:
 1002b10:	55                   	push   %ebp
 1002b11:	89 e5                	mov    %esp,%ebp
 1002b13:	83 ec 08             	sub    $0x8,%esp
 1002b16:	e8 15 e8 ff ff       	call   1001330 <SysMan_RegisterSystem>
 1002b1b:	a3 b0 4c 27 05       	mov    %eax,0x5274cb0
 1002b20:	89 04 24             	mov    %eax,(%esp)
 1002b23:	c7 44 24 04 d2 83 00 	movl   $0x10083d2,0x4(%esp)
 1002b2a:	01 
 1002b2b:	e8 d0 d6 ff ff       	call   1000200 <strcpy>
 1002b30:	e8 7b f2 ff ff       	call   1001db0 <Interrupts_GetSysID>
 1002b35:	8b 0d b0 4c 27 05    	mov    0x5274cb0,%ecx
 1002b3b:	89 51 14             	mov    %edx,0x14(%ecx)
 1002b3e:	89 41 10             	mov    %eax,0x10(%ecx)
 1002b41:	c7 41 1c 00 00 00 00 	movl   $0x0,0x1c(%ecx)
 1002b48:	c7 41 18 00 00 00 00 	movl   $0x0,0x18(%ecx)
 1002b4f:	c7 81 08 01 00 00 40 	movl   $0x1002c40,0x108(%ecx)
 1002b56:	2c 00 01 
 1002b59:	a1 b0 4c 27 05       	mov    0x5274cb0,%eax
 1002b5e:	c7 80 0c 01 00 00 00 	movl   $0x0,0x10c(%eax)
 1002b65:	00 00 00 
 1002b68:	a1 b0 4c 27 05       	mov    0x5274cb0,%eax
 1002b6d:	c7 80 10 01 00 00 a0 	movl   $0x1002ba0,0x110(%eax)
 1002b74:	2b 00 01 
 1002b77:	a1 b0 4c 27 05       	mov    0x5274cb0,%eax
 1002b7c:	8b 88 14 01 00 00    	mov    0x114(%eax),%ecx
 1002b82:	8b 80 18 01 00 00    	mov    0x118(%eax),%eax
 1002b88:	89 44 24 04          	mov    %eax,0x4(%esp)
 1002b8c:	89 0c 24             	mov    %ecx,(%esp)
 1002b8f:	e8 bc e8 ff ff       	call   1001450 <SysMan_StartSystem>
 1002b94:	83 c4 08             	add    $0x8,%esp
 1002b97:	5d                   	pop    %ebp
 1002b98:	c3                   	ret    
 1002b99:	8d b4 26 00 00 00 00 	lea    0x0(%esi,%eiz,1),%esi

01002ba0 <threadMan_messageHandler>:
 1002ba0:	55                   	push   %ebp
 1002ba1:	89 e5                	mov    %esp,%ebp
 1002ba3:	31 c0                	xor    %eax,%eax
 1002ba5:	5d                   	pop    %ebp
 1002ba6:	c3                   	ret    
 1002ba7:	89 f6                	mov    %esi,%esi
 1002ba9:	8d bc 27 00 00 00 00 	lea    0x0(%edi,%eiz,1),%edi

01002bb0 <threadMan_InterruptHandler>:
 1002bb0:	55                   	push   %ebp
 1002bb1:	89 e5                	mov    %esp,%ebp
 1002bb3:	56                   	push   %esi
 1002bb4:	a1 20 b8 05 04       	mov    0x405b820,%eax
 1002bb9:	85 c0                	test   %eax,%eax
 1002bbb:	74 78                	je     1002c35 <threadMan_InterruptHandler+0x85>
 1002bbd:	8b 4d 08             	mov    0x8(%ebp),%ecx
 1002bc0:	8b 90 54 02 00 00    	mov    0x254(%eax),%edx
 1002bc6:	85 d2                	test   %edx,%edx
 1002bc8:	0f 44 15 20 50 05 04 	cmove  0x4055020,%edx
 1002bcf:	0f 10 01             	movups (%ecx),%xmm0
 1002bd2:	0f 11 80 04 02 00 00 	movups %xmm0,0x204(%eax)
 1002bd9:	0f 10 41 10          	movups 0x10(%ecx),%xmm0
 1002bdd:	0f 11 80 14 02 00 00 	movups %xmm0,0x214(%eax)
 1002be4:	0f 10 41 20          	movups 0x20(%ecx),%xmm0
 1002be8:	0f 11 80 24 02 00 00 	movups %xmm0,0x224(%eax)
 1002bef:	0f 10 41 30          	movups 0x30(%ecx),%xmm0
 1002bf3:	0f 11 80 34 02 00 00 	movups %xmm0,0x234(%eax)
 1002bfa:	0f 20 de             	mov    %cr3,%esi
 1002bfd:	89 30                	mov    %esi,(%eax)
 1002bff:	0f 10 82 04 02 00 00 	movups 0x204(%edx),%xmm0
 1002c06:	0f 11 01             	movups %xmm0,(%ecx)
 1002c09:	0f 10 82 14 02 00 00 	movups 0x214(%edx),%xmm0
 1002c10:	0f 11 41 10          	movups %xmm0,0x10(%ecx)
 1002c14:	0f 10 82 24 02 00 00 	movups 0x224(%edx),%xmm0
 1002c1b:	0f 11 41 20          	movups %xmm0,0x20(%ecx)
 1002c1f:	0f 10 82 34 02 00 00 	movups 0x234(%edx),%xmm0
 1002c26:	0f 11 41 30          	movups %xmm0,0x30(%ecx)
 1002c2a:	8b 02                	mov    (%edx),%eax
 1002c2c:	0f 22 d8             	mov    %eax,%cr3
 1002c2f:	89 15 20 b8 05 04    	mov    %edx,0x405b820
 1002c35:	b8 01 00 00 00       	mov    $0x1,%eax
 1002c3a:	5e                   	pop    %esi
 1002c3b:	5d                   	pop    %ebp
 1002c3c:	c3                   	ret    
 1002c3d:	8d 76 00             	lea    0x0(%esi),%esi

01002c40 <threadMan_Initialize>:
 1002c40:	55                   	push   %ebp
 1002c41:	89 e5                	mov    %esp,%ebp
 1002c43:	57                   	push   %edi
 1002c44:	56                   	push   %esi
 1002c45:	83 ec 0c             	sub    $0xc,%esp
 1002c48:	c7 05 20 b8 05 04 00 	movl   $0x0,0x405b820
 1002c4f:	00 00 00 
 1002c52:	c7 05 20 50 05 04 00 	movl   $0x0,0x4055020
 1002c59:	00 00 00 
 1002c5c:	c7 44 24 08 b0 2b 00 	movl   $0x1002bb0,0x8(%esp)
 1002c63:	01 
 1002c64:	c7 44 24 04 00 00 00 	movl   $0x0,0x4(%esp)
 1002c6b:	00 
 1002c6c:	c7 04 24 30 00 00 00 	movl   $0x30,(%esp)
 1002c73:	e8 18 f0 ff ff       	call   1001c90 <Interrupts_RegisterHandler>
 1002c78:	e8 33 d4 ff ff       	call   10000b0 <interrupts_lock>
 1002c7d:	c7 04 24 58 02 00 00 	movl   $0x258,(%esp)
 1002c84:	e8 57 3b 00 00       	call   10067e0 <kmalloc>
 1002c89:	89 c6                	mov    %eax,%esi
 1002c8b:	89 74 24 04          	mov    %esi,0x4(%esp)
 1002c8f:	c7 04 24 dc 83 00 01 	movl   $0x10083dc,(%esp)
 1002c96:	e8 85 39 00 00       	call   1006620 <COM_WriteStr>
 1002c9b:	a1 bc 4c 27 05       	mov    0x5274cbc,%eax
 1002ca0:	8b 0d b8 4c 27 05    	mov    0x5274cb8,%ecx
 1002ca6:	89 ca                	mov    %ecx,%edx
 1002ca8:	83 c2 01             	add    $0x1,%edx
 1002cab:	89 c7                	mov    %eax,%edi
 1002cad:	83 d7 00             	adc    $0x0,%edi
 1002cb0:	89 15 b8 4c 27 05    	mov    %edx,0x5274cb8
 1002cb6:	89 3d bc 4c 27 05    	mov    %edi,0x5274cbc
 1002cbc:	89 86 48 02 00 00    	mov    %eax,0x248(%esi)
 1002cc2:	89 8e 44 02 00 00    	mov    %ecx,0x244(%esi)
 1002cc8:	c7 86 50 02 00 00 00 	movl   $0x0,0x250(%esi)
 1002ccf:	00 00 00 
 1002cd2:	c7 86 4c 02 00 00 01 	movl   $0x1,0x24c(%esi)
 1002cd9:	00 00 00 
 1002cdc:	e8 6f 0a 00 00       	call   1003750 <virtMemMan_CreateInstance>
 1002ce1:	89 06                	mov    %eax,(%esi)
 1002ce3:	8d 86 04 02 00 00    	lea    0x204(%esi),%eax
 1002ce9:	89 04 24             	mov    %eax,(%esp)
 1002cec:	c7 44 24 08 40 00 00 	movl   $0x40,0x8(%esp)
 1002cf3:	00 
 1002cf4:	c7 44 24 04 00 00 00 	movl   $0x0,0x4(%esp)
 1002cfb:	00 
 1002cfc:	e8 ff d3 ff ff       	call   1000100 <memset>
 1002d01:	8d 46 04             	lea    0x4(%esi),%eax
 1002d04:	89 04 24             	mov    %eax,(%esp)
 1002d07:	c7 44 24 08 00 02 00 	movl   $0x200,0x8(%esp)
 1002d0e:	00 
 1002d0f:	c7 44 24 04 00 00 00 	movl   $0x0,0x4(%esp)
 1002d16:	00 
 1002d17:	e8 e4 d3 ff ff       	call   1000100 <memset>
 1002d1c:	c7 86 30 02 00 00 00 	movl   $0x1006d00,0x230(%esi)
 1002d23:	6d 00 01 
 1002d26:	c7 04 24 00 40 00 00 	movl   $0x4000,(%esp)
 1002d2d:	e8 ae 3a 00 00       	call   10067e0 <kmalloc>
 1002d32:	89 86 14 02 00 00    	mov    %eax,0x214(%esi)
 1002d38:	a1 20 50 05 04       	mov    0x4055020,%eax
 1002d3d:	85 c0                	test   %eax,%eax
 1002d3f:	74 08                	je     1002d49 <threadMan_Initialize+0x109>
 1002d41:	89 b0 54 02 00 00    	mov    %esi,0x254(%eax)
 1002d47:	eb 10                	jmp    1002d59 <threadMan_Initialize+0x119>
 1002d49:	89 35 20 50 05 04    	mov    %esi,0x4055020
 1002d4f:	c7 86 54 02 00 00 00 	movl   $0x0,0x254(%esi)
 1002d56:	00 00 00 
 1002d59:	a1 20 50 05 04       	mov    0x4055020,%eax
 1002d5e:	a3 2c b8 05 04       	mov    %eax,0x405b82c
 1002d63:	e8 58 d3 ff ff       	call   10000c0 <interrupts_unlock>
 1002d68:	31 c0                	xor    %eax,%eax
 1002d6a:	83 c4 0c             	add    $0xc,%esp
 1002d6d:	5e                   	pop    %esi
 1002d6e:	5f                   	pop    %edi
 1002d6f:	5d                   	pop    %ebp
 1002d70:	c3                   	ret    
 1002d71:	eb 0d                	jmp    1002d80 <ThreadMan_CreateThread>
 1002d73:	90                   	nop
 1002d74:	90                   	nop
 1002d75:	90                   	nop
 1002d76:	90                   	nop
 1002d77:	90                   	nop
 1002d78:	90                   	nop
 1002d79:	90                   	nop
 1002d7a:	90                   	nop
 1002d7b:	90                   	nop
 1002d7c:	90                   	nop
 1002d7d:	90                   	nop
 1002d7e:	90                   	nop
 1002d7f:	90                   	nop

01002d80 <ThreadMan_CreateThread>:
 1002d80:	55                   	push   %ebp
 1002d81:	89 e5                	mov    %esp,%ebp
 1002d83:	53                   	push   %ebx
 1002d84:	57                   	push   %edi
 1002d85:	56                   	push   %esi
 1002d86:	83 ec 0c             	sub    $0xc,%esp
 1002d89:	8b 5d 14             	mov    0x14(%ebp),%ebx
 1002d8c:	8b 7d 18             	mov    0x18(%ebp),%edi
 1002d8f:	e8 1c d3 ff ff       	call   10000b0 <interrupts_lock>
 1002d94:	c7 04 24 58 02 00 00 	movl   $0x258,(%esp)
 1002d9b:	e8 40 3a 00 00       	call   10067e0 <kmalloc>
 1002da0:	89 c6                	mov    %eax,%esi
 1002da2:	89 74 24 04          	mov    %esi,0x4(%esp)
 1002da6:	c7 04 24 dc 83 00 01 	movl   $0x10083dc,(%esp)
 1002dad:	e8 6e 38 00 00       	call   1006620 <COM_WriteStr>
 1002db2:	a1 bc 4c 27 05       	mov    0x5274cbc,%eax
 1002db7:	8b 0d b8 4c 27 05    	mov    0x5274cb8,%ecx
 1002dbd:	89 ca                	mov    %ecx,%edx
 1002dbf:	83 c2 01             	add    $0x1,%edx
 1002dc2:	89 15 b8 4c 27 05    	mov    %edx,0x5274cb8
 1002dc8:	89 c2                	mov    %eax,%edx
 1002dca:	83 d2 00             	adc    $0x0,%edx
 1002dcd:	89 15 bc 4c 27 05    	mov    %edx,0x5274cbc
 1002dd3:	89 86 48 02 00 00    	mov    %eax,0x248(%esi)
 1002dd9:	89 8e 44 02 00 00    	mov    %ecx,0x244(%esi)
 1002ddf:	89 be 50 02 00 00    	mov    %edi,0x250(%esi)
 1002de5:	89 9e 4c 02 00 00    	mov    %ebx,0x24c(%esi)
 1002deb:	e8 60 09 00 00       	call   1003750 <virtMemMan_CreateInstance>
 1002df0:	89 06                	mov    %eax,(%esi)
 1002df2:	f6 c3 02             	test   $0x2,%bl
 1002df5:	74 08                	je     1002dff <ThreadMan_CreateThread+0x7f>
 1002df7:	89 04 24             	mov    %eax,(%esp)
 1002dfa:	e8 31 0b 00 00       	call   1003930 <virtMemMan_ForkCurrent>
 1002dff:	8d 86 04 02 00 00    	lea    0x204(%esi),%eax
 1002e05:	89 04 24             	mov    %eax,(%esp)
 1002e08:	c7 44 24 08 40 00 00 	movl   $0x40,0x8(%esp)
 1002e0f:	00 
 1002e10:	c7 44 24 04 00 00 00 	movl   $0x0,0x4(%esp)
 1002e17:	00 
 1002e18:	e8 e3 d2 ff ff       	call   1000100 <memset>
 1002e1d:	8d 46 04             	lea    0x4(%esi),%eax
 1002e20:	89 04 24             	mov    %eax,(%esp)
 1002e23:	c7 44 24 08 00 02 00 	movl   $0x200,0x8(%esp)
 1002e2a:	00 
 1002e2b:	c7 44 24 04 00 00 00 	movl   $0x0,0x4(%esp)
 1002e32:	00 
 1002e33:	e8 c8 d2 ff ff       	call   1000100 <memset>
 1002e38:	8b 45 08             	mov    0x8(%ebp),%eax
 1002e3b:	89 86 30 02 00 00    	mov    %eax,0x230(%esi)
 1002e41:	c7 04 24 00 40 00 00 	movl   $0x4000,(%esp)
 1002e48:	e8 93 39 00 00       	call   10067e0 <kmalloc>
 1002e4d:	89 86 14 02 00 00    	mov    %eax,0x214(%esi)
 1002e53:	a1 20 50 05 04       	mov    0x4055020,%eax
 1002e58:	85 c0                	test   %eax,%eax
 1002e5a:	74 08                	je     1002e64 <ThreadMan_CreateThread+0xe4>
 1002e5c:	89 b0 54 02 00 00    	mov    %esi,0x254(%eax)
 1002e62:	eb 10                	jmp    1002e74 <ThreadMan_CreateThread+0xf4>
 1002e64:	89 35 20 50 05 04    	mov    %esi,0x4055020
 1002e6a:	c7 86 54 02 00 00 00 	movl   $0x0,0x254(%esi)
 1002e71:	00 00 00 
 1002e74:	a1 20 50 05 04       	mov    0x4055020,%eax
 1002e79:	a3 2c b8 05 04       	mov    %eax,0x405b82c
 1002e7e:	e8 3d d2 ff ff       	call   10000c0 <interrupts_unlock>
 1002e83:	8b 86 44 02 00 00    	mov    0x244(%esi),%eax
 1002e89:	8b 96 48 02 00 00    	mov    0x248(%esi),%edx
 1002e8f:	83 c4 0c             	add    $0xc,%esp
 1002e92:	5e                   	pop    %esi
 1002e93:	5f                   	pop    %edi
 1002e94:	5b                   	pop    %ebx
 1002e95:	5d                   	pop    %ebp
 1002e96:	c3                   	ret    
 1002e97:	89 f6                	mov    %esi,%esi
 1002e99:	8d bc 27 00 00 00 00 	lea    0x0(%edi,%eiz,1),%edi

01002ea0 <ThreadMan_StartThread>:
 1002ea0:	55                   	push   %ebp
 1002ea1:	89 e5                	mov    %esp,%ebp
 1002ea3:	5d                   	pop    %ebp
 1002ea4:	c3                   	ret    
 1002ea5:	8d 74 26 00          	lea    0x0(%esi,%eiz,1),%esi
 1002ea9:	8d bc 27 00 00 00 00 	lea    0x0(%edi,%eiz,1),%edi

01002eb0 <ThreadMan_ExitThread>:
 1002eb0:	55                   	push   %ebp
 1002eb1:	89 e5                	mov    %esp,%ebp
 1002eb3:	5d                   	pop    %ebp
 1002eb4:	c3                   	ret    
 1002eb5:	8d 74 26 00          	lea    0x0(%esi,%eiz,1),%esi
 1002eb9:	8d bc 27 00 00 00 00 	lea    0x0(%edi,%eiz,1),%edi

01002ec0 <ThreadMan_DeleteThread>:
 1002ec0:	55                   	push   %ebp
 1002ec1:	89 e5                	mov    %esp,%ebp
 1002ec3:	5d                   	pop    %ebp
 1002ec4:	c3                   	ret    
 1002ec5:	66 90                	xchg   %ax,%ax
 1002ec7:	66 90                	xchg   %ax,%ax
 1002ec9:	66 90                	xchg   %ax,%ax
 1002ecb:	66 90                	xchg   %ax,%ax
 1002ecd:	66 90                	xchg   %ax,%ax
 1002ecf:	90                   	nop

01002ed0 <Timers_Setup>:
 1002ed0:	55                   	push   %ebp
 1002ed1:	89 e5                	mov    %esp,%ebp
 1002ed3:	83 ec 08             	sub    $0x8,%esp
 1002ed6:	e8 55 e4 ff ff       	call   1001330 <SysMan_RegisterSystem>
 1002edb:	a3 c0 4c 27 05       	mov    %eax,0x5274cc0
 1002ee0:	89 04 24             	mov    %eax,(%esp)
 1002ee3:	c7 44 24 04 ef 83 00 	movl   $0x10083ef,0x4(%esp)
 1002eea:	01 
 1002eeb:	e8 10 d3 ff ff       	call   1000200 <strcpy>
 1002ef0:	e8 bb ee ff ff       	call   1001db0 <Interrupts_GetSysID>
 1002ef5:	8b 0d c0 4c 27 05    	mov    0x5274cc0,%ecx
 1002efb:	89 51 14             	mov    %edx,0x14(%ecx)
 1002efe:	89 41 10             	mov    %eax,0x10(%ecx)
 1002f01:	c7 41 1c 00 00 00 00 	movl   $0x0,0x1c(%ecx)
 1002f08:	c7 41 18 00 00 00 00 	movl   $0x0,0x18(%ecx)
 1002f0f:	c7 81 08 01 00 00 80 	movl   $0x1002f80,0x108(%ecx)
 1002f16:	2f 00 01 
 1002f19:	a1 c0 4c 27 05       	mov    0x5274cc0,%eax
 1002f1e:	c7 80 0c 01 00 00 60 	movl   $0x1002f60,0x10c(%eax)
 1002f25:	2f 00 01 
 1002f28:	a1 c0 4c 27 05       	mov    0x5274cc0,%eax
 1002f2d:	c7 80 10 01 00 00 70 	movl   $0x1002f70,0x110(%eax)
 1002f34:	2f 00 01 
 1002f37:	a1 c0 4c 27 05       	mov    0x5274cc0,%eax
 1002f3c:	8b 88 14 01 00 00    	mov    0x114(%eax),%ecx
 1002f42:	8b 80 18 01 00 00    	mov    0x118(%eax),%eax
 1002f48:	89 44 24 04          	mov    %eax,0x4(%esp)
 1002f4c:	89 0c 24             	mov    %ecx,(%esp)
 1002f4f:	e8 fc e4 ff ff       	call   1001450 <SysMan_StartSystem>
 1002f54:	83 c4 08             	add    $0x8,%esp
 1002f57:	5d                   	pop    %ebp
 1002f58:	c3                   	ret    
 1002f59:	8d b4 26 00 00 00 00 	lea    0x0(%esi,%eiz,1),%esi

01002f60 <timers_callback>:
 1002f60:	55                   	push   %ebp
 1002f61:	89 e5                	mov    %esp,%ebp
 1002f63:	5d                   	pop    %ebp
 1002f64:	c3                   	ret    
 1002f65:	8d 74 26 00          	lea    0x0(%esi,%eiz,1),%esi
 1002f69:	8d bc 27 00 00 00 00 	lea    0x0(%edi,%eiz,1),%edi

01002f70 <timers_messageHandler>:
 1002f70:	55                   	push   %ebp
 1002f71:	89 e5                	mov    %esp,%ebp
 1002f73:	b8 ff 00 00 00       	mov    $0xff,%eax
 1002f78:	5d                   	pop    %ebp
 1002f79:	c3                   	ret    
 1002f7a:	8d b6 00 00 00 00    	lea    0x0(%esi),%esi

01002f80 <timers_Initialize>:
 1002f80:	55                   	push   %ebp
 1002f81:	89 e5                	mov    %esp,%ebp
 1002f83:	83 ec 0c             	sub    $0xc,%esp
 1002f86:	c7 44 24 08 e0 2f 00 	movl   $0x1002fe0,0x8(%esp)
 1002f8d:	01 
 1002f8e:	c7 44 24 04 00 00 00 	movl   $0x0,0x4(%esp)
 1002f95:	00 
 1002f96:	c7 04 24 20 00 00 00 	movl   $0x20,(%esp)
 1002f9d:	e8 ee ec ff ff       	call   1001c90 <Interrupts_RegisterHandler>
 1002fa2:	c7 44 24 08 00 80 00 	movl   $0x8000,0x8(%esp)
 1002fa9:	00 
 1002faa:	c7 44 24 04 00 00 00 	movl   $0x0,0x4(%esp)
 1002fb1:	00 
 1002fb2:	c7 04 24 30 b8 05 04 	movl   $0x405b830,(%esp)
 1002fb9:	e8 42 d1 ff ff       	call   1000100 <memset>
 1002fbe:	e8 ed 2f 00 00       	call   1005fb0 <PIT_Initialize>
 1002fc3:	c7 04 24 00 00 00 00 	movl   $0x0,(%esp)
 1002fca:	e8 c1 2f 00 00       	call   1005f90 <PIT_SetEnableMode>
 1002fcf:	e8 fc ed ff ff       	call   1001dd0 <Interrupts_IsAPICEnabled>
 1002fd4:	31 c0                	xor    %eax,%eax
 1002fd6:	83 c4 0c             	add    $0xc,%esp
 1002fd9:	5d                   	pop    %ebp
 1002fda:	c3                   	ret    
 1002fdb:	90                   	nop
 1002fdc:	8d 74 26 00          	lea    0x0(%esi,%eiz,1),%esi

01002fe0 <timer_handler>:
 1002fe0:	55                   	push   %ebp
 1002fe1:	89 e5                	mov    %esp,%ebp
 1002fe3:	56                   	push   %esi
 1002fe4:	83 ec 08             	sub    $0x8,%esp
 1002fe7:	be 00 80 ff ff       	mov    $0xffff8000,%esi
 1002fec:	8d 74 26 00          	lea    0x0(%esi,%eiz,1),%esi
 1002ff0:	83 be 30 38 06 04 00 	cmpl   $0x0,0x4063830(%esi)
 1002ff7:	74 47                	je     1003040 <timer_handler+0x60>
 1002ff9:	8b 86 34 38 06 04    	mov    0x4063834(%esi),%eax
 1002fff:	48                   	dec    %eax
 1003000:	89 86 34 38 06 04    	mov    %eax,0x4063834(%esi)
 1003006:	89 44 24 04          	mov    %eax,0x4(%esp)
 100300a:	c7 04 24 bc 84 00 01 	movl   $0x10084bc,(%esp)
 1003011:	e8 0a 36 00 00       	call   1006620 <COM_WriteStr>
 1003016:	83 be 34 38 06 04 00 	cmpl   $0x0,0x4063834(%esi)
 100301d:	75 21                	jne    1003040 <timer_handler+0x60>
 100301f:	8b 86 3c 38 06 04    	mov    0x406383c(%esi),%eax
 1003025:	85 c0                	test   %eax,%eax
 1003027:	74 02                	je     100302b <timer_handler+0x4b>
 1003029:	ff d0                	call   *%eax
 100302b:	80 be 38 38 06 04 00 	cmpb   $0x0,0x4063838(%esi)
 1003032:	74 0c                	je     1003040 <timer_handler+0x60>
 1003034:	8b 86 30 38 06 04    	mov    0x4063830(%esi),%eax
 100303a:	89 86 34 38 06 04    	mov    %eax,0x4063834(%esi)
 1003040:	83 c6 10             	add    $0x10,%esi
 1003043:	75 ab                	jne    1002ff0 <timer_handler+0x10>
 1003045:	83 c4 08             	add    $0x8,%esp
 1003048:	5e                   	pop    %esi
 1003049:	5d                   	pop    %ebp
 100304a:	c3                   	ret    
 100304b:	90                   	nop
 100304c:	8d 74 26 00          	lea    0x0(%esi,%eiz,1),%esi

01003050 <Timers_CreateNew>:
 1003050:	55                   	push   %ebp
 1003051:	89 e5                	mov    %esp,%ebp
 1003053:	53                   	push   %ebx
 1003054:	57                   	push   %edi
 1003055:	56                   	push   %esi
 1003056:	31 c9                	xor    %ecx,%ecx
 1003058:	be 30 b8 05 04       	mov    $0x405b830,%esi
 100305d:	8a 5d 0c             	mov    0xc(%ebp),%bl
 1003060:	8b 7d 08             	mov    0x8(%ebp),%edi
 1003063:	8d b6 00 00 00 00    	lea    0x0(%esi),%esi
 1003069:	8d bc 27 00 00 00 00 	lea    0x0(%edi,%eiz,1),%edi
 1003070:	83 3e 00             	cmpl   $0x0,(%esi)
 1003073:	74 18                	je     100308d <Timers_CreateNew+0x3d>
 1003075:	41                   	inc    %ecx
 1003076:	83 c6 10             	add    $0x10,%esi
 1003079:	b8 ff ff ff ff       	mov    $0xffffffff,%eax
 100307e:	81 f9 ff 07 00 00    	cmp    $0x7ff,%ecx
 1003084:	ba ff ff ff ff       	mov    $0xffffffff,%edx
 1003089:	7e e5                	jle    1003070 <Timers_CreateNew+0x20>
 100308b:	eb 29                	jmp    10030b6 <Timers_CreateNew+0x66>
 100308d:	89 ca                	mov    %ecx,%edx
 100308f:	c1 fa 1f             	sar    $0x1f,%edx
 1003092:	89 3e                	mov    %edi,(%esi)
 1003094:	89 c8                	mov    %ecx,%eax
 1003096:	05 00 00 00 80       	add    $0x80000000,%eax
 100309b:	83 d2 00             	adc    $0x0,%edx
 100309e:	c1 e1 04             	shl    $0x4,%ecx
 10030a1:	89 b9 34 b8 05 04    	mov    %edi,0x405b834(%ecx)
 10030a7:	88 99 38 b8 05 04    	mov    %bl,0x405b838(%ecx)
 10030ad:	8b 75 10             	mov    0x10(%ebp),%esi
 10030b0:	89 b1 3c b8 05 04    	mov    %esi,0x405b83c(%ecx)
 10030b6:	5e                   	pop    %esi
 10030b7:	5f                   	pop    %edi
 10030b8:	5b                   	pop    %ebx
 10030b9:	5d                   	pop    %ebp
 10030ba:	c3                   	ret    
 10030bb:	90                   	nop
 10030bc:	8d 74 26 00          	lea    0x0(%esi,%eiz,1),%esi

010030c0 <Timers_Delete>:
 10030c0:	55                   	push   %ebp
 10030c1:	89 e5                	mov    %esp,%ebp
 10030c3:	b8 00 00 00 80       	mov    $0x80000000,%eax
 10030c8:	03 45 08             	add    0x8(%ebp),%eax
 10030cb:	3d ff 07 00 00       	cmp    $0x7ff,%eax
 10030d0:	77 17                	ja     10030e9 <Timers_Delete+0x29>
 10030d2:	c1 e0 04             	shl    $0x4,%eax
 10030d5:	c7 80 30 b8 05 04 00 	movl   $0x0,0x405b830(%eax)
 10030dc:	00 00 00 
 10030df:	c7 80 34 b8 05 04 00 	movl   $0x0,0x405b834(%eax)
 10030e6:	00 00 00 
 10030e9:	5d                   	pop    %ebp
 10030ea:	c3                   	ret    
 10030eb:	90                   	nop
 10030ec:	8d 74 26 00          	lea    0x0(%esi,%eiz,1),%esi

010030f0 <Timers_StartTimer>:
 10030f0:	55                   	push   %ebp
 10030f1:	89 e5                	mov    %esp,%ebp
 10030f3:	50                   	push   %eax
 10030f4:	b8 00 00 00 80       	mov    $0x80000000,%eax
 10030f9:	03 45 08             	add    0x8(%ebp),%eax
 10030fc:	3d ff 07 00 00       	cmp    $0x7ff,%eax
 1003101:	77 18                	ja     100311b <Timers_StartTimer+0x2b>
 1003103:	c1 e0 04             	shl    $0x4,%eax
 1003106:	83 b8 30 b8 05 04 00 	cmpl   $0x0,0x405b830(%eax)
 100310d:	74 0c                	je     100311b <Timers_StartTimer+0x2b>
 100310f:	c7 04 24 01 00 00 00 	movl   $0x1,(%esp)
 1003116:	e8 75 2e 00 00       	call   1005f90 <PIT_SetEnableMode>
 100311b:	83 c4 04             	add    $0x4,%esp
 100311e:	5d                   	pop    %ebp
 100311f:	c3                   	ret    

01003120 <virtMemMan_Setup>:
 1003120:	55                   	push   %ebp
 1003121:	89 e5                	mov    %esp,%ebp
 1003123:	83 ec 08             	sub    $0x8,%esp
 1003126:	e8 05 e2 ff ff       	call   1001330 <SysMan_RegisterSystem>
 100312b:	a3 c4 4c 27 05       	mov    %eax,0x5274cc4
 1003130:	89 04 24             	mov    %eax,(%esp)
 1003133:	c7 44 24 04 f8 83 00 	movl   $0x10083f8,0x4(%esp)
 100313a:	01 
 100313b:	e8 c0 d0 ff ff       	call   1000200 <strcpy>
 1003140:	a1 c4 4c 27 05       	mov    0x5274cc4,%eax
 1003145:	c7 40 14 00 00 00 00 	movl   $0x0,0x14(%eax)
 100314c:	c7 40 10 00 00 00 00 	movl   $0x0,0x10(%eax)
 1003153:	c7 80 08 01 00 00 c0 	movl   $0x10031c0,0x108(%eax)
 100315a:	31 00 01 
 100315d:	a1 c4 4c 27 05       	mov    0x5274cc4,%eax
 1003162:	c7 80 0c 01 00 00 a0 	movl   $0x10031a0,0x10c(%eax)
 1003169:	31 00 01 
 100316c:	a1 c4 4c 27 05       	mov    0x5274cc4,%eax
 1003171:	c7 80 10 01 00 00 b0 	movl   $0x10031b0,0x110(%eax)
 1003178:	31 00 01 
 100317b:	a1 c4 4c 27 05       	mov    0x5274cc4,%eax
 1003180:	8b 88 14 01 00 00    	mov    0x114(%eax),%ecx
 1003186:	8b 80 18 01 00 00    	mov    0x118(%eax),%eax
 100318c:	89 44 24 04          	mov    %eax,0x4(%esp)
 1003190:	89 0c 24             	mov    %ecx,(%esp)
 1003193:	e8 b8 e2 ff ff       	call   1001450 <SysMan_StartSystem>
 1003198:	83 c4 08             	add    $0x8,%esp
 100319b:	5d                   	pop    %ebp
 100319c:	c3                   	ret    
 100319d:	8d 76 00             	lea    0x0(%esi),%esi

010031a0 <virtMemMan_callback>:
 10031a0:	55                   	push   %ebp
 10031a1:	89 e5                	mov    %esp,%ebp
 10031a3:	5d                   	pop    %ebp
 10031a4:	c3                   	ret    
 10031a5:	8d 74 26 00          	lea    0x0(%esi,%eiz,1),%esi
 10031a9:	8d bc 27 00 00 00 00 	lea    0x0(%edi,%eiz,1),%edi

010031b0 <virtMemMan_messageHandler>:
 10031b0:	55                   	push   %ebp
 10031b1:	89 e5                	mov    %esp,%ebp
 10031b3:	31 c0                	xor    %eax,%eax
 10031b5:	5d                   	pop    %ebp
 10031b6:	c3                   	ret    
 10031b7:	89 f6                	mov    %esi,%esi
 10031b9:	8d bc 27 00 00 00 00 	lea    0x0(%edi,%eiz,1),%edi

010031c0 <virtMemMan_Initialize>:
 10031c0:	55                   	push   %ebp
 10031c1:	89 e5                	mov    %esp,%ebp
 10031c3:	83 ec 1c             	sub    $0x1c,%esp
 10031c6:	c7 44 24 08 00 00 00 	movl   $0x0,0x8(%esp)
 10031cd:	00 
 10031ce:	c7 44 24 04 06 04 00 	movl   $0x1000406,0x4(%esp)
 10031d5:	01 
 10031d6:	c7 04 24 77 02 00 00 	movl   $0x277,(%esp)
 10031dd:	e8 ae ce ff ff       	call   1000090 <wrmsr>
 10031e2:	c7 44 24 08 00 00 20 	movl   $0x1200000,0x8(%esp)
 10031e9:	01 
 10031ea:	c7 44 24 04 ff 00 00 	movl   $0xff,0x4(%esp)
 10031f1:	00 
 10031f2:	c7 04 24 00 40 06 04 	movl   $0x4064000,(%esp)
 10031f9:	e8 02 cf ff ff       	call   1000100 <memset>
 10031fe:	c7 44 24 08 00 c0 00 	movl   $0xc000,0x8(%esp)
 1003205:	00 
 1003206:	c7 44 24 04 ff 00 00 	movl   $0xff,0x4(%esp)
 100320d:	00 
 100320e:	c7 04 24 00 40 26 05 	movl   $0x5264000,(%esp)
 1003215:	e8 e6 ce ff ff       	call   1000100 <memset>
 100321a:	31 c0                	xor    %eax,%eax
 100321c:	8d 74 26 00          	lea    0x0(%esi,%eiz,1),%esi
 1003220:	8b 88 00 40 06 04    	mov    0x4064000(%eax),%ecx
 1003226:	23 88 04 40 06 04    	and    0x4064004(%eax),%ecx
 100322c:	83 f9 ff             	cmp    $0xffffffff,%ecx
 100322f:	74 13                	je     1003244 <virtMemMan_Initialize+0x84>
 1003231:	05 00 10 00 00       	add    $0x1000,%eax
 1003236:	b9 ff ff ff ff       	mov    $0xffffffff,%ecx
 100323b:	3d ff ff 1f 01       	cmp    $0x11fffff,%eax
 1003240:	76 de                	jbe    1003220 <virtMemMan_Initialize+0x60>
 1003242:	eb 06                	jmp    100324a <virtMemMan_Initialize+0x8a>
 1003244:	8d 88 00 40 06 04    	lea    0x4064000(%eax),%ecx
 100324a:	89 0d 04 00 27 05    	mov    %ecx,0x5270004
 1003250:	89 0c 24             	mov    %ecx,(%esp)
 1003253:	c7 44 24 08 00 10 00 	movl   $0x1000,0x8(%esp)
 100325a:	00 
 100325b:	c7 44 24 04 00 00 00 	movl   $0x0,0x4(%esp)
 1003262:	00 
 1003263:	e8 98 ce ff ff       	call   1000100 <memset>
 1003268:	e8 e3 04 00 00       	call   1003750 <virtMemMan_CreateInstance>
 100326d:	a3 00 00 27 05       	mov    %eax,0x5270000
 1003272:	c7 44 24 18 00 00 00 	movl   $0x0,0x18(%esp)
 1003279:	00 
 100327a:	c7 44 24 14 07 00 00 	movl   $0x7,0x14(%esp)
 1003281:	00 
 1003282:	c7 44 24 10 01 00 00 	movl   $0x1,0x10(%esp)
 1003289:	00 
 100328a:	c7 44 24 0c 00 00 00 	movl   $0xf000000,0xc(%esp)
 1003291:	0f 
 1003292:	c7 44 24 08 00 00 00 	movl   $0x0,0x8(%esp)
 1003299:	00 
 100329a:	c7 44 24 04 00 00 00 	movl   $0x1000000,0x4(%esp)
 10032a1:	01 
 10032a2:	c7 04 24 00 00 00 01 	movl   $0x1000000,(%esp)
 10032a9:	e8 92 00 00 00       	call   1003340 <virtMemMan_Map>
 10032ae:	c7 44 24 18 00 00 00 	movl   $0x0,0x18(%esp)
 10032b5:	00 
 10032b6:	c7 44 24 14 07 00 00 	movl   $0x7,0x14(%esp)
 10032bd:	00 
 10032be:	c7 44 24 10 01 00 00 	movl   $0x1,0x10(%esp)
 10032c5:	00 
 10032c6:	c7 44 24 0c 00 00 00 	movl   $0x10000000,0xc(%esp)
 10032cd:	10 
 10032ce:	c7 44 24 08 00 00 00 	movl   $0x0,0x8(%esp)
 10032d5:	00 
 10032d6:	c7 44 24 04 00 00 00 	movl   $0xf0000000,0x4(%esp)
 10032dd:	f0 
 10032de:	c7 04 24 00 00 00 10 	movl   $0x10000000,(%esp)
 10032e5:	e8 56 00 00 00       	call   1003340 <virtMemMan_Map>
 10032ea:	c7 04 24 80 00 00 c0 	movl   $0xc0000080,(%esp)
 10032f1:	e8 aa cd ff ff       	call   10000a0 <rdmsr>
 10032f6:	0d 00 08 00 00       	or     $0x800,%eax
 10032fb:	89 54 24 08          	mov    %edx,0x8(%esp)
 10032ff:	89 44 24 04          	mov    %eax,0x4(%esp)
 1003303:	c7 04 24 80 00 00 c0 	movl   $0xc0000080,(%esp)
 100330a:	e8 81 cd ff ff       	call   1000090 <wrmsr>
 100330f:	0f 20 e0             	mov    %cr4,%eax
 1003312:	83 c8 10             	or     $0x10,%eax
 1003315:	0f 22 e0             	mov    %eax,%cr4
 1003318:	0f 20 e0             	mov    %cr4,%eax
 100331b:	0f ba e8 05          	bts    $0x5,%eax
 100331f:	0f 22 e0             	mov    %eax,%cr4
 1003322:	a1 00 00 27 05       	mov    0x5270000,%eax
 1003327:	0f 22 d8             	mov    %eax,%cr3
 100332a:	0f 20 c0             	mov    %cr0,%eax
 100332d:	0d 00 00 00 80       	or     $0x80000000,%eax
 1003332:	0f 22 c0             	mov    %eax,%cr0
 1003335:	31 c0                	xor    %eax,%eax
 1003337:	83 c4 1c             	add    $0x1c,%esp
 100333a:	5d                   	pop    %ebp
 100333b:	c3                   	ret    
 100333c:	8d 74 26 00          	lea    0x0(%esi,%eiz,1),%esi

01003340 <virtMemMan_Map>:
 1003340:	55                   	push   %ebp
 1003341:	89 e5                	mov    %esp,%ebp
 1003343:	53                   	push   %ebx
 1003344:	57                   	push   %edi
 1003345:	56                   	push   %esi
 1003346:	83 e4 f0             	and    $0xfffffff0,%esp
 1003349:	83 ec 50             	sub    $0x50,%esp
 100334c:	8b 4d 14             	mov    0x14(%ebp),%ecx
 100334f:	b8 ff ff ff ff       	mov    $0xffffffff,%eax
 1003354:	85 c9                	test   %ecx,%ecx
 1003356:	0f 84 b3 03 00 00    	je     100370f <virtMemMan_Map+0x3cf>
 100335c:	8b 75 08             	mov    0x8(%ebp),%esi
 100335f:	b8 fe ff ff ff       	mov    $0xfffffffe,%eax
 1003364:	81 fe ff ff ff 3f    	cmp    $0x3fffffff,%esi
 100336a:	77 0a                	ja     1003376 <virtMemMan_Map+0x36>
 100336c:	83 7d 20 00          	cmpl   $0x0,0x20(%ebp)
 1003370:	0f 85 99 03 00 00    	jne    100370f <virtMemMan_Map+0x3cf>
 1003376:	81 fe 01 00 00 40    	cmp    $0x40000001,%esi
 100337c:	72 0a                	jb     1003388 <virtMemMan_Map+0x48>
 100337e:	83 7d 20 01          	cmpl   $0x1,0x20(%ebp)
 1003382:	0f 85 87 03 00 00    	jne    100370f <virtMemMan_Map+0x3cf>
 1003388:	8d 04 31             	lea    (%ecx,%esi,1),%eax
 100338b:	3d 01 00 00 40       	cmp    $0x40000001,%eax
 1003390:	72 11                	jb     10033a3 <virtMemMan_Map+0x63>
 1003392:	b8 fd ff ff ff       	mov    $0xfffffffd,%eax
 1003397:	81 fe 00 00 00 40    	cmp    $0x40000000,%esi
 100339d:	0f 82 6c 03 00 00    	jb     100370f <virtMemMan_Map+0x3cf>
 10033a3:	89 f2                	mov    %esi,%edx
 10033a5:	c1 ea 1e             	shr    $0x1e,%edx
 10033a8:	89 d7                	mov    %edx,%edi
 10033aa:	c1 e7 1e             	shl    $0x1e,%edi
 10033ad:	31 c0                	xor    %eax,%eax
 10033af:	89 f3                	mov    %esi,%ebx
 10033b1:	29 fb                	sub    %edi,%ebx
 10033b3:	be 00 00 00 00       	mov    $0x0,%esi
 10033b8:	83 de 00             	sbb    $0x0,%esi
 10033bb:	89 f7                	mov    %esi,%edi
 10033bd:	0f a4 df 0b          	shld   $0xb,%ebx,%edi
 10033c1:	89 7c 24 30          	mov    %edi,0x30(%esp)
 10033c5:	0f a4 de 14          	shld   $0x14,%ebx,%esi
 10033c9:	8b 5d 0c             	mov    0xc(%ebp),%ebx
 10033cc:	81 e6 ff 01 f0 ff    	and    $0xfff001ff,%esi
 10033d2:	81 f9 00 10 00 00    	cmp    $0x1000,%ecx
 10033d8:	75 57                	jne    1003431 <virtMemMan_Map+0xf1>
 10033da:	8b 0d 00 00 27 05    	mov    0x5270000,%ecx
 10033e0:	8b 7c d1 04          	mov    0x4(%ecx,%edx,8),%edi
 10033e4:	89 7c 24 28          	mov    %edi,0x28(%esp)
 10033e8:	8b 3c d1             	mov    (%ecx,%edx,8),%edi
 10033eb:	89 7c 24 2c          	mov    %edi,0x2c(%esp)
 10033ef:	83 cf 01             	or     $0x1,%edi
 10033f2:	8b 5c 24 28          	mov    0x28(%esp),%ebx
 10033f6:	89 5c d1 04          	mov    %ebx,0x4(%ecx,%edx,8)
 10033fa:	89 3c d1             	mov    %edi,(%ecx,%edx,8)
 10033fd:	8b 54 24 2c          	mov    0x2c(%esp),%edx
 1003401:	81 e2 00 f0 ff ff    	and    $0xfffff000,%edx
 1003407:	8b 4c 24 30          	mov    0x30(%esp),%ecx
 100340b:	8b 0c ca             	mov    (%edx,%ecx,8),%ecx
 100340e:	f6 c1 01             	test   $0x1,%cl
 1003411:	0f 84 07 02 00 00    	je     100361e <virtMemMan_Map+0x2de>
 1003417:	89 4c 24 28          	mov    %ecx,0x28(%esp)
 100341b:	8b 55 20             	mov    0x20(%ebp),%edx
 100341e:	c1 e2 02             	shl    $0x2,%edx
 1003421:	83 e2 04             	and    $0x4,%edx
 1003424:	c7 44 24 24 00 00 00 	movl   $0x0,0x24(%esp)
 100342b:	00 
 100342c:	e9 76 02 00 00       	jmp    10036a7 <virtMemMan_Map+0x367>
 1003431:	81 f9 00 00 20 00    	cmp    $0x200000,%ecx
 1003437:	0f 85 81 00 00 00    	jne    10034be <virtMemMan_Map+0x17e>
 100343d:	8b 0d 00 00 27 05    	mov    0x5270000,%ecx
 1003443:	8b 7c d1 04          	mov    0x4(%ecx,%edx,8),%edi
 1003447:	8b 04 d1             	mov    (%ecx,%edx,8),%eax
 100344a:	89 7c d1 04          	mov    %edi,0x4(%ecx,%edx,8)
 100344e:	89 c7                	mov    %eax,%edi
 1003450:	83 cf 01             	or     $0x1,%edi
 1003453:	89 3c d1             	mov    %edi,(%ecx,%edx,8)
 1003456:	81 e3 00 00 e0 ff    	and    $0xffe00000,%ebx
 100345c:	8b 4d 20             	mov    0x20(%ebp),%ecx
 100345f:	89 ca                	mov    %ecx,%edx
 1003461:	c1 e2 02             	shl    $0x2,%edx
 1003464:	83 e2 04             	and    $0x4,%edx
 1003467:	09 da                	or     %ebx,%edx
 1003469:	25 00 f0 ff ff       	and    $0xfffff000,%eax
 100346e:	8b 74 24 30          	mov    0x30(%esp),%esi
 1003472:	8b 0c f0             	mov    (%eax,%esi,8),%ecx
 1003475:	81 e1 60 ee 1f 00    	and    $0x1fee60,%ecx
 100347b:	09 ca                	or     %ecx,%edx
 100347d:	8b 4d 18             	mov    0x18(%ebp),%ecx
 1003480:	89 cf                	mov    %ecx,%edi
 1003482:	c1 e7 03             	shl    $0x3,%edi
 1003485:	89 f9                	mov    %edi,%ecx
 1003487:	8b 5d 1c             	mov    0x1c(%ebp),%ebx
 100348a:	01 db                	add    %ebx,%ebx
 100348c:	83 e3 02             	and    $0x2,%ebx
 100348f:	83 e1 08             	and    $0x8,%ecx
 1003492:	09 d9                	or     %ebx,%ecx
 1003494:	83 e7 10             	and    $0x10,%edi
 1003497:	09 f9                	or     %edi,%ecx
 1003499:	09 d1                	or     %edx,%ecx
 100349b:	8b 55 10             	mov    0x10(%ebp),%edx
 100349e:	81 e2 ff ff ff 7f    	and    $0x7fffffff,%edx
 10034a4:	89 54 f0 04          	mov    %edx,0x4(%eax,%esi,8)
 10034a8:	81 c9 81 00 00 00    	or     $0x81,%ecx
 10034ae:	89 0c f0             	mov    %ecx,(%eax,%esi,8)
 10034b1:	8b 45 08             	mov    0x8(%ebp),%eax
 10034b4:	0f 01 38             	invlpg (%eax)
 10034b7:	31 c0                	xor    %eax,%eax
 10034b9:	e9 51 02 00 00       	jmp    100370f <virtMemMan_Map+0x3cf>
 10034be:	66 0f 6e cb          	movd   %ebx,%xmm1
 10034c2:	66 0f 6e 45 10       	movd   0x10(%ebp),%xmm0
 10034c7:	66 0f 62 c8          	punpckldq %xmm0,%xmm1
 10034cb:	66 0f 6e c1          	movd   %ecx,%xmm0
 10034cf:	0f 16 c8             	movlhps %xmm0,%xmm1
 10034d2:	8b 7d 08             	mov    0x8(%ebp),%edi
 10034d5:	8d 74 26 00          	lea    0x0(%esi,%eiz,1),%esi
 10034d9:	8d bc 27 00 00 00 00 	lea    0x0(%edi,%eiz,1),%edi
 10034e0:	85 f6                	test   %esi,%esi
 10034e2:	0f 94 c6             	sete   %dh
 10034e5:	0f 95 c2             	setne  %dl
 10034e8:	66 0f 70 c1 03       	pshufd $0x3,%xmm1,%xmm0
 10034ed:	66 0f 7e c0          	movd   %xmm0,%eax
 10034f1:	0f 28 c1             	movaps %xmm1,%xmm0
 10034f4:	0f 12 c0             	movhlps %xmm0,%xmm0
 10034f7:	66 0f 7e c1          	movd   %xmm0,%ecx
 10034fb:	81 f9 00 00 20 00    	cmp    $0x200000,%ecx
 1003501:	0f 92 c3             	setb   %bl
 1003504:	85 c0                	test   %eax,%eax
 1003506:	0f 98 c7             	sets   %bh
 1003509:	74 02                	je     100350d <virtMemMan_Map+0x1cd>
 100350b:	88 fb                	mov    %bh,%bl
 100350d:	84 de                	test   %bl,%dh
 100350f:	75 7f                	jne    1003590 <virtMemMan_Map+0x250>
 1003511:	84 d2                	test   %dl,%dl
 1003513:	75 7b                	jne    1003590 <virtMemMan_Map+0x250>
 1003515:	31 db                	xor    %ebx,%ebx
 1003517:	85 f6                	test   %esi,%esi
 1003519:	0f 85 c3 00 00 00    	jne    10035e2 <virtMemMan_Map+0x2a2>
 100351f:	81 f9 00 00 20 00    	cmp    $0x200000,%ecx
 1003525:	0f 92 c1             	setb   %cl
 1003528:	85 c0                	test   %eax,%eax
 100352a:	0f 98 c0             	sets   %al
 100352d:	74 02                	je     1003531 <virtMemMan_Map+0x1f1>
 100352f:	88 c1                	mov    %al,%cl
 1003531:	84 c9                	test   %cl,%cl
 1003533:	8b 45 20             	mov    0x20(%ebp),%eax
 1003536:	0f 85 a6 00 00 00    	jne    10035e2 <virtMemMan_Map+0x2a2>
 100353c:	66 0f 70 c1 01       	pshufd $0x1,%xmm1,%xmm0
 1003541:	89 44 24 18          	mov    %eax,0x18(%esp)
 1003545:	8b 45 1c             	mov    0x1c(%ebp),%eax
 1003548:	89 44 24 14          	mov    %eax,0x14(%esp)
 100354c:	8b 45 18             	mov    0x18(%ebp),%eax
 100354f:	89 44 24 10          	mov    %eax,0x10(%esp)
 1003553:	66 0f 7e 44 24 08    	movd   %xmm0,0x8(%esp)
 1003559:	66 0f 7e 4c 24 04    	movd   %xmm1,0x4(%esp)
 100355f:	89 3c 24             	mov    %edi,(%esp)
 1003562:	c7 44 24 0c 00 00 20 	movl   $0x200000,0xc(%esp)
 1003569:	00 
 100356a:	0f 29 4c 24 30       	movaps %xmm1,0x30(%esp)
 100356f:	e8 cc fd ff ff       	call   1003340 <virtMemMan_Map>
 1003574:	66 0f 6f 4c 24 30    	movdqa 0x30(%esp),%xmm1
 100357a:	81 c7 00 00 20 00    	add    $0x200000,%edi
 1003580:	66 0f d4 0d d0 a7 82 	paddq  0x182a7d0,%xmm1
 1003587:	01 
 1003588:	eb 58                	jmp    10035e2 <virtMemMan_Map+0x2a2>
 100358a:	8d b6 00 00 00 00    	lea    0x0(%esi),%esi
 1003590:	66 0f 70 c1 01       	pshufd $0x1,%xmm1,%xmm0
 1003595:	8b 45 20             	mov    0x20(%ebp),%eax
 1003598:	89 44 24 18          	mov    %eax,0x18(%esp)
 100359c:	8b 45 1c             	mov    0x1c(%ebp),%eax
 100359f:	89 44 24 14          	mov    %eax,0x14(%esp)
 10035a3:	8b 45 18             	mov    0x18(%ebp),%eax
 10035a6:	89 44 24 10          	mov    %eax,0x10(%esp)
 10035aa:	66 0f 7e 44 24 08    	movd   %xmm0,0x8(%esp)
 10035b0:	66 0f 7e 4c 24 04    	movd   %xmm1,0x4(%esp)
 10035b6:	89 3c 24             	mov    %edi,(%esp)
 10035b9:	c7 44 24 0c 00 10 00 	movl   $0x1000,0xc(%esp)
 10035c0:	00 
 10035c1:	0f 29 4c 24 30       	movaps %xmm1,0x30(%esp)
 10035c6:	e8 75 fd ff ff       	call   1003340 <virtMemMan_Map>
 10035cb:	66 0f 6f 4c 24 30    	movdqa 0x30(%esp),%xmm1
 10035d1:	81 c7 00 10 00 00    	add    $0x1000,%edi
 10035d7:	66 0f d4 0d e0 a7 82 	paddq  0x182a7e0,%xmm1
 10035de:	01 
 10035df:	46                   	inc    %esi
 10035e0:	89 f3                	mov    %esi,%ebx
 10035e2:	31 c0                	xor    %eax,%eax
 10035e4:	81 fb ff 01 00 00    	cmp    $0x1ff,%ebx
 10035ea:	89 de                	mov    %ebx,%esi
 10035ec:	0f 47 f0             	cmova  %eax,%esi
 10035ef:	66 0f 70 c1 03       	pshufd $0x3,%xmm1,%xmm0
 10035f4:	66 0f 7e c2          	movd   %xmm0,%edx
 10035f8:	66 0f 6f c1          	movdqa %xmm1,%xmm0
 10035fc:	0f 12 c0             	movhlps %xmm0,%xmm0
 10035ff:	66 0f 7e c1          	movd   %xmm0,%ecx
 1003603:	85 c9                	test   %ecx,%ecx
 1003605:	0f 95 c1             	setne  %cl
 1003608:	85 d2                	test   %edx,%edx
 100360a:	0f 9f c2             	setg   %dl
 100360d:	74 02                	je     1003611 <virtMemMan_Map+0x2d1>
 100360f:	88 d1                	mov    %dl,%cl
 1003611:	84 c9                	test   %cl,%cl
 1003613:	0f 85 c7 fe ff ff    	jne    10034e0 <virtMemMan_Map+0x1a0>
 1003619:	e9 f1 00 00 00       	jmp    100370f <virtMemMan_Map+0x3cf>
 100361e:	89 54 24 2c          	mov    %edx,0x2c(%esp)
 1003622:	8d b4 26 00 00 00 00 	lea    0x0(%esi,%eiz,1),%esi
 1003629:	8d bc 27 00 00 00 00 	lea    0x0(%edi,%eiz,1),%edi
 1003630:	8b 88 00 40 06 04    	mov    0x4064000(%eax),%ecx
 1003636:	23 88 04 40 06 04    	and    0x4064004(%eax),%ecx
 100363c:	83 f9 ff             	cmp    $0xffffffff,%ecx
 100363f:	74 13                	je     1003654 <virtMemMan_Map+0x314>
 1003641:	05 00 10 00 00       	add    $0x1000,%eax
 1003646:	b9 ff ff ff ff       	mov    $0xffffffff,%ecx
 100364b:	3d ff ff 1f 01       	cmp    $0x11fffff,%eax
 1003650:	76 de                	jbe    1003630 <virtMemMan_Map+0x2f0>
 1003652:	eb 06                	jmp    100365a <virtMemMan_Map+0x31a>
 1003654:	8d 88 00 40 06 04    	lea    0x4064000(%eax),%ecx
 100365a:	89 0c 24             	mov    %ecx,(%esp)
 100365d:	c7 44 24 08 00 10 00 	movl   $0x1000,0x8(%esp)
 1003664:	00 
 1003665:	c7 44 24 04 00 00 00 	movl   $0x0,0x4(%esp)
 100366c:	00 
 100366d:	89 cb                	mov    %ecx,%ebx
 100366f:	e8 8c ca ff ff       	call   1000100 <memset>
 1003674:	81 e3 00 f0 ff ff    	and    $0xfffff000,%ebx
 100367a:	8b 55 20             	mov    0x20(%ebp),%edx
 100367d:	c1 e2 02             	shl    $0x2,%edx
 1003680:	83 e2 04             	and    $0x4,%edx
 1003683:	c7 44 24 24 00 00 00 	movl   $0x0,0x24(%esp)
 100368a:	00 
 100368b:	09 d3                	or     %edx,%ebx
 100368d:	83 cb 03             	or     $0x3,%ebx
 1003690:	89 5c 24 28          	mov    %ebx,0x28(%esp)
 1003694:	8b 44 24 2c          	mov    0x2c(%esp),%eax
 1003698:	8b 4c 24 30          	mov    0x30(%esp),%ecx
 100369c:	89 1c c8             	mov    %ebx,(%eax,%ecx,8)
 100369f:	c7 44 c8 04 00 00 00 	movl   $0x0,0x4(%eax,%ecx,8)
 10036a6:	00 
 10036a7:	8b 4d 18             	mov    0x18(%ebp),%ecx
 10036aa:	89 cb                	mov    %ecx,%ebx
 10036ac:	c1 e3 03             	shl    $0x3,%ebx
 10036af:	89 d9                	mov    %ebx,%ecx
 10036b1:	8b 45 0c             	mov    0xc(%ebp),%eax
 10036b4:	25 00 f0 ff ff       	and    $0xfffff000,%eax
 10036b9:	83 e1 08             	and    $0x8,%ecx
 10036bc:	09 c1                	or     %eax,%ecx
 10036be:	8b 45 1c             	mov    0x1c(%ebp),%eax
 10036c1:	01 c0                	add    %eax,%eax
 10036c3:	83 e0 02             	and    $0x2,%eax
 10036c6:	09 c1                	or     %eax,%ecx
 10036c8:	09 d1                	or     %edx,%ecx
 10036ca:	8b 45 10             	mov    0x10(%ebp),%eax
 10036cd:	89 c2                	mov    %eax,%edx
 10036cf:	81 e2 ff ff 0f 00    	and    $0xfffff,%edx
 10036d5:	0b 54 24 24          	or     0x24(%esp),%edx
 10036d9:	b8 00 00 f0 7f       	mov    $0x7ff00000,%eax
 10036de:	8b 7c 24 28          	mov    0x28(%esp),%edi
 10036e2:	81 e7 00 f0 ff ff    	and    $0xfffff000,%edi
 10036e8:	23 44 f7 04          	and    0x4(%edi,%esi,8),%eax
 10036ec:	09 c2                	or     %eax,%edx
 10036ee:	b8 60 0e 00 00       	mov    $0xe60,%eax
 10036f3:	23 04 f7             	and    (%edi,%esi,8),%eax
 10036f6:	09 c1                	or     %eax,%ecx
 10036f8:	83 e3 10             	and    $0x10,%ebx
 10036fb:	09 cb                	or     %ecx,%ebx
 10036fd:	89 54 f7 04          	mov    %edx,0x4(%edi,%esi,8)
 1003701:	83 cb 01             	or     $0x1,%ebx
 1003704:	89 1c f7             	mov    %ebx,(%edi,%esi,8)
 1003707:	8b 45 08             	mov    0x8(%ebp),%eax
 100370a:	0f 01 38             	invlpg (%eax)
 100370d:	31 c0                	xor    %eax,%eax
 100370f:	8d 65 f4             	lea    -0xc(%ebp),%esp
 1003712:	5e                   	pop    %esi
 1003713:	5f                   	pop    %edi
 1003714:	5b                   	pop    %ebx
 1003715:	5d                   	pop    %ebp
 1003716:	c3                   	ret    
 1003717:	89 f6                	mov    %esi,%esi
 1003719:	8d bc 27 00 00 00 00 	lea    0x0(%edi,%eiz,1),%edi

01003720 <virtMemMan_SetCurrent>:
 1003720:	55                   	push   %ebp
 1003721:	89 e5                	mov    %esp,%ebp
 1003723:	8b 45 08             	mov    0x8(%ebp),%eax
 1003726:	8b 0d 00 00 27 05    	mov    0x5270000,%ecx
 100372c:	a3 00 00 27 05       	mov    %eax,0x5270000
 1003731:	0f 22 d8             	mov    %eax,%cr3
 1003734:	89 c8                	mov    %ecx,%eax
 1003736:	5d                   	pop    %ebp
 1003737:	c3                   	ret    
 1003738:	90                   	nop
 1003739:	8d b4 26 00 00 00 00 	lea    0x0(%esi,%eiz,1),%esi

01003740 <virtMemMan_GetCurrent>:
 1003740:	55                   	push   %ebp
 1003741:	89 e5                	mov    %esp,%ebp
 1003743:	a1 00 00 27 05       	mov    0x5270000,%eax
 1003748:	5d                   	pop    %ebp
 1003749:	c3                   	ret    
 100374a:	8d b6 00 00 00 00    	lea    0x0(%esi),%esi

01003750 <virtMemMan_CreateInstance>:
 1003750:	55                   	push   %ebp
 1003751:	89 e5                	mov    %esp,%ebp
 1003753:	56                   	push   %esi
 1003754:	83 ec 0c             	sub    $0xc,%esp
 1003757:	31 c0                	xor    %eax,%eax
 1003759:	b9 00 40 26 05       	mov    $0x5264000,%ecx
 100375e:	66 90                	xchg   %ax,%ax
 1003760:	8b 11                	mov    (%ecx),%edx
 1003762:	23 51 04             	and    0x4(%ecx),%edx
 1003765:	83 fa ff             	cmp    $0xffffffff,%edx
 1003768:	89 ce                	mov    %ecx,%esi
 100376a:	74 12                	je     100377e <virtMemMan_CreateInstance+0x2e>
 100376c:	83 c0 04             	add    $0x4,%eax
 100376f:	83 c1 20             	add    $0x20,%ecx
 1003772:	be ff ff ff ff       	mov    $0xffffffff,%esi
 1003777:	3d ff 17 00 00       	cmp    $0x17ff,%eax
 100377c:	76 e2                	jbe    1003760 <virtMemMan_CreateInstance+0x10>
 100377e:	89 34 24             	mov    %esi,(%esp)
 1003781:	c7 44 24 08 20 00 00 	movl   $0x20,0x8(%esp)
 1003788:	00 
 1003789:	c7 44 24 04 00 00 00 	movl   $0x0,0x4(%esp)
 1003790:	00 
 1003791:	e8 6a c9 ff ff       	call   1000100 <memset>
 1003796:	a1 04 00 27 05       	mov    0x5270004,%eax
 100379b:	89 06                	mov    %eax,(%esi)
 100379d:	c7 46 04 00 00 00 00 	movl   $0x0,0x4(%esi)
 10037a4:	31 c9                	xor    %ecx,%ecx
 10037a6:	8d 76 00             	lea    0x0(%esi),%esi
 10037a9:	8d bc 27 00 00 00 00 	lea    0x0(%edi,%eiz,1),%edi
 10037b0:	8b 81 00 40 06 04    	mov    0x4064000(%ecx),%eax
 10037b6:	23 81 04 40 06 04    	and    0x4064004(%ecx),%eax
 10037bc:	83 f8 ff             	cmp    $0xffffffff,%eax
 10037bf:	74 15                	je     10037d6 <virtMemMan_CreateInstance+0x86>
 10037c1:	81 c1 00 10 00 00    	add    $0x1000,%ecx
 10037c7:	b8 ff ff ff ff       	mov    $0xffffffff,%eax
 10037cc:	81 f9 ff ff 1f 01    	cmp    $0x11fffff,%ecx
 10037d2:	76 dc                	jbe    10037b0 <virtMemMan_CreateInstance+0x60>
 10037d4:	eb 06                	jmp    10037dc <virtMemMan_CreateInstance+0x8c>
 10037d6:	8d 81 00 40 06 04    	lea    0x4064000(%ecx),%eax
 10037dc:	89 46 08             	mov    %eax,0x8(%esi)
 10037df:	c7 46 0c 00 00 00 00 	movl   $0x0,0xc(%esi)
 10037e6:	31 c9                	xor    %ecx,%ecx
 10037e8:	90                   	nop
 10037e9:	8d b4 26 00 00 00 00 	lea    0x0(%esi,%eiz,1),%esi
 10037f0:	8b 91 00 40 06 04    	mov    0x4064000(%ecx),%edx
 10037f6:	23 91 04 40 06 04    	and    0x4064004(%ecx),%edx
 10037fc:	83 fa ff             	cmp    $0xffffffff,%edx
 10037ff:	74 15                	je     1003816 <virtMemMan_CreateInstance+0xc6>
 1003801:	81 c1 00 10 00 00    	add    $0x1000,%ecx
 1003807:	ba ff ff ff ff       	mov    $0xffffffff,%edx
 100380c:	81 f9 ff ff 1f 01    	cmp    $0x11fffff,%ecx
 1003812:	76 dc                	jbe    10037f0 <virtMemMan_CreateInstance+0xa0>
 1003814:	eb 06                	jmp    100381c <virtMemMan_CreateInstance+0xcc>
 1003816:	8d 91 00 40 06 04    	lea    0x4064000(%ecx),%edx
 100381c:	89 56 10             	mov    %edx,0x10(%esi)
 100381f:	c7 46 14 00 00 00 00 	movl   $0x0,0x14(%esi)
 1003826:	31 c9                	xor    %ecx,%ecx
 1003828:	90                   	nop
 1003829:	8d b4 26 00 00 00 00 	lea    0x0(%esi,%eiz,1),%esi
 1003830:	8b 91 00 40 06 04    	mov    0x4064000(%ecx),%edx
 1003836:	23 91 04 40 06 04    	and    0x4064004(%ecx),%edx
 100383c:	83 fa ff             	cmp    $0xffffffff,%edx
 100383f:	74 15                	je     1003856 <virtMemMan_CreateInstance+0x106>
 1003841:	81 c1 00 10 00 00    	add    $0x1000,%ecx
 1003847:	ba ff ff ff ff       	mov    $0xffffffff,%edx
 100384c:	81 f9 ff ff 1f 01    	cmp    $0x11fffff,%ecx
 1003852:	76 dc                	jbe    1003830 <virtMemMan_CreateInstance+0xe0>
 1003854:	eb 06                	jmp    100385c <virtMemMan_CreateInstance+0x10c>
 1003856:	8d 91 00 40 06 04    	lea    0x4064000(%ecx),%edx
 100385c:	89 56 18             	mov    %edx,0x18(%esi)
 100385f:	c7 46 1c 00 00 00 00 	movl   $0x0,0x1c(%esi)
 1003866:	89 04 24             	mov    %eax,(%esp)
 1003869:	c7 44 24 08 00 10 00 	movl   $0x1000,0x8(%esp)
 1003870:	00 
 1003871:	c7 44 24 04 00 00 00 	movl   $0x0,0x4(%esp)
 1003878:	00 
 1003879:	e8 82 c8 ff ff       	call   1000100 <memset>
 100387e:	8b 46 10             	mov    0x10(%esi),%eax
 1003881:	89 04 24             	mov    %eax,(%esp)
 1003884:	c7 44 24 08 00 10 00 	movl   $0x1000,0x8(%esp)
 100388b:	00 
 100388c:	c7 44 24 04 00 00 00 	movl   $0x0,0x4(%esp)
 1003893:	00 
 1003894:	e8 67 c8 ff ff       	call   1000100 <memset>
 1003899:	8b 46 18             	mov    0x18(%esi),%eax
 100389c:	89 04 24             	mov    %eax,(%esp)
 100389f:	c7 44 24 08 00 10 00 	movl   $0x1000,0x8(%esp)
 10038a6:	00 
 10038a7:	c7 44 24 04 00 00 00 	movl   $0x0,0x4(%esp)
 10038ae:	00 
 10038af:	e8 4c c8 ff ff       	call   1000100 <memset>
 10038b4:	89 f0                	mov    %esi,%eax
 10038b6:	83 c4 0c             	add    $0xc,%esp
 10038b9:	5e                   	pop    %esi
 10038ba:	5d                   	pop    %ebp
 10038bb:	c3                   	ret    
 10038bc:	8d 74 26 00          	lea    0x0(%esi,%eiz,1),%esi

010038c0 <virtMemMan_Fork>:
 10038c0:	55                   	push   %ebp
 10038c1:	89 e5                	mov    %esp,%ebp
 10038c3:	57                   	push   %edi
 10038c4:	56                   	push   %esi
 10038c5:	83 ec 0c             	sub    $0xc,%esp
 10038c8:	8b 75 0c             	mov    0xc(%ebp),%esi
 10038cb:	8b 7d 08             	mov    0x8(%ebp),%edi
 10038ce:	8d 47 08             	lea    0x8(%edi),%eax
 10038d1:	8d 4e 08             	lea    0x8(%esi),%ecx
 10038d4:	89 4c 24 04          	mov    %ecx,0x4(%esp)
 10038d8:	89 04 24             	mov    %eax,(%esp)
 10038db:	c7 44 24 08 00 10 00 	movl   $0x1000,0x8(%esp)
 10038e2:	00 
 10038e3:	e8 e8 c7 ff ff       	call   10000d0 <memcpy>
 10038e8:	8d 47 10             	lea    0x10(%edi),%eax
 10038eb:	8d 4e 10             	lea    0x10(%esi),%ecx
 10038ee:	89 4c 24 04          	mov    %ecx,0x4(%esp)
 10038f2:	89 04 24             	mov    %eax,(%esp)
 10038f5:	c7 44 24 08 00 10 00 	movl   $0x1000,0x8(%esp)
 10038fc:	00 
 10038fd:	e8 ce c7 ff ff       	call   10000d0 <memcpy>
 1003902:	83 c7 18             	add    $0x18,%edi
 1003905:	83 c6 18             	add    $0x18,%esi
 1003908:	89 74 24 04          	mov    %esi,0x4(%esp)
 100390c:	89 3c 24             	mov    %edi,(%esp)
 100390f:	c7 44 24 08 00 10 00 	movl   $0x1000,0x8(%esp)
 1003916:	00 
 1003917:	e8 b4 c7 ff ff       	call   10000d0 <memcpy>
 100391c:	83 c4 0c             	add    $0xc,%esp
 100391f:	5e                   	pop    %esi
 1003920:	5f                   	pop    %edi
 1003921:	5d                   	pop    %ebp
 1003922:	c3                   	ret    
 1003923:	8d b6 00 00 00 00    	lea    0x0(%esi),%esi
 1003929:	8d bc 27 00 00 00 00 	lea    0x0(%edi,%eiz,1),%edi

01003930 <virtMemMan_ForkCurrent>:
 1003930:	55                   	push   %ebp
 1003931:	89 e5                	mov    %esp,%ebp
 1003933:	57                   	push   %edi
 1003934:	56                   	push   %esi
 1003935:	83 ec 0c             	sub    $0xc,%esp
 1003938:	8b 75 08             	mov    0x8(%ebp),%esi
 100393b:	8b 3d 00 00 27 05    	mov    0x5270000,%edi
 1003941:	8d 46 08             	lea    0x8(%esi),%eax
 1003944:	8d 4f 08             	lea    0x8(%edi),%ecx
 1003947:	89 4c 24 04          	mov    %ecx,0x4(%esp)
 100394b:	89 04 24             	mov    %eax,(%esp)
 100394e:	c7 44 24 08 00 10 00 	movl   $0x1000,0x8(%esp)
 1003955:	00 
 1003956:	e8 75 c7 ff ff       	call   10000d0 <memcpy>
 100395b:	8d 46 10             	lea    0x10(%esi),%eax
 100395e:	8d 4f 10             	lea    0x10(%edi),%ecx
 1003961:	89 4c 24 04          	mov    %ecx,0x4(%esp)
 1003965:	89 04 24             	mov    %eax,(%esp)
 1003968:	c7 44 24 08 00 10 00 	movl   $0x1000,0x8(%esp)
 100396f:	00 
 1003970:	e8 5b c7 ff ff       	call   10000d0 <memcpy>
 1003975:	83 c6 18             	add    $0x18,%esi
 1003978:	83 c7 18             	add    $0x18,%edi
 100397b:	89 7c 24 04          	mov    %edi,0x4(%esp)
 100397f:	89 34 24             	mov    %esi,(%esp)
 1003982:	c7 44 24 08 00 10 00 	movl   $0x1000,0x8(%esp)
 1003989:	00 
 100398a:	e8 41 c7 ff ff       	call   10000d0 <memcpy>
 100398f:	83 c4 0c             	add    $0xc,%esp
 1003992:	5e                   	pop    %esi
 1003993:	5f                   	pop    %edi
 1003994:	5d                   	pop    %ebp
 1003995:	c3                   	ret    
 1003996:	8d 76 00             	lea    0x0(%esi),%esi
 1003999:	8d bc 27 00 00 00 00 	lea    0x0(%edi,%eiz,1),%edi

010039a0 <virtMemMan_FindEmptyAddress>:
 10039a0:	55                   	push   %ebp
 10039a1:	89 e5                	mov    %esp,%ebp
 10039a3:	53                   	push   %ebx
 10039a4:	57                   	push   %edi
 10039a5:	56                   	push   %esi
 10039a6:	83 ec 1c             	sub    $0x1c,%esp
 10039a9:	8b 75 08             	mov    0x8(%ebp),%esi
 10039ac:	31 c0                	xor    %eax,%eax
 10039ae:	85 f6                	test   %esi,%esi
 10039b0:	0f 84 cd 01 00 00    	je     1003b83 <virtMemMan_FindEmptyAddress+0x1e3>
 10039b6:	8b 4d 0c             	mov    0xc(%ebp),%ecx
 10039b9:	89 f2                	mov    %esi,%edx
 10039bb:	c1 ea 15             	shr    $0x15,%edx
 10039be:	0f 94 c0             	sete   %al
 10039c1:	89 f7                	mov    %esi,%edi
 10039c3:	89 d6                	mov    %edx,%esi
 10039c5:	c1 e6 15             	shl    $0x15,%esi
 10039c8:	39 fe                	cmp    %edi,%esi
 10039ca:	0f 92 c4             	setb   %ah
 10039cd:	08 c4                	or     %al,%ah
 10039cf:	0f b6 c4             	movzbl %ah,%eax
 10039d2:	01 d0                	add    %edx,%eax
 10039d4:	85 c9                	test   %ecx,%ecx
 10039d6:	0f 95 c1             	setne  %cl
 10039d9:	89 fa                	mov    %edi,%edx
 10039db:	c1 ea 0c             	shr    $0xc,%edx
 10039de:	0f 94 c5             	sete   %ch
 10039e1:	89 d6                	mov    %edx,%esi
 10039e3:	c1 e6 0c             	shl    $0xc,%esi
 10039e6:	39 fe                	cmp    %edi,%esi
 10039e8:	0f b6 f9             	movzbl %cl,%edi
 10039eb:	0f 92 c1             	setb   %cl
 10039ee:	08 e9                	or     %ch,%cl
 10039f0:	0f b6 c9             	movzbl %cl,%ecx
 10039f3:	01 d1                	add    %edx,%ecx
 10039f5:	89 4d f0             	mov    %ecx,-0x10(%ebp)
 10039f8:	8b 0d 00 00 27 05    	mov    0x5270000,%ecx
 10039fe:	89 4d d8             	mov    %ecx,-0x28(%ebp)
 1003a01:	89 7d dc             	mov    %edi,-0x24(%ebp)
 1003a04:	8b 14 f9             	mov    (%ecx,%edi,8),%edx
 1003a07:	f6 c2 01             	test   $0x1,%dl
 1003a0a:	0f 84 40 01 00 00    	je     1003b50 <virtMemMan_FindEmptyAddress+0x1b0>
 1003a10:	81 e2 00 f0 ff ff    	and    $0xfffff000,%edx
 1003a16:	89 55 e4             	mov    %edx,-0x1c(%ebp)
 1003a19:	31 db                	xor    %ebx,%ebx
 1003a1b:	89 d6                	mov    %edx,%esi
 1003a1d:	8d 76 00             	lea    0x0(%esi),%esi
 1003a20:	8b 0c da             	mov    (%edx,%ebx,8),%ecx
 1003a23:	f6 c1 01             	test   $0x1,%cl
 1003a26:	0f 84 a4 00 00 00    	je     1003ad0 <virtMemMan_FindEmptyAddress+0x130>
 1003a2c:	f6 c1 80             	test   $0x80,%cl
 1003a2f:	89 cf                	mov    %ecx,%edi
 1003a31:	0f 85 00 01 00 00    	jne    1003b37 <virtMemMan_FindEmptyAddress+0x197>
 1003a37:	81 7d 08 ff ff 1f 00 	cmpl   $0x1fffff,0x8(%ebp)
 1003a3e:	0f 87 f3 00 00 00    	ja     1003b37 <virtMemMan_FindEmptyAddress+0x197>
 1003a44:	89 75 e8             	mov    %esi,-0x18(%ebp)
 1003a47:	89 5d e0             	mov    %ebx,-0x20(%ebp)
 1003a4a:	89 f9                	mov    %edi,%ecx
 1003a4c:	81 e1 00 f0 ff ff    	and    $0xfffff000,%ecx
 1003a52:	89 4d ec             	mov    %ecx,-0x14(%ebp)
 1003a55:	31 c0                	xor    %eax,%eax
 1003a57:	83 7d f0 00          	cmpl   $0x0,-0x10(%ebp)
 1003a5b:	89 cb                	mov    %ecx,%ebx
 1003a5d:	0f 84 ad 00 00 00    	je     1003b10 <virtMemMan_FindEmptyAddress+0x170>
 1003a63:	8d b6 00 00 00 00    	lea    0x0(%esi),%esi
 1003a69:	8d bc 27 00 00 00 00 	lea    0x0(%edi,%eiz,1),%edi
 1003a70:	f6 04 c1 01          	testb  $0x1,(%ecx,%eax,8)
 1003a74:	89 d9                	mov    %ebx,%ecx
 1003a76:	ba 00 00 00 00       	mov    $0x0,%edx
 1003a7b:	bf 00 00 00 00       	mov    $0x0,%edi
 1003a80:	75 34                	jne    1003ab6 <virtMemMan_FindEmptyAddress+0x116>
 1003a82:	8d b4 26 00 00 00 00 	lea    0x0(%esi,%eiz,1),%esi
 1003a89:	8d bc 27 00 00 00 00 	lea    0x0(%edi,%eiz,1),%edi
 1003a90:	8d 34 10             	lea    (%eax,%edx,1),%esi
 1003a93:	81 fe 00 02 00 00    	cmp    $0x200,%esi
 1003a99:	7d 12                	jge    1003aad <virtMemMan_FindEmptyAddress+0x10d>
 1003a9b:	8b 31                	mov    (%ecx),%esi
 1003a9d:	f7 d6                	not    %esi
 1003a9f:	83 e6 01             	and    $0x1,%esi
 1003aa2:	01 f7                	add    %esi,%edi
 1003aa4:	42                   	inc    %edx
 1003aa5:	83 c1 08             	add    $0x8,%ecx
 1003aa8:	3b 55 f0             	cmp    -0x10(%ebp),%edx
 1003aab:	72 e3                	jb     1003a90 <virtMemMan_FindEmptyAddress+0xf0>
 1003aad:	3b 7d f0             	cmp    -0x10(%ebp),%edi
 1003ab0:	0f 83 ba 00 00 00    	jae    1003b70 <virtMemMan_FindEmptyAddress+0x1d0>
 1003ab6:	40                   	inc    %eax
 1003ab7:	83 c3 08             	add    $0x8,%ebx
 1003aba:	3d 00 02 00 00       	cmp    $0x200,%eax
 1003abf:	8b 4d ec             	mov    -0x14(%ebp),%ecx
 1003ac2:	7c ac                	jl     1003a70 <virtMemMan_FindEmptyAddress+0xd0>
 1003ac4:	8b 45 f0             	mov    -0x10(%ebp),%eax
 1003ac7:	8b 5d e0             	mov    -0x20(%ebp),%ebx
 1003aca:	eb 65                	jmp    1003b31 <virtMemMan_FindEmptyAddress+0x191>
 1003acc:	8d 74 26 00          	lea    0x0(%esi,%eiz,1),%esi
 1003ad0:	31 d2                	xor    %edx,%edx
 1003ad2:	85 c0                	test   %eax,%eax
 1003ad4:	89 75 e8             	mov    %esi,-0x18(%ebp)
 1003ad7:	89 f7                	mov    %esi,%edi
 1003ad9:	b9 00 00 00 00       	mov    $0x0,%ecx
 1003ade:	74 24                	je     1003b04 <virtMemMan_FindEmptyAddress+0x164>
 1003ae0:	89 de                	mov    %ebx,%esi
 1003ae2:	8d 1c 16             	lea    (%esi,%edx,1),%ebx
 1003ae5:	81 fb ff 01 00 00    	cmp    $0x1ff,%ebx
 1003aeb:	7f 15                	jg     1003b02 <virtMemMan_FindEmptyAddress+0x162>
 1003aed:	8b 1f                	mov    (%edi),%ebx
 1003aef:	f7 d3                	not    %ebx
 1003af1:	83 e3 01             	and    $0x1,%ebx
 1003af4:	01 d9                	add    %ebx,%ecx
 1003af6:	42                   	inc    %edx
 1003af7:	83 c7 08             	add    $0x8,%edi
 1003afa:	39 c2                	cmp    %eax,%edx
 1003afc:	89 f3                	mov    %esi,%ebx
 1003afe:	72 e0                	jb     1003ae0 <virtMemMan_FindEmptyAddress+0x140>
 1003b00:	eb 02                	jmp    1003b04 <virtMemMan_FindEmptyAddress+0x164>
 1003b02:	89 f3                	mov    %esi,%ebx
 1003b04:	39 c1                	cmp    %eax,%ecx
 1003b06:	8b 55 e4             	mov    -0x1c(%ebp),%edx
 1003b09:	8b 75 e8             	mov    -0x18(%ebp),%esi
 1003b0c:	72 29                	jb     1003b37 <virtMemMan_FindEmptyAddress+0x197>
 1003b0e:	eb 7b                	jmp    1003b8b <virtMemMan_FindEmptyAddress+0x1eb>
 1003b10:	8b 5d e0             	mov    -0x20(%ebp),%ebx
 1003b13:	8d b6 00 00 00 00    	lea    0x0(%esi),%esi
 1003b19:	8d bc 27 00 00 00 00 	lea    0x0(%edi,%eiz,1),%edi
 1003b20:	f6 04 c1 01          	testb  $0x1,(%ecx,%eax,8)
 1003b24:	74 45                	je     1003b6b <virtMemMan_FindEmptyAddress+0x1cb>
 1003b26:	40                   	inc    %eax
 1003b27:	3d 00 02 00 00       	cmp    $0x200,%eax
 1003b2c:	7c f2                	jl     1003b20 <virtMemMan_FindEmptyAddress+0x180>
 1003b2e:	8b 45 f0             	mov    -0x10(%ebp),%eax
 1003b31:	8b 55 e4             	mov    -0x1c(%ebp),%edx
 1003b34:	8b 75 e8             	mov    -0x18(%ebp),%esi
 1003b37:	43                   	inc    %ebx
 1003b38:	83 c6 08             	add    $0x8,%esi
 1003b3b:	81 fb 00 02 00 00    	cmp    $0x200,%ebx
 1003b41:	0f 8c d9 fe ff ff    	jl     1003a20 <virtMemMan_FindEmptyAddress+0x80>
 1003b47:	eb 0e                	jmp    1003b57 <virtMemMan_FindEmptyAddress+0x1b7>
 1003b49:	8d b4 26 00 00 00 00 	lea    0x0(%esi,%eiz,1),%esi
 1003b50:	3d 00 02 00 00       	cmp    $0x200,%eax
 1003b55:	76 43                	jbe    1003b9a <virtMemMan_FindEmptyAddress+0x1fa>
 1003b57:	8b 7d dc             	mov    -0x24(%ebp),%edi
 1003b5a:	47                   	inc    %edi
 1003b5b:	83 ff 04             	cmp    $0x4,%edi
 1003b5e:	8b 4d d8             	mov    -0x28(%ebp),%ecx
 1003b61:	0f 8c 9a fe ff ff    	jl     1003a01 <virtMemMan_FindEmptyAddress+0x61>
 1003b67:	31 c0                	xor    %eax,%eax
 1003b69:	eb 18                	jmp    1003b83 <virtMemMan_FindEmptyAddress+0x1e3>
 1003b6b:	8b 4d dc             	mov    -0x24(%ebp),%ecx
 1003b6e:	eb 06                	jmp    1003b76 <virtMemMan_FindEmptyAddress+0x1d6>
 1003b70:	8b 4d dc             	mov    -0x24(%ebp),%ecx
 1003b73:	8b 5d e0             	mov    -0x20(%ebp),%ebx
 1003b76:	c1 e1 1e             	shl    $0x1e,%ecx
 1003b79:	c1 e3 15             	shl    $0x15,%ebx
 1003b7c:	01 cb                	add    %ecx,%ebx
 1003b7e:	c1 e0 0c             	shl    $0xc,%eax
 1003b81:	01 d8                	add    %ebx,%eax
 1003b83:	83 c4 1c             	add    $0x1c,%esp
 1003b86:	5e                   	pop    %esi
 1003b87:	5f                   	pop    %edi
 1003b88:	5b                   	pop    %ebx
 1003b89:	5d                   	pop    %ebp
 1003b8a:	c3                   	ret    
 1003b8b:	8b 45 dc             	mov    -0x24(%ebp),%eax
 1003b8e:	c1 e0 1e             	shl    $0x1e,%eax
 1003b91:	c1 e3 15             	shl    $0x15,%ebx
 1003b94:	01 c3                	add    %eax,%ebx
 1003b96:	89 d8                	mov    %ebx,%eax
 1003b98:	eb e9                	jmp    1003b83 <virtMemMan_FindEmptyAddress+0x1e3>
 1003b9a:	8b 45 dc             	mov    -0x24(%ebp),%eax
 1003b9d:	c1 e0 1e             	shl    $0x1e,%eax
 1003ba0:	eb e1                	jmp    1003b83 <virtMemMan_FindEmptyAddress+0x1e3>
 1003ba2:	8d b4 26 00 00 00 00 	lea    0x0(%esi,%eiz,1),%esi
 1003ba9:	8d bc 27 00 00 00 00 	lea    0x0(%edi,%eiz,1),%edi

01003bb0 <virtMemMan_UnMap>:
 1003bb0:	55                   	push   %ebp
 1003bb1:	89 e5                	mov    %esp,%ebp
 1003bb3:	53                   	push   %ebx
 1003bb4:	57                   	push   %edi
 1003bb5:	56                   	push   %esi
 1003bb6:	83 ec 08             	sub    $0x8,%esp
 1003bb9:	8b 7d 0c             	mov    0xc(%ebp),%edi
 1003bbc:	85 ff                	test   %edi,%edi
 1003bbe:	0f 84 2c 01 00 00    	je     1003cf0 <virtMemMan_UnMap+0x140>
 1003bc4:	8b 45 08             	mov    0x8(%ebp),%eax
 1003bc7:	89 c6                	mov    %eax,%esi
 1003bc9:	c1 ee 1e             	shr    $0x1e,%esi
 1003bcc:	89 f1                	mov    %esi,%ecx
 1003bce:	c1 e1 1e             	shl    $0x1e,%ecx
 1003bd1:	89 4d f0             	mov    %ecx,-0x10(%ebp)
 1003bd4:	31 d2                	xor    %edx,%edx
 1003bd6:	89 c3                	mov    %eax,%ebx
 1003bd8:	29 cb                	sub    %ecx,%ebx
 1003bda:	83 da 00             	sbb    $0x0,%edx
 1003bdd:	81 ff 00 00 20 00    	cmp    $0x200000,%edi
 1003be3:	0f 82 95 00 00 00    	jb     1003c7e <virtMemMan_UnMap+0xce>
 1003be9:	89 f9                	mov    %edi,%ecx
 1003beb:	c1 ef 15             	shr    $0x15,%edi
 1003bee:	0f 94 c2             	sete   %dl
 1003bf1:	89 fb                	mov    %edi,%ebx
 1003bf3:	c1 e3 15             	shl    $0x15,%ebx
 1003bf6:	39 cb                	cmp    %ecx,%ebx
 1003bf8:	0f 92 c6             	setb   %dh
 1003bfb:	08 d6                	or     %dl,%dh
 1003bfd:	0f b6 ce             	movzbl %dh,%ecx
 1003c00:	01 f9                	add    %edi,%ecx
 1003c02:	89 4d ec             	mov    %ecx,-0x14(%ebp)
 1003c05:	0f 84 e5 00 00 00    	je     1003cf0 <virtMemMan_UnMap+0x140>
 1003c0b:	8b 3d 00 00 27 05    	mov    0x5270000,%edi
 1003c11:	bb 00 f0 ff ff       	mov    $0xfffff000,%ebx
 1003c16:	23 1c f7             	and    (%edi,%esi,8),%ebx
 1003c19:	89 c7                	mov    %eax,%edi
 1003c1b:	81 e7 00 00 00 c0    	and    $0xc0000000,%edi
 1003c21:	31 f6                	xor    %esi,%esi
 1003c23:	29 f8                	sub    %edi,%eax
 1003c25:	bf 00 00 00 00       	mov    $0x0,%edi
 1003c2a:	83 df 00             	sbb    $0x0,%edi
 1003c2d:	0f a4 c7 0b          	shld   $0xb,%eax,%edi
 1003c31:	89 f8                	mov    %edi,%eax
 1003c33:	c1 e0 15             	shl    $0x15,%eax
 1003c36:	8d 1c fb             	lea    (%ebx,%edi,8),%ebx
 1003c39:	8d b4 26 00 00 00 00 	lea    0x0(%esi,%eiz,1),%esi
 1003c40:	8d 14 37             	lea    (%edi,%esi,1),%edx
 1003c43:	81 fa ff 01 00 00    	cmp    $0x1ff,%edx
 1003c49:	0f 87 a1 00 00 00    	ja     1003cf0 <virtMemMan_UnMap+0x140>
 1003c4f:	8b 14 f3             	mov    (%ebx,%esi,8),%edx
 1003c52:	b9 fe ff 1f 00       	mov    $0x1ffffe,%ecx
 1003c57:	21 ca                	and    %ecx,%edx
 1003c59:	81 64 f3 04 00 00 00 	andl   $0x80000000,0x4(%ebx,%esi,8)
 1003c60:	80 
 1003c61:	89 14 f3             	mov    %edx,(%ebx,%esi,8)
 1003c64:	89 c2                	mov    %eax,%edx
 1003c66:	03 55 f0             	add    -0x10(%ebp),%edx
 1003c69:	19 c9                	sbb    %ecx,%ecx
 1003c6b:	83 e1 01             	and    $0x1,%ecx
 1003c6e:	0f 01 3a             	invlpg (%edx)
 1003c71:	46                   	inc    %esi
 1003c72:	05 00 00 20 00       	add    $0x200000,%eax
 1003c77:	3b 75 ec             	cmp    -0x14(%ebp),%esi
 1003c7a:	72 c4                	jb     1003c40 <virtMemMan_UnMap+0x90>
 1003c7c:	eb 72                	jmp    1003cf0 <virtMemMan_UnMap+0x140>
 1003c7e:	0f a4 da 0b          	shld   $0xb,%ebx,%edx
 1003c82:	89 fb                	mov    %edi,%ebx
 1003c84:	c1 eb 0c             	shr    $0xc,%ebx
 1003c87:	0f 94 45 f0          	sete   -0x10(%ebp)
 1003c8b:	89 f9                	mov    %edi,%ecx
 1003c8d:	89 df                	mov    %ebx,%edi
 1003c8f:	c1 e7 0c             	shl    $0xc,%edi
 1003c92:	39 cf                	cmp    %ecx,%edi
 1003c94:	0f 92 45 ec          	setb   -0x14(%ebp)
 1003c98:	8b 0d 00 00 27 05    	mov    0x5270000,%ecx
 1003c9e:	bf 00 f0 ff ff       	mov    $0xfffff000,%edi
 1003ca3:	8b 34 f1             	mov    (%ecx,%esi,8),%esi
 1003ca6:	21 fe                	and    %edi,%esi
 1003ca8:	f6 04 d6 80          	testb  $0x80,(%esi,%edx,8)
 1003cac:	75 42                	jne    1003cf0 <virtMemMan_UnMap+0x140>
 1003cae:	8a 4d f0             	mov    -0x10(%ebp),%cl
 1003cb1:	0a 4d ec             	or     -0x14(%ebp),%cl
 1003cb4:	0f b6 c9             	movzbl %cl,%ecx
 1003cb7:	01 d9                	add    %ebx,%ecx
 1003cb9:	74 35                	je     1003cf0 <virtMemMan_UnMap+0x140>
 1003cbb:	23 3c d6             	and    (%esi,%edx,8),%edi
 1003cbe:	25 ff 0f 00 00       	and    $0xfff,%eax
 1003cc3:	8d 14 c7             	lea    (%edi,%eax,8),%edx
 1003cc6:	31 f6                	xor    %esi,%esi
 1003cc8:	bf fe 0f 00 00       	mov    $0xffe,%edi
 1003ccd:	8d 76 00             	lea    0x0(%esi),%esi
 1003cd0:	8d 1c 30             	lea    (%eax,%esi,1),%ebx
 1003cd3:	81 fb ff 01 00 00    	cmp    $0x1ff,%ebx
 1003cd9:	77 15                	ja     1003cf0 <virtMemMan_UnMap+0x140>
 1003cdb:	8b 1c f2             	mov    (%edx,%esi,8),%ebx
 1003cde:	21 fb                	and    %edi,%ebx
 1003ce0:	81 64 f2 04 00 00 f0 	andl   $0xfff00000,0x4(%edx,%esi,8)
 1003ce7:	ff 
 1003ce8:	89 1c f2             	mov    %ebx,(%edx,%esi,8)
 1003ceb:	46                   	inc    %esi
 1003cec:	39 ce                	cmp    %ecx,%esi
 1003cee:	72 e0                	jb     1003cd0 <virtMemMan_UnMap+0x120>
 1003cf0:	83 c4 08             	add    $0x8,%esp
 1003cf3:	5e                   	pop    %esi
 1003cf4:	5f                   	pop    %edi
 1003cf5:	5b                   	pop    %ebx
 1003cf6:	5d                   	pop    %ebp
 1003cf7:	c3                   	ret    
 1003cf8:	90                   	nop
 1003cf9:	8d b4 26 00 00 00 00 	lea    0x0(%esi,%eiz,1),%esi

01003d00 <virtMemMan_GetFreePDPTEntry>:
 1003d00:	55                   	push   %ebp
 1003d01:	89 e5                	mov    %esp,%ebp
 1003d03:	31 c9                	xor    %ecx,%ecx
 1003d05:	ba 00 40 26 05       	mov    $0x5264000,%edx
 1003d0a:	8d b6 00 00 00 00    	lea    0x0(%esi),%esi
 1003d10:	8b 02                	mov    (%edx),%eax
 1003d12:	23 42 04             	and    0x4(%edx),%eax
 1003d15:	83 f8 ff             	cmp    $0xffffffff,%eax
 1003d18:	89 d0                	mov    %edx,%eax
 1003d1a:	74 13                	je     1003d2f <virtMemMan_GetFreePDPTEntry+0x2f>
 1003d1c:	83 c1 04             	add    $0x4,%ecx
 1003d1f:	83 c2 20             	add    $0x20,%edx
 1003d22:	b8 ff ff ff ff       	mov    $0xffffffff,%eax
 1003d27:	81 f9 ff 17 00 00    	cmp    $0x17ff,%ecx
 1003d2d:	76 e1                	jbe    1003d10 <virtMemMan_GetFreePDPTEntry+0x10>
 1003d2f:	5d                   	pop    %ebp
 1003d30:	c3                   	ret    
 1003d31:	eb 0d                	jmp    1003d40 <virtMemMan_GetFreePageDirEntry>
 1003d33:	90                   	nop
 1003d34:	90                   	nop
 1003d35:	90                   	nop
 1003d36:	90                   	nop
 1003d37:	90                   	nop
 1003d38:	90                   	nop
 1003d39:	90                   	nop
 1003d3a:	90                   	nop
 1003d3b:	90                   	nop
 1003d3c:	90                   	nop
 1003d3d:	90                   	nop
 1003d3e:	90                   	nop
 1003d3f:	90                   	nop

01003d40 <virtMemMan_GetFreePageDirEntry>:
 1003d40:	55                   	push   %ebp
 1003d41:	89 e5                	mov    %esp,%ebp
 1003d43:	31 c9                	xor    %ecx,%ecx
 1003d45:	8d 74 26 00          	lea    0x0(%esi,%eiz,1),%esi
 1003d49:	8d bc 27 00 00 00 00 	lea    0x0(%edi,%eiz,1),%edi
 1003d50:	8b 81 00 40 06 04    	mov    0x4064000(%ecx),%eax
 1003d56:	23 81 04 40 06 04    	and    0x4064004(%ecx),%eax
 1003d5c:	83 f8 ff             	cmp    $0xffffffff,%eax
 1003d5f:	74 15                	je     1003d76 <virtMemMan_GetFreePageDirEntry+0x36>
 1003d61:	81 c1 00 10 00 00    	add    $0x1000,%ecx
 1003d67:	b8 ff ff ff ff       	mov    $0xffffffff,%eax
 1003d6c:	81 f9 ff ff 1f 01    	cmp    $0x11fffff,%ecx
 1003d72:	76 dc                	jbe    1003d50 <virtMemMan_GetFreePageDirEntry+0x10>
 1003d74:	eb 06                	jmp    1003d7c <virtMemMan_GetFreePageDirEntry+0x3c>
 1003d76:	8d 81 00 40 06 04    	lea    0x4064000(%ecx),%eax
 1003d7c:	5d                   	pop    %ebp
 1003d7d:	c3                   	ret    
 1003d7e:	66 90                	xchg   %ax,%ax

01003d80 <virtMemMan_FreeInstance>:
 1003d80:	55                   	push   %ebp
 1003d81:	89 e5                	mov    %esp,%ebp
 1003d83:	53                   	push   %ebx
 1003d84:	57                   	push   %edi
 1003d85:	56                   	push   %esi
 1003d86:	83 ec 0c             	sub    $0xc,%esp
 1003d89:	a1 00 00 27 05       	mov    0x5270000,%eax
 1003d8e:	3b 45 08             	cmp    0x8(%ebp),%eax
 1003d91:	0f 84 5c 01 00 00    	je     1003ef3 <virtMemMan_FreeInstance+0x173>
 1003d97:	b9 00 f0 ff ff       	mov    $0xfffff000,%ecx
 1003d9c:	8b 58 08             	mov    0x8(%eax),%ebx
 1003d9f:	21 cb                	and    %ecx,%ebx
 1003da1:	31 f6                	xor    %esi,%esi
 1003da3:	bf 81 00 00 00       	mov    $0x81,%edi
 1003da8:	90                   	nop
 1003da9:	8d b4 26 00 00 00 00 	lea    0x0(%esi,%eiz,1),%esi
 1003db0:	8b 04 f3             	mov    (%ebx,%esi,8),%eax
 1003db3:	21 f8                	and    %edi,%eax
 1003db5:	83 f0 01             	xor    $0x1,%eax
 1003db8:	75 22                	jne    1003ddc <virtMemMan_FreeInstance+0x5c>
 1003dba:	8b 04 f3             	mov    (%ebx,%esi,8),%eax
 1003dbd:	b9 00 f0 ff ff       	mov    $0xfffff000,%ecx
 1003dc2:	21 c8                	and    %ecx,%eax
 1003dc4:	89 04 24             	mov    %eax,(%esp)
 1003dc7:	c7 44 24 08 00 10 00 	movl   $0x1000,0x8(%esp)
 1003dce:	00 
 1003dcf:	c7 44 24 04 ff 00 00 	movl   $0xff,0x4(%esp)
 1003dd6:	00 
 1003dd7:	e8 24 c3 ff ff       	call   1000100 <memset>
 1003ddc:	46                   	inc    %esi
 1003ddd:	81 fe 00 02 00 00    	cmp    $0x200,%esi
 1003de3:	75 cb                	jne    1003db0 <virtMemMan_FreeInstance+0x30>
 1003de5:	a1 00 00 27 05       	mov    0x5270000,%eax
 1003dea:	b9 00 f0 ff ff       	mov    $0xfffff000,%ecx
 1003def:	8b 58 10             	mov    0x10(%eax),%ebx
 1003df2:	21 cb                	and    %ecx,%ebx
 1003df4:	31 f6                	xor    %esi,%esi
 1003df6:	bf 81 00 00 00       	mov    $0x81,%edi
 1003dfb:	90                   	nop
 1003dfc:	8d 74 26 00          	lea    0x0(%esi,%eiz,1),%esi
 1003e00:	8b 04 f3             	mov    (%ebx,%esi,8),%eax
 1003e03:	21 f8                	and    %edi,%eax
 1003e05:	83 f0 01             	xor    $0x1,%eax
 1003e08:	75 22                	jne    1003e2c <virtMemMan_FreeInstance+0xac>
 1003e0a:	8b 04 f3             	mov    (%ebx,%esi,8),%eax
 1003e0d:	b9 00 f0 ff ff       	mov    $0xfffff000,%ecx
 1003e12:	21 c8                	and    %ecx,%eax
 1003e14:	89 04 24             	mov    %eax,(%esp)
 1003e17:	c7 44 24 08 00 10 00 	movl   $0x1000,0x8(%esp)
 1003e1e:	00 
 1003e1f:	c7 44 24 04 ff 00 00 	movl   $0xff,0x4(%esp)
 1003e26:	00 
 1003e27:	e8 d4 c2 ff ff       	call   1000100 <memset>
 1003e2c:	46                   	inc    %esi
 1003e2d:	81 fe 00 02 00 00    	cmp    $0x200,%esi
 1003e33:	75 cb                	jne    1003e00 <virtMemMan_FreeInstance+0x80>
 1003e35:	a1 00 00 27 05       	mov    0x5270000,%eax
 1003e3a:	b9 00 f0 ff ff       	mov    $0xfffff000,%ecx
 1003e3f:	8b 58 18             	mov    0x18(%eax),%ebx
 1003e42:	21 cb                	and    %ecx,%ebx
 1003e44:	31 f6                	xor    %esi,%esi
 1003e46:	bf 81 00 00 00       	mov    $0x81,%edi
 1003e4b:	90                   	nop
 1003e4c:	8d 74 26 00          	lea    0x0(%esi,%eiz,1),%esi
 1003e50:	8b 04 f3             	mov    (%ebx,%esi,8),%eax
 1003e53:	21 f8                	and    %edi,%eax
 1003e55:	83 f0 01             	xor    $0x1,%eax
 1003e58:	75 22                	jne    1003e7c <virtMemMan_FreeInstance+0xfc>
 1003e5a:	8b 04 f3             	mov    (%ebx,%esi,8),%eax
 1003e5d:	b9 00 f0 ff ff       	mov    $0xfffff000,%ecx
 1003e62:	21 c8                	and    %ecx,%eax
 1003e64:	89 04 24             	mov    %eax,(%esp)
 1003e67:	c7 44 24 08 00 10 00 	movl   $0x1000,0x8(%esp)
 1003e6e:	00 
 1003e6f:	c7 44 24 04 ff 00 00 	movl   $0xff,0x4(%esp)
 1003e76:	00 
 1003e77:	e8 84 c2 ff ff       	call   1000100 <memset>
 1003e7c:	46                   	inc    %esi
 1003e7d:	81 fe 00 02 00 00    	cmp    $0x200,%esi
 1003e83:	75 cb                	jne    1003e50 <virtMemMan_FreeInstance+0xd0>
 1003e85:	8b 45 08             	mov    0x8(%ebp),%eax
 1003e88:	89 c6                	mov    %eax,%esi
 1003e8a:	8b 46 08             	mov    0x8(%esi),%eax
 1003e8d:	89 04 24             	mov    %eax,(%esp)
 1003e90:	c7 44 24 08 00 10 00 	movl   $0x1000,0x8(%esp)
 1003e97:	00 
 1003e98:	c7 44 24 04 ff 00 00 	movl   $0xff,0x4(%esp)
 1003e9f:	00 
 1003ea0:	e8 5b c2 ff ff       	call   1000100 <memset>
 1003ea5:	8b 46 10             	mov    0x10(%esi),%eax
 1003ea8:	89 04 24             	mov    %eax,(%esp)
 1003eab:	c7 44 24 08 00 10 00 	movl   $0x1000,0x8(%esp)
 1003eb2:	00 
 1003eb3:	c7 44 24 04 ff 00 00 	movl   $0xff,0x4(%esp)
 1003eba:	00 
 1003ebb:	e8 40 c2 ff ff       	call   1000100 <memset>
 1003ec0:	8b 46 18             	mov    0x18(%esi),%eax
 1003ec3:	89 04 24             	mov    %eax,(%esp)
 1003ec6:	c7 44 24 08 00 10 00 	movl   $0x1000,0x8(%esp)
 1003ecd:	00 
 1003ece:	c7 44 24 04 ff 00 00 	movl   $0xff,0x4(%esp)
 1003ed5:	00 
 1003ed6:	e8 25 c2 ff ff       	call   1000100 <memset>
 1003edb:	89 34 24             	mov    %esi,(%esp)
 1003ede:	c7 44 24 08 20 00 00 	movl   $0x20,0x8(%esp)
 1003ee5:	00 
 1003ee6:	c7 44 24 04 ff 00 00 	movl   $0xff,0x4(%esp)
 1003eed:	00 
 1003eee:	e8 0d c2 ff ff       	call   1000100 <memset>
 1003ef3:	83 c4 0c             	add    $0xc,%esp
 1003ef6:	5e                   	pop    %esi
 1003ef7:	5f                   	pop    %edi
 1003ef8:	5b                   	pop    %ebx
 1003ef9:	5d                   	pop    %ebp
 1003efa:	c3                   	ret    
 1003efb:	66 90                	xchg   %ax,%ax
 1003efd:	66 90                	xchg   %ax,%ax
 1003eff:	90                   	nop

01003f00 <ACPITables_Initialize>:
 1003f00:	55                   	push   %ebp
 1003f01:	89 e5                	mov    %esp,%ebp
 1003f03:	53                   	push   %ebx
 1003f04:	57                   	push   %edi
 1003f05:	56                   	push   %esi
 1003f06:	83 ec 1c             	sub    $0x1c,%esp
 1003f09:	c7 05 08 00 27 05 00 	movl   $0x0,0x5270008
 1003f10:	00 00 00 
 1003f13:	31 c9                	xor    %ecx,%ecx
 1003f15:	be 00 00 0e 00       	mov    $0xe0000,%esi
 1003f1a:	8d b6 00 00 00 00    	lea    0x0(%esi),%esi
 1003f20:	89 cf                	mov    %ecx,%edi
 1003f22:	c1 e7 04             	shl    $0x4,%edi
 1003f25:	b8 00 00 0e 00       	mov    $0xe0000,%eax
 1003f2a:	89 c2                	mov    %eax,%edx
 1003f2c:	8d 44 17 14          	lea    0x14(%edi,%edx,1),%eax
 1003f30:	8d 54 3a 01          	lea    0x1(%edx,%edi,1),%edx
 1003f34:	39 d0                	cmp    %edx,%eax
 1003f36:	0f 47 d0             	cmova  %eax,%edx
 1003f39:	0f b6 06             	movzbl (%esi),%eax
 1003f3c:	83 f8 52             	cmp    $0x52,%eax
 1003f3f:	0f 85 5b 01 00 00    	jne    10040a0 <ACPITables_Initialize+0x1a0>
 1003f45:	89 34 24             	mov    %esi,(%esp)
 1003f48:	c7 44 24 08 08 00 00 	movl   $0x8,0x8(%esp)
 1003f4f:	00 
 1003f50:	c7 44 24 04 06 84 00 	movl   $0x1008406,0x4(%esp)
 1003f57:	01 
 1003f58:	89 55 ec             	mov    %edx,-0x14(%ebp)
 1003f5b:	89 cb                	mov    %ecx,%ebx
 1003f5d:	e8 6e c2 ff ff       	call   10001d0 <strncmp>
 1003f62:	66 0f 6f 25 f0 a7 82 	movdqa 0x182a7f0,%xmm4
 1003f69:	01 
 1003f6a:	89 d9                	mov    %ebx,%ecx
 1003f6c:	8b 55 ec             	mov    -0x14(%ebp),%edx
 1003f6f:	85 c0                	test   %eax,%eax
 1003f71:	0f 85 29 01 00 00    	jne    10040a0 <ACPITables_Initialize+0x1a0>
 1003f77:	89 4d e8             	mov    %ecx,-0x18(%ebp)
 1003f7a:	b8 ff ff f1 ff       	mov    $0xfff1ffff,%eax
 1003f7f:	29 f8                	sub    %edi,%eax
 1003f81:	01 d0                	add    %edx,%eax
 1003f83:	89 35 08 00 27 05    	mov    %esi,0x5270008
 1003f89:	8d 5e 14             	lea    0x14(%esi),%ebx
 1003f8c:	31 d2                	xor    %edx,%edx
 1003f8e:	83 f8 ff             	cmp    $0xffffffff,%eax
 1003f91:	89 f1                	mov    %esi,%ecx
 1003f93:	0f 84 e7 00 00 00    	je     1004080 <ACPITables_Initialize+0x180>
 1003f99:	89 5d e4             	mov    %ebx,-0x1c(%ebp)
 1003f9c:	8b 55 ec             	mov    -0x14(%ebp),%edx
 1003f9f:	29 fa                	sub    %edi,%edx
 1003fa1:	81 c2 00 00 f2 ff    	add    $0xfff20000,%edx
 1003fa7:	89 d1                	mov    %edx,%ecx
 1003fa9:	83 e1 f8             	and    $0xfffffff8,%ecx
 1003fac:	89 d0                	mov    %edx,%eax
 1003fae:	83 e0 f8             	and    $0xfffffff8,%eax
 1003fb1:	89 45 f0             	mov    %eax,-0x10(%ebp)
 1003fb4:	89 d7                	mov    %edx,%edi
 1003fb6:	0f 84 88 00 00 00    	je     1004044 <ACPITables_Initialize+0x144>
 1003fbc:	89 7d ec             	mov    %edi,-0x14(%ebp)
 1003fbf:	01 f1                	add    %esi,%ecx
 1003fc1:	66 0f ef c0          	pxor   %xmm0,%xmm0
 1003fc5:	31 d2                	xor    %edx,%edx
 1003fc7:	66 0f ef c9          	pxor   %xmm1,%xmm1
 1003fcb:	90                   	nop
 1003fcc:	8d 74 26 00          	lea    0x0(%esi,%eiz,1),%esi
 1003fd0:	66 0f 6f d1          	movdqa %xmm1,%xmm2
 1003fd4:	66 0f 6f d8          	movdqa %xmm0,%xmm3
 1003fd8:	8b 1c 16             	mov    (%esi,%edx,1),%ebx
 1003fdb:	8b 44 16 04          	mov    0x4(%esi,%edx,1),%eax
 1003fdf:	66 0f 6e c3          	movd   %ebx,%xmm0
 1003fe3:	66 0f c5 f8 01       	pextrw $0x1,%xmm0,%edi
 1003fe8:	66 0f c4 c3 00       	pinsrw $0x0,%ebx,%xmm0
 1003fed:	0f b6 df             	movzbl %bh,%ebx
 1003ff0:	66 0f c4 c3 02       	pinsrw $0x2,%ebx,%xmm0
 1003ff5:	66 0f c4 c7 04       	pinsrw $0x4,%edi,%xmm0
 1003ffa:	c1 ef 08             	shr    $0x8,%edi
 1003ffd:	66 0f c4 c7 06       	pinsrw $0x6,%edi,%xmm0
 1004002:	66 0f 6e c8          	movd   %eax,%xmm1
 1004006:	66 0f c5 f9 01       	pextrw $0x1,%xmm1,%edi
 100400b:	66 0f c4 c8 00       	pinsrw $0x0,%eax,%xmm1
 1004010:	0f b6 c4             	movzbl %ah,%eax
 1004013:	66 0f c4 c8 02       	pinsrw $0x2,%eax,%xmm1
 1004018:	8b 45 f0             	mov    -0x10(%ebp),%eax
 100401b:	66 0f c4 cf 04       	pinsrw $0x4,%edi,%xmm1
 1004020:	c1 ef 08             	shr    $0x8,%edi
 1004023:	66 0f c4 cf 06       	pinsrw $0x6,%edi,%xmm1
 1004028:	66 0f db c4          	pand   %xmm4,%xmm0
 100402c:	66 0f db cc          	pand   %xmm4,%xmm1
 1004030:	66 0f fe c3          	paddd  %xmm3,%xmm0
 1004034:	66 0f fe ca          	paddd  %xmm2,%xmm1
 1004038:	83 c2 08             	add    $0x8,%edx
 100403b:	39 d0                	cmp    %edx,%eax
 100403d:	75 91                	jne    1003fd0 <ACPITables_Initialize+0xd0>
 100403f:	8b 7d ec             	mov    -0x14(%ebp),%edi
 1004042:	eb 0c                	jmp    1004050 <ACPITables_Initialize+0x150>
 1004044:	66 0f ef c0          	pxor   %xmm0,%xmm0
 1004048:	31 c0                	xor    %eax,%eax
 100404a:	89 f1                	mov    %esi,%ecx
 100404c:	66 0f ef c9          	pxor   %xmm1,%xmm1
 1004050:	66 0f fe c1          	paddd  %xmm1,%xmm0
 1004054:	66 0f 6f c8          	movdqa %xmm0,%xmm1
 1004058:	0f 12 c9             	movhlps %xmm1,%xmm1
 100405b:	66 0f fe c8          	paddd  %xmm0,%xmm1
 100405f:	66 0f 70 c1 01       	pshufd $0x1,%xmm1,%xmm0
 1004064:	66 0f fe c1          	paddd  %xmm1,%xmm0
 1004068:	66 0f 7e c2          	movd   %xmm0,%edx
 100406c:	39 c7                	cmp    %eax,%edi
 100406e:	8b 5d e4             	mov    -0x1c(%ebp),%ebx
 1004071:	74 17                	je     100408a <ACPITables_Initialize+0x18a>
 1004073:	8d b6 00 00 00 00    	lea    0x0(%esi),%esi
 1004079:	8d bc 27 00 00 00 00 	lea    0x0(%edi,%eiz,1),%edi
 1004080:	0f b6 01             	movzbl (%ecx),%eax
 1004083:	01 c2                	add    %eax,%edx
 1004085:	41                   	inc    %ecx
 1004086:	39 d9                	cmp    %ebx,%ecx
 1004088:	72 f6                	jb     1004080 <ACPITables_Initialize+0x180>
 100408a:	84 d2                	test   %dl,%dl
 100408c:	74 26                	je     10040b4 <ACPITables_Initialize+0x1b4>
 100408e:	c7 05 08 00 27 05 00 	movl   $0x0,0x5270008
 1004095:	00 00 00 
 1004098:	8b 4d e8             	mov    -0x18(%ebp),%ecx
 100409b:	90                   	nop
 100409c:	8d 74 26 00          	lea    0x0(%esi,%eiz,1),%esi
 10040a0:	83 c6 10             	add    $0x10,%esi
 10040a3:	41                   	inc    %ecx
 10040a4:	b0 ff                	mov    $0xff,%al
 10040a6:	81 fe ff ff 0f 00    	cmp    $0xfffff,%esi
 10040ac:	0f 82 6e fe ff ff    	jb     1003f20 <ACPITables_Initialize+0x20>
 10040b2:	eb 03                	jmp    10040b7 <ACPITables_Initialize+0x1b7>
 10040b4:	8a 46 0f             	mov    0xf(%esi),%al
 10040b7:	0f b6 c0             	movzbl %al,%eax
 10040ba:	83 c4 1c             	add    $0x1c,%esp
 10040bd:	5e                   	pop    %esi
 10040be:	5f                   	pop    %edi
 10040bf:	5b                   	pop    %ebx
 10040c0:	5d                   	pop    %ebp
 10040c1:	c3                   	ret    
 10040c2:	8d b4 26 00 00 00 00 	lea    0x0(%esi,%eiz,1),%esi
 10040c9:	8d bc 27 00 00 00 00 	lea    0x0(%edi,%eiz,1),%edi

010040d0 <ACPITables_ValidateChecksum>:
 10040d0:	55                   	push   %ebp
 10040d1:	89 e5                	mov    %esp,%ebp
 10040d3:	53                   	push   %ebx
 10040d4:	56                   	push   %esi
 10040d5:	8b 45 08             	mov    0x8(%ebp),%eax
 10040d8:	8b 48 04             	mov    0x4(%eax),%ecx
 10040db:	b2 01                	mov    $0x1,%dl
 10040dd:	85 c9                	test   %ecx,%ecx
 10040df:	74 22                	je     1004103 <ACPITables_ValidateChecksum+0x33>
 10040e1:	31 d2                	xor    %edx,%edx
 10040e3:	31 f6                	xor    %esi,%esi
 10040e5:	8d 74 26 00          	lea    0x0(%esi,%eiz,1),%esi
 10040e9:	8d bc 27 00 00 00 00 	lea    0x0(%edi,%eiz,1),%edi
 10040f0:	0f b6 1c 10          	movzbl (%eax,%edx,1),%ebx
 10040f4:	01 f3                	add    %esi,%ebx
 10040f6:	42                   	inc    %edx
 10040f7:	0f b6 f3             	movzbl %bl,%esi
 10040fa:	39 ca                	cmp    %ecx,%edx
 10040fc:	72 f2                	jb     10040f0 <ACPITables_ValidateChecksum+0x20>
 10040fe:	85 f6                	test   %esi,%esi
 1004100:	0f 94 c2             	sete   %dl
 1004103:	0f b6 c2             	movzbl %dl,%eax
 1004106:	5e                   	pop    %esi
 1004107:	5b                   	pop    %ebx
 1004108:	5d                   	pop    %ebp
 1004109:	c3                   	ret    
 100410a:	8d b6 00 00 00 00    	lea    0x0(%esi),%esi

01004110 <ACPITables_FindTable>:
 1004110:	55                   	push   %ebp
 1004111:	89 e5                	mov    %esp,%ebp
 1004113:	53                   	push   %ebx
 1004114:	57                   	push   %edi
 1004115:	56                   	push   %esi
 1004116:	83 ec 18             	sub    $0x18,%esp
 1004119:	a1 08 00 27 05       	mov    0x5270008,%eax
 100411e:	31 f6                	xor    %esi,%esi
 1004120:	85 c0                	test   %eax,%eax
 1004122:	0f 84 dd 01 00 00    	je     1004305 <ACPITables_FindTable+0x1f5>
 1004128:	8b 5d 08             	mov    0x8(%ebp),%ebx
 100412b:	80 78 0f 00          	cmpb   $0x0,0xf(%eax)
 100412f:	74 4c                	je     100417d <ACPITables_FindTable+0x6d>
 1004131:	8b 70 18             	mov    0x18(%eax),%esi
 1004134:	8b 4e 04             	mov    0x4(%esi),%ecx
 1004137:	85 c9                	test   %ecx,%ecx
 1004139:	0f 84 92 00 00 00    	je     10041d1 <ACPITables_FindTable+0xc1>
 100413f:	31 c0                	xor    %eax,%eax
 1004141:	89 ca                	mov    %ecx,%edx
 1004143:	89 d7                	mov    %edx,%edi
 1004145:	89 f2                	mov    %esi,%edx
 1004147:	89 75 f0             	mov    %esi,-0x10(%ebp)
 100414a:	8d b6 00 00 00 00    	lea    0x0(%esi),%esi
 1004150:	0f b6 1a             	movzbl (%edx),%ebx
 1004153:	01 c3                	add    %eax,%ebx
 1004155:	0f b6 c3             	movzbl %bl,%eax
 1004158:	42                   	inc    %edx
 1004159:	49                   	dec    %ecx
 100415a:	75 f4                	jne    1004150 <ACPITables_FindTable+0x40>
 100415c:	be ff ff ff ff       	mov    $0xffffffff,%esi
 1004161:	85 c0                	test   %eax,%eax
 1004163:	8b 5d 08             	mov    0x8(%ebp),%ebx
 1004166:	89 f9                	mov    %edi,%ecx
 1004168:	0f 85 97 01 00 00    	jne    1004305 <ACPITables_FindTable+0x1f5>
 100416e:	83 c1 dc             	add    $0xffffffdc,%ecx
 1004171:	31 f6                	xor    %esi,%esi
 1004173:	c1 e9 03             	shr    $0x3,%ecx
 1004176:	75 62                	jne    10041da <ACPITables_FindTable+0xca>
 1004178:	e9 88 01 00 00       	jmp    1004305 <ACPITables_FindTable+0x1f5>
 100417d:	8b 70 10             	mov    0x10(%eax),%esi
 1004180:	8b 4e 04             	mov    0x4(%esi),%ecx
 1004183:	85 c9                	test   %ecx,%ecx
 1004185:	0f 84 e3 00 00 00    	je     100426e <ACPITables_FindTable+0x15e>
 100418b:	31 c0                	xor    %eax,%eax
 100418d:	89 ca                	mov    %ecx,%edx
 100418f:	89 d7                	mov    %edx,%edi
 1004191:	89 f2                	mov    %esi,%edx
 1004193:	89 75 f0             	mov    %esi,-0x10(%ebp)
 1004196:	8d 76 00             	lea    0x0(%esi),%esi
 1004199:	8d bc 27 00 00 00 00 	lea    0x0(%edi,%eiz,1),%edi
 10041a0:	0f b6 1a             	movzbl (%edx),%ebx
 10041a3:	01 c3                	add    %eax,%ebx
 10041a5:	0f b6 c3             	movzbl %bl,%eax
 10041a8:	42                   	inc    %edx
 10041a9:	49                   	dec    %ecx
 10041aa:	75 f4                	jne    10041a0 <ACPITables_FindTable+0x90>
 10041ac:	be ff ff ff ff       	mov    $0xffffffff,%esi
 10041b1:	85 c0                	test   %eax,%eax
 10041b3:	8b 5d 08             	mov    0x8(%ebp),%ebx
 10041b6:	89 f9                	mov    %edi,%ecx
 10041b8:	0f 85 47 01 00 00    	jne    1004305 <ACPITables_FindTable+0x1f5>
 10041be:	83 c1 dc             	add    $0xffffffdc,%ecx
 10041c1:	31 f6                	xor    %esi,%esi
 10041c3:	c1 e9 02             	shr    $0x2,%ecx
 10041c6:	0f 85 ab 00 00 00    	jne    1004277 <ACPITables_FindTable+0x167>
 10041cc:	e9 34 01 00 00       	jmp    1004305 <ACPITables_FindTable+0x1f5>
 10041d1:	89 75 f0             	mov    %esi,-0x10(%ebp)
 10041d4:	83 c1 dc             	add    $0xffffffdc,%ecx
 10041d7:	c1 e9 03             	shr    $0x3,%ecx
 10041da:	89 4d ec             	mov    %ecx,-0x14(%ebp)
 10041dd:	31 ff                	xor    %edi,%edi
 10041df:	c7 45 e8 00 00 00 00 	movl   $0x0,-0x18(%ebp)
 10041e6:	8d 76 00             	lea    0x0(%esi),%esi
 10041e9:	8d bc 27 00 00 00 00 	lea    0x0(%edi,%eiz,1),%edi
 10041f0:	8b 45 f0             	mov    -0x10(%ebp),%eax
 10041f3:	8b 74 f8 24          	mov    0x24(%eax,%edi,8),%esi
 10041f7:	89 5c 24 04          	mov    %ebx,0x4(%esp)
 10041fb:	89 34 24             	mov    %esi,(%esp)
 10041fe:	c7 44 24 08 04 00 00 	movl   $0x4,0x8(%esp)
 1004205:	00 
 1004206:	e8 c5 bf ff ff       	call   10001d0 <strncmp>
 100420b:	85 c0                	test   %eax,%eax
 100420d:	74 11                	je     1004220 <ACPITables_FindTable+0x110>
 100420f:	8b 45 ec             	mov    -0x14(%ebp),%eax
 1004212:	eb 4e                	jmp    1004262 <ACPITables_FindTable+0x152>
 1004214:	8d b6 00 00 00 00    	lea    0x0(%esi),%esi
 100421a:	8d bf 00 00 00 00    	lea    0x0(%edi),%edi
 1004220:	8b 46 04             	mov    0x4(%esi),%eax
 1004223:	85 c0                	test   %eax,%eax
 1004225:	74 29                	je     1004250 <ACPITables_FindTable+0x140>
 1004227:	31 c9                	xor    %ecx,%ecx
 1004229:	89 f2                	mov    %esi,%edx
 100422b:	90                   	nop
 100422c:	8d 74 26 00          	lea    0x0(%esi,%eiz,1),%esi
 1004230:	0f b6 1a             	movzbl (%edx),%ebx
 1004233:	01 cb                	add    %ecx,%ebx
 1004235:	0f b6 cb             	movzbl %bl,%ecx
 1004238:	42                   	inc    %edx
 1004239:	48                   	dec    %eax
 100423a:	75 f4                	jne    1004230 <ACPITables_FindTable+0x120>
 100423c:	85 c9                	test   %ecx,%ecx
 100423e:	8b 5d 08             	mov    0x8(%ebp),%ebx
 1004241:	74 0d                	je     1004250 <ACPITables_FindTable+0x140>
 1004243:	8b 45 ec             	mov    -0x14(%ebp),%eax
 1004246:	eb 1a                	jmp    1004262 <ACPITables_FindTable+0x152>
 1004248:	90                   	nop
 1004249:	8d b4 26 00 00 00 00 	lea    0x0(%esi,%eiz,1),%esi
 1004250:	8b 45 e8             	mov    -0x18(%ebp),%eax
 1004253:	3b 45 0c             	cmp    0xc(%ebp),%eax
 1004256:	8b 45 ec             	mov    -0x14(%ebp),%eax
 1004259:	0f 84 a6 00 00 00    	je     1004305 <ACPITables_FindTable+0x1f5>
 100425f:	ff 45 e8             	incl   -0x18(%ebp)
 1004262:	47                   	inc    %edi
 1004263:	31 f6                	xor    %esi,%esi
 1004265:	39 c7                	cmp    %eax,%edi
 1004267:	7c 87                	jl     10041f0 <ACPITables_FindTable+0xe0>
 1004269:	e9 97 00 00 00       	jmp    1004305 <ACPITables_FindTable+0x1f5>
 100426e:	89 75 f0             	mov    %esi,-0x10(%ebp)
 1004271:	83 c1 dc             	add    $0xffffffdc,%ecx
 1004274:	c1 e9 02             	shr    $0x2,%ecx
 1004277:	89 4d ec             	mov    %ecx,-0x14(%ebp)
 100427a:	c7 45 e8 00 00 00 00 	movl   $0x0,-0x18(%ebp)
 1004281:	31 ff                	xor    %edi,%edi
 1004283:	8d b6 00 00 00 00    	lea    0x0(%esi),%esi
 1004289:	8d bc 27 00 00 00 00 	lea    0x0(%edi,%eiz,1),%edi
 1004290:	8b 45 f0             	mov    -0x10(%ebp),%eax
 1004293:	8b 74 b8 24          	mov    0x24(%eax,%edi,4),%esi
 1004297:	89 5c 24 04          	mov    %ebx,0x4(%esp)
 100429b:	89 34 24             	mov    %esi,(%esp)
 100429e:	c7 44 24 08 04 00 00 	movl   $0x4,0x8(%esp)
 10042a5:	00 
 10042a6:	e8 25 bf ff ff       	call   10001d0 <strncmp>
 10042ab:	85 c0                	test   %eax,%eax
 10042ad:	74 11                	je     10042c0 <ACPITables_FindTable+0x1b0>
 10042af:	8b 45 ec             	mov    -0x14(%ebp),%eax
 10042b2:	eb 4a                	jmp    10042fe <ACPITables_FindTable+0x1ee>
 10042b4:	8d b6 00 00 00 00    	lea    0x0(%esi),%esi
 10042ba:	8d bf 00 00 00 00    	lea    0x0(%edi),%edi
 10042c0:	8b 46 04             	mov    0x4(%esi),%eax
 10042c3:	85 c0                	test   %eax,%eax
 10042c5:	74 29                	je     10042f0 <ACPITables_FindTable+0x1e0>
 10042c7:	31 c9                	xor    %ecx,%ecx
 10042c9:	89 f2                	mov    %esi,%edx
 10042cb:	90                   	nop
 10042cc:	8d 74 26 00          	lea    0x0(%esi,%eiz,1),%esi
 10042d0:	0f b6 1a             	movzbl (%edx),%ebx
 10042d3:	01 cb                	add    %ecx,%ebx
 10042d5:	0f b6 cb             	movzbl %bl,%ecx
 10042d8:	42                   	inc    %edx
 10042d9:	48                   	dec    %eax
 10042da:	75 f4                	jne    10042d0 <ACPITables_FindTable+0x1c0>
 10042dc:	85 c9                	test   %ecx,%ecx
 10042de:	8b 5d 08             	mov    0x8(%ebp),%ebx
 10042e1:	74 0d                	je     10042f0 <ACPITables_FindTable+0x1e0>
 10042e3:	8b 45 ec             	mov    -0x14(%ebp),%eax
 10042e6:	eb 16                	jmp    10042fe <ACPITables_FindTable+0x1ee>
 10042e8:	90                   	nop
 10042e9:	8d b4 26 00 00 00 00 	lea    0x0(%esi,%eiz,1),%esi
 10042f0:	8b 45 e8             	mov    -0x18(%ebp),%eax
 10042f3:	3b 45 0c             	cmp    0xc(%ebp),%eax
 10042f6:	8b 45 ec             	mov    -0x14(%ebp),%eax
 10042f9:	74 0a                	je     1004305 <ACPITables_FindTable+0x1f5>
 10042fb:	ff 45 e8             	incl   -0x18(%ebp)
 10042fe:	47                   	inc    %edi
 10042ff:	31 f6                	xor    %esi,%esi
 1004301:	39 c7                	cmp    %eax,%edi
 1004303:	7c 8b                	jl     1004290 <ACPITables_FindTable+0x180>
 1004305:	89 f0                	mov    %esi,%eax
 1004307:	83 c4 18             	add    $0x18,%esp
 100430a:	5e                   	pop    %esi
 100430b:	5f                   	pop    %edi
 100430c:	5b                   	pop    %ebx
 100430d:	5d                   	pop    %ebp
 100430e:	c3                   	ret    
 100430f:	90                   	nop

01004310 <APIC_LocalInitialize>:
 1004310:	55                   	push   %ebp
 1004311:	89 e5                	mov    %esp,%ebp
 1004313:	53                   	push   %ebx
 1004314:	56                   	push   %esi
 1004315:	83 ec 10             	sub    $0x10,%esp
 1004318:	e8 c3 17 00 00       	call   1005ae0 <PIC_MaskAll>
 100431d:	31 db                	xor    %ebx,%ebx
 100431f:	be 74 16 27 05       	mov    $0x5271674,%esi
 1004324:	8d b6 00 00 00 00    	lea    0x0(%esi),%esi
 100432a:	8d bf 00 00 00 00    	lea    0x0(%edi),%edi
 1004330:	c6 06 68             	movb   $0x68,(%esi)
 1004333:	88 5e 01             	mov    %bl,0x1(%esi)
 1004336:	c6 46 02 00          	movb   $0x0,0x2(%esi)
 100433a:	c6 46 03 00          	movb   $0x0,0x3(%esi)
 100433e:	c6 46 04 00          	movb   $0x0,0x4(%esi)
 1004342:	c6 46 05 68          	movb   $0x68,0x5(%esi)
 1004346:	8d 43 20             	lea    0x20(%ebx),%eax
 1004349:	88 46 06             	mov    %al,0x6(%esi)
 100434c:	c6 46 07 00          	movb   $0x0,0x7(%esi)
 1004350:	c6 46 08 00          	movb   $0x0,0x8(%esi)
 1004354:	c6 46 09 00          	movb   $0x0,0x9(%esi)
 1004358:	c6 46 0a 68          	movb   $0x68,0xa(%esi)
 100435c:	b9 a0 46 00 01       	mov    $0x10046a0,%ecx
 1004361:	88 4e 0b             	mov    %cl,0xb(%esi)
 1004364:	88 6e 0c             	mov    %ch,0xc(%esi)
 1004367:	b9 a0 46 00 01       	mov    $0x10046a0,%ecx
 100436c:	c1 e9 10             	shr    $0x10,%ecx
 100436f:	88 4e 0d             	mov    %cl,0xd(%esi)
 1004372:	b9 a0 46 00 01       	mov    $0x10046a0,%ecx
 1004377:	c1 e9 18             	shr    $0x18,%ecx
 100437a:	88 4e 0e             	mov    %cl,0xe(%esi)
 100437d:	c6 46 0f c3          	movb   $0xc3,0xf(%esi)
 1004381:	89 74 24 04          	mov    %esi,0x4(%esp)
 1004385:	0f b6 c0             	movzbl %al,%eax
 1004388:	89 04 24             	mov    %eax,(%esp)
 100438b:	c7 44 24 0c 8e 00 00 	movl   $0x8e,0xc(%esp)
 1004392:	00 
 1004393:	c7 44 24 08 08 00 00 	movl   $0x8,0x8(%esp)
 100439a:	00 
 100439b:	e8 00 2d 00 00       	call   10070a0 <IDT_SetEntry>
 10043a0:	43                   	inc    %ebx
 10043a1:	83 c6 30             	add    $0x30,%esi
 10043a4:	81 fb e0 00 00 00    	cmp    $0xe0,%ebx
 10043aa:	75 84                	jne    1004330 <APIC_LocalInitialize+0x20>
 10043ac:	c7 04 24 1b 00 00 00 	movl   $0x1b,(%esp)
 10043b3:	e8 e8 bc ff ff       	call   10000a0 <rdmsr>
 10043b8:	89 c1                	mov    %eax,%ecx
 10043ba:	81 e1 00 f0 ff ff    	and    $0xfffff000,%ecx
 10043c0:	89 0d c8 4c 27 05    	mov    %ecx,0x5274cc8
 10043c6:	0d 00 08 00 00       	or     $0x800,%eax
 10043cb:	89 54 24 08          	mov    %edx,0x8(%esp)
 10043cf:	89 44 24 04          	mov    %eax,0x4(%esp)
 10043d3:	c7 04 24 1b 00 00 00 	movl   $0x1b,(%esp)
 10043da:	e8 b1 bc ff ff       	call   1000090 <wrmsr>
 10043df:	a1 c8 4c 27 05       	mov    0x5274cc8,%eax
 10043e4:	81 a0 80 00 00 00 00 	andl   $0xffffff00,0x80(%eax)
 10043eb:	ff ff ff 
 10043ee:	81 88 f0 00 00 00 ff 	orl    $0x1ff,0xf0(%eax)
 10043f5:	01 00 00 
 10043f8:	31 c0                	xor    %eax,%eax
 10043fa:	83 c4 10             	add    $0x10,%esp
 10043fd:	5e                   	pop    %esi
 10043fe:	5b                   	pop    %ebx
 10043ff:	5d                   	pop    %ebp
 1004400:	c3                   	ret    
 1004401:	eb 0d                	jmp    1004410 <APIC_FillHWInterruptHandler>
 1004403:	90                   	nop
 1004404:	90                   	nop
 1004405:	90                   	nop
 1004406:	90                   	nop
 1004407:	90                   	nop
 1004408:	90                   	nop
 1004409:	90                   	nop
 100440a:	90                   	nop
 100440b:	90                   	nop
 100440c:	90                   	nop
 100440d:	90                   	nop
 100440e:	90                   	nop
 100440f:	90                   	nop

01004410 <APIC_FillHWInterruptHandler>:
 1004410:	55                   	push   %ebp
 1004411:	89 e5                	mov    %esp,%ebp
 1004413:	8a 45 0c             	mov    0xc(%ebp),%al
 1004416:	8a 4d 10             	mov    0x10(%ebp),%cl
 1004419:	8b 55 08             	mov    0x8(%ebp),%edx
 100441c:	c6 02 68             	movb   $0x68,(%edx)
 100441f:	88 4a 01             	mov    %cl,0x1(%edx)
 1004422:	c6 42 02 00          	movb   $0x0,0x2(%edx)
 1004426:	c6 42 03 00          	movb   $0x0,0x3(%edx)
 100442a:	c6 42 04 00          	movb   $0x0,0x4(%edx)
 100442e:	c6 42 05 68          	movb   $0x68,0x5(%edx)
 1004432:	88 42 06             	mov    %al,0x6(%edx)
 1004435:	c6 42 07 00          	movb   $0x0,0x7(%edx)
 1004439:	c6 42 08 00          	movb   $0x0,0x8(%edx)
 100443d:	c6 42 09 00          	movb   $0x0,0x9(%edx)
 1004441:	c6 42 0a 68          	movb   $0x68,0xa(%edx)
 1004445:	b8 a0 46 00 01       	mov    $0x10046a0,%eax
 100444a:	88 42 0b             	mov    %al,0xb(%edx)
 100444d:	88 62 0c             	mov    %ah,0xc(%edx)
 1004450:	b9 a0 46 00 01       	mov    $0x10046a0,%ecx
 1004455:	c1 e9 10             	shr    $0x10,%ecx
 1004458:	88 4a 0d             	mov    %cl,0xd(%edx)
 100445b:	c1 e8 18             	shr    $0x18,%eax
 100445e:	88 42 0e             	mov    %al,0xe(%edx)
 1004461:	c6 42 0f c3          	movb   $0xc3,0xf(%edx)
 1004465:	5d                   	pop    %ebp
 1004466:	c3                   	ret    
 1004467:	89 f6                	mov    %esi,%esi
 1004469:	8d bc 27 00 00 00 00 	lea    0x0(%edi,%eiz,1),%edi

01004470 <APIC_Read>:
 1004470:	55                   	push   %ebp
 1004471:	89 e5                	mov    %esp,%ebp
 1004473:	8b 45 08             	mov    0x8(%ebp),%eax
 1004476:	83 e0 fc             	and    $0xfffffffc,%eax
 1004479:	8b 0d c8 4c 27 05    	mov    0x5274cc8,%ecx
 100447f:	8b 04 01             	mov    (%ecx,%eax,1),%eax
 1004482:	5d                   	pop    %ebp
 1004483:	c3                   	ret    
 1004484:	8d b6 00 00 00 00    	lea    0x0(%esi),%esi
 100448a:	8d bf 00 00 00 00    	lea    0x0(%edi),%edi

01004490 <APIC_Write>:
 1004490:	55                   	push   %ebp
 1004491:	89 e5                	mov    %esp,%ebp
 1004493:	8b 45 0c             	mov    0xc(%ebp),%eax
 1004496:	8b 4d 08             	mov    0x8(%ebp),%ecx
 1004499:	83 e1 fc             	and    $0xfffffffc,%ecx
 100449c:	8b 15 c8 4c 27 05    	mov    0x5274cc8,%edx
 10044a2:	89 04 0a             	mov    %eax,(%edx,%ecx,1)
 10044a5:	5d                   	pop    %ebp
 10044a6:	c3                   	ret    
 10044a7:	89 f6                	mov    %esi,%esi
 10044a9:	8d bc 27 00 00 00 00 	lea    0x0(%edi,%eiz,1),%edi

010044b0 <APIC_SetEnableMode>:
 10044b0:	55                   	push   %ebp
 10044b1:	89 e5                	mov    %esp,%ebp
 10044b3:	a1 c8 4c 27 05       	mov    0x5274cc8,%eax
 10044b8:	8b 88 f0 00 00 00    	mov    0xf0(%eax),%ecx
 10044be:	0f b6 55 08          	movzbl 0x8(%ebp),%edx
 10044c2:	83 e2 01             	and    $0x1,%edx
 10044c5:	f7 da                	neg    %edx
 10044c7:	31 ca                	xor    %ecx,%edx
 10044c9:	81 e2 00 01 00 00    	and    $0x100,%edx
 10044cf:	31 ca                	xor    %ecx,%edx
 10044d1:	89 90 f0 00 00 00    	mov    %edx,0xf0(%eax)
 10044d7:	5d                   	pop    %ebp
 10044d8:	c3                   	ret    
 10044d9:	8d b4 26 00 00 00 00 	lea    0x0(%esi,%eiz,1),%esi

010044e0 <APIC_Virtualize>:
 10044e0:	55                   	push   %ebp
 10044e1:	89 e5                	mov    %esp,%ebp
 10044e3:	81 05 c8 4c 27 05 00 	addl   $0x20000000,0x5274cc8
 10044ea:	00 00 20 
 10044ed:	5d                   	pop    %ebp
 10044ee:	c3                   	ret    
 10044ef:	90                   	nop

010044f0 <APIC_SetEnableInterrupt>:
 10044f0:	55                   	push   %ebp
 10044f1:	89 e5                	mov    %esp,%ebp
 10044f3:	56                   	push   %esi
 10044f4:	8b 45 08             	mov    0x8(%ebp),%eax
 10044f7:	8d 88 e0 fc ff ff    	lea    -0x320(%eax),%ecx
 10044fd:	83 f9 50             	cmp    $0x50,%ecx
 1004500:	77 23                	ja     1004525 <APIC_SetEnableInterrupt+0x35>
 1004502:	8b 4d 0c             	mov    0xc(%ebp),%ecx
 1004505:	83 e0 fc             	and    $0xfffffffc,%eax
 1004508:	8b 15 c8 4c 27 05    	mov    0x5274cc8,%edx
 100450e:	8b 34 02             	mov    (%edx,%eax,1),%esi
 1004511:	81 c9 fe ff 01 00    	or     $0x1fffe,%ecx
 1004517:	41                   	inc    %ecx
 1004518:	31 f1                	xor    %esi,%ecx
 100451a:	81 e1 00 00 01 00    	and    $0x10000,%ecx
 1004520:	31 f1                	xor    %esi,%ecx
 1004522:	89 0c 02             	mov    %ecx,(%edx,%eax,1)
 1004525:	5e                   	pop    %esi
 1004526:	5d                   	pop    %ebp
 1004527:	c3                   	ret    
 1004528:	90                   	nop
 1004529:	8d b4 26 00 00 00 00 	lea    0x0(%esi,%eiz,1),%esi

01004530 <APIC_SetVector>:
 1004530:	55                   	push   %ebp
 1004531:	89 e5                	mov    %esp,%ebp
 1004533:	8b 45 08             	mov    0x8(%ebp),%eax
 1004536:	8d 88 e0 fc ff ff    	lea    -0x320(%eax),%ecx
 100453c:	83 f9 50             	cmp    $0x50,%ecx
 100453f:	77 10                	ja     1004551 <APIC_SetVector+0x21>
 1004541:	83 e0 fc             	and    $0xfffffffc,%eax
 1004544:	8b 0d c8 4c 27 05    	mov    0x5274cc8,%ecx
 100454a:	0f b6 55 0c          	movzbl 0xc(%ebp),%edx
 100454e:	09 14 01             	or     %edx,(%ecx,%eax,1)
 1004551:	5d                   	pop    %ebp
 1004552:	c3                   	ret    
 1004553:	8d b6 00 00 00 00    	lea    0x0(%esi),%esi
 1004559:	8d bc 27 00 00 00 00 	lea    0x0(%edi,%eiz,1),%edi

01004560 <APIC_SetDeliveryMode>:
 1004560:	55                   	push   %ebp
 1004561:	89 e5                	mov    %esp,%ebp
 1004563:	8b 45 08             	mov    0x8(%ebp),%eax
 1004566:	8d 88 e0 fc ff ff    	lea    -0x320(%eax),%ecx
 100456c:	83 f9 40             	cmp    $0x40,%ecx
 100456f:	77 16                	ja     1004587 <APIC_SetDeliveryMode+0x27>
 1004571:	83 e0 fc             	and    $0xfffffffc,%eax
 1004574:	8b 0d c8 4c 27 05    	mov    0x5274cc8,%ecx
 100457a:	0f b6 55 0c          	movzbl 0xc(%ebp),%edx
 100457e:	83 e2 07             	and    $0x7,%edx
 1004581:	c1 e2 08             	shl    $0x8,%edx
 1004584:	09 14 01             	or     %edx,(%ecx,%eax,1)
 1004587:	5d                   	pop    %ebp
 1004588:	c3                   	ret    
 1004589:	8d b4 26 00 00 00 00 	lea    0x0(%esi,%eiz,1),%esi

01004590 <APIC_SetTriggerMode>:
 1004590:	55                   	push   %ebp
 1004591:	89 e5                	mov    %esp,%ebp
 1004593:	8b 45 08             	mov    0x8(%ebp),%eax
 1004596:	8d 88 b0 fc ff ff    	lea    -0x350(%eax),%ecx
 100459c:	83 f9 10             	cmp    $0x10,%ecx
 100459f:	77 16                	ja     10045b7 <APIC_SetTriggerMode+0x27>
 10045a1:	83 e0 fc             	and    $0xfffffffc,%eax
 10045a4:	8b 0d c8 4c 27 05    	mov    0x5274cc8,%ecx
 10045aa:	0f b6 55 0c          	movzbl 0xc(%ebp),%edx
 10045ae:	83 e2 01             	and    $0x1,%edx
 10045b1:	c1 e2 0f             	shl    $0xf,%edx
 10045b4:	09 14 01             	or     %edx,(%ecx,%eax,1)
 10045b7:	5d                   	pop    %ebp
 10045b8:	c3                   	ret    
 10045b9:	8d b4 26 00 00 00 00 	lea    0x0(%esi,%eiz,1),%esi

010045c0 <APIC_SetPolarity>:
 10045c0:	55                   	push   %ebp
 10045c1:	89 e5                	mov    %esp,%ebp
 10045c3:	8b 45 08             	mov    0x8(%ebp),%eax
 10045c6:	8d 88 b0 fc ff ff    	lea    -0x350(%eax),%ecx
 10045cc:	83 f9 10             	cmp    $0x10,%ecx
 10045cf:	77 16                	ja     10045e7 <APIC_SetPolarity+0x27>
 10045d1:	83 e0 fc             	and    $0xfffffffc,%eax
 10045d4:	8b 0d c8 4c 27 05    	mov    0x5274cc8,%ecx
 10045da:	0f b6 55 0c          	movzbl 0xc(%ebp),%edx
 10045de:	83 e2 01             	and    $0x1,%edx
 10045e1:	c1 e2 0d             	shl    $0xd,%edx
 10045e4:	09 14 01             	or     %edx,(%ecx,%eax,1)
 10045e7:	5d                   	pop    %ebp
 10045e8:	c3                   	ret    
 10045e9:	8d b4 26 00 00 00 00 	lea    0x0(%esi,%eiz,1),%esi

010045f0 <APIC_SetTimerMode>:
 10045f0:	55                   	push   %ebp
 10045f1:	89 e5                	mov    %esp,%ebp
 10045f3:	a1 c8 4c 27 05       	mov    0x5274cc8,%eax
 10045f8:	8b 4d 08             	mov    0x8(%ebp),%ecx
 10045fb:	83 e1 03             	and    $0x3,%ecx
 10045fe:	c1 e1 11             	shl    $0x11,%ecx
 1004601:	09 88 20 03 00 00    	or     %ecx,0x320(%eax)
 1004607:	5d                   	pop    %ebp
 1004608:	c3                   	ret    
 1004609:	8d b4 26 00 00 00 00 	lea    0x0(%esi,%eiz,1),%esi

01004610 <APIC_SetTimerDivisor>:
 1004610:	55                   	push   %ebp
 1004611:	89 e5                	mov    %esp,%ebp
 1004613:	56                   	push   %esi
 1004614:	0f b6 45 08          	movzbl 0x8(%ebp),%eax
 1004618:	83 f8 10             	cmp    $0x10,%eax
 100461b:	0f 97 c2             	seta   %dl
 100461e:	76 03                	jbe    1004623 <APIC_SetTimerDivisor+0x13>
 1004620:	c0 e8 04             	shr    $0x4,%al
 1004623:	b9 0b 00 00 00       	mov    $0xb,%ecx
 1004628:	0f b6 f0             	movzbl %al,%esi
 100462b:	83 fe 01             	cmp    $0x1,%esi
 100462e:	74 1b                	je     100464b <APIC_SetTimerDivisor+0x3b>
 1004630:	0f b6 ca             	movzbl %dl,%ecx
 1004633:	c1 e1 03             	shl    $0x3,%ecx
 1004636:	83 fe 10             	cmp    $0x10,%esi
 1004639:	75 05                	jne    1004640 <APIC_SetTimerDivisor+0x30>
 100463b:	83 c9 03             	or     $0x3,%ecx
 100463e:	eb 0b                	jmp    100464b <APIC_SetTimerDivisor+0x3b>
 1004640:	c0 e8 02             	shr    $0x2,%al
 1004643:	0f b6 c0             	movzbl %al,%eax
 1004646:	83 e0 03             	and    $0x3,%eax
 1004649:	09 c1                	or     %eax,%ecx
 100464b:	0f b6 c1             	movzbl %cl,%eax
 100464e:	8b 0d c8 4c 27 05    	mov    0x5274cc8,%ecx
 1004654:	89 81 e0 03 00 00    	mov    %eax,0x3e0(%ecx)
 100465a:	5e                   	pop    %esi
 100465b:	5d                   	pop    %ebp
 100465c:	c3                   	ret    
 100465d:	8d 76 00             	lea    0x0(%esi),%esi

01004660 <APIC_SetTimerValue>:
 1004660:	55                   	push   %ebp
 1004661:	89 e5                	mov    %esp,%ebp
 1004663:	8b 45 08             	mov    0x8(%ebp),%eax
 1004666:	8b 0d c8 4c 27 05    	mov    0x5274cc8,%ecx
 100466c:	89 81 80 03 00 00    	mov    %eax,0x380(%ecx)
 1004672:	5d                   	pop    %ebp
 1004673:	c3                   	ret    
 1004674:	8d b6 00 00 00 00    	lea    0x0(%esi),%esi
 100467a:	8d bf 00 00 00 00    	lea    0x0(%edi),%edi

01004680 <APIC_GetTimerValue>:
 1004680:	55                   	push   %ebp
 1004681:	89 e5                	mov    %esp,%ebp
 1004683:	a1 c8 4c 27 05       	mov    0x5274cc8,%eax
 1004688:	8b 80 80 03 00 00    	mov    0x380(%eax),%eax
 100468e:	5d                   	pop    %ebp
 100468f:	c3                   	ret    

01004690 <APIC_GetID>:
 1004690:	55                   	push   %ebp
 1004691:	89 e5                	mov    %esp,%ebp
 1004693:	a1 c8 4c 27 05       	mov    0x5274cc8,%eax
 1004698:	0f b6 40 20          	movzbl 0x20(%eax),%eax
 100469c:	5d                   	pop    %ebp
 100469d:	c3                   	ret    
 100469e:	66 90                	xchg   %ax,%ax

010046a0 <APIC_DefaultHandler>:
 10046a0:	60                   	pusha  
 10046a1:	66 8c d8             	mov    %ds,%ax
 10046a4:	50                   	push   %eax
 10046a5:	66 b8 10 00          	mov    $0x10,%ax
 10046a9:	8e d8                	mov    %eax,%ds
 10046ab:	8e c0                	mov    %eax,%es
 10046ad:	8e e0                	mov    %eax,%fs
 10046af:	8e e8                	mov    %eax,%gs
 10046b1:	54                   	push   %esp
 10046b2:	e8 79 00 00 00       	call   1004730 <APIC_MainHandler>
 10046b7:	5b                   	pop    %ebx
 10046b8:	5b                   	pop    %ebx
 10046b9:	8e db                	mov    %ebx,%ds
 10046bb:	8e c3                	mov    %ebx,%es
 10046bd:	8e e3                	mov    %ebx,%fs
 10046bf:	8e eb                	mov    %ebx,%gs
 10046c1:	61                   	popa   
 10046c2:	83 c4 08             	add    $0x8,%esp
 10046c5:	cf                   	iret   
 10046c6:	c3                   	ret    
 10046c7:	89 f6                	mov    %esi,%esi
 10046c9:	8d bc 27 00 00 00 00 	lea    0x0(%edi,%eiz,1),%edi

010046d0 <APIC_SendEOI>:
 10046d0:	55                   	push   %ebp
 10046d1:	89 e5                	mov    %esp,%ebp
 10046d3:	56                   	push   %esi
 10046d4:	83 ec 08             	sub    $0x8,%esp
 10046d7:	8a 4d 08             	mov    0x8(%ebp),%cl
 10046da:	88 c8                	mov    %cl,%al
 10046dc:	c0 e8 05             	shr    $0x5,%al
 10046df:	0f b6 c0             	movzbl %al,%eax
 10046e2:	c1 e0 04             	shl    $0x4,%eax
 10046e5:	8b 15 c8 4c 27 05    	mov    0x5274cc8,%edx
 10046eb:	be 01 00 00 00       	mov    $0x1,%esi
 10046f0:	d3 e6                	shl    %cl,%esi
 10046f2:	23 b4 02 00 01 00 00 	and    0x100(%edx,%eax,1),%esi
 10046f9:	d3 ee                	shr    %cl,%esi
 10046fb:	85 f6                	test   %esi,%esi
 10046fd:	74 22                	je     1004721 <APIC_SendEOI+0x51>
 10046ff:	0f b6 c1             	movzbl %cl,%eax
 1004702:	89 44 24 04          	mov    %eax,0x4(%esp)
 1004706:	c7 04 24 0f 84 00 01 	movl   $0x100840f,(%esp)
 100470d:	e8 0e 1f 00 00       	call   1006620 <COM_WriteStr>
 1004712:	a1 c8 4c 27 05       	mov    0x5274cc8,%eax
 1004717:	c7 80 b0 00 00 00 ef 	movl   $0xdeadbeef,0xb0(%eax)
 100471e:	be ad de 
 1004721:	83 c4 08             	add    $0x8,%esp
 1004724:	5e                   	pop    %esi
 1004725:	5d                   	pop    %ebp
 1004726:	c3                   	ret    
 1004727:	89 f6                	mov    %esi,%esi
 1004729:	8d bc 27 00 00 00 00 	lea    0x0(%edi,%eiz,1),%edi

01004730 <APIC_MainHandler>:
 1004730:	55                   	push   %ebp
 1004731:	89 e5                	mov    %esp,%ebp
 1004733:	5d                   	pop    %ebp
 1004734:	e9 57 2a 00 00       	jmp    1007190 <IDT_MainHandler>
 1004739:	66 90                	xchg   %ax,%ax
 100473b:	66 90                	xchg   %ax,%ax
 100473d:	66 90                	xchg   %ax,%ax
 100473f:	90                   	nop

01004740 <APIC_Initialize>:
 1004740:	55                   	push   %ebp
 1004741:	89 e5                	mov    %esp,%ebp
 1004743:	53                   	push   %ebx
 1004744:	57                   	push   %edi
 1004745:	56                   	push   %esi
 1004746:	83 ec 2c             	sub    $0x2c,%esp
 1004749:	c7 44 24 04 00 02 00 	movl   $0x200,0x4(%esp)
 1004750:	00 
 1004751:	c7 04 24 01 00 00 00 	movl   $0x1,(%esp)
 1004758:	e8 73 2a 00 00       	call   10071d0 <CPUID_FeatureIsAvailable>
 100475d:	bf ff ff ff ff       	mov    $0xffffffff,%edi
 1004762:	84 c0                	test   %al,%al
 1004764:	0f 84 3c 03 00 00    	je     1004aa6 <APIC_Initialize+0x366>
 100476a:	e8 a1 fb ff ff       	call   1004310 <APIC_LocalInitialize>
 100476f:	c7 44 24 04 00 00 00 	movl   $0x0,0x4(%esp)
 1004776:	00 
 1004777:	c7 04 24 97 a5 03 01 	movl   $0x103a597,(%esp)
 100477e:	e8 8d f9 ff ff       	call   1004110 <ACPITables_FindTable>
 1004783:	89 c6                	mov    %eax,%esi
 1004785:	85 f6                	test   %esi,%esi
 1004787:	0f 84 0d 03 00 00    	je     1004a9a <APIC_Initialize+0x35a>
 100478d:	c7 45 e0 01 00 00 00 	movl   $0x1,-0x20(%ebp)
 1004794:	8d b6 00 00 00 00    	lea    0x0(%esi),%esi
 100479a:	8d bf 00 00 00 00    	lea    0x0(%edi),%edi
 10047a0:	89 75 e8             	mov    %esi,-0x18(%ebp)
 10047a3:	8b 46 04             	mov    0x4(%esi),%eax
 10047a6:	83 c0 d4             	add    $0xffffffd4,%eax
 10047a9:	89 45 f0             	mov    %eax,-0x10(%ebp)
 10047ac:	c7 45 e4 00 00 00 00 	movl   $0x0,-0x1c(%ebp)
 10047b3:	8d b6 00 00 00 00    	lea    0x0(%esi),%esi
 10047b9:	8d bc 27 00 00 00 00 	lea    0x0(%edi,%eiz,1),%edi
 10047c0:	83 7d f0 00          	cmpl   $0x0,-0x10(%ebp)
 10047c4:	0f 84 9b 02 00 00    	je     1004a65 <APIC_Initialize+0x325>
 10047ca:	31 ff                	xor    %edi,%edi
 10047cc:	83 7d e4 00          	cmpl   $0x0,-0x1c(%ebp)
 10047d0:	0f 84 1a 01 00 00    	je     10048f0 <APIC_Initialize+0x1b0>
 10047d6:	8d 76 00             	lea    0x0(%esi),%esi
 10047d9:	8d bc 27 00 00 00 00 	lea    0x0(%edi,%eiz,1),%edi
 10047e0:	0f b6 44 37 2c       	movzbl 0x2c(%edi,%esi,1),%eax
 10047e5:	83 f8 02             	cmp    $0x2,%eax
 10047e8:	0f 85 dc 00 00 00    	jne    10048ca <APIC_Initialize+0x18a>
 10047ee:	8a 7c 37 34          	mov    0x34(%edi,%esi,1),%bh
 10047f2:	8a 5c 37 2f          	mov    0x2f(%edi,%esi,1),%bl
 10047f6:	8a 44 37 30          	mov    0x30(%edi,%esi,1),%al
 10047fa:	88 45 ef             	mov    %al,-0x11(%ebp)
 10047fd:	e8 8e fe ff ff       	call   1004690 <APIC_GetID>
 1004802:	88 f9                	mov    %bh,%cl
 1004804:	c0 e9 03             	shr    $0x3,%cl
 1004807:	80 e1 01             	and    $0x1,%cl
 100480a:	d0 ef                	shr    %bh
 100480c:	80 e7 01             	and    $0x1,%bh
 100480f:	0f b6 c0             	movzbl %al,%eax
 1004812:	0f b6 d7             	movzbl %bh,%edx
 1004815:	84 db                	test   %bl,%bl
 1004817:	74 27                	je     1004840 <APIC_Initialize+0x100>
 1004819:	89 54 24 14          	mov    %edx,0x14(%esp)
 100481d:	0f b6 c9             	movzbl %cl,%ecx
 1004820:	89 4c 24 10          	mov    %ecx,0x10(%esp)
 1004824:	89 44 24 08          	mov    %eax,0x8(%esp)
 1004828:	0f b6 c3             	movzbl %bl,%eax
 100482b:	89 44 24 04          	mov    %eax,0x4(%esp)
 100482f:	0f b6 45 ef          	movzbl -0x11(%ebp),%eax
 1004833:	89 04 24             	mov    %eax,(%esp)
 1004836:	c7 44 24 0c 00 00 00 	movl   $0x0,0xc(%esp)
 100483d:	00 
 100483e:	eb 26                	jmp    1004866 <APIC_Initialize+0x126>
 1004840:	89 54 24 14          	mov    %edx,0x14(%esp)
 1004844:	0f b6 c9             	movzbl %cl,%ecx
 1004847:	89 4c 24 10          	mov    %ecx,0x10(%esp)
 100484b:	89 44 24 08          	mov    %eax,0x8(%esp)
 100484f:	0f b6 45 ef          	movzbl -0x11(%ebp),%eax
 1004853:	89 04 24             	mov    %eax,(%esp)
 1004856:	c7 44 24 0c 00 00 00 	movl   $0x0,0xc(%esp)
 100485d:	00 
 100485e:	c7 44 24 04 20 00 00 	movl   $0x20,0x4(%esp)
 1004865:	00 
 1004866:	e8 e5 02 00 00       	call   1004b50 <IOAPIC_MapIRQ>
 100486b:	c7 04 24 ab 84 00 01 	movl   $0x10084ab,(%esp)
 1004872:	e8 a9 1d 00 00       	call   1006620 <COM_WriteStr>
 1004877:	0f b6 44 3e 2d       	movzbl 0x2d(%esi,%edi,1),%eax
 100487c:	89 44 24 04          	mov    %eax,0x4(%esp)
 1004880:	c7 04 24 32 84 00 01 	movl   $0x1008432,(%esp)
 1004887:	e8 94 1d 00 00       	call   1006620 <COM_WriteStr>
 100488c:	0f b6 44 3e 2f       	movzbl 0x2f(%esi,%edi,1),%eax
 1004891:	89 44 24 04          	mov    %eax,0x4(%esp)
 1004895:	c7 04 24 b6 84 00 01 	movl   $0x10084b6,(%esp)
 100489c:	e8 7f 1d 00 00       	call   1006620 <COM_WriteStr>
 10048a1:	0f b6 44 3e 2e       	movzbl 0x2e(%esi,%edi,1),%eax
 10048a6:	89 44 24 04          	mov    %eax,0x4(%esp)
 10048aa:	c7 04 24 c1 84 00 01 	movl   $0x10084c1,(%esp)
 10048b1:	e8 6a 1d 00 00       	call   1006620 <COM_WriteStr>
 10048b6:	8b 44 3e 30          	mov    0x30(%esi,%edi,1),%eax
 10048ba:	89 44 24 04          	mov    %eax,0x4(%esp)
 10048be:	c7 04 24 cc 84 00 01 	movl   $0x10084cc,(%esp)
 10048c5:	e8 56 1d 00 00       	call   1006620 <COM_WriteStr>
 10048ca:	0f b6 44 37 2d       	movzbl 0x2d(%edi,%esi,1),%eax
 10048cf:	8d 0c 38             	lea    (%eax,%edi,1),%ecx
 10048d2:	85 c0                	test   %eax,%eax
 10048d4:	8d 7c 38 08          	lea    0x8(%eax,%edi,1),%edi
 10048d8:	0f 45 f9             	cmovne %ecx,%edi
 10048db:	3b 7d f0             	cmp    -0x10(%ebp),%edi
 10048de:	0f 82 fc fe ff ff    	jb     10047e0 <APIC_Initialize+0xa0>
 10048e4:	e9 7c 01 00 00       	jmp    1004a65 <APIC_Initialize+0x325>
 10048e9:	8d b4 26 00 00 00 00 	lea    0x0(%esi,%eiz,1),%esi
 10048f0:	0f b6 44 37 2c       	movzbl 0x2c(%edi,%esi,1),%eax
 10048f5:	85 c0                	test   %eax,%eax
 10048f7:	0f 84 e3 00 00 00    	je     10049e0 <APIC_Initialize+0x2a0>
 10048fd:	83 f8 02             	cmp    $0x2,%eax
 1004900:	0f 84 42 01 00 00    	je     1004a48 <APIC_Initialize+0x308>
 1004906:	83 f8 01             	cmp    $0x1,%eax
 1004909:	0f 85 2d 01 00 00    	jne    1004a3c <APIC_Initialize+0x2fc>
 100490f:	c7 04 24 65 84 00 01 	movl   $0x1008465,(%esp)
 1004916:	e8 05 1d 00 00       	call   1006620 <COM_WriteStr>
 100491b:	8b 75 e8             	mov    -0x18(%ebp),%esi
 100491e:	0f b6 44 37 2d       	movzbl 0x2d(%edi,%esi,1),%eax
 1004923:	89 44 24 04          	mov    %eax,0x4(%esp)
 1004927:	c7 04 24 32 84 00 01 	movl   $0x1008432,(%esp)
 100492e:	e8 ed 1c 00 00       	call   1006620 <COM_WriteStr>
 1004933:	0f b6 44 37 2e       	movzbl 0x2e(%edi,%esi,1),%eax
 1004938:	89 44 24 04          	mov    %eax,0x4(%esp)
 100493c:	c7 04 24 70 84 00 01 	movl   $0x1008470,(%esp)
 1004943:	e8 d8 1c 00 00       	call   1006620 <COM_WriteStr>
 1004948:	8b 44 37 30          	mov    0x30(%edi,%esi,1),%eax
 100494c:	89 44 24 04          	mov    %eax,0x4(%esp)
 1004950:	c7 04 24 7a 84 00 01 	movl   $0x100847a,(%esp)
 1004957:	e8 c4 1c 00 00       	call   1006620 <COM_WriteStr>
 100495c:	8b 44 37 34          	mov    0x34(%edi,%esi,1),%eax
 1004960:	89 44 24 04          	mov    %eax,0x4(%esp)
 1004964:	c7 04 24 8e 84 00 01 	movl   $0x100848e,(%esp)
 100496b:	e8 b0 1c 00 00       	call   1006620 <COM_WriteStr>
 1004970:	8b 44 37 30          	mov    0x30(%edi,%esi,1),%eax
 1004974:	8b 4c 37 34          	mov    0x34(%edi,%esi,1),%ecx
 1004978:	89 4c 24 04          	mov    %ecx,0x4(%esp)
 100497c:	89 04 24             	mov    %eax,(%esp)
 100497f:	e8 2c 01 00 00       	call   1004ab0 <IOAPIC_Initialize>
 1004984:	31 db                	xor    %ebx,%ebx
 1004986:	8d 76 00             	lea    0x0(%esi),%esi
 1004989:	8d bc 27 00 00 00 00 	lea    0x0(%edi,%eiz,1),%edi
 1004990:	8d 73 20             	lea    0x20(%ebx),%esi
 1004993:	e8 f8 fc ff ff       	call   1004690 <APIC_GetID>
 1004998:	0f b6 c0             	movzbl %al,%eax
 100499b:	89 44 24 08          	mov    %eax,0x8(%esp)
 100499f:	0f b6 c3             	movzbl %bl,%eax
 10049a2:	89 04 24             	mov    %eax,(%esp)
 10049a5:	89 f0                	mov    %esi,%eax
 10049a7:	0f b6 c0             	movzbl %al,%eax
 10049aa:	89 44 24 04          	mov    %eax,0x4(%esp)
 10049ae:	c7 44 24 14 00 00 00 	movl   $0x0,0x14(%esp)
 10049b5:	00 
 10049b6:	c7 44 24 10 00 00 00 	movl   $0x0,0x10(%esp)
 10049bd:	00 
 10049be:	c7 44 24 0c 00 00 00 	movl   $0x0,0xc(%esp)
 10049c5:	00 
 10049c6:	e8 85 01 00 00       	call   1004b50 <IOAPIC_MapIRQ>
 10049cb:	43                   	inc    %ebx
 10049cc:	83 fb 10             	cmp    $0x10,%ebx
 10049cf:	75 bf                	jne    1004990 <APIC_Initialize+0x250>
 10049d1:	eb 75                	jmp    1004a48 <APIC_Initialize+0x308>
 10049d3:	8d b6 00 00 00 00    	lea    0x0(%esi),%esi
 10049d9:	8d bc 27 00 00 00 00 	lea    0x0(%edi,%eiz,1),%edi
 10049e0:	c7 04 24 28 84 00 01 	movl   $0x1008428,(%esp)
 10049e7:	e8 34 1c 00 00       	call   1006620 <COM_WriteStr>
 10049ec:	0f b6 44 37 2d       	movzbl 0x2d(%edi,%esi,1),%eax
 10049f1:	89 44 24 04          	mov    %eax,0x4(%esp)
 10049f5:	c7 04 24 32 84 00 01 	movl   $0x1008432,(%esp)
 10049fc:	e8 1f 1c 00 00       	call   1006620 <COM_WriteStr>
 1004a01:	0f b6 44 37 2f       	movzbl 0x2f(%edi,%esi,1),%eax
 1004a06:	89 44 24 04          	mov    %eax,0x4(%esp)
 1004a0a:	c7 04 24 3d 84 00 01 	movl   $0x100843d,(%esp)
 1004a11:	e8 0a 1c 00 00       	call   1006620 <COM_WriteStr>
 1004a16:	0f b6 44 37 2e       	movzbl 0x2e(%edi,%esi,1),%eax
 1004a1b:	89 44 24 04          	mov    %eax,0x4(%esp)
 1004a1f:	c7 04 24 47 84 00 01 	movl   $0x1008447,(%esp)
 1004a26:	e8 f5 1b 00 00       	call   1006620 <COM_WriteStr>
 1004a2b:	8b 44 37 30          	mov    0x30(%edi,%esi,1),%eax
 1004a2f:	89 44 24 04          	mov    %eax,0x4(%esp)
 1004a33:	c7 04 24 5b 84 00 01 	movl   $0x100845b,(%esp)
 1004a3a:	eb 07                	jmp    1004a43 <APIC_Initialize+0x303>
 1004a3c:	c7 04 24 e4 84 00 01 	movl   $0x10084e4,(%esp)
 1004a43:	e8 d8 1b 00 00       	call   1006620 <COM_WriteStr>
 1004a48:	8b 75 e8             	mov    -0x18(%ebp),%esi
 1004a4b:	0f b6 44 37 2d       	movzbl 0x2d(%edi,%esi,1),%eax
 1004a50:	8d 0c 38             	lea    (%eax,%edi,1),%ecx
 1004a53:	85 c0                	test   %eax,%eax
 1004a55:	8d 7c 38 08          	lea    0x8(%eax,%edi,1),%edi
 1004a59:	0f 45 f9             	cmovne %ecx,%edi
 1004a5c:	3b 7d f0             	cmp    -0x10(%ebp),%edi
 1004a5f:	0f 82 8b fe ff ff    	jb     10048f0 <APIC_Initialize+0x1b0>
 1004a65:	8b 45 e4             	mov    -0x1c(%ebp),%eax
 1004a68:	40                   	inc    %eax
 1004a69:	89 45 e4             	mov    %eax,-0x1c(%ebp)
 1004a6c:	83 f8 02             	cmp    $0x2,%eax
 1004a6f:	0f 85 4b fd ff ff    	jne    10047c0 <APIC_Initialize+0x80>
 1004a75:	8b 45 e0             	mov    -0x20(%ebp),%eax
 1004a78:	89 44 24 04          	mov    %eax,0x4(%esp)
 1004a7c:	40                   	inc    %eax
 1004a7d:	89 45 e0             	mov    %eax,-0x20(%ebp)
 1004a80:	c7 04 24 97 a5 03 01 	movl   $0x103a597,(%esp)
 1004a87:	e8 84 f6 ff ff       	call   1004110 <ACPITables_FindTable>
 1004a8c:	89 c6                	mov    %eax,%esi
 1004a8e:	31 ff                	xor    %edi,%edi
 1004a90:	85 f6                	test   %esi,%esi
 1004a92:	0f 85 08 fd ff ff    	jne    10047a0 <APIC_Initialize+0x60>
 1004a98:	eb 0c                	jmp    1004aa6 <APIC_Initialize+0x366>
 1004a9a:	c7 04 24 eb 84 00 01 	movl   $0x10084eb,(%esp)
 1004aa1:	e8 7a 1b 00 00       	call   1006620 <COM_WriteStr>
 1004aa6:	89 f8                	mov    %edi,%eax
 1004aa8:	83 c4 2c             	add    $0x2c,%esp
 1004aab:	5e                   	pop    %esi
 1004aac:	5f                   	pop    %edi
 1004aad:	5b                   	pop    %ebx
 1004aae:	5d                   	pop    %ebp
 1004aaf:	c3                   	ret    

01004ab0 <IOAPIC_Initialize>:
 1004ab0:	55                   	push   %ebp
 1004ab1:	89 e5                	mov    %esp,%ebp
 1004ab3:	a1 cc 4c 27 05       	mov    0x5274ccc,%eax
 1004ab8:	b1 ff                	mov    $0xff,%cl
 1004aba:	83 f8 7f             	cmp    $0x7f,%eax
 1004abd:	77 55                	ja     1004b14 <IOAPIC_Initialize+0x64>
 1004abf:	8b 4d 0c             	mov    0xc(%ebp),%ecx
 1004ac2:	8b 55 08             	mov    0x8(%ebp),%edx
 1004ac5:	c1 e0 04             	shl    $0x4,%eax
 1004ac8:	89 90 0c 08 27 05    	mov    %edx,0x527080c(%eax)
 1004ace:	89 88 10 08 27 05    	mov    %ecx,0x5270810(%eax)
 1004ad4:	c7 02 00 00 00 00    	movl   $0x0,(%edx)
 1004ada:	0f b6 42 13          	movzbl 0x13(%edx),%eax
 1004ade:	83 e0 0f             	and    $0xf,%eax
 1004ae1:	8b 0d cc 4c 27 05    	mov    0x5274ccc,%ecx
 1004ae7:	c1 e1 04             	shl    $0x4,%ecx
 1004aea:	89 81 14 08 27 05    	mov    %eax,0x5270814(%ecx)
 1004af0:	c7 02 01 00 00 00    	movl   $0x1,(%edx)
 1004af6:	0f b6 42 12          	movzbl 0x12(%edx),%eax
 1004afa:	8b 0d cc 4c 27 05    	mov    0x5274ccc,%ecx
 1004b00:	89 ca                	mov    %ecx,%edx
 1004b02:	c1 e2 04             	shl    $0x4,%edx
 1004b05:	89 82 18 08 27 05    	mov    %eax,0x5270818(%edx)
 1004b0b:	41                   	inc    %ecx
 1004b0c:	89 0d cc 4c 27 05    	mov    %ecx,0x5274ccc
 1004b12:	31 c9                	xor    %ecx,%ecx
 1004b14:	0f b6 c1             	movzbl %cl,%eax
 1004b17:	5d                   	pop    %ebp
 1004b18:	c3                   	ret    
 1004b19:	8d b4 26 00 00 00 00 	lea    0x0(%esi,%eiz,1),%esi

01004b20 <IOAPIC_Read>:
 1004b20:	55                   	push   %ebp
 1004b21:	89 e5                	mov    %esp,%ebp
 1004b23:	8b 45 0c             	mov    0xc(%ebp),%eax
 1004b26:	8b 4d 08             	mov    0x8(%ebp),%ecx
 1004b29:	89 01                	mov    %eax,(%ecx)
 1004b2b:	8b 41 10             	mov    0x10(%ecx),%eax
 1004b2e:	5d                   	pop    %ebp
 1004b2f:	c3                   	ret    

01004b30 <IOAPIC_Write>:
 1004b30:	55                   	push   %ebp
 1004b31:	89 e5                	mov    %esp,%ebp
 1004b33:	8b 45 10             	mov    0x10(%ebp),%eax
 1004b36:	8b 4d 0c             	mov    0xc(%ebp),%ecx
 1004b39:	8b 55 08             	mov    0x8(%ebp),%edx
 1004b3c:	89 0a                	mov    %ecx,(%edx)
 1004b3e:	89 42 10             	mov    %eax,0x10(%edx)
 1004b41:	5d                   	pop    %ebp
 1004b42:	c3                   	ret    
 1004b43:	8d b6 00 00 00 00    	lea    0x0(%esi),%esi
 1004b49:	8d bc 27 00 00 00 00 	lea    0x0(%edi,%eiz,1),%edi

01004b50 <IOAPIC_MapIRQ>:
 1004b50:	55                   	push   %ebp
 1004b51:	89 e5                	mov    %esp,%ebp
 1004b53:	53                   	push   %ebx
 1004b54:	57                   	push   %edi
 1004b55:	56                   	push   %esi
 1004b56:	83 ec 0c             	sub    $0xc,%esp
 1004b59:	8b 35 cc 4c 27 05    	mov    0x5274ccc,%esi
 1004b5f:	85 f6                	test   %esi,%esi
 1004b61:	0f 84 9b 00 00 00    	je     1004c02 <IOAPIC_MapIRQ+0xb2>
 1004b67:	0f b6 5d 08          	movzbl 0x8(%ebp),%ebx
 1004b6b:	0f b6 45 0c          	movzbl 0xc(%ebp),%eax
 1004b6f:	89 45 ec             	mov    %eax,-0x14(%ebp)
 1004b72:	c7 45 e8 00 00 00 00 	movl   $0x0,-0x18(%ebp)
 1004b79:	b8 0c 08 27 05       	mov    $0x527080c,%eax
 1004b7e:	c7 45 f0 00 00 00 00 	movl   $0x0,-0x10(%ebp)
 1004b85:	31 d2                	xor    %edx,%edx
 1004b87:	89 f6                	mov    %esi,%esi
 1004b89:	8d bc 27 00 00 00 00 	lea    0x0(%edi,%eiz,1),%edi
 1004b90:	8b 48 04             	mov    0x4(%eax),%ecx
 1004b93:	89 df                	mov    %ebx,%edi
 1004b95:	29 cf                	sub    %ecx,%edi
 1004b97:	72 20                	jb     1004bb9 <IOAPIC_MapIRQ+0x69>
 1004b99:	03 48 0c             	add    0xc(%eax),%ecx
 1004b9c:	39 cb                	cmp    %ecx,%ebx
 1004b9e:	73 19                	jae    1004bb9 <IOAPIC_MapIRQ+0x69>
 1004ba0:	8b 08                	mov    (%eax),%ecx
 1004ba2:	89 4d f0             	mov    %ecx,-0x10(%ebp)
 1004ba5:	8b 4d ec             	mov    -0x14(%ebp),%ecx
 1004ba8:	89 14 cd 0c 00 27 05 	mov    %edx,0x527000c(,%ecx,8)
 1004baf:	89 3c cd 10 00 27 05 	mov    %edi,0x5270010(,%ecx,8)
 1004bb6:	89 7d e8             	mov    %edi,-0x18(%ebp)
 1004bb9:	42                   	inc    %edx
 1004bba:	83 c0 10             	add    $0x10,%eax
 1004bbd:	39 f2                	cmp    %esi,%edx
 1004bbf:	72 cf                	jb     1004b90 <IOAPIC_MapIRQ+0x40>
 1004bc1:	8b 7d f0             	mov    -0x10(%ebp),%edi
 1004bc4:	85 ff                	test   %edi,%edi
 1004bc6:	74 3a                	je     1004c02 <IOAPIC_MapIRQ+0xb2>
 1004bc8:	8b 45 e8             	mov    -0x18(%ebp),%eax
 1004bcb:	8d 44 00 10          	lea    0x10(%eax,%eax,1),%eax
 1004bcf:	8b 4f 10             	mov    0x10(%edi),%ecx
 1004bd2:	81 e1 00 50 ff 00    	and    $0xff5000,%ecx
 1004bd8:	8b 55 10             	mov    0x10(%ebp),%edx
 1004bdb:	89 d6                	mov    %edx,%esi
 1004bdd:	c1 e6 18             	shl    $0x18,%esi
 1004be0:	09 ce                	or     %ecx,%esi
 1004be2:	0f b6 4d 1c          	movzbl 0x1c(%ebp),%ecx
 1004be6:	83 e1 01             	and    $0x1,%ecx
 1004be9:	c1 e1 0d             	shl    $0xd,%ecx
 1004bec:	0f b6 55 18          	movzbl 0x18(%ebp),%edx
 1004bf0:	83 e2 01             	and    $0x1,%edx
 1004bf3:	c1 e2 0f             	shl    $0xf,%edx
 1004bf6:	03 55 ec             	add    -0x14(%ebp),%edx
 1004bf9:	09 ca                	or     %ecx,%edx
 1004bfb:	09 f2                	or     %esi,%edx
 1004bfd:	89 07                	mov    %eax,(%edi)
 1004bff:	89 57 10             	mov    %edx,0x10(%edi)
 1004c02:	83 c4 0c             	add    $0xc,%esp
 1004c05:	5e                   	pop    %esi
 1004c06:	5f                   	pop    %edi
 1004c07:	5b                   	pop    %ebx
 1004c08:	5d                   	pop    %ebp
 1004c09:	c3                   	ret    
 1004c0a:	8d b6 00 00 00 00    	lea    0x0(%esi),%esi

01004c10 <IOAPIC_SetEnableMode>:
 1004c10:	55                   	push   %ebp
 1004c11:	89 e5                	mov    %esp,%ebp
 1004c13:	56                   	push   %esi
 1004c14:	0f b6 4d 08          	movzbl 0x8(%ebp),%ecx
 1004c18:	8b 04 cd 0c 00 27 05 	mov    0x527000c(,%ecx,8),%eax
 1004c1f:	83 f8 ff             	cmp    $0xffffffff,%eax
 1004c22:	74 31                	je     1004c55 <IOAPIC_SetEnableMode+0x45>
 1004c24:	8b 0c cd 10 00 27 05 	mov    0x5270010(,%ecx,8),%ecx
 1004c2b:	8d 4c 09 10          	lea    0x10(%ecx,%ecx,1),%ecx
 1004c2f:	c1 e0 04             	shl    $0x4,%eax
 1004c32:	8b 80 0c 08 27 05    	mov    0x527080c(%eax),%eax
 1004c38:	8b 50 10             	mov    0x10(%eax),%edx
 1004c3b:	0f b6 75 0c          	movzbl 0xc(%ebp),%esi
 1004c3f:	81 ce fe ff 01 00    	or     $0x1fffe,%esi
 1004c45:	46                   	inc    %esi
 1004c46:	31 d6                	xor    %edx,%esi
 1004c48:	81 e6 00 00 01 00    	and    $0x10000,%esi
 1004c4e:	31 d6                	xor    %edx,%esi
 1004c50:	89 08                	mov    %ecx,(%eax)
 1004c52:	89 70 10             	mov    %esi,0x10(%eax)
 1004c55:	5e                   	pop    %esi
 1004c56:	5d                   	pop    %ebp
 1004c57:	c3                   	ret    
 1004c58:	90                   	nop
 1004c59:	8d b4 26 00 00 00 00 	lea    0x0(%esi,%eiz,1),%esi

01004c60 <IOAPIC_VirtualizeAll>:
 1004c60:	55                   	push   %ebp
 1004c61:	89 e5                	mov    %esp,%ebp
 1004c63:	53                   	push   %ebx
 1004c64:	57                   	push   %edi
 1004c65:	56                   	push   %esi
 1004c66:	a1 cc 4c 27 05       	mov    0x5274ccc,%eax
 1004c6b:	85 c0                	test   %eax,%eax
 1004c6d:	74 5f                	je     1004cce <IOAPIC_VirtualizeAll+0x6e>
 1004c6f:	31 c9                	xor    %ecx,%ecx
 1004c71:	89 c2                	mov    %eax,%edx
 1004c73:	83 e2 fe             	and    $0xfffffffe,%edx
 1004c76:	74 2f                	je     1004ca7 <IOAPIC_VirtualizeAll+0x47>
 1004c78:	89 c1                	mov    %eax,%ecx
 1004c7a:	83 e1 fe             	and    $0xfffffffe,%ecx
 1004c7d:	be 1c 08 27 05       	mov    $0x527081c,%esi
 1004c82:	bf 00 00 00 20       	mov    $0x20000000,%edi
 1004c87:	89 f6                	mov    %esi,%esi
 1004c89:	8d bc 27 00 00 00 00 	lea    0x0(%edi,%eiz,1),%edi
 1004c90:	8b 1e                	mov    (%esi),%ebx
 1004c92:	01 fb                	add    %edi,%ebx
 1004c94:	81 46 f0 00 00 00 20 	addl   $0x20000000,-0x10(%esi)
 1004c9b:	89 1e                	mov    %ebx,(%esi)
 1004c9d:	83 c6 20             	add    $0x20,%esi
 1004ca0:	83 c1 fe             	add    $0xfffffffe,%ecx
 1004ca3:	75 eb                	jne    1004c90 <IOAPIC_VirtualizeAll+0x30>
 1004ca5:	89 d1                	mov    %edx,%ecx
 1004ca7:	39 c8                	cmp    %ecx,%eax
 1004ca9:	74 23                	je     1004cce <IOAPIC_VirtualizeAll+0x6e>
 1004cab:	89 ca                	mov    %ecx,%edx
 1004cad:	c1 e2 04             	shl    $0x4,%edx
 1004cb0:	8d 92 0c 08 27 05    	lea    0x527080c(%edx),%edx
 1004cb6:	8d 76 00             	lea    0x0(%esi),%esi
 1004cb9:	8d bc 27 00 00 00 00 	lea    0x0(%edi,%eiz,1),%edi
 1004cc0:	81 02 00 00 00 20    	addl   $0x20000000,(%edx)
 1004cc6:	41                   	inc    %ecx
 1004cc7:	83 c2 10             	add    $0x10,%edx
 1004cca:	39 c1                	cmp    %eax,%ecx
 1004ccc:	72 f2                	jb     1004cc0 <IOAPIC_VirtualizeAll+0x60>
 1004cce:	5e                   	pop    %esi
 1004ccf:	5f                   	pop    %edi
 1004cd0:	5b                   	pop    %ebx
 1004cd1:	5d                   	pop    %ebp
 1004cd2:	c3                   	ret    
 1004cd3:	66 90                	xchg   %ax,%ax
 1004cd5:	66 90                	xchg   %ax,%ax
 1004cd7:	66 90                	xchg   %ax,%ax
 1004cd9:	66 90                	xchg   %ax,%ax
 1004cdb:	66 90                	xchg   %ax,%ax
 1004cdd:	66 90                	xchg   %ax,%ax
 1004cdf:	90                   	nop

01004ce0 <CMOS_Initialize>:
 1004ce0:	55                   	push   %ebp
 1004ce1:	89 e5                	mov    %esp,%ebp
 1004ce3:	83 ec 08             	sub    $0x8,%esp
 1004ce6:	c7 44 24 04 00 00 00 	movl   $0x0,0x4(%esp)
 1004ced:	00 
 1004cee:	c7 04 24 fd 84 00 01 	movl   $0x10084fd,(%esp)
 1004cf5:	e8 16 f4 ff ff       	call   1004110 <ACPITables_FindTable>
 1004cfa:	85 c0                	test   %eax,%eax
 1004cfc:	74 09                	je     1004d07 <CMOS_Initialize+0x27>
 1004cfe:	0f b6 40 6c          	movzbl 0x6c(%eax),%eax
 1004d02:	a3 d0 4c 27 05       	mov    %eax,0x5274cd0
 1004d07:	83 c4 08             	add    $0x8,%esp
 1004d0a:	5d                   	pop    %ebp
 1004d0b:	c3                   	ret    
 1004d0c:	8d 74 26 00          	lea    0x0(%esi,%eiz,1),%esi

01004d10 <CMOS_SelectRegister>:
 1004d10:	55                   	push   %ebp
 1004d11:	89 e5                	mov    %esp,%ebp
 1004d13:	83 ec 08             	sub    $0x8,%esp
 1004d16:	8a 45 08             	mov    0x8(%ebp),%al
 1004d19:	c0 e0 07             	shl    $0x7,%al
 1004d1c:	0a 45 0c             	or     0xc(%ebp),%al
 1004d1f:	0f b6 c0             	movzbl %al,%eax
 1004d22:	89 44 24 04          	mov    %eax,0x4(%esp)
 1004d26:	c7 04 24 70 00 00 00 	movl   $0x70,(%esp)
 1004d2d:	e8 fe b2 ff ff       	call   1000030 <outb>
 1004d32:	83 c4 08             	add    $0x8,%esp
 1004d35:	5d                   	pop    %ebp
 1004d36:	c3                   	ret    
 1004d37:	89 f6                	mov    %esi,%esi
 1004d39:	8d bc 27 00 00 00 00 	lea    0x0(%edi,%eiz,1),%edi

01004d40 <CMOS_SetRegister>:
 1004d40:	55                   	push   %ebp
 1004d41:	89 e5                	mov    %esp,%ebp
 1004d43:	83 ec 08             	sub    $0x8,%esp
 1004d46:	8a 45 0c             	mov    0xc(%ebp),%al
 1004d49:	c0 e0 07             	shl    $0x7,%al
 1004d4c:	0a 45 10             	or     0x10(%ebp),%al
 1004d4f:	0f b6 c0             	movzbl %al,%eax
 1004d52:	89 44 24 04          	mov    %eax,0x4(%esp)
 1004d56:	c7 04 24 70 00 00 00 	movl   $0x70,(%esp)
 1004d5d:	e8 ce b2 ff ff       	call   1000030 <outb>
 1004d62:	0f b6 45 08          	movzbl 0x8(%ebp),%eax
 1004d66:	89 44 24 04          	mov    %eax,0x4(%esp)
 1004d6a:	c7 04 24 71 00 00 00 	movl   $0x71,(%esp)
 1004d71:	e8 ba b2 ff ff       	call   1000030 <outb>
 1004d76:	83 c4 08             	add    $0x8,%esp
 1004d79:	5d                   	pop    %ebp
 1004d7a:	c3                   	ret    
 1004d7b:	90                   	nop
 1004d7c:	8d 74 26 00          	lea    0x0(%esi,%eiz,1),%esi

01004d80 <CMOS_GetRegister>:
 1004d80:	55                   	push   %ebp
 1004d81:	89 e5                	mov    %esp,%ebp
 1004d83:	83 ec 08             	sub    $0x8,%esp
 1004d86:	8a 45 08             	mov    0x8(%ebp),%al
 1004d89:	c0 e0 07             	shl    $0x7,%al
 1004d8c:	0a 45 0c             	or     0xc(%ebp),%al
 1004d8f:	0f b6 c0             	movzbl %al,%eax
 1004d92:	89 44 24 04          	mov    %eax,0x4(%esp)
 1004d96:	c7 04 24 70 00 00 00 	movl   $0x70,(%esp)
 1004d9d:	e8 8e b2 ff ff       	call   1000030 <outb>
 1004da2:	c7 04 24 71 00 00 00 	movl   $0x71,(%esp)
 1004da9:	e8 92 b2 ff ff       	call   1000040 <inb>
 1004dae:	0f b6 c0             	movzbl %al,%eax
 1004db1:	83 c4 08             	add    $0x8,%esp
 1004db4:	5d                   	pop    %ebp
 1004db5:	c3                   	ret    
 1004db6:	8d 76 00             	lea    0x0(%esi),%esi
 1004db9:	8d bc 27 00 00 00 00 	lea    0x0(%edi,%eiz,1),%edi

01004dc0 <CMOS_UpdateInProgress>:
 1004dc0:	55                   	push   %ebp
 1004dc1:	89 e5                	mov    %esp,%ebp
 1004dc3:	83 ec 08             	sub    $0x8,%esp
 1004dc6:	c7 44 24 04 8a 00 00 	movl   $0x8a,0x4(%esp)
 1004dcd:	00 
 1004dce:	c7 04 24 70 00 00 00 	movl   $0x70,(%esp)
 1004dd5:	e8 56 b2 ff ff       	call   1000030 <outb>
 1004dda:	c7 04 24 71 00 00 00 	movl   $0x71,(%esp)
 1004de1:	e8 5a b2 ff ff       	call   1000040 <inb>
 1004de6:	24 80                	and    $0x80,%al
 1004de8:	0f b6 c0             	movzbl %al,%eax
 1004deb:	83 c4 08             	add    $0x8,%esp
 1004dee:	5d                   	pop    %ebp
 1004def:	c3                   	ret    

01004df0 <CMOS_GetRTCTime>:
 1004df0:	55                   	push   %ebp
 1004df1:	89 e5                	mov    %esp,%ebp
 1004df3:	53                   	push   %ebx
 1004df4:	57                   	push   %edi
 1004df5:	56                   	push   %esi
 1004df6:	83 ec 14             	sub    $0x14,%esp
 1004df9:	8b 75 08             	mov    0x8(%ebp),%esi
 1004dfc:	8d 74 26 00          	lea    0x0(%esi,%eiz,1),%esi
 1004e00:	c7 44 24 04 8a 00 00 	movl   $0x8a,0x4(%esp)
 1004e07:	00 
 1004e08:	c7 04 24 70 00 00 00 	movl   $0x70,(%esp)
 1004e0f:	e8 1c b2 ff ff       	call   1000030 <outb>
 1004e14:	c7 04 24 71 00 00 00 	movl   $0x71,(%esp)
 1004e1b:	e8 20 b2 ff ff       	call   1000040 <inb>
 1004e20:	84 c0                	test   %al,%al
 1004e22:	78 dc                	js     1004e00 <CMOS_GetRTCTime+0x10>
 1004e24:	c7 44 24 04 80 00 00 	movl   $0x80,0x4(%esp)
 1004e2b:	00 
 1004e2c:	c7 04 24 70 00 00 00 	movl   $0x70,(%esp)
 1004e33:	e8 f8 b1 ff ff       	call   1000030 <outb>
 1004e38:	c7 04 24 71 00 00 00 	movl   $0x71,(%esp)
 1004e3f:	e8 fc b1 ff ff       	call   1000040 <inb>
 1004e44:	88 45 f3             	mov    %al,-0xd(%ebp)
 1004e47:	c7 44 24 04 82 00 00 	movl   $0x82,0x4(%esp)
 1004e4e:	00 
 1004e4f:	c7 04 24 70 00 00 00 	movl   $0x70,(%esp)
 1004e56:	e8 d5 b1 ff ff       	call   1000030 <outb>
 1004e5b:	c7 04 24 71 00 00 00 	movl   $0x71,(%esp)
 1004e62:	e8 d9 b1 ff ff       	call   1000040 <inb>
 1004e67:	88 45 f2             	mov    %al,-0xe(%ebp)
 1004e6a:	c7 44 24 04 84 00 00 	movl   $0x84,0x4(%esp)
 1004e71:	00 
 1004e72:	c7 04 24 70 00 00 00 	movl   $0x70,(%esp)
 1004e79:	e8 b2 b1 ff ff       	call   1000030 <outb>
 1004e7e:	c7 04 24 71 00 00 00 	movl   $0x71,(%esp)
 1004e85:	e8 b6 b1 ff ff       	call   1000040 <inb>
 1004e8a:	88 45 f1             	mov    %al,-0xf(%ebp)
 1004e8d:	c7 44 24 04 87 00 00 	movl   $0x87,0x4(%esp)
 1004e94:	00 
 1004e95:	c7 04 24 70 00 00 00 	movl   $0x70,(%esp)
 1004e9c:	e8 8f b1 ff ff       	call   1000030 <outb>
 1004ea1:	c7 04 24 71 00 00 00 	movl   $0x71,(%esp)
 1004ea8:	e8 93 b1 ff ff       	call   1000040 <inb>
 1004ead:	88 45 f0             	mov    %al,-0x10(%ebp)
 1004eb0:	c7 44 24 04 88 00 00 	movl   $0x88,0x4(%esp)
 1004eb7:	00 
 1004eb8:	c7 04 24 70 00 00 00 	movl   $0x70,(%esp)
 1004ebf:	e8 6c b1 ff ff       	call   1000030 <outb>
 1004ec4:	c7 04 24 71 00 00 00 	movl   $0x71,(%esp)
 1004ecb:	e8 70 b1 ff ff       	call   1000040 <inb>
 1004ed0:	88 c7                	mov    %al,%bh
 1004ed2:	c7 44 24 04 89 00 00 	movl   $0x89,0x4(%esp)
 1004ed9:	00 
 1004eda:	c7 04 24 70 00 00 00 	movl   $0x70,(%esp)
 1004ee1:	e8 4a b1 ff ff       	call   1000030 <outb>
 1004ee6:	c7 04 24 71 00 00 00 	movl   $0x71,(%esp)
 1004eed:	e8 4e b1 ff ff       	call   1000040 <inb>
 1004ef2:	88 c3                	mov    %al,%bl
 1004ef4:	a1 d0 4c 27 05       	mov    0x5274cd0,%eax
 1004ef9:	85 c0                	test   %eax,%eax
 1004efb:	74 23                	je     1004f20 <CMOS_GetRTCTime+0x130>
 1004efd:	0c 80                	or     $0x80,%al
 1004eff:	0f b6 c0             	movzbl %al,%eax
 1004f02:	89 44 24 04          	mov    %eax,0x4(%esp)
 1004f06:	c7 04 24 70 00 00 00 	movl   $0x70,(%esp)
 1004f0d:	e8 1e b1 ff ff       	call   1000030 <outb>
 1004f12:	c7 04 24 71 00 00 00 	movl   $0x71,(%esp)
 1004f19:	e8 22 b1 ff ff       	call   1000040 <inb>
 1004f1e:	eb 10                	jmp    1004f30 <CMOS_GetRTCTime+0x140>
 1004f20:	31 c0                	xor    %eax,%eax
 1004f22:	8d b4 26 00 00 00 00 	lea    0x0(%esi,%eiz,1),%esi
 1004f29:	8d bc 27 00 00 00 00 	lea    0x0(%edi,%eiz,1),%edi
 1004f30:	8a 4d f3             	mov    -0xd(%ebp),%cl
 1004f33:	88 4d ee             	mov    %cl,-0x12(%ebp)
 1004f36:	8a 4d f2             	mov    -0xe(%ebp),%cl
 1004f39:	88 4d ed             	mov    %cl,-0x13(%ebp)
 1004f3c:	8a 4d f1             	mov    -0xf(%ebp),%cl
 1004f3f:	88 4d ec             	mov    %cl,-0x14(%ebp)
 1004f42:	8a 4d f0             	mov    -0x10(%ebp),%cl
 1004f45:	88 4d eb             	mov    %cl,-0x15(%ebp)
 1004f48:	88 7d ea             	mov    %bh,-0x16(%ebp)
 1004f4b:	88 5d e9             	mov    %bl,-0x17(%ebp)
 1004f4e:	88 45 ef             	mov    %al,-0x11(%ebp)
 1004f51:	eb 0d                	jmp    1004f60 <CMOS_GetRTCTime+0x170>
 1004f53:	90                   	nop
 1004f54:	90                   	nop
 1004f55:	90                   	nop
 1004f56:	90                   	nop
 1004f57:	90                   	nop
 1004f58:	90                   	nop
 1004f59:	90                   	nop
 1004f5a:	90                   	nop
 1004f5b:	90                   	nop
 1004f5c:	90                   	nop
 1004f5d:	90                   	nop
 1004f5e:	90                   	nop
 1004f5f:	90                   	nop
 1004f60:	c7 44 24 04 8a 00 00 	movl   $0x8a,0x4(%esp)
 1004f67:	00 
 1004f68:	c7 04 24 70 00 00 00 	movl   $0x70,(%esp)
 1004f6f:	e8 bc b0 ff ff       	call   1000030 <outb>
 1004f74:	c7 04 24 71 00 00 00 	movl   $0x71,(%esp)
 1004f7b:	e8 c0 b0 ff ff       	call   1000040 <inb>
 1004f80:	84 c0                	test   %al,%al
 1004f82:	78 dc                	js     1004f60 <CMOS_GetRTCTime+0x170>
 1004f84:	c7 44 24 04 80 00 00 	movl   $0x80,0x4(%esp)
 1004f8b:	00 
 1004f8c:	c7 04 24 70 00 00 00 	movl   $0x70,(%esp)
 1004f93:	e8 98 b0 ff ff       	call   1000030 <outb>
 1004f98:	c7 04 24 71 00 00 00 	movl   $0x71,(%esp)
 1004f9f:	e8 9c b0 ff ff       	call   1000040 <inb>
 1004fa4:	88 45 f3             	mov    %al,-0xd(%ebp)
 1004fa7:	c7 44 24 04 82 00 00 	movl   $0x82,0x4(%esp)
 1004fae:	00 
 1004faf:	c7 04 24 70 00 00 00 	movl   $0x70,(%esp)
 1004fb6:	e8 75 b0 ff ff       	call   1000030 <outb>
 1004fbb:	c7 04 24 71 00 00 00 	movl   $0x71,(%esp)
 1004fc2:	e8 79 b0 ff ff       	call   1000040 <inb>
 1004fc7:	88 45 f2             	mov    %al,-0xe(%ebp)
 1004fca:	c7 44 24 04 84 00 00 	movl   $0x84,0x4(%esp)
 1004fd1:	00 
 1004fd2:	c7 04 24 70 00 00 00 	movl   $0x70,(%esp)
 1004fd9:	e8 52 b0 ff ff       	call   1000030 <outb>
 1004fde:	c7 04 24 71 00 00 00 	movl   $0x71,(%esp)
 1004fe5:	e8 56 b0 ff ff       	call   1000040 <inb>
 1004fea:	88 45 f1             	mov    %al,-0xf(%ebp)
 1004fed:	c7 44 24 04 87 00 00 	movl   $0x87,0x4(%esp)
 1004ff4:	00 
 1004ff5:	c7 04 24 70 00 00 00 	movl   $0x70,(%esp)
 1004ffc:	e8 2f b0 ff ff       	call   1000030 <outb>
 1005001:	c7 04 24 71 00 00 00 	movl   $0x71,(%esp)
 1005008:	e8 33 b0 ff ff       	call   1000040 <inb>
 100500d:	88 45 f0             	mov    %al,-0x10(%ebp)
 1005010:	c7 44 24 04 88 00 00 	movl   $0x88,0x4(%esp)
 1005017:	00 
 1005018:	c7 04 24 70 00 00 00 	movl   $0x70,(%esp)
 100501f:	e8 0c b0 ff ff       	call   1000030 <outb>
 1005024:	c7 04 24 71 00 00 00 	movl   $0x71,(%esp)
 100502b:	e8 10 b0 ff ff       	call   1000040 <inb>
 1005030:	88 c7                	mov    %al,%bh
 1005032:	c7 44 24 04 89 00 00 	movl   $0x89,0x4(%esp)
 1005039:	00 
 100503a:	c7 04 24 70 00 00 00 	movl   $0x70,(%esp)
 1005041:	e8 ea af ff ff       	call   1000030 <outb>
 1005046:	c7 04 24 71 00 00 00 	movl   $0x71,(%esp)
 100504d:	e8 ee af ff ff       	call   1000040 <inb>
 1005052:	88 c3                	mov    %al,%bl
 1005054:	8b 0d d0 4c 27 05    	mov    0x5274cd0,%ecx
 100505a:	85 c9                	test   %ecx,%ecx
 100505c:	8a 45 ef             	mov    -0x11(%ebp),%al
 100505f:	74 22                	je     1005083 <CMOS_GetRTCTime+0x293>
 1005061:	80 c9 80             	or     $0x80,%cl
 1005064:	0f b6 c1             	movzbl %cl,%eax
 1005067:	89 44 24 04          	mov    %eax,0x4(%esp)
 100506b:	c7 04 24 70 00 00 00 	movl   $0x70,(%esp)
 1005072:	e8 b9 af ff ff       	call   1000030 <outb>
 1005077:	c7 04 24 71 00 00 00 	movl   $0x71,(%esp)
 100507e:	e8 bd af ff ff       	call   1000040 <inb>
 1005083:	0f b6 4d f3          	movzbl -0xd(%ebp),%ecx
 1005087:	0f b6 55 ee          	movzbl -0x12(%ebp),%edx
 100508b:	39 ca                	cmp    %ecx,%edx
 100508d:	0f 85 9d fe ff ff    	jne    1004f30 <CMOS_GetRTCTime+0x140>
 1005093:	0f b6 4d f2          	movzbl -0xe(%ebp),%ecx
 1005097:	0f b6 55 ed          	movzbl -0x13(%ebp),%edx
 100509b:	39 ca                	cmp    %ecx,%edx
 100509d:	0f 85 8d fe ff ff    	jne    1004f30 <CMOS_GetRTCTime+0x140>
 10050a3:	0f b6 4d f1          	movzbl -0xf(%ebp),%ecx
 10050a7:	0f b6 55 ec          	movzbl -0x14(%ebp),%edx
 10050ab:	39 ca                	cmp    %ecx,%edx
 10050ad:	0f 85 7d fe ff ff    	jne    1004f30 <CMOS_GetRTCTime+0x140>
 10050b3:	0f b6 4d f0          	movzbl -0x10(%ebp),%ecx
 10050b7:	0f b6 55 eb          	movzbl -0x15(%ebp),%edx
 10050bb:	39 ca                	cmp    %ecx,%edx
 10050bd:	0f 85 6d fe ff ff    	jne    1004f30 <CMOS_GetRTCTime+0x140>
 10050c3:	0f b6 cf             	movzbl %bh,%ecx
 10050c6:	0f b6 55 ea          	movzbl -0x16(%ebp),%edx
 10050ca:	39 ca                	cmp    %ecx,%edx
 10050cc:	0f 85 5e fe ff ff    	jne    1004f30 <CMOS_GetRTCTime+0x140>
 10050d2:	0f b6 cb             	movzbl %bl,%ecx
 10050d5:	0f b6 7d e9          	movzbl -0x17(%ebp),%edi
 10050d9:	39 cf                	cmp    %ecx,%edi
 10050db:	0f 85 4f fe ff ff    	jne    1004f30 <CMOS_GetRTCTime+0x140>
 10050e1:	0f b6 c8             	movzbl %al,%ecx
 10050e4:	0f b6 55 ef          	movzbl -0x11(%ebp),%edx
 10050e8:	39 ca                	cmp    %ecx,%edx
 10050ea:	0f 85 40 fe ff ff    	jne    1004f30 <CMOS_GetRTCTime+0x140>
 10050f0:	c7 44 24 04 8b 00 00 	movl   $0x8b,0x4(%esp)
 10050f7:	00 
 10050f8:	c7 04 24 70 00 00 00 	movl   $0x70,(%esp)
 10050ff:	e8 2c af ff ff       	call   1000030 <outb>
 1005104:	c7 04 24 71 00 00 00 	movl   $0x71,(%esp)
 100510b:	e8 30 af ff ff       	call   1000040 <inb>
 1005110:	0f b6 c8             	movzbl %al,%ecx
 1005113:	f6 c1 04             	test   $0x4,%cl
 1005116:	74 08                	je     1005120 <CMOS_GetRTCTime+0x330>
 1005118:	8a 5d ef             	mov    -0x11(%ebp),%bl
 100511b:	e9 98 00 00 00       	jmp    10051b8 <CMOS_GetRTCTime+0x3c8>
 1005120:	8a 45 ee             	mov    -0x12(%ebp),%al
 1005123:	88 c6                	mov    %al,%dh
 1005125:	80 e6 0f             	and    $0xf,%dh
 1005128:	c0 e8 04             	shr    $0x4,%al
 100512b:	b2 0a                	mov    $0xa,%dl
 100512d:	f6 e2                	mul    %dl
 100512f:	00 f0                	add    %dh,%al
 1005131:	88 45 ee             	mov    %al,-0x12(%ebp)
 1005134:	8a 45 ed             	mov    -0x13(%ebp),%al
 1005137:	88 c6                	mov    %al,%dh
 1005139:	80 e6 0f             	and    $0xf,%dh
 100513c:	c0 e8 04             	shr    $0x4,%al
 100513f:	f6 e2                	mul    %dl
 1005141:	00 f0                	add    %dh,%al
 1005143:	88 45 ed             	mov    %al,-0x13(%ebp)
 1005146:	8a 5d ec             	mov    -0x14(%ebp),%bl
 1005149:	88 de                	mov    %bl,%dh
 100514b:	80 e6 0f             	and    $0xf,%dh
 100514e:	88 d8                	mov    %bl,%al
 1005150:	c0 e8 04             	shr    $0x4,%al
 1005153:	24 07                	and    $0x7,%al
 1005155:	f6 e2                	mul    %dl
 1005157:	00 f0                	add    %dh,%al
 1005159:	80 e3 80             	and    $0x80,%bl
 100515c:	08 c3                	or     %al,%bl
 100515e:	88 5d ec             	mov    %bl,-0x14(%ebp)
 1005161:	8a 45 eb             	mov    -0x15(%ebp),%al
 1005164:	88 c6                	mov    %al,%dh
 1005166:	80 e6 0f             	and    $0xf,%dh
 1005169:	c0 e8 04             	shr    $0x4,%al
 100516c:	f6 e2                	mul    %dl
 100516e:	00 f0                	add    %dh,%al
 1005170:	88 45 eb             	mov    %al,-0x15(%ebp)
 1005173:	8a 45 ea             	mov    -0x16(%ebp),%al
 1005176:	88 c6                	mov    %al,%dh
 1005178:	80 e6 0f             	and    $0xf,%dh
 100517b:	c0 e8 04             	shr    $0x4,%al
 100517e:	f6 e2                	mul    %dl
 1005180:	00 f0                	add    %dh,%al
 1005182:	88 45 ea             	mov    %al,-0x16(%ebp)
 1005185:	8a 45 e9             	mov    -0x17(%ebp),%al
 1005188:	c0 e8 04             	shr    $0x4,%al
 100518b:	0f b6 c0             	movzbl %al,%eax
 100518e:	81 e7 0f ff 00 00    	and    $0xff0f,%edi
 1005194:	6b c0 0a             	imul   $0xa,%eax,%eax
 1005197:	01 f8                	add    %edi,%eax
 1005199:	66 89 c7             	mov    %ax,%di
 100519c:	83 3d d0 4c 27 05 00 	cmpl   $0x0,0x5274cd0
 10051a3:	8a 5d ef             	mov    -0x11(%ebp),%bl
 10051a6:	74 10                	je     10051b8 <CMOS_GetRTCTime+0x3c8>
 10051a8:	88 de                	mov    %bl,%dh
 10051aa:	80 e6 0f             	and    $0xf,%dh
 10051ad:	c0 eb 04             	shr    $0x4,%bl
 10051b0:	88 d8                	mov    %bl,%al
 10051b2:	f6 e2                	mul    %dl
 10051b4:	88 c3                	mov    %al,%bl
 10051b6:	00 f3                	add    %dh,%bl
 10051b8:	f6 c1 02             	test   $0x2,%cl
 10051bb:	75 25                	jne    10051e2 <CMOS_GetRTCTime+0x3f2>
 10051bd:	0f b6 4d ec          	movzbl -0x14(%ebp),%ecx
 10051c1:	f6 c1 80             	test   $0x80,%cl
 10051c4:	74 1c                	je     10051e2 <CMOS_GetRTCTime+0x3f2>
 10051c6:	83 e1 7f             	and    $0x7f,%ecx
 10051c9:	83 c1 0c             	add    $0xc,%ecx
 10051cc:	ba ab aa aa aa       	mov    $0xaaaaaaab,%edx
 10051d1:	89 c8                	mov    %ecx,%eax
 10051d3:	f7 e2                	mul    %edx
 10051d5:	c1 ea 04             	shr    $0x4,%edx
 10051d8:	6b c2 18             	imul   $0x18,%edx,%eax
 10051db:	29 c1                	sub    %eax,%ecx
 10051dd:	88 c8                	mov    %cl,%al
 10051df:	88 45 ec             	mov    %al,-0x14(%ebp)
 10051e2:	83 3d d0 4c 27 05 00 	cmpl   $0x0,0x5274cd0
 10051e9:	74 0a                	je     10051f5 <CMOS_GetRTCTime+0x405>
 10051eb:	0f b6 c3             	movzbl %bl,%eax
 10051ee:	6b c0 64             	imul   $0x64,%eax,%eax
 10051f1:	01 c7                	add    %eax,%edi
 10051f3:	eb 1b                	jmp    1005210 <CMOS_GetRTCTime+0x420>
 10051f5:	8d 87 d0 07 00 00    	lea    0x7d0(%edi),%eax
 10051fb:	0f b7 c0             	movzwl %ax,%eax
 10051fe:	81 c7 34 08 00 00    	add    $0x834,%edi
 1005204:	3d df 07 00 00       	cmp    $0x7df,%eax
 1005209:	66 0f 42 c7          	cmovb  %di,%ax
 100520d:	66 89 c7             	mov    %ax,%di
 1005210:	8a 45 ee             	mov    -0x12(%ebp),%al
 1005213:	88 06                	mov    %al,(%esi)
 1005215:	8a 45 ed             	mov    -0x13(%ebp),%al
 1005218:	88 46 01             	mov    %al,0x1(%esi)
 100521b:	8a 45 ec             	mov    -0x14(%ebp),%al
 100521e:	88 46 02             	mov    %al,0x2(%esi)
 1005221:	8a 45 eb             	mov    -0x15(%ebp),%al
 1005224:	88 46 03             	mov    %al,0x3(%esi)
 1005227:	8a 45 ea             	mov    -0x16(%ebp),%al
 100522a:	88 46 04             	mov    %al,0x4(%esi)
 100522d:	66 89 7e 06          	mov    %di,0x6(%esi)
 1005231:	88 5e 08             	mov    %bl,0x8(%esi)
 1005234:	83 c4 14             	add    $0x14,%esp
 1005237:	5e                   	pop    %esi
 1005238:	5f                   	pop    %edi
 1005239:	5b                   	pop    %ebx
 100523a:	5d                   	pop    %ebp
 100523b:	c3                   	ret    
 100523c:	66 90                	xchg   %ax,%ax
 100523e:	66 90                	xchg   %ax,%ax

01005240 <FPU_Initialize>:
 1005240:	55                   	push   %ebp
 1005241:	89 e5                	mov    %esp,%ebp
 1005243:	83 ec 0c             	sub    $0xc,%esp
 1005246:	c7 44 24 04 01 00 00 	movl   $0x1,0x4(%esp)
 100524d:	00 
 100524e:	c7 04 24 01 00 00 00 	movl   $0x1,(%esp)
 1005255:	e8 76 1f 00 00       	call   10071d0 <CPUID_FeatureIsAvailable>
 100525a:	84 c0                	test   %al,%al
 100525c:	74 67                	je     10052c5 <FPU_Initialize+0x85>
 100525e:	c7 44 24 04 00 00 00 	movl   $0x2000000,0x4(%esp)
 1005265:	02 
 1005266:	c7 04 24 01 00 00 00 	movl   $0x1,(%esp)
 100526d:	e8 5e 1f 00 00       	call   10071d0 <CPUID_FeatureIsAvailable>
 1005272:	84 c0                	test   %al,%al
 1005274:	74 57                	je     10052cd <FPU_Initialize+0x8d>
 1005276:	c7 44 24 04 00 00 00 	movl   $0x1000000,0x4(%esp)
 100527d:	01 
 100527e:	c7 04 24 01 00 00 00 	movl   $0x1,(%esp)
 1005285:	e8 46 1f 00 00       	call   10071d0 <CPUID_FeatureIsAvailable>
 100528a:	84 c0                	test   %al,%al
 100528c:	74 47                	je     10052d5 <FPU_Initialize+0x95>
 100528e:	0f 20 c0             	mov    %cr0,%eax
 1005291:	83 e0 d9             	and    $0xffffffd9,%eax
 1005294:	83 c8 22             	or     $0x22,%eax
 1005297:	0f 22 c0             	mov    %eax,%cr0
 100529a:	0f 20 e0             	mov    %cr4,%eax
 100529d:	0d 00 06 04 00       	or     $0x40600,%eax
 10052a2:	0f 22 e0             	mov    %eax,%cr4
 10052a5:	c7 44 24 08 e0 52 00 	movl   $0x10052e0,0x8(%esp)
 10052ac:	01 
 10052ad:	c7 44 24 04 00 00 00 	movl   $0x0,0x4(%esp)
 10052b4:	00 
 10052b5:	c7 04 24 07 00 00 00 	movl   $0x7,(%esp)
 10052bc:	e8 cf c9 ff ff       	call   1001c90 <Interrupts_RegisterHandler>
 10052c1:	db e3                	fninit 
 10052c3:	eb 16                	jmp    10052db <FPU_Initialize+0x9b>
 10052c5:	b8 00 00 00 00       	mov    $0x0,%eax
 10052ca:	f4                   	hlt    
 10052cb:	eb 0e                	jmp    10052db <FPU_Initialize+0x9b>
 10052cd:	b8 01 00 00 00       	mov    $0x1,%eax
 10052d2:	f4                   	hlt    
 10052d3:	eb 06                	jmp    10052db <FPU_Initialize+0x9b>
 10052d5:	b8 02 00 00 00       	mov    $0x2,%eax
 10052da:	f4                   	hlt    
 10052db:	83 c4 0c             	add    $0xc,%esp
 10052de:	5d                   	pop    %ebp
 10052df:	c3                   	ret    

010052e0 <FPU_StateHandler>:
 10052e0:	55                   	push   %ebp
 10052e1:	89 e5                	mov    %esp,%ebp
 10052e3:	0f 06                	clts   
 10052e5:	31 c0                	xor    %eax,%eax
 10052e7:	5d                   	pop    %ebp
 10052e8:	c3                   	ret    
 10052e9:	8d b4 26 00 00 00 00 	lea    0x0(%esi,%eiz,1),%esi

010052f0 <FPU_EnableInterrupts>:
 10052f0:	55                   	push   %ebp
 10052f1:	89 e5                	mov    %esp,%ebp
 10052f3:	0f 20 c0             	mov    %cr0,%eax
 10052f6:	83 c8 08             	or     $0x8,%eax
 10052f9:	0f 22 c0             	mov    %eax,%cr0
 10052fc:	5d                   	pop    %ebp
 10052fd:	c3                   	ret    
 10052fe:	66 90                	xchg   %ax,%ax

01005300 <HPET_Initialize>:
 1005300:	55                   	push   %ebp
 1005301:	89 e5                	mov    %esp,%ebp
 1005303:	83 ec 10             	sub    $0x10,%esp
 1005306:	c7 05 28 10 27 05 00 	movl   $0x0,0x5271028
 100530d:	00 00 00 
 1005310:	c7 44 24 04 00 00 00 	movl   $0x0,0x4(%esp)
 1005317:	00 
 1005318:	c7 04 24 02 85 00 01 	movl   $0x1008502,(%esp)
 100531f:	e8 ec ed ff ff       	call   1004110 <ACPITables_FindTable>
 1005324:	a3 18 10 27 05       	mov    %eax,0x5271018
 1005329:	c7 05 14 10 27 05 00 	movl   $0x0,0x5271014
 1005330:	00 00 00 
 1005333:	c7 05 10 10 27 05 00 	movl   $0x0,0x5271010
 100533a:	00 00 00 
 100533d:	b1 ff                	mov    $0xff,%cl
 100533f:	85 c0                	test   %eax,%eax
 1005341:	74 67                	je     10053aa <HPET_Initialize+0xaa>
 1005343:	8b 40 34             	mov    0x34(%eax),%eax
 1005346:	a3 28 10 27 05       	mov    %eax,0x5271028
 100534b:	89 44 24 04          	mov    %eax,0x4(%esp)
 100534f:	c7 04 24 07 85 00 01 	movl   $0x1008507,(%esp)
 1005356:	e8 c5 12 00 00       	call   1006620 <COM_WriteStr>
 100535b:	8b 0d 28 10 27 05    	mov    0x5271028,%ecx
 1005361:	8b 01                	mov    (%ecx),%eax
 1005363:	8b 49 04             	mov    0x4(%ecx),%ecx
 1005366:	89 0d 24 10 27 05    	mov    %ecx,0x5271024
 100536c:	a3 20 10 27 05       	mov    %eax,0x5271020
 1005371:	c1 e8 08             	shr    $0x8,%eax
 1005374:	83 e0 0f             	and    $0xf,%eax
 1005377:	40                   	inc    %eax
 1005378:	a2 d4 4c 27 05       	mov    %al,0x5274cd4
 100537d:	89 4c 24 08          	mov    %ecx,0x8(%esp)
 1005381:	c7 44 24 0c 00 00 00 	movl   $0x0,0xc(%esp)
 1005388:	00 
 1005389:	c7 44 24 04 f2 86 23 	movl   $0x2386f2,0x4(%esp)
 1005390:	00 
 1005391:	c7 04 24 00 00 c1 6f 	movl   $0x6fc10000,(%esp)
 1005398:	e8 b3 22 00 00       	call   1007650 <__udivdi3>
 100539d:	89 15 14 10 27 05    	mov    %edx,0x5271014
 10053a3:	a3 10 10 27 05       	mov    %eax,0x5271010
 10053a8:	31 c9                	xor    %ecx,%ecx
 10053aa:	0f b6 c1             	movzbl %cl,%eax
 10053ad:	83 c4 10             	add    $0x10,%esp
 10053b0:	5d                   	pop    %ebp
 10053b1:	c3                   	ret    
 10053b2:	8d b4 26 00 00 00 00 	lea    0x0(%esi,%eiz,1),%esi
 10053b9:	8d bc 27 00 00 00 00 	lea    0x0(%edi,%eiz,1),%edi

010053c0 <HPET_Read>:
 10053c0:	55                   	push   %ebp
 10053c1:	89 e5                	mov    %esp,%ebp
 10053c3:	8b 4d 08             	mov    0x8(%ebp),%ecx
 10053c6:	83 e1 f8             	and    $0xfffffff8,%ecx
 10053c9:	8b 15 28 10 27 05    	mov    0x5271028,%edx
 10053cf:	8b 04 0a             	mov    (%edx,%ecx,1),%eax
 10053d2:	8b 54 0a 04          	mov    0x4(%edx,%ecx,1),%edx
 10053d6:	5d                   	pop    %ebp
 10053d7:	c3                   	ret    
 10053d8:	90                   	nop
 10053d9:	8d b4 26 00 00 00 00 	lea    0x0(%esi,%eiz,1),%esi

010053e0 <HPET_GetTimerCount>:
 10053e0:	55                   	push   %ebp
 10053e1:	89 e5                	mov    %esp,%ebp
 10053e3:	0f b6 05 d4 4c 27 05 	movzbl 0x5274cd4,%eax
 10053ea:	5d                   	pop    %ebp
 10053eb:	c3                   	ret    
 10053ec:	8d 74 26 00          	lea    0x0(%esi,%eiz,1),%esi

010053f0 <HPET_GetFrequency>:
 10053f0:	55                   	push   %ebp
 10053f1:	89 e5                	mov    %esp,%ebp
 10053f3:	a1 10 10 27 05       	mov    0x5271010,%eax
 10053f8:	8b 15 14 10 27 05    	mov    0x5271014,%edx
 10053fe:	5d                   	pop    %ebp
 10053ff:	c3                   	ret    

01005400 <HPET_SetEnable>:
 1005400:	55                   	push   %ebp
 1005401:	89 e5                	mov    %esp,%ebp
 1005403:	56                   	push   %esi
 1005404:	a1 28 10 27 05       	mov    0x5271028,%eax
 1005409:	8b 48 10             	mov    0x10(%eax),%ecx
 100540c:	8b 50 14             	mov    0x14(%eax),%edx
 100540f:	31 f6                	xor    %esi,%esi
 1005411:	2b 75 08             	sub    0x8(%ebp),%esi
 1005414:	31 ce                	xor    %ecx,%esi
 1005416:	83 e6 01             	and    $0x1,%esi
 1005419:	83 c9 02             	or     $0x2,%ecx
 100541c:	31 f1                	xor    %esi,%ecx
 100541e:	89 50 14             	mov    %edx,0x14(%eax)
 1005421:	89 48 10             	mov    %ecx,0x10(%eax)
 1005424:	5e                   	pop    %esi
 1005425:	5d                   	pop    %ebp
 1005426:	c3                   	ret    
 1005427:	89 f6                	mov    %esi,%esi
 1005429:	8d bc 27 00 00 00 00 	lea    0x0(%edi,%eiz,1),%edi

01005430 <HPET_Write>:
 1005430:	55                   	push   %ebp
 1005431:	89 e5                	mov    %esp,%ebp
 1005433:	56                   	push   %esi
 1005434:	8b 45 0c             	mov    0xc(%ebp),%eax
 1005437:	8b 4d 10             	mov    0x10(%ebp),%ecx
 100543a:	8b 55 08             	mov    0x8(%ebp),%edx
 100543d:	83 e2 f8             	and    $0xfffffff8,%edx
 1005440:	8b 35 28 10 27 05    	mov    0x5271028,%esi
 1005446:	89 4c 16 04          	mov    %ecx,0x4(%esi,%edx,1)
 100544a:	89 04 16             	mov    %eax,(%esi,%edx,1)
 100544d:	5e                   	pop    %esi
 100544e:	5d                   	pop    %ebp
 100544f:	c3                   	ret    

01005450 <HPET_GetGlobalCounter>:
 1005450:	55                   	push   %ebp
 1005451:	89 e5                	mov    %esp,%ebp
 1005453:	31 c0                	xor    %eax,%eax
 1005455:	83 3d 18 10 27 05 00 	cmpl   $0x0,0x5271018
 100545c:	ba 00 00 00 00       	mov    $0x0,%edx
 1005461:	74 12                	je     1005475 <HPET_GetGlobalCounter+0x25>
 1005463:	8b 0d 28 10 27 05    	mov    0x5271028,%ecx
 1005469:	8b 81 f0 00 00 00    	mov    0xf0(%ecx),%eax
 100546f:	8b 91 f4 00 00 00    	mov    0xf4(%ecx),%edx
 1005475:	5d                   	pop    %ebp
 1005476:	c3                   	ret    
 1005477:	89 f6                	mov    %esi,%esi
 1005479:	8d bc 27 00 00 00 00 	lea    0x0(%edi,%eiz,1),%edi

01005480 <HPET_SetGlobalCounter>:
 1005480:	55                   	push   %ebp
 1005481:	89 e5                	mov    %esp,%ebp
 1005483:	83 3d 18 10 27 05 00 	cmpl   $0x0,0x5271018
 100548a:	74 18                	je     10054a4 <HPET_SetGlobalCounter+0x24>
 100548c:	8b 45 0c             	mov    0xc(%ebp),%eax
 100548f:	8b 4d 08             	mov    0x8(%ebp),%ecx
 1005492:	8b 15 28 10 27 05    	mov    0x5271028,%edx
 1005498:	89 8a f0 00 00 00    	mov    %ecx,0xf0(%edx)
 100549e:	89 82 f4 00 00 00    	mov    %eax,0xf4(%edx)
 10054a4:	5d                   	pop    %ebp
 10054a5:	c3                   	ret    
 10054a6:	8d 76 00             	lea    0x0(%esi),%esi
 10054a9:	8d bc 27 00 00 00 00 	lea    0x0(%edi,%eiz,1),%edi

010054b0 <HPET_GetSupportedIRQs>:
 10054b0:	55                   	push   %ebp
 10054b1:	89 e5                	mov    %esp,%ebp
 10054b3:	a1 28 10 27 05       	mov    0x5271028,%eax
 10054b8:	8b 40 fc             	mov    -0x4(%eax),%eax
 10054bb:	5d                   	pop    %ebp
 10054bc:	c3                   	ret    
 10054bd:	8d 76 00             	lea    0x0(%esi),%esi

010054c0 <HPET_IsPeriodicCapable>:
 10054c0:	55                   	push   %ebp
 10054c1:	89 e5                	mov    %esp,%ebp
 10054c3:	a1 28 10 27 05       	mov    0x5271028,%eax
 10054c8:	8b 40 f8             	mov    -0x8(%eax),%eax
 10054cb:	c1 e8 04             	shr    $0x4,%eax
 10054ce:	83 e0 01             	and    $0x1,%eax
 10054d1:	5d                   	pop    %ebp
 10054d2:	c3                   	ret    
 10054d3:	8d b6 00 00 00 00    	lea    0x0(%esi),%esi
 10054d9:	8d bc 27 00 00 00 00 	lea    0x0(%edi,%eiz,1),%edi

010054e0 <HPET_SetTimerConfig>:
 10054e0:	55                   	push   %ebp
 10054e1:	89 e5                	mov    %esp,%ebp
 10054e3:	8b 45 1c             	mov    0x1c(%ebp),%eax
 10054e6:	8b 4d 20             	mov    0x20(%ebp),%ecx
 10054e9:	8b 15 28 10 27 05    	mov    0x5271028,%edx
 10054ef:	89 4a fc             	mov    %ecx,-0x4(%edx)
 10054f2:	89 42 f8             	mov    %eax,-0x8(%edx)
 10054f5:	5d                   	pop    %ebp
 10054f6:	c3                   	ret    
 10054f7:	66 90                	xchg   %ax,%ax
 10054f9:	66 90                	xchg   %ax,%ax
 10054fb:	66 90                	xchg   %ax,%ax
 10054fd:	66 90                	xchg   %ax,%ax
 10054ff:	90                   	nop

01005500 <pci_readDWord>:
 1005500:	55                   	push   %ebp
 1005501:	89 e5                	mov    %esp,%ebp
 1005503:	56                   	push   %esi
 1005504:	83 ec 08             	sub    $0x8,%esp
 1005507:	8b 45 10             	mov    0x10(%ebp),%eax
 100550a:	8b 4d 0c             	mov    0xc(%ebp),%ecx
 100550d:	8b 55 08             	mov    0x8(%ebp),%edx
 1005510:	c1 e2 10             	shl    $0x10,%edx
 1005513:	c1 e1 0b             	shl    $0xb,%ecx
 1005516:	c1 e0 08             	shl    $0x8,%eax
 1005519:	be fc 00 00 00       	mov    $0xfc,%esi
 100551e:	23 75 14             	and    0x14(%ebp),%esi
 1005521:	09 d1                	or     %edx,%ecx
 1005523:	09 c1                	or     %eax,%ecx
 1005525:	09 f1                	or     %esi,%ecx
 1005527:	81 c9 00 00 00 80    	or     $0x80000000,%ecx
 100552d:	89 4c 24 04          	mov    %ecx,0x4(%esp)
 1005531:	c7 04 24 f8 0c 00 00 	movl   $0xcf8,(%esp)
 1005538:	e8 33 ab ff ff       	call   1000070 <outl>
 100553d:	c7 04 24 fc 0c 00 00 	movl   $0xcfc,(%esp)
 1005544:	e8 37 ab ff ff       	call   1000080 <inl>
 1005549:	83 c4 08             	add    $0x8,%esp
 100554c:	5e                   	pop    %esi
 100554d:	5d                   	pop    %ebp
 100554e:	c3                   	ret    
 100554f:	90                   	nop

01005550 <pci_Initialize>:
 1005550:	55                   	push   %ebp
 1005551:	89 e5                	mov    %esp,%ebp
 1005553:	53                   	push   %ebx
 1005554:	57                   	push   %edi
 1005555:	56                   	push   %esi
 1005556:	83 ec 30             	sub    $0x30,%esp
 1005559:	c7 04 24 16 85 00 01 	movl   $0x1008516,(%esp)
 1005560:	e8 bb 10 00 00       	call   1006620 <COM_WriteStr>
 1005565:	31 c0                	xor    %eax,%eax
 1005567:	89 f6                	mov    %esi,%esi
 1005569:	8d bc 27 00 00 00 00 	lea    0x0(%edi,%eiz,1),%edi
 1005570:	89 45 d4             	mov    %eax,-0x2c(%ebp)
 1005573:	c1 e0 10             	shl    $0x10,%eax
 1005576:	89 45 d8             	mov    %eax,-0x28(%ebp)
 1005579:	31 c0                	xor    %eax,%eax
 100557b:	90                   	nop
 100557c:	8d 74 26 00          	lea    0x0(%esi,%eiz,1),%esi
 1005580:	89 45 dc             	mov    %eax,-0x24(%ebp)
 1005583:	c1 e0 0b             	shl    $0xb,%eax
 1005586:	0b 45 d8             	or     -0x28(%ebp),%eax
 1005589:	89 45 e4             	mov    %eax,-0x1c(%ebp)
 100558c:	0d 00 00 00 80       	or     $0x80000000,%eax
 1005591:	89 44 24 04          	mov    %eax,0x4(%esp)
 1005595:	c7 04 24 f8 0c 00 00 	movl   $0xcf8,(%esp)
 100559c:	e8 cf aa ff ff       	call   1000070 <outl>
 10055a1:	c7 04 24 fc 0c 00 00 	movl   $0xcfc,(%esp)
 10055a8:	e8 d3 aa ff ff       	call   1000080 <inl>
 10055ad:	3d ff ff fe ff       	cmp    $0xfffeffff,%eax
 10055b2:	0f 87 e7 00 00 00    	ja     100569f <pci_Initialize+0x14f>
 10055b8:	8b 45 e4             	mov    -0x1c(%ebp),%eax
 10055bb:	0d 0c 00 00 80       	or     $0x8000000c,%eax
 10055c0:	89 44 24 04          	mov    %eax,0x4(%esp)
 10055c4:	c7 04 24 f8 0c 00 00 	movl   $0xcf8,(%esp)
 10055cb:	e8 a0 aa ff ff       	call   1000070 <outl>
 10055d0:	c7 04 24 fc 0c 00 00 	movl   $0xcfc,(%esp)
 10055d7:	e8 a4 aa ff ff       	call   1000080 <inl>
 10055dc:	a9 00 00 80 00       	test   $0x800000,%eax
 10055e1:	b9 01 00 00 00       	mov    $0x1,%ecx
 10055e6:	b8 08 00 00 00       	mov    $0x8,%eax
 10055eb:	0f 45 c8             	cmovne %eax,%ecx
 10055ee:	89 4d e0             	mov    %ecx,-0x20(%ebp)
 10055f1:	31 f6                	xor    %esi,%esi
 10055f3:	31 db                	xor    %ebx,%ebx
 10055f5:	8d 74 26 00          	lea    0x0(%esi,%eiz,1),%esi
 10055f9:	8d bc 27 00 00 00 00 	lea    0x0(%edi,%eiz,1),%edi
 1005600:	89 f7                	mov    %esi,%edi
 1005602:	0b 7d e4             	or     -0x1c(%ebp),%edi
 1005605:	89 f8                	mov    %edi,%eax
 1005607:	0d 00 00 00 80       	or     $0x80000000,%eax
 100560c:	89 44 24 04          	mov    %eax,0x4(%esp)
 1005610:	c7 04 24 f8 0c 00 00 	movl   $0xcf8,(%esp)
 1005617:	e8 54 aa ff ff       	call   1000070 <outl>
 100561c:	c7 04 24 fc 0c 00 00 	movl   $0xcfc,(%esp)
 1005623:	e8 58 aa ff ff       	call   1000080 <inl>
 1005628:	3d ff ff fe ff       	cmp    $0xfffeffff,%eax
 100562d:	77 60                	ja     100568f <pci_Initialize+0x13f>
 100562f:	81 cf 08 00 00 80    	or     $0x80000008,%edi
 1005635:	89 7c 24 04          	mov    %edi,0x4(%esp)
 1005639:	c7 04 24 f8 0c 00 00 	movl   $0xcf8,(%esp)
 1005640:	e8 2b aa ff ff       	call   1000070 <outl>
 1005645:	c7 04 24 fc 0c 00 00 	movl   $0xcfc,(%esp)
 100564c:	e8 2f aa ff ff       	call   1000080 <inl>
 1005651:	8d 4d e8             	lea    -0x18(%ebp),%ecx
 1005654:	89 4c 24 0c          	mov    %ecx,0xc(%esp)
 1005658:	8d 4d ec             	lea    -0x14(%ebp),%ecx
 100565b:	89 4c 24 08          	mov    %ecx,0x8(%esp)
 100565f:	8d 4d f0             	lea    -0x10(%ebp),%ecx
 1005662:	89 4c 24 04          	mov    %ecx,0x4(%esp)
 1005666:	89 04 24             	mov    %eax,(%esp)
 1005669:	e8 b2 01 00 00       	call   1005820 <pci_GetPCIClass>
 100566e:	8b 45 ec             	mov    -0x14(%ebp),%eax
 1005671:	8b 4d e8             	mov    -0x18(%ebp),%ecx
 1005674:	8b 55 f0             	mov    -0x10(%ebp),%edx
 1005677:	89 54 24 0c          	mov    %edx,0xc(%esp)
 100567b:	89 4c 24 08          	mov    %ecx,0x8(%esp)
 100567f:	89 44 24 04          	mov    %eax,0x4(%esp)
 1005683:	c7 04 24 33 85 00 01 	movl   $0x1008533,(%esp)
 100568a:	e8 91 0f 00 00       	call   1006620 <COM_WriteStr>
 100568f:	43                   	inc    %ebx
 1005690:	81 c6 00 01 00 00    	add    $0x100,%esi
 1005696:	3b 5d e0             	cmp    -0x20(%ebp),%ebx
 1005699:	0f 8c 61 ff ff ff    	jl     1005600 <pci_Initialize+0xb0>
 100569f:	8b 45 dc             	mov    -0x24(%ebp),%eax
 10056a2:	40                   	inc    %eax
 10056a3:	83 f8 20             	cmp    $0x20,%eax
 10056a6:	0f 85 d4 fe ff ff    	jne    1005580 <pci_Initialize+0x30>
 10056ac:	8b 45 d4             	mov    -0x2c(%ebp),%eax
 10056af:	40                   	inc    %eax
 10056b0:	3d 00 01 00 00       	cmp    $0x100,%eax
 10056b5:	0f 85 b5 fe ff ff    	jne    1005570 <pci_Initialize+0x20>
 10056bb:	c7 44 24 04 00 00 00 	movl   $0x0,0x4(%esp)
 10056c2:	00 
 10056c3:	c7 04 24 45 85 00 01 	movl   $0x1008545,(%esp)
 10056ca:	e8 41 ea ff ff       	call   1004110 <ACPITables_FindTable>
 10056cf:	89 c6                	mov    %eax,%esi
 10056d1:	85 f6                	test   %esi,%esi
 10056d3:	74 79                	je     100574e <pci_Initialize+0x1fe>
 10056d5:	8b 46 04             	mov    0x4(%esi),%eax
 10056d8:	83 c0 d4             	add    $0xffffffd4,%eax
 10056db:	c1 e8 04             	shr    $0x4,%eax
 10056de:	a3 dc 4c 27 05       	mov    %eax,0x5274cdc
 10056e3:	c1 e0 04             	shl    $0x4,%eax
 10056e6:	89 04 24             	mov    %eax,(%esp)
 10056e9:	e8 92 bf ff ff       	call   1001680 <bootstrap_malloc>
 10056ee:	a3 d8 4c 27 05       	mov    %eax,0x5274cd8
 10056f3:	83 c6 2c             	add    $0x2c,%esi
 10056f6:	8b 0d dc 4c 27 05    	mov    0x5274cdc,%ecx
 10056fc:	c1 e1 04             	shl    $0x4,%ecx
 10056ff:	89 4c 24 08          	mov    %ecx,0x8(%esp)
 1005703:	89 74 24 04          	mov    %esi,0x4(%esp)
 1005707:	89 04 24             	mov    %eax,(%esp)
 100570a:	e8 c1 a9 ff ff       	call   10000d0 <memcpy>
 100570f:	83 3d dc 4c 27 05 00 	cmpl   $0x0,0x5274cdc
 1005716:	74 42                	je     100575a <pci_Initialize+0x20a>
 1005718:	31 f6                	xor    %esi,%esi
 100571a:	31 ff                	xor    %edi,%edi
 100571c:	8d 74 26 00          	lea    0x0(%esi,%eiz,1),%esi
 1005720:	a1 d8 4c 27 05       	mov    0x5274cd8,%eax
 1005725:	8b 0c 30             	mov    (%eax,%esi,1),%ecx
 1005728:	8b 44 30 04          	mov    0x4(%eax,%esi,1),%eax
 100572c:	89 44 24 08          	mov    %eax,0x8(%esp)
 1005730:	89 4c 24 04          	mov    %ecx,0x4(%esp)
 1005734:	c7 04 24 75 84 00 01 	movl   $0x1008475,(%esp)
 100573b:	e8 e0 0e 00 00       	call   1006620 <COM_WriteStr>
 1005740:	47                   	inc    %edi
 1005741:	83 c6 10             	add    $0x10,%esi
 1005744:	3b 3d dc 4c 27 05    	cmp    0x5274cdc,%edi
 100574a:	72 d4                	jb     1005720 <pci_Initialize+0x1d0>
 100574c:	eb 0c                	jmp    100575a <pci_Initialize+0x20a>
 100574e:	c7 04 24 4a 85 00 01 	movl   $0x100854a,(%esp)
 1005755:	e8 c6 0e 00 00       	call   1006620 <COM_WriteStr>
 100575a:	83 c4 30             	add    $0x30,%esp
 100575d:	5e                   	pop    %esi
 100575e:	5f                   	pop    %edi
 100575f:	5b                   	pop    %ebx
 1005760:	5d                   	pop    %ebp
 1005761:	c3                   	ret    
 1005762:	66 90                	xchg   %ax,%ax
 1005764:	66 90                	xchg   %ax,%ax
 1005766:	66 90                	xchg   %ax,%ax
 1005768:	66 90                	xchg   %ax,%ax
 100576a:	66 90                	xchg   %ax,%ax
 100576c:	66 90                	xchg   %ax,%ax
 100576e:	66 90                	xchg   %ax,%ax

01005770 <pci_GetPCIClass3>:
 1005770:	55                   	push   %ebp
 1005771:	89 e5                	mov    %esp,%ebp
 1005773:	53                   	push   %ebx
 1005774:	57                   	push   %edi
 1005775:	56                   	push   %esi
 1005776:	83 ec 08             	sub    $0x8,%esp
 1005779:	8b 55 18             	mov    0x18(%ebp),%edx
 100577c:	8b 5d 14             	mov    0x14(%ebp),%ebx
 100577f:	8a 45 10             	mov    0x10(%ebp),%al
 1005782:	8a 4d 0c             	mov    0xc(%ebp),%cl
 1005785:	8a 65 08             	mov    0x8(%ebp),%ah
 1005788:	0f b6 fc             	movzbl %ah,%edi
 100578b:	0f b6 c9             	movzbl %cl,%ecx
 100578e:	89 4d f0             	mov    %ecx,-0x10(%ebp)
 1005791:	0f b6 c0             	movzbl %al,%eax
 1005794:	89 45 ec             	mov    %eax,-0x14(%ebp)
 1005797:	31 f6                	xor    %esi,%esi
 1005799:	b9 c0 6b 84 01       	mov    $0x1846bc0,%ecx
 100579e:	8b 45 1c             	mov    0x1c(%ebp),%eax
 10057a1:	c7 00 95 34 02 01    	movl   $0x1023495,(%eax)
 10057a7:	c7 02 95 34 02 01    	movl   $0x1023495,(%edx)
 10057ad:	c7 03 95 34 02 01    	movl   $0x1023495,(%ebx)
 10057b3:	8d b6 00 00 00 00    	lea    0x0(%esi),%esi
 10057b9:	8d bc 27 00 00 00 00 	lea    0x0(%edi,%eiz,1),%edi
 10057c0:	0f b6 01             	movzbl (%ecx),%eax
 10057c3:	39 f8                	cmp    %edi,%eax
 10057c5:	75 30                	jne    10057f7 <pci_GetPCIClass3+0x87>
 10057c7:	8b 03                	mov    (%ebx),%eax
 10057c9:	80 38 00             	cmpb   $0x0,(%eax)
 10057cc:	75 05                	jne    10057d3 <pci_GetPCIClass3+0x63>
 10057ce:	8b 41 04             	mov    0x4(%ecx),%eax
 10057d1:	89 03                	mov    %eax,(%ebx)
 10057d3:	0f b6 41 01          	movzbl 0x1(%ecx),%eax
 10057d7:	3b 45 f0             	cmp    -0x10(%ebp),%eax
 10057da:	75 1b                	jne    10057f7 <pci_GetPCIClass3+0x87>
 10057dc:	8b 45 18             	mov    0x18(%ebp),%eax
 10057df:	8b 00                	mov    (%eax),%eax
 10057e1:	80 38 00             	cmpb   $0x0,(%eax)
 10057e4:	75 08                	jne    10057ee <pci_GetPCIClass3+0x7e>
 10057e6:	8b 41 08             	mov    0x8(%ecx),%eax
 10057e9:	8b 55 18             	mov    0x18(%ebp),%edx
 10057ec:	89 02                	mov    %eax,(%edx)
 10057ee:	0f b6 41 02          	movzbl 0x2(%ecx),%eax
 10057f2:	3b 45 ec             	cmp    -0x14(%ebp),%eax
 10057f5:	74 0b                	je     1005802 <pci_GetPCIClass3+0x92>
 10057f7:	46                   	inc    %esi
 10057f8:	83 c1 10             	add    $0x10,%ecx
 10057fb:	83 fe 47             	cmp    $0x47,%esi
 10057fe:	72 c0                	jb     10057c0 <pci_GetPCIClass3+0x50>
 1005800:	eb 0e                	jmp    1005810 <pci_GetPCIClass3+0xa0>
 1005802:	c1 e6 04             	shl    $0x4,%esi
 1005805:	8b 86 cc 6b 84 01    	mov    0x1846bcc(%esi),%eax
 100580b:	8b 4d 1c             	mov    0x1c(%ebp),%ecx
 100580e:	89 01                	mov    %eax,(%ecx)
 1005810:	83 c4 08             	add    $0x8,%esp
 1005813:	5e                   	pop    %esi
 1005814:	5f                   	pop    %edi
 1005815:	5b                   	pop    %ebx
 1005816:	5d                   	pop    %ebp
 1005817:	c3                   	ret    
 1005818:	90                   	nop
 1005819:	8d b4 26 00 00 00 00 	lea    0x0(%esi,%eiz,1),%esi

01005820 <pci_GetPCIClass>:
 1005820:	55                   	push   %ebp
 1005821:	89 e5                	mov    %esp,%ebp
 1005823:	53                   	push   %ebx
 1005824:	57                   	push   %edi
 1005825:	56                   	push   %esi
 1005826:	83 ec 08             	sub    $0x8,%esp
 1005829:	8b 45 0c             	mov    0xc(%ebp),%eax
 100582c:	8b 4d 08             	mov    0x8(%ebp),%ecx
 100582f:	89 ca                	mov    %ecx,%edx
 1005831:	31 f6                	xor    %esi,%esi
 1005833:	bf c0 6b 84 01       	mov    $0x1846bc0,%edi
 1005838:	c1 ea 18             	shr    $0x18,%edx
 100583b:	c1 e9 10             	shr    $0x10,%ecx
 100583e:	8b 5d 14             	mov    0x14(%ebp),%ebx
 1005841:	c7 03 95 34 02 01    	movl   $0x1023495,(%ebx)
 1005847:	8b 5d 10             	mov    0x10(%ebp),%ebx
 100584a:	c7 03 95 34 02 01    	movl   $0x1023495,(%ebx)
 1005850:	c7 00 95 34 02 01    	movl   $0x1023495,(%eax)
 1005856:	0f b6 da             	movzbl %dl,%ebx
 1005859:	0f b6 d1             	movzbl %cl,%edx
 100585c:	89 55 ec             	mov    %edx,-0x14(%ebp)
 100585f:	8b 4d 08             	mov    0x8(%ebp),%ecx
 1005862:	0f b6 cd             	movzbl %ch,%ecx
 1005865:	89 4d f0             	mov    %ecx,-0x10(%ebp)
 1005868:	90                   	nop
 1005869:	8d b4 26 00 00 00 00 	lea    0x0(%esi,%eiz,1),%esi
 1005870:	0f b6 0f             	movzbl (%edi),%ecx
 1005873:	39 d9                	cmp    %ebx,%ecx
 1005875:	75 32                	jne    10058a9 <pci_GetPCIClass+0x89>
 1005877:	8b 08                	mov    (%eax),%ecx
 1005879:	80 39 00             	cmpb   $0x0,(%ecx)
 100587c:	75 05                	jne    1005883 <pci_GetPCIClass+0x63>
 100587e:	8b 4f 04             	mov    0x4(%edi),%ecx
 1005881:	89 08                	mov    %ecx,(%eax)
 1005883:	0f b6 4f 01          	movzbl 0x1(%edi),%ecx
 1005887:	39 d1                	cmp    %edx,%ecx
 1005889:	75 1e                	jne    10058a9 <pci_GetPCIClass+0x89>
 100588b:	8b 4d 10             	mov    0x10(%ebp),%ecx
 100588e:	8b 09                	mov    (%ecx),%ecx
 1005890:	80 39 00             	cmpb   $0x0,(%ecx)
 1005893:	75 0b                	jne    10058a0 <pci_GetPCIClass+0x80>
 1005895:	8b 4f 08             	mov    0x8(%edi),%ecx
 1005898:	8b 55 10             	mov    0x10(%ebp),%edx
 100589b:	89 0a                	mov    %ecx,(%edx)
 100589d:	8b 55 ec             	mov    -0x14(%ebp),%edx
 10058a0:	0f b6 4f 02          	movzbl 0x2(%edi),%ecx
 10058a4:	3b 4d f0             	cmp    -0x10(%ebp),%ecx
 10058a7:	74 0b                	je     10058b4 <pci_GetPCIClass+0x94>
 10058a9:	46                   	inc    %esi
 10058aa:	83 c7 10             	add    $0x10,%edi
 10058ad:	83 fe 47             	cmp    $0x47,%esi
 10058b0:	72 be                	jb     1005870 <pci_GetPCIClass+0x50>
 10058b2:	eb 0e                	jmp    10058c2 <pci_GetPCIClass+0xa2>
 10058b4:	c1 e6 04             	shl    $0x4,%esi
 10058b7:	8b 86 cc 6b 84 01    	mov    0x1846bcc(%esi),%eax
 10058bd:	8b 4d 14             	mov    0x14(%ebp),%ecx
 10058c0:	89 01                	mov    %eax,(%ecx)
 10058c2:	83 c4 08             	add    $0x8,%esp
 10058c5:	5e                   	pop    %esi
 10058c6:	5f                   	pop    %edi
 10058c7:	5b                   	pop    %ebx
 10058c8:	5d                   	pop    %ebp
 10058c9:	c3                   	ret    
 10058ca:	66 90                	xchg   %ax,%ax
 10058cc:	66 90                	xchg   %ax,%ax
 10058ce:	66 90                	xchg   %ax,%ax

010058d0 <PIC_Initialize>:
 10058d0:	55                   	push   %ebp
 10058d1:	89 e5                	mov    %esp,%ebp
 10058d3:	53                   	push   %ebx
 10058d4:	56                   	push   %esi
 10058d5:	83 ec 10             	sub    $0x10,%esp
 10058d8:	c7 44 24 04 28 00 00 	movl   $0x28,0x4(%esp)
 10058df:	00 
 10058e0:	c7 04 24 20 00 00 00 	movl   $0x20,(%esp)
 10058e7:	e8 a4 00 00 00       	call   1005990 <PIC_SetOffset>
 10058ec:	31 db                	xor    %ebx,%ebx
 10058ee:	be 74 16 27 05       	mov    $0x5271674,%esi
 10058f3:	8d b6 00 00 00 00    	lea    0x0(%esi),%esi
 10058f9:	8d bc 27 00 00 00 00 	lea    0x0(%edi,%eiz,1),%edi
 1005900:	c6 06 68             	movb   $0x68,(%esi)
 1005903:	88 5e 01             	mov    %bl,0x1(%esi)
 1005906:	c6 46 02 00          	movb   $0x0,0x2(%esi)
 100590a:	c6 46 03 00          	movb   $0x0,0x3(%esi)
 100590e:	c6 46 04 00          	movb   $0x0,0x4(%esi)
 1005912:	c6 46 05 68          	movb   $0x68,0x5(%esi)
 1005916:	8d 43 20             	lea    0x20(%ebx),%eax
 1005919:	88 46 06             	mov    %al,0x6(%esi)
 100591c:	c6 46 07 00          	movb   $0x0,0x7(%esi)
 1005920:	c6 46 08 00          	movb   $0x0,0x8(%esi)
 1005924:	c6 46 09 00          	movb   $0x0,0x9(%esi)
 1005928:	c6 46 0a 68          	movb   $0x68,0xa(%esi)
 100592c:	b9 40 5c 00 01       	mov    $0x1005c40,%ecx
 1005931:	88 4e 0b             	mov    %cl,0xb(%esi)
 1005934:	88 6e 0c             	mov    %ch,0xc(%esi)
 1005937:	b9 40 5c 00 01       	mov    $0x1005c40,%ecx
 100593c:	c1 e9 10             	shr    $0x10,%ecx
 100593f:	88 4e 0d             	mov    %cl,0xd(%esi)
 1005942:	b9 40 5c 00 01       	mov    $0x1005c40,%ecx
 1005947:	c1 e9 18             	shr    $0x18,%ecx
 100594a:	88 4e 0e             	mov    %cl,0xe(%esi)
 100594d:	c6 46 0f c3          	movb   $0xc3,0xf(%esi)
 1005951:	89 74 24 04          	mov    %esi,0x4(%esp)
 1005955:	0f b6 c0             	movzbl %al,%eax
 1005958:	89 04 24             	mov    %eax,(%esp)
 100595b:	c7 44 24 0c 8e 00 00 	movl   $0x8e,0xc(%esp)
 1005962:	00 
 1005963:	c7 44 24 08 08 00 00 	movl   $0x8,0x8(%esp)
 100596a:	00 
 100596b:	e8 30 17 00 00       	call   10070a0 <IDT_SetEntry>
 1005970:	43                   	inc    %ebx
 1005971:	83 c6 30             	add    $0x30,%esi
 1005974:	83 fb 10             	cmp    $0x10,%ebx
 1005977:	75 87                	jne    1005900 <PIC_Initialize+0x30>
 1005979:	31 c0                	xor    %eax,%eax
 100597b:	83 c4 10             	add    $0x10,%esp
 100597e:	5e                   	pop    %esi
 100597f:	5b                   	pop    %ebx
 1005980:	5d                   	pop    %ebp
 1005981:	c3                   	ret    
 1005982:	8d b4 26 00 00 00 00 	lea    0x0(%esi,%eiz,1),%esi
 1005989:	8d bc 27 00 00 00 00 	lea    0x0(%edi,%eiz,1),%edi

01005990 <PIC_SetOffset>:
 1005990:	55                   	push   %ebp
 1005991:	89 e5                	mov    %esp,%ebp
 1005993:	53                   	push   %ebx
 1005994:	83 ec 08             	sub    $0x8,%esp
 1005997:	c7 04 24 21 00 00 00 	movl   $0x21,(%esp)
 100599e:	e8 9d a6 ff ff       	call   1000040 <inb>
 10059a3:	88 c7                	mov    %al,%bh
 10059a5:	c7 04 24 a1 00 00 00 	movl   $0xa1,(%esp)
 10059ac:	e8 8f a6 ff ff       	call   1000040 <inb>
 10059b1:	88 c3                	mov    %al,%bl
 10059b3:	c7 44 24 04 11 00 00 	movl   $0x11,0x4(%esp)
 10059ba:	00 
 10059bb:	c7 04 24 20 00 00 00 	movl   $0x20,(%esp)
 10059c2:	e8 69 a6 ff ff       	call   1000030 <outb>
 10059c7:	c7 44 24 04 11 00 00 	movl   $0x11,0x4(%esp)
 10059ce:	00 
 10059cf:	c7 04 24 a0 00 00 00 	movl   $0xa0,(%esp)
 10059d6:	e8 55 a6 ff ff       	call   1000030 <outb>
 10059db:	0f b6 45 08          	movzbl 0x8(%ebp),%eax
 10059df:	89 44 24 04          	mov    %eax,0x4(%esp)
 10059e3:	c7 04 24 21 00 00 00 	movl   $0x21,(%esp)
 10059ea:	e8 41 a6 ff ff       	call   1000030 <outb>
 10059ef:	0f b6 45 0c          	movzbl 0xc(%ebp),%eax
 10059f3:	89 44 24 04          	mov    %eax,0x4(%esp)
 10059f7:	c7 04 24 a1 00 00 00 	movl   $0xa1,(%esp)
 10059fe:	e8 2d a6 ff ff       	call   1000030 <outb>
 1005a03:	c7 44 24 04 04 00 00 	movl   $0x4,0x4(%esp)
 1005a0a:	00 
 1005a0b:	c7 04 24 21 00 00 00 	movl   $0x21,(%esp)
 1005a12:	e8 19 a6 ff ff       	call   1000030 <outb>
 1005a17:	c7 44 24 04 02 00 00 	movl   $0x2,0x4(%esp)
 1005a1e:	00 
 1005a1f:	c7 04 24 a1 00 00 00 	movl   $0xa1,(%esp)
 1005a26:	e8 05 a6 ff ff       	call   1000030 <outb>
 1005a2b:	c7 44 24 04 01 00 00 	movl   $0x1,0x4(%esp)
 1005a32:	00 
 1005a33:	c7 04 24 21 00 00 00 	movl   $0x21,(%esp)
 1005a3a:	e8 f1 a5 ff ff       	call   1000030 <outb>
 1005a3f:	c7 44 24 04 01 00 00 	movl   $0x1,0x4(%esp)
 1005a46:	00 
 1005a47:	c7 04 24 a1 00 00 00 	movl   $0xa1,(%esp)
 1005a4e:	e8 dd a5 ff ff       	call   1000030 <outb>
 1005a53:	0f b6 c7             	movzbl %bh,%eax
 1005a56:	89 44 24 04          	mov    %eax,0x4(%esp)
 1005a5a:	c7 04 24 21 00 00 00 	movl   $0x21,(%esp)
 1005a61:	e8 ca a5 ff ff       	call   1000030 <outb>
 1005a66:	0f b6 c3             	movzbl %bl,%eax
 1005a69:	89 44 24 04          	mov    %eax,0x4(%esp)
 1005a6d:	c7 04 24 a1 00 00 00 	movl   $0xa1,(%esp)
 1005a74:	e8 b7 a5 ff ff       	call   1000030 <outb>
 1005a79:	83 c4 08             	add    $0x8,%esp
 1005a7c:	5b                   	pop    %ebx
 1005a7d:	5d                   	pop    %ebp
 1005a7e:	c3                   	ret    
 1005a7f:	90                   	nop

01005a80 <PIC_FillHWInterruptHandler>:
 1005a80:	55                   	push   %ebp
 1005a81:	89 e5                	mov    %esp,%ebp
 1005a83:	8a 45 0c             	mov    0xc(%ebp),%al
 1005a86:	8a 4d 10             	mov    0x10(%ebp),%cl
 1005a89:	8b 55 08             	mov    0x8(%ebp),%edx
 1005a8c:	c6 02 68             	movb   $0x68,(%edx)
 1005a8f:	88 4a 01             	mov    %cl,0x1(%edx)
 1005a92:	c6 42 02 00          	movb   $0x0,0x2(%edx)
 1005a96:	c6 42 03 00          	movb   $0x0,0x3(%edx)
 1005a9a:	c6 42 04 00          	movb   $0x0,0x4(%edx)
 1005a9e:	c6 42 05 68          	movb   $0x68,0x5(%edx)
 1005aa2:	88 42 06             	mov    %al,0x6(%edx)
 1005aa5:	c6 42 07 00          	movb   $0x0,0x7(%edx)
 1005aa9:	c6 42 08 00          	movb   $0x0,0x8(%edx)
 1005aad:	c6 42 09 00          	movb   $0x0,0x9(%edx)
 1005ab1:	c6 42 0a 68          	movb   $0x68,0xa(%edx)
 1005ab5:	b8 40 5c 00 01       	mov    $0x1005c40,%eax
 1005aba:	88 42 0b             	mov    %al,0xb(%edx)
 1005abd:	88 62 0c             	mov    %ah,0xc(%edx)
 1005ac0:	b9 40 5c 00 01       	mov    $0x1005c40,%ecx
 1005ac5:	c1 e9 10             	shr    $0x10,%ecx
 1005ac8:	88 4a 0d             	mov    %cl,0xd(%edx)
 1005acb:	c1 e8 18             	shr    $0x18,%eax
 1005ace:	88 42 0e             	mov    %al,0xe(%edx)
 1005ad1:	c6 42 0f c3          	movb   $0xc3,0xf(%edx)
 1005ad5:	5d                   	pop    %ebp
 1005ad6:	c3                   	ret    
 1005ad7:	89 f6                	mov    %esi,%esi
 1005ad9:	8d bc 27 00 00 00 00 	lea    0x0(%edi,%eiz,1),%edi

01005ae0 <PIC_MaskAll>:
 1005ae0:	55                   	push   %ebp
 1005ae1:	89 e5                	mov    %esp,%ebp
 1005ae3:	83 ec 08             	sub    $0x8,%esp
 1005ae6:	c7 44 24 04 ff 00 00 	movl   $0xff,0x4(%esp)
 1005aed:	00 
 1005aee:	c7 04 24 a1 00 00 00 	movl   $0xa1,(%esp)
 1005af5:	e8 36 a5 ff ff       	call   1000030 <outb>
 1005afa:	c7 44 24 04 ff 00 00 	movl   $0xff,0x4(%esp)
 1005b01:	00 
 1005b02:	c7 04 24 21 00 00 00 	movl   $0x21,(%esp)
 1005b09:	e8 22 a5 ff ff       	call   1000030 <outb>
 1005b0e:	83 c4 08             	add    $0x8,%esp
 1005b11:	5d                   	pop    %ebp
 1005b12:	c3                   	ret    
 1005b13:	8d b6 00 00 00 00    	lea    0x0(%esi),%esi
 1005b19:	8d bc 27 00 00 00 00 	lea    0x0(%edi,%eiz,1),%edi

01005b20 <PIC_MaskIRQ>:
 1005b20:	55                   	push   %ebp
 1005b21:	89 e5                	mov    %esp,%ebp
 1005b23:	53                   	push   %ebx
 1005b24:	56                   	push   %esi
 1005b25:	83 ec 08             	sub    $0x8,%esp
 1005b28:	0f b6 45 08          	movzbl 0x8(%ebp),%eax
 1005b2c:	88 c3                	mov    %al,%bl
 1005b2e:	80 c3 d8             	add    $0xd8,%bl
 1005b31:	83 f8 27             	cmp    $0x27,%eax
 1005b34:	77 02                	ja     1005b38 <PIC_MaskIRQ+0x18>
 1005b36:	88 c3                	mov    %al,%bl
 1005b38:	66 b8 a1 00          	mov    $0xa1,%ax
 1005b3c:	66 b9 21 00          	mov    $0x21,%cx
 1005b40:	66 0f 47 c8          	cmova  %ax,%cx
 1005b44:	0f b7 f1             	movzwl %cx,%esi
 1005b47:	89 34 24             	mov    %esi,(%esp)
 1005b4a:	e8 f1 a4 ff ff       	call   1000040 <inb>
 1005b4f:	0f b6 d0             	movzbl %al,%edx
 1005b52:	0f b6 cb             	movzbl %bl,%ecx
 1005b55:	83 c1 e0             	add    $0xffffffe0,%ecx
 1005b58:	b8 01 00 00 00       	mov    $0x1,%eax
 1005b5d:	d3 e0                	shl    %cl,%eax
 1005b5f:	09 d0                	or     %edx,%eax
 1005b61:	89 34 24             	mov    %esi,(%esp)
 1005b64:	0f b6 c0             	movzbl %al,%eax
 1005b67:	89 44 24 04          	mov    %eax,0x4(%esp)
 1005b6b:	e8 c0 a4 ff ff       	call   1000030 <outb>
 1005b70:	83 c4 08             	add    $0x8,%esp
 1005b73:	5e                   	pop    %esi
 1005b74:	5b                   	pop    %ebx
 1005b75:	5d                   	pop    %ebp
 1005b76:	c3                   	ret    
 1005b77:	89 f6                	mov    %esi,%esi
 1005b79:	8d bc 27 00 00 00 00 	lea    0x0(%edi,%eiz,1),%edi

01005b80 <PIC_UnMaskIRQ>:
 1005b80:	55                   	push   %ebp
 1005b81:	89 e5                	mov    %esp,%ebp
 1005b83:	53                   	push   %ebx
 1005b84:	56                   	push   %esi
 1005b85:	83 ec 08             	sub    $0x8,%esp
 1005b88:	0f b6 45 08          	movzbl 0x8(%ebp),%eax
 1005b8c:	88 c3                	mov    %al,%bl
 1005b8e:	80 c3 d8             	add    $0xd8,%bl
 1005b91:	83 f8 27             	cmp    $0x27,%eax
 1005b94:	77 02                	ja     1005b98 <PIC_UnMaskIRQ+0x18>
 1005b96:	88 c3                	mov    %al,%bl
 1005b98:	66 b8 a1 00          	mov    $0xa1,%ax
 1005b9c:	66 b9 21 00          	mov    $0x21,%cx
 1005ba0:	66 0f 47 c8          	cmova  %ax,%cx
 1005ba4:	0f b7 f1             	movzwl %cx,%esi
 1005ba7:	89 34 24             	mov    %esi,(%esp)
 1005baa:	e8 91 a4 ff ff       	call   1000040 <inb>
 1005baf:	0f b6 c0             	movzbl %al,%eax
 1005bb2:	0f b6 cb             	movzbl %bl,%ecx
 1005bb5:	83 c1 e0             	add    $0xffffffe0,%ecx
 1005bb8:	ba 01 00 00 00       	mov    $0x1,%edx
 1005bbd:	d3 e2                	shl    %cl,%edx
 1005bbf:	81 f2 ff 00 00 00    	xor    $0xff,%edx
 1005bc5:	21 c2                	and    %eax,%edx
 1005bc7:	89 34 24             	mov    %esi,(%esp)
 1005bca:	89 54 24 04          	mov    %edx,0x4(%esp)
 1005bce:	e8 5d a4 ff ff       	call   1000030 <outb>
 1005bd3:	83 c4 08             	add    $0x8,%esp
 1005bd6:	5e                   	pop    %esi
 1005bd7:	5b                   	pop    %ebx
 1005bd8:	5d                   	pop    %ebp
 1005bd9:	c3                   	ret    
 1005bda:	8d b6 00 00 00 00    	lea    0x0(%esi),%esi

01005be0 <PIC_GetReg>:
 1005be0:	55                   	push   %ebp
 1005be1:	89 e5                	mov    %esp,%ebp
 1005be3:	56                   	push   %esi
 1005be4:	83 ec 08             	sub    $0x8,%esp
 1005be7:	0f b6 75 08          	movzbl 0x8(%ebp),%esi
 1005beb:	89 74 24 04          	mov    %esi,0x4(%esp)
 1005bef:	c7 04 24 20 00 00 00 	movl   $0x20,(%esp)
 1005bf6:	e8 35 a4 ff ff       	call   1000030 <outb>
 1005bfb:	89 74 24 04          	mov    %esi,0x4(%esp)
 1005bff:	c7 04 24 a0 00 00 00 	movl   $0xa0,(%esp)
 1005c06:	e8 25 a4 ff ff       	call   1000030 <outb>
 1005c0b:	c7 04 24 a0 00 00 00 	movl   $0xa0,(%esp)
 1005c12:	e8 29 a4 ff ff       	call   1000040 <inb>
 1005c17:	0f b6 f0             	movzbl %al,%esi
 1005c1a:	c1 e6 08             	shl    $0x8,%esi
 1005c1d:	c7 04 24 20 00 00 00 	movl   $0x20,(%esp)
 1005c24:	e8 17 a4 ff ff       	call   1000040 <inb>
 1005c29:	0f b6 c0             	movzbl %al,%eax
 1005c2c:	09 f0                	or     %esi,%eax
 1005c2e:	0f b7 c0             	movzwl %ax,%eax
 1005c31:	83 c4 08             	add    $0x8,%esp
 1005c34:	5e                   	pop    %esi
 1005c35:	5d                   	pop    %ebp
 1005c36:	c3                   	ret    
 1005c37:	89 f6                	mov    %esi,%esi
 1005c39:	8d bc 27 00 00 00 00 	lea    0x0(%edi,%eiz,1),%edi

01005c40 <PIC_DefaultHandler>:
 1005c40:	60                   	pusha  
 1005c41:	66 8c d8             	mov    %ds,%ax
 1005c44:	50                   	push   %eax
 1005c45:	66 b8 10 00          	mov    $0x10,%ax
 1005c49:	8e d8                	mov    %eax,%ds
 1005c4b:	8e c0                	mov    %eax,%es
 1005c4d:	8e e0                	mov    %eax,%fs
 1005c4f:	8e e8                	mov    %eax,%gs
 1005c51:	54                   	push   %esp
 1005c52:	e8 b9 00 00 00       	call   1005d10 <PIC_MainHandler>
 1005c57:	5b                   	pop    %ebx
 1005c58:	5b                   	pop    %ebx
 1005c59:	8e db                	mov    %ebx,%ds
 1005c5b:	8e c3                	mov    %ebx,%es
 1005c5d:	8e e3                	mov    %ebx,%fs
 1005c5f:	8e eb                	mov    %ebx,%gs
 1005c61:	61                   	popa   
 1005c62:	83 c4 08             	add    $0x8,%esp
 1005c65:	cf                   	iret   
 1005c66:	c3                   	ret    
 1005c67:	89 f6                	mov    %esi,%esi
 1005c69:	8d bc 27 00 00 00 00 	lea    0x0(%edi,%eiz,1),%edi

01005c70 <PIC_SendEOI>:
 1005c70:	55                   	push   %ebp
 1005c71:	89 e5                	mov    %esp,%ebp
 1005c73:	53                   	push   %ebx
 1005c74:	56                   	push   %esi
 1005c75:	83 ec 08             	sub    $0x8,%esp
 1005c78:	8b 5d 08             	mov    0x8(%ebp),%ebx
 1005c7b:	c7 44 24 04 0b 00 00 	movl   $0xb,0x4(%esp)
 1005c82:	00 
 1005c83:	c7 04 24 20 00 00 00 	movl   $0x20,(%esp)
 1005c8a:	e8 a1 a3 ff ff       	call   1000030 <outb>
 1005c8f:	c7 44 24 04 0b 00 00 	movl   $0xb,0x4(%esp)
 1005c96:	00 
 1005c97:	c7 04 24 a0 00 00 00 	movl   $0xa0,(%esp)
 1005c9e:	e8 8d a3 ff ff       	call   1000030 <outb>
 1005ca3:	c7 04 24 a0 00 00 00 	movl   $0xa0,(%esp)
 1005caa:	e8 91 a3 ff ff       	call   1000040 <inb>
 1005caf:	0f b6 f0             	movzbl %al,%esi
 1005cb2:	c1 e6 08             	shl    $0x8,%esi
 1005cb5:	c7 04 24 20 00 00 00 	movl   $0x20,(%esp)
 1005cbc:	e8 7f a3 ff ff       	call   1000040 <inb>
 1005cc1:	0f b6 c0             	movzbl %al,%eax
 1005cc4:	09 f0                	or     %esi,%eax
 1005cc6:	0f a3 d8             	bt     %ebx,%eax
 1005cc9:	73 30                	jae    1005cfb <PIC_SendEOI+0x8b>
 1005ccb:	0f b6 c3             	movzbl %bl,%eax
 1005cce:	83 f8 28             	cmp    $0x28,%eax
 1005cd1:	72 14                	jb     1005ce7 <PIC_SendEOI+0x77>
 1005cd3:	c7 44 24 04 20 00 00 	movl   $0x20,0x4(%esp)
 1005cda:	00 
 1005cdb:	c7 04 24 a0 00 00 00 	movl   $0xa0,(%esp)
 1005ce2:	e8 49 a3 ff ff       	call   1000030 <outb>
 1005ce7:	c7 44 24 04 20 00 00 	movl   $0x20,0x4(%esp)
 1005cee:	00 
 1005cef:	c7 04 24 20 00 00 00 	movl   $0x20,(%esp)
 1005cf6:	e8 35 a3 ff ff       	call   1000030 <outb>
 1005cfb:	83 c4 08             	add    $0x8,%esp
 1005cfe:	5e                   	pop    %esi
 1005cff:	5b                   	pop    %ebx
 1005d00:	5d                   	pop    %ebp
 1005d01:	c3                   	ret    
 1005d02:	8d b4 26 00 00 00 00 	lea    0x0(%esi,%eiz,1),%esi
 1005d09:	8d bc 27 00 00 00 00 	lea    0x0(%edi,%eiz,1),%edi

01005d10 <PIC_MainHandler>:
 1005d10:	55                   	push   %ebp
 1005d11:	89 e5                	mov    %esp,%ebp
 1005d13:	57                   	push   %edi
 1005d14:	56                   	push   %esi
 1005d15:	83 ec 08             	sub    $0x8,%esp
 1005d18:	8b 75 08             	mov    0x8(%ebp),%esi
 1005d1b:	c7 44 24 04 0b 00 00 	movl   $0xb,0x4(%esp)
 1005d22:	00 
 1005d23:	c7 04 24 20 00 00 00 	movl   $0x20,(%esp)
 1005d2a:	e8 01 a3 ff ff       	call   1000030 <outb>
 1005d2f:	c7 44 24 04 0b 00 00 	movl   $0xb,0x4(%esp)
 1005d36:	00 
 1005d37:	c7 04 24 a0 00 00 00 	movl   $0xa0,(%esp)
 1005d3e:	e8 ed a2 ff ff       	call   1000030 <outb>
 1005d43:	c7 04 24 a0 00 00 00 	movl   $0xa0,(%esp)
 1005d4a:	e8 f1 a2 ff ff       	call   1000040 <inb>
 1005d4f:	0f b6 f8             	movzbl %al,%edi
 1005d52:	c1 e7 08             	shl    $0x8,%edi
 1005d55:	c7 04 24 20 00 00 00 	movl   $0x20,(%esp)
 1005d5c:	e8 df a2 ff ff       	call   1000040 <inb>
 1005d61:	0f b6 c0             	movzbl %al,%eax
 1005d64:	09 f8                	or     %edi,%eax
 1005d66:	8b 4e 24             	mov    0x24(%esi),%ecx
 1005d69:	83 c4 08             	add    $0x8,%esp
 1005d6c:	0f a3 c8             	bt     %ecx,%eax
 1005d6f:	73 08                	jae    1005d79 <PIC_MainHandler+0x69>
 1005d71:	5e                   	pop    %esi
 1005d72:	5f                   	pop    %edi
 1005d73:	5d                   	pop    %ebp
 1005d74:	e9 17 14 00 00       	jmp    1007190 <IDT_MainHandler>
 1005d79:	5e                   	pop    %esi
 1005d7a:	5f                   	pop    %edi
 1005d7b:	5d                   	pop    %ebp
 1005d7c:	c3                   	ret    
 1005d7d:	66 90                	xchg   %ax,%ax
 1005d7f:	90                   	nop

01005d80 <PIT_SetFrequency>:
 1005d80:	55                   	push   %ebp
 1005d81:	89 e5                	mov    %esp,%ebp
 1005d83:	53                   	push   %ebx
 1005d84:	57                   	push   %edi
 1005d85:	56                   	push   %esi
 1005d86:	83 ec 0c             	sub    $0xc,%esp
 1005d89:	0f b6 4d 08          	movzbl 0x8(%ebp),%ecx
 1005d8d:	b8 dc 34 12 00       	mov    $0x1234dc,%eax
 1005d92:	31 d2                	xor    %edx,%edx
 1005d94:	f7 75 18             	divl   0x18(%ebp)
 1005d97:	0f b6 5d 0c          	movzbl 0xc(%ebp),%ebx
 1005d9b:	88 da                	mov    %bl,%dl
 1005d9d:	80 e2 03             	and    $0x3,%dl
 1005da0:	89 ce                	mov    %ecx,%esi
 1005da2:	c0 e1 06             	shl    $0x6,%cl
 1005da5:	c0 e2 04             	shl    $0x4,%dl
 1005da8:	08 ca                	or     %cl,%dl
 1005daa:	8a 4d 10             	mov    0x10(%ebp),%cl
 1005dad:	00 c9                	add    %cl,%cl
 1005daf:	80 e1 0e             	and    $0xe,%cl
 1005db2:	08 d1                	or     %dl,%cl
 1005db4:	8a 6d 14             	mov    0x14(%ebp),%ch
 1005db7:	69 d0 dc 34 12 00    	imul   $0x1234dc,%eax,%edx
 1005dbd:	89 c7                	mov    %eax,%edi
 1005dbf:	89 15 e0 4c 27 05    	mov    %edx,0x5274ce0
 1005dc5:	80 e5 01             	and    $0x1,%ch
 1005dc8:	83 e6 03             	and    $0x3,%esi
 1005dcb:	08 e9                	or     %ch,%cl
 1005dcd:	0f b6 c1             	movzbl %cl,%eax
 1005dd0:	89 d9                	mov    %ebx,%ecx
 1005dd2:	83 e1 03             	and    $0x3,%ecx
 1005dd5:	89 4d f0             	mov    %ecx,-0x10(%ebp)
 1005dd8:	89 44 24 04          	mov    %eax,0x4(%esp)
 1005ddc:	c7 04 24 43 00 00 00 	movl   $0x43,(%esp)
 1005de3:	e8 48 a2 ff ff       	call   1000030 <outb>
 1005de8:	f6 c3 01             	test   $0x1,%bl
 1005deb:	74 19                	je     1005e06 <PIT_SetFrequency+0x86>
 1005ded:	89 f0                	mov    %esi,%eax
 1005def:	83 c8 40             	or     $0x40,%eax
 1005df2:	89 fa                	mov    %edi,%edx
 1005df4:	0f b6 ca             	movzbl %dl,%ecx
 1005df7:	89 4c 24 04          	mov    %ecx,0x4(%esp)
 1005dfb:	0f b7 c0             	movzwl %ax,%eax
 1005dfe:	89 04 24             	mov    %eax,(%esp)
 1005e01:	e8 2a a2 ff ff       	call   1000030 <outb>
 1005e06:	89 f8                	mov    %edi,%eax
 1005e08:	8b 4d f0             	mov    -0x10(%ebp),%ecx
 1005e0b:	f6 c1 02             	test   $0x2,%cl
 1005e0e:	74 15                	je     1005e25 <PIT_SetFrequency+0xa5>
 1005e10:	83 ce 40             	or     $0x40,%esi
 1005e13:	0f b6 c4             	movzbl %ah,%eax
 1005e16:	89 44 24 04          	mov    %eax,0x4(%esp)
 1005e1a:	0f b7 c6             	movzwl %si,%eax
 1005e1d:	89 04 24             	mov    %eax,(%esp)
 1005e20:	e8 0b a2 ff ff       	call   1000030 <outb>
 1005e25:	83 c4 0c             	add    $0xc,%esp
 1005e28:	5e                   	pop    %esi
 1005e29:	5f                   	pop    %edi
 1005e2a:	5b                   	pop    %ebx
 1005e2b:	5d                   	pop    %ebp
 1005e2c:	c3                   	ret    
 1005e2d:	8d 76 00             	lea    0x0(%esi),%esi

01005e30 <PIT_TempIntHandler>:
 1005e30:	55                   	push   %ebp
 1005e31:	89 e5                	mov    %esp,%ebp
 1005e33:	83 3d e8 4c 27 05 00 	cmpl   $0x0,0x5274ce8
 1005e3a:	75 0f                	jne    1005e4b <PIT_TempIntHandler+0x1b>
 1005e3c:	a1 e4 4c 27 05       	mov    0x5274ce4,%eax
 1005e41:	85 c0                	test   %eax,%eax
 1005e43:	74 06                	je     1005e4b <PIT_TempIntHandler+0x1b>
 1005e45:	48                   	dec    %eax
 1005e46:	a3 e4 4c 27 05       	mov    %eax,0x5274ce4
 1005e4b:	b8 01 00 00 00       	mov    $0x1,%eax
 1005e50:	5d                   	pop    %ebp
 1005e51:	c3                   	ret    
 1005e52:	8d b4 26 00 00 00 00 	lea    0x0(%esi,%eiz,1),%esi
 1005e59:	8d bc 27 00 00 00 00 	lea    0x0(%edi,%eiz,1),%edi

01005e60 <PIT_Sleep>:
 1005e60:	55                   	push   %ebp
 1005e61:	89 e5                	mov    %esp,%ebp
 1005e63:	83 ec 10             	sub    $0x10,%esp
 1005e66:	c7 44 24 04 00 00 00 	movl   $0x0,0x4(%esp)
 1005e6d:	00 
 1005e6e:	c7 04 24 20 00 00 00 	movl   $0x20,(%esp)
 1005e75:	e8 e6 be ff ff       	call   1001d60 <Interrupts_SetInterruptEnableMode>
 1005e7a:	c7 45 fc 00 00 00 00 	movl   $0x0,-0x4(%ebp)
 1005e81:	8d 45 fc             	lea    -0x4(%ebp),%eax
 1005e84:	89 44 24 08          	mov    %eax,0x8(%esp)
 1005e88:	c7 44 24 04 00 00 00 	movl   $0x0,0x4(%esp)
 1005e8f:	00 
 1005e90:	c7 04 24 20 00 00 00 	movl   $0x20,(%esp)
 1005e97:	e8 84 be ff ff       	call   1001d20 <Interrupts_GetHandler>
 1005e9c:	c7 44 24 08 30 5e 00 	movl   $0x1005e30,0x8(%esp)
 1005ea3:	01 
 1005ea4:	c7 44 24 04 00 00 00 	movl   $0x0,0x4(%esp)
 1005eab:	00 
 1005eac:	c7 04 24 20 00 00 00 	movl   $0x20,(%esp)
 1005eb3:	e8 d8 bd ff ff       	call   1001c90 <Interrupts_RegisterHandler>
 1005eb8:	a1 e0 4c 27 05       	mov    0x5274ce0,%eax
 1005ebd:	0f af 45 08          	imul   0x8(%ebp),%eax
 1005ec1:	b9 d3 4d 62 10       	mov    $0x10624dd3,%ecx
 1005ec6:	f7 e1                	mul    %ecx
 1005ec8:	c1 ea 06             	shr    $0x6,%edx
 1005ecb:	89 15 e4 4c 27 05    	mov    %edx,0x5274ce4
 1005ed1:	c7 05 e8 4c 27 05 00 	movl   $0x0,0x5274ce8
 1005ed8:	00 00 00 
 1005edb:	c7 05 e0 4c 27 05 90 	movl   $0x4446390,0x5274ce0
 1005ee2:	63 44 04 
 1005ee5:	c7 44 24 04 36 00 00 	movl   $0x36,0x4(%esp)
 1005eec:	00 
 1005eed:	c7 04 24 43 00 00 00 	movl   $0x43,(%esp)
 1005ef4:	e8 37 a1 ff ff       	call   1000030 <outb>
 1005ef9:	c7 44 24 04 3c 00 00 	movl   $0x3c,0x4(%esp)
 1005f00:	00 
 1005f01:	c7 04 24 40 00 00 00 	movl   $0x40,(%esp)
 1005f08:	e8 23 a1 ff ff       	call   1000030 <outb>
 1005f0d:	c7 44 24 04 00 00 00 	movl   $0x0,0x4(%esp)
 1005f14:	00 
 1005f15:	c7 04 24 40 00 00 00 	movl   $0x40,(%esp)
 1005f1c:	e8 0f a1 ff ff       	call   1000030 <outb>
 1005f21:	c7 44 24 04 01 00 00 	movl   $0x1,0x4(%esp)
 1005f28:	00 
 1005f29:	c7 04 24 20 00 00 00 	movl   $0x20,(%esp)
 1005f30:	e8 2b be ff ff       	call   1001d60 <Interrupts_SetInterruptEnableMode>
 1005f35:	fa                   	cli    
 1005f36:	eb 09                	jmp    1005f41 <PIT_Sleep+0xe1>
 1005f38:	90                   	nop
 1005f39:	8d b4 26 00 00 00 00 	lea    0x0(%esi,%eiz,1),%esi
 1005f40:	fa                   	cli    
 1005f41:	83 3d e4 4c 27 05 00 	cmpl   $0x0,0x5274ce4
 1005f48:	74 10                	je     1005f5a <PIT_Sleep+0xfa>
 1005f4a:	fb                   	sti    
 1005f4b:	b8 32 00 00 00       	mov    $0x32,%eax
 1005f50:	90                   	nop
 1005f51:	90                   	nop
 1005f52:	90                   	nop
 1005f53:	90                   	nop
 1005f54:	90                   	nop
 1005f55:	48                   	dec    %eax
 1005f56:	75 f8                	jne    1005f50 <PIT_Sleep+0xf0>
 1005f58:	eb e6                	jmp    1005f40 <PIT_Sleep+0xe0>
 1005f5a:	c7 44 24 04 00 00 00 	movl   $0x0,0x4(%esp)
 1005f61:	00 
 1005f62:	c7 04 24 20 00 00 00 	movl   $0x20,(%esp)
 1005f69:	e8 f2 bd ff ff       	call   1001d60 <Interrupts_SetInterruptEnableMode>
 1005f6e:	8b 45 fc             	mov    -0x4(%ebp),%eax
 1005f71:	89 44 24 08          	mov    %eax,0x8(%esp)
 1005f75:	c7 44 24 04 00 00 00 	movl   $0x0,0x4(%esp)
 1005f7c:	00 
 1005f7d:	c7 04 24 20 00 00 00 	movl   $0x20,(%esp)
 1005f84:	e8 07 bd ff ff       	call   1001c90 <Interrupts_RegisterHandler>
 1005f89:	fb                   	sti    
 1005f8a:	83 c4 10             	add    $0x10,%esp
 1005f8d:	5d                   	pop    %ebp
 1005f8e:	c3                   	ret    
 1005f8f:	90                   	nop

01005f90 <PIT_SetEnableMode>:
 1005f90:	55                   	push   %ebp
 1005f91:	89 e5                	mov    %esp,%ebp
 1005f93:	83 ec 08             	sub    $0x8,%esp
 1005f96:	0f b6 45 08          	movzbl 0x8(%ebp),%eax
 1005f9a:	89 44 24 04          	mov    %eax,0x4(%esp)
 1005f9e:	c7 04 24 20 00 00 00 	movl   $0x20,(%esp)
 1005fa5:	e8 b6 bd ff ff       	call   1001d60 <Interrupts_SetInterruptEnableMode>
 1005faa:	83 c4 08             	add    $0x8,%esp
 1005fad:	5d                   	pop    %ebp
 1005fae:	c3                   	ret    
 1005faf:	90                   	nop

01005fb0 <PIT_Initialize>:
 1005fb0:	55                   	push   %ebp
 1005fb1:	89 e5                	mov    %esp,%ebp
 1005fb3:	83 ec 08             	sub    $0x8,%esp
 1005fb6:	c7 05 e0 4c 27 05 90 	movl   $0x4446390,0x5274ce0
 1005fbd:	63 44 04 
 1005fc0:	c7 44 24 04 34 00 00 	movl   $0x34,0x4(%esp)
 1005fc7:	00 
 1005fc8:	c7 04 24 43 00 00 00 	movl   $0x43,(%esp)
 1005fcf:	e8 5c a0 ff ff       	call   1000030 <outb>
 1005fd4:	c7 44 24 04 3c 00 00 	movl   $0x3c,0x4(%esp)
 1005fdb:	00 
 1005fdc:	c7 04 24 40 00 00 00 	movl   $0x40,(%esp)
 1005fe3:	e8 48 a0 ff ff       	call   1000030 <outb>
 1005fe8:	c7 44 24 04 00 00 00 	movl   $0x0,0x4(%esp)
 1005fef:	00 
 1005ff0:	c7 04 24 40 00 00 00 	movl   $0x40,(%esp)
 1005ff7:	e8 34 a0 ff ff       	call   1000030 <outb>
 1005ffc:	83 c4 08             	add    $0x8,%esp
 1005fff:	5d                   	pop    %ebp
 1006000:	c3                   	ret    
 1006001:	66 90                	xchg   %ax,%ax
 1006003:	66 90                	xchg   %ax,%ax
 1006005:	66 90                	xchg   %ax,%ax
 1006007:	66 90                	xchg   %ax,%ax
 1006009:	66 90                	xchg   %ax,%ax
 100600b:	66 90                	xchg   %ax,%ax
 100600d:	66 90                	xchg   %ax,%ax
 100600f:	90                   	nop

01006010 <PS2_Initialize>:
 1006010:	55                   	push   %ebp
 1006011:	89 e5                	mov    %esp,%ebp
 1006013:	53                   	push   %ebx
 1006014:	56                   	push   %esi
 1006015:	83 ec 08             	sub    $0x8,%esp
 1006018:	c7 44 24 04 ad 00 00 	movl   $0xad,0x4(%esp)
 100601f:	00 
 1006020:	c7 04 24 64 00 00 00 	movl   $0x64,(%esp)
 1006027:	e8 04 a0 ff ff       	call   1000030 <outb>
 100602c:	8d 74 26 00          	lea    0x0(%esi,%eiz,1),%esi
 1006030:	c7 04 24 64 00 00 00 	movl   $0x64,(%esp)
 1006037:	e8 04 a0 ff ff       	call   1000040 <inb>
 100603c:	a8 02                	test   $0x2,%al
 100603e:	75 f0                	jne    1006030 <PS2_Initialize+0x20>
 1006040:	c7 44 24 04 a7 00 00 	movl   $0xa7,0x4(%esp)
 1006047:	00 
 1006048:	c7 04 24 64 00 00 00 	movl   $0x64,(%esp)
 100604f:	e8 dc 9f ff ff       	call   1000030 <outb>
 1006054:	8d b6 00 00 00 00    	lea    0x0(%esi),%esi
 100605a:	8d bf 00 00 00 00    	lea    0x0(%edi),%edi
 1006060:	c7 04 24 64 00 00 00 	movl   $0x64,(%esp)
 1006067:	e8 d4 9f ff ff       	call   1000040 <inb>
 100606c:	a8 02                	test   $0x2,%al
 100606e:	75 f0                	jne    1006060 <PS2_Initialize+0x50>
 1006070:	eb 1a                	jmp    100608c <PS2_Initialize+0x7c>
 1006072:	8d b4 26 00 00 00 00 	lea    0x0(%esi,%eiz,1),%esi
 1006079:	8d bc 27 00 00 00 00 	lea    0x0(%edi,%eiz,1),%edi
 1006080:	c7 04 24 60 00 00 00 	movl   $0x60,(%esp)
 1006087:	e8 b4 9f ff ff       	call   1000040 <inb>
 100608c:	c7 04 24 64 00 00 00 	movl   $0x64,(%esp)
 1006093:	e8 a8 9f ff ff       	call   1000040 <inb>
 1006098:	a8 01                	test   $0x1,%al
 100609a:	75 e4                	jne    1006080 <PS2_Initialize+0x70>
 100609c:	c7 44 24 04 20 00 00 	movl   $0x20,0x4(%esp)
 10060a3:	00 
 10060a4:	c7 04 24 64 00 00 00 	movl   $0x64,(%esp)
 10060ab:	e8 80 9f ff ff       	call   1000030 <outb>
 10060b0:	c7 04 24 64 00 00 00 	movl   $0x64,(%esp)
 10060b7:	e8 84 9f ff ff       	call   1000040 <inb>
 10060bc:	a8 02                	test   $0x2,%al
 10060be:	75 f0                	jne    10060b0 <PS2_Initialize+0xa0>
 10060c0:	c7 04 24 64 00 00 00 	movl   $0x64,(%esp)
 10060c7:	e8 74 9f ff ff       	call   1000040 <inb>
 10060cc:	a8 01                	test   $0x1,%al
 10060ce:	74 f0                	je     10060c0 <PS2_Initialize+0xb0>
 10060d0:	c7 04 24 60 00 00 00 	movl   $0x60,(%esp)
 10060d7:	e8 64 9f ff ff       	call   1000040 <inb>
 10060dc:	88 c3                	mov    %al,%bl
 10060de:	89 c6                	mov    %eax,%esi
 10060e0:	80 e3 bc             	and    $0xbc,%bl
 10060e3:	c7 44 24 04 60 00 00 	movl   $0x60,0x4(%esp)
 10060ea:	00 
 10060eb:	c7 04 24 64 00 00 00 	movl   $0x64,(%esp)
 10060f2:	e8 39 9f ff ff       	call   1000030 <outb>
 10060f7:	89 f6                	mov    %esi,%esi
 10060f9:	8d bc 27 00 00 00 00 	lea    0x0(%edi,%eiz,1),%edi
 1006100:	c7 04 24 64 00 00 00 	movl   $0x64,(%esp)
 1006107:	e8 34 9f ff ff       	call   1000040 <inb>
 100610c:	a8 02                	test   $0x2,%al
 100610e:	75 f0                	jne    1006100 <PS2_Initialize+0xf0>
 1006110:	89 f0                	mov    %esi,%eax
 1006112:	24 20                	and    $0x20,%al
 1006114:	89 c6                	mov    %eax,%esi
 1006116:	8d 76 00             	lea    0x0(%esi),%esi
 1006119:	8d bc 27 00 00 00 00 	lea    0x0(%edi,%eiz,1),%edi
 1006120:	c7 04 24 64 00 00 00 	movl   $0x64,(%esp)
 1006127:	e8 14 9f ff ff       	call   1000040 <inb>
 100612c:	a8 01                	test   $0x1,%al
 100612e:	75 f0                	jne    1006120 <PS2_Initialize+0x110>
 1006130:	0f b6 c3             	movzbl %bl,%eax
 1006133:	89 44 24 04          	mov    %eax,0x4(%esp)
 1006137:	c7 04 24 60 00 00 00 	movl   $0x60,(%esp)
 100613e:	e8 ed 9e ff ff       	call   1000030 <outb>
 1006143:	8d b6 00 00 00 00    	lea    0x0(%esi),%esi
 1006149:	8d bc 27 00 00 00 00 	lea    0x0(%edi,%eiz,1),%edi
 1006150:	c7 04 24 64 00 00 00 	movl   $0x64,(%esp)
 1006157:	e8 e4 9e ff ff       	call   1000040 <inb>
 100615c:	a8 02                	test   $0x2,%al
 100615e:	75 f0                	jne    1006150 <PS2_Initialize+0x140>
 1006160:	c7 44 24 04 aa 00 00 	movl   $0xaa,0x4(%esp)
 1006167:	00 
 1006168:	c7 04 24 64 00 00 00 	movl   $0x64,(%esp)
 100616f:	e8 bc 9e ff ff       	call   1000030 <outb>
 1006174:	8d b6 00 00 00 00    	lea    0x0(%esi),%esi
 100617a:	8d bf 00 00 00 00    	lea    0x0(%edi),%edi
 1006180:	c7 04 24 64 00 00 00 	movl   $0x64,(%esp)
 1006187:	e8 b4 9e ff ff       	call   1000040 <inb>
 100618c:	a8 01                	test   $0x1,%al
 100618e:	74 f0                	je     1006180 <PS2_Initialize+0x170>
 1006190:	c7 04 24 60 00 00 00 	movl   $0x60,(%esp)
 1006197:	e8 a4 9e ff ff       	call   1000040 <inb>
 100619c:	b1 ff                	mov    $0xff,%cl
 100619e:	0f b6 c0             	movzbl %al,%eax
 10061a1:	83 f8 55             	cmp    $0x55,%eax
 10061a4:	0f 85 31 02 00 00    	jne    10063db <PS2_Initialize+0x3cb>
 10061aa:	89 f0                	mov    %esi,%eax
 10061ac:	84 c0                	test   %al,%al
 10061ae:	74 64                	je     1006214 <PS2_Initialize+0x204>
 10061b0:	c7 44 24 04 a8 00 00 	movl   $0xa8,0x4(%esp)
 10061b7:	00 
 10061b8:	c7 04 24 64 00 00 00 	movl   $0x64,(%esp)
 10061bf:	e8 6c 9e ff ff       	call   1000030 <outb>
 10061c4:	c7 44 24 04 20 00 00 	movl   $0x20,0x4(%esp)
 10061cb:	00 
 10061cc:	c7 04 24 64 00 00 00 	movl   $0x64,(%esp)
 10061d3:	e8 58 9e ff ff       	call   1000030 <outb>
 10061d8:	90                   	nop
 10061d9:	8d b4 26 00 00 00 00 	lea    0x0(%esi,%eiz,1),%esi
 10061e0:	c7 04 24 64 00 00 00 	movl   $0x64,(%esp)
 10061e7:	e8 54 9e ff ff       	call   1000040 <inb>
 10061ec:	a8 02                	test   $0x2,%al
 10061ee:	75 f0                	jne    10061e0 <PS2_Initialize+0x1d0>
 10061f0:	c7 04 24 64 00 00 00 	movl   $0x64,(%esp)
 10061f7:	e8 44 9e ff ff       	call   1000040 <inb>
 10061fc:	a8 01                	test   $0x1,%al
 10061fe:	74 f0                	je     10061f0 <PS2_Initialize+0x1e0>
 1006200:	c7 04 24 60 00 00 00 	movl   $0x60,(%esp)
 1006207:	e8 34 9e ff ff       	call   1000040 <inb>
 100620c:	a8 20                	test   $0x20,%al
 100620e:	74 08                	je     1006218 <PS2_Initialize+0x208>
 1006210:	31 f6                	xor    %esi,%esi
 1006212:	eb 18                	jmp    100622c <PS2_Initialize+0x21c>
 1006214:	31 f6                	xor    %esi,%esi
 1006216:	eb 14                	jmp    100622c <PS2_Initialize+0x21c>
 1006218:	c7 44 24 04 a7 00 00 	movl   $0xa7,0x4(%esp)
 100621f:	00 
 1006220:	c7 04 24 64 00 00 00 	movl   $0x64,(%esp)
 1006227:	e8 04 9e ff ff       	call   1000030 <outb>
 100622c:	c7 44 24 04 ab 00 00 	movl   $0xab,0x4(%esp)
 1006233:	00 
 1006234:	c7 04 24 64 00 00 00 	movl   $0x64,(%esp)
 100623b:	e8 f0 9d ff ff       	call   1000030 <outb>
 1006240:	c7 04 24 64 00 00 00 	movl   $0x64,(%esp)
 1006247:	e8 f4 9d ff ff       	call   1000040 <inb>
 100624c:	a8 01                	test   $0x1,%al
 100624e:	74 f0                	je     1006240 <PS2_Initialize+0x230>
 1006250:	c7 04 24 60 00 00 00 	movl   $0x60,(%esp)
 1006257:	e8 e4 9d ff ff       	call   1000040 <inb>
 100625c:	88 c7                	mov    %al,%bh
 100625e:	89 f0                	mov    %esi,%eax
 1006260:	84 c0                	test   %al,%al
 1006262:	74 3f                	je     10062a3 <PS2_Initialize+0x293>
 1006264:	c7 44 24 04 a9 00 00 	movl   $0xa9,0x4(%esp)
 100626b:	00 
 100626c:	c7 04 24 64 00 00 00 	movl   $0x64,(%esp)
 1006273:	e8 b8 9d ff ff       	call   1000030 <outb>
 1006278:	90                   	nop
 1006279:	8d b4 26 00 00 00 00 	lea    0x0(%esi,%eiz,1),%esi
 1006280:	c7 04 24 64 00 00 00 	movl   $0x64,(%esp)
 1006287:	e8 b4 9d ff ff       	call   1000040 <inb>
 100628c:	a8 01                	test   $0x1,%al
 100628e:	74 f0                	je     1006280 <PS2_Initialize+0x270>
 1006290:	c7 04 24 60 00 00 00 	movl   $0x60,(%esp)
 1006297:	e8 a4 9d ff ff       	call   1000040 <inb>
 100629c:	84 c0                	test   %al,%al
 100629e:	0f 94 c0             	sete   %al
 10062a1:	eb 02                	jmp    10062a5 <PS2_Initialize+0x295>
 10062a3:	31 c0                	xor    %eax,%eax
 10062a5:	b1 ff                	mov    $0xff,%cl
 10062a7:	84 ff                	test   %bh,%bh
 10062a9:	74 08                	je     10062b3 <PS2_Initialize+0x2a3>
 10062ab:	84 c0                	test   %al,%al
 10062ad:	0f 84 28 01 00 00    	je     10063db <PS2_Initialize+0x3cb>
 10062b3:	89 c6                	mov    %eax,%esi
 10062b5:	c7 44 24 04 20 00 00 	movl   $0x20,0x4(%esp)
 10062bc:	00 
 10062bd:	c7 04 24 64 00 00 00 	movl   $0x64,(%esp)
 10062c4:	e8 67 9d ff ff       	call   1000030 <outb>
 10062c9:	8d b4 26 00 00 00 00 	lea    0x0(%esi,%eiz,1),%esi
 10062d0:	c7 04 24 64 00 00 00 	movl   $0x64,(%esp)
 10062d7:	e8 64 9d ff ff       	call   1000040 <inb>
 10062dc:	a8 02                	test   $0x2,%al
 10062de:	75 f0                	jne    10062d0 <PS2_Initialize+0x2c0>
 10062e0:	c7 04 24 64 00 00 00 	movl   $0x64,(%esp)
 10062e7:	e8 54 9d ff ff       	call   1000040 <inb>
 10062ec:	a8 01                	test   $0x1,%al
 10062ee:	74 f0                	je     10062e0 <PS2_Initialize+0x2d0>
 10062f0:	c7 04 24 60 00 00 00 	movl   $0x60,(%esp)
 10062f7:	e8 44 9d ff ff       	call   1000040 <inb>
 10062fc:	88 c3                	mov    %al,%bl
 10062fe:	84 ff                	test   %bh,%bh
 1006300:	75 31                	jne    1006333 <PS2_Initialize+0x323>
 1006302:	c7 44 24 04 ae 00 00 	movl   $0xae,0x4(%esp)
 1006309:	00 
 100630a:	c7 04 24 64 00 00 00 	movl   $0x64,(%esp)
 1006311:	e8 1a 9d ff ff       	call   1000030 <outb>
 1006316:	80 e3 ee             	and    $0xee,%bl
 1006319:	8d b4 26 00 00 00 00 	lea    0x0(%esi,%eiz,1),%esi
 1006320:	c7 04 24 64 00 00 00 	movl   $0x64,(%esp)
 1006327:	e8 14 9d ff ff       	call   1000040 <inb>
 100632c:	a8 02                	test   $0x2,%al
 100632e:	75 f0                	jne    1006320 <PS2_Initialize+0x310>
 1006330:	80 cb 01             	or     $0x1,%bl
 1006333:	89 f0                	mov    %esi,%eax
 1006335:	84 c0                	test   %al,%al
 1006337:	74 2a                	je     1006363 <PS2_Initialize+0x353>
 1006339:	c7 44 24 04 a8 00 00 	movl   $0xa8,0x4(%esp)
 1006340:	00 
 1006341:	c7 04 24 64 00 00 00 	movl   $0x64,(%esp)
 1006348:	e8 e3 9c ff ff       	call   1000030 <outb>
 100634d:	80 e3 dd             	and    $0xdd,%bl
 1006350:	c7 04 24 64 00 00 00 	movl   $0x64,(%esp)
 1006357:	e8 e4 9c ff ff       	call   1000040 <inb>
 100635c:	a8 02                	test   $0x2,%al
 100635e:	75 f0                	jne    1006350 <PS2_Initialize+0x340>
 1006360:	80 cb 02             	or     $0x2,%bl
 1006363:	c7 44 24 04 60 00 00 	movl   $0x60,0x4(%esp)
 100636a:	00 
 100636b:	c7 04 24 64 00 00 00 	movl   $0x64,(%esp)
 1006372:	e8 b9 9c ff ff       	call   1000030 <outb>
 1006377:	89 f6                	mov    %esi,%esi
 1006379:	8d bc 27 00 00 00 00 	lea    0x0(%edi,%eiz,1),%edi
 1006380:	c7 04 24 64 00 00 00 	movl   $0x64,(%esp)
 1006387:	e8 b4 9c ff ff       	call   1000040 <inb>
 100638c:	a8 02                	test   $0x2,%al
 100638e:	75 f0                	jne    1006380 <PS2_Initialize+0x370>
 1006390:	c7 04 24 64 00 00 00 	movl   $0x64,(%esp)
 1006397:	e8 a4 9c ff ff       	call   1000040 <inb>
 100639c:	a8 01                	test   $0x1,%al
 100639e:	75 f0                	jne    1006390 <PS2_Initialize+0x380>
 10063a0:	0f b6 c3             	movzbl %bl,%eax
 10063a3:	89 44 24 04          	mov    %eax,0x4(%esp)
 10063a7:	c7 04 24 60 00 00 00 	movl   $0x60,(%esp)
 10063ae:	e8 7d 9c ff ff       	call   1000030 <outb>
 10063b3:	8d b6 00 00 00 00    	lea    0x0(%esi),%esi
 10063b9:	8d bc 27 00 00 00 00 	lea    0x0(%edi,%eiz,1),%edi
 10063c0:	c7 04 24 64 00 00 00 	movl   $0x64,(%esp)
 10063c7:	e8 74 9c ff ff       	call   1000040 <inb>
 10063cc:	a8 02                	test   $0x2,%al
 10063ce:	75 f0                	jne    10063c0 <PS2_Initialize+0x3b0>
 10063d0:	84 ff                	test   %bh,%bh
 10063d2:	75 05                	jne    10063d9 <PS2_Initialize+0x3c9>
 10063d4:	e8 17 01 00 00       	call   10064f0 <PS2Keyboard_Initialize>
 10063d9:	31 c9                	xor    %ecx,%ecx
 10063db:	0f b6 c1             	movzbl %cl,%eax
 10063de:	83 c4 08             	add    $0x8,%esp
 10063e1:	5e                   	pop    %esi
 10063e2:	5b                   	pop    %ebx
 10063e3:	5d                   	pop    %ebp
 10063e4:	c3                   	ret    
 10063e5:	8d 74 26 00          	lea    0x0(%esi,%eiz,1),%esi
 10063e9:	8d bc 27 00 00 00 00 	lea    0x0(%edi,%eiz,1),%edi

010063f0 <PS2_WriteConfig>:
 10063f0:	55                   	push   %ebp
 10063f1:	89 e5                	mov    %esp,%ebp
 10063f3:	53                   	push   %ebx
 10063f4:	83 ec 08             	sub    $0x8,%esp
 10063f7:	8a 5d 08             	mov    0x8(%ebp),%bl
 10063fa:	c7 44 24 04 60 00 00 	movl   $0x60,0x4(%esp)
 1006401:	00 
 1006402:	c7 04 24 64 00 00 00 	movl   $0x64,(%esp)
 1006409:	e8 22 9c ff ff       	call   1000030 <outb>
 100640e:	66 90                	xchg   %ax,%ax
 1006410:	c7 04 24 64 00 00 00 	movl   $0x64,(%esp)
 1006417:	e8 24 9c ff ff       	call   1000040 <inb>
 100641c:	a8 02                	test   $0x2,%al
 100641e:	75 f0                	jne    1006410 <PS2_WriteConfig+0x20>
 1006420:	c7 04 24 64 00 00 00 	movl   $0x64,(%esp)
 1006427:	e8 14 9c ff ff       	call   1000040 <inb>
 100642c:	a8 01                	test   $0x1,%al
 100642e:	75 f0                	jne    1006420 <PS2_WriteConfig+0x30>
 1006430:	0f b6 c3             	movzbl %bl,%eax
 1006433:	89 44 24 04          	mov    %eax,0x4(%esp)
 1006437:	c7 04 24 60 00 00 00 	movl   $0x60,(%esp)
 100643e:	e8 ed 9b ff ff       	call   1000030 <outb>
 1006443:	8d b6 00 00 00 00    	lea    0x0(%esi),%esi
 1006449:	8d bc 27 00 00 00 00 	lea    0x0(%edi,%eiz,1),%edi
 1006450:	c7 04 24 64 00 00 00 	movl   $0x64,(%esp)
 1006457:	e8 e4 9b ff ff       	call   1000040 <inb>
 100645c:	a8 02                	test   $0x2,%al
 100645e:	75 f0                	jne    1006450 <PS2_WriteConfig+0x60>
 1006460:	83 c4 08             	add    $0x8,%esp
 1006463:	5b                   	pop    %ebx
 1006464:	5d                   	pop    %ebp
 1006465:	c3                   	ret    
 1006466:	8d 76 00             	lea    0x0(%esi),%esi
 1006469:	8d bc 27 00 00 00 00 	lea    0x0(%edi,%eiz,1),%edi

01006470 <PS2_ReadStatus>:
 1006470:	55                   	push   %ebp
 1006471:	89 e5                	mov    %esp,%ebp
 1006473:	50                   	push   %eax
 1006474:	c7 04 24 64 00 00 00 	movl   $0x64,(%esp)
 100647b:	e8 c0 9b ff ff       	call   1000040 <inb>
 1006480:	0f b6 c0             	movzbl %al,%eax
 1006483:	83 c4 04             	add    $0x4,%esp
 1006486:	5d                   	pop    %ebp
 1006487:	c3                   	ret    
 1006488:	90                   	nop
 1006489:	8d b4 26 00 00 00 00 	lea    0x0(%esi,%eiz,1),%esi

01006490 <PS2_ReadConfig>:
 1006490:	55                   	push   %ebp
 1006491:	89 e5                	mov    %esp,%ebp
 1006493:	83 ec 08             	sub    $0x8,%esp
 1006496:	c7 44 24 04 20 00 00 	movl   $0x20,0x4(%esp)
 100649d:	00 
 100649e:	c7 04 24 64 00 00 00 	movl   $0x64,(%esp)
 10064a5:	e8 86 9b ff ff       	call   1000030 <outb>
 10064aa:	8d b6 00 00 00 00    	lea    0x0(%esi),%esi
 10064b0:	c7 04 24 64 00 00 00 	movl   $0x64,(%esp)
 10064b7:	e8 84 9b ff ff       	call   1000040 <inb>
 10064bc:	a8 02                	test   $0x2,%al
 10064be:	75 f0                	jne    10064b0 <PS2_ReadConfig+0x20>
 10064c0:	c7 04 24 64 00 00 00 	movl   $0x64,(%esp)
 10064c7:	e8 74 9b ff ff       	call   1000040 <inb>
 10064cc:	a8 01                	test   $0x1,%al
 10064ce:	74 f0                	je     10064c0 <PS2_ReadConfig+0x30>
 10064d0:	c7 04 24 60 00 00 00 	movl   $0x60,(%esp)
 10064d7:	e8 64 9b ff ff       	call   1000040 <inb>
 10064dc:	0f b6 c0             	movzbl %al,%eax
 10064df:	83 c4 08             	add    $0x8,%esp
 10064e2:	5d                   	pop    %ebp
 10064e3:	c3                   	ret    
 10064e4:	66 90                	xchg   %ax,%ax
 10064e6:	66 90                	xchg   %ax,%ax
 10064e8:	66 90                	xchg   %ax,%ax
 10064ea:	66 90                	xchg   %ax,%ax
 10064ec:	66 90                	xchg   %ax,%ax
 10064ee:	66 90                	xchg   %ax,%ax

010064f0 <PS2Keyboard_Initialize>:
 10064f0:	55                   	push   %ebp
 10064f1:	89 e5                	mov    %esp,%ebp
 10064f3:	83 ec 08             	sub    $0x8,%esp
 10064f6:	8d 76 00             	lea    0x0(%esi),%esi
 10064f9:	8d bc 27 00 00 00 00 	lea    0x0(%edi,%eiz,1),%edi
 1006500:	e8 6b ff ff ff       	call   1006470 <PS2_ReadStatus>
 1006505:	a8 01                	test   $0x1,%al
 1006507:	75 f7                	jne    1006500 <PS2Keyboard_Initialize+0x10>
 1006509:	c7 44 24 04 ff 00 00 	movl   $0xff,0x4(%esp)
 1006510:	00 
 1006511:	c7 04 24 60 00 00 00 	movl   $0x60,(%esp)
 1006518:	e8 13 9b ff ff       	call   1000030 <outb>
 100651d:	8d 76 00             	lea    0x0(%esi),%esi
 1006520:	e8 4b ff ff ff       	call   1006470 <PS2_ReadStatus>
 1006525:	a8 01                	test   $0x1,%al
 1006527:	74 f7                	je     1006520 <PS2Keyboard_Initialize+0x30>
 1006529:	c7 04 24 60 00 00 00 	movl   $0x60,(%esp)
 1006530:	e8 0b 9b ff ff       	call   1000040 <inb>
 1006535:	8d 74 26 00          	lea    0x0(%esi,%eiz,1),%esi
 1006539:	8d bc 27 00 00 00 00 	lea    0x0(%edi,%eiz,1),%edi
 1006540:	e8 2b ff ff ff       	call   1006470 <PS2_ReadStatus>
 1006545:	a8 01                	test   $0x1,%al
 1006547:	74 f7                	je     1006540 <PS2Keyboard_Initialize+0x50>
 1006549:	c7 04 24 60 00 00 00 	movl   $0x60,(%esp)
 1006550:	e8 eb 9a ff ff       	call   1000040 <inb>
 1006555:	31 c0                	xor    %eax,%eax
 1006557:	83 c4 08             	add    $0x8,%esp
 100655a:	5d                   	pop    %ebp
 100655b:	c3                   	ret    
 100655c:	66 90                	xchg   %ax,%ax
 100655e:	66 90                	xchg   %ax,%ax

01006560 <COM_Initialize>:
 1006560:	55                   	push   %ebp
 1006561:	89 e5                	mov    %esp,%ebp
 1006563:	83 ec 08             	sub    $0x8,%esp
 1006566:	c7 44 24 04 00 00 00 	movl   $0x0,0x4(%esp)
 100656d:	00 
 100656e:	c7 04 24 f9 03 00 00 	movl   $0x3f9,(%esp)
 1006575:	e8 b6 9a ff ff       	call   1000030 <outb>
 100657a:	c7 44 24 04 80 00 00 	movl   $0x80,0x4(%esp)
 1006581:	00 
 1006582:	c7 04 24 fb 03 00 00 	movl   $0x3fb,(%esp)
 1006589:	e8 a2 9a ff ff       	call   1000030 <outb>
 100658e:	c7 44 24 04 03 00 00 	movl   $0x3,0x4(%esp)
 1006595:	00 
 1006596:	c7 04 24 f8 03 00 00 	movl   $0x3f8,(%esp)
 100659d:	e8 8e 9a ff ff       	call   1000030 <outb>
 10065a2:	c7 44 24 04 00 00 00 	movl   $0x0,0x4(%esp)
 10065a9:	00 
 10065aa:	c7 04 24 f9 03 00 00 	movl   $0x3f9,(%esp)
 10065b1:	e8 7a 9a ff ff       	call   1000030 <outb>
 10065b6:	c7 44 24 04 03 00 00 	movl   $0x3,0x4(%esp)
 10065bd:	00 
 10065be:	c7 04 24 fb 03 00 00 	movl   $0x3fb,(%esp)
 10065c5:	e8 66 9a ff ff       	call   1000030 <outb>
 10065ca:	c7 44 24 04 c7 00 00 	movl   $0xc7,0x4(%esp)
 10065d1:	00 
 10065d2:	c7 04 24 fa 03 00 00 	movl   $0x3fa,(%esp)
 10065d9:	e8 52 9a ff ff       	call   1000030 <outb>
 10065de:	c7 44 24 04 0b 00 00 	movl   $0xb,0x4(%esp)
 10065e5:	00 
 10065e6:	c7 04 24 fc 03 00 00 	movl   $0x3fc,(%esp)
 10065ed:	e8 3e 9a ff ff       	call   1000030 <outb>
 10065f2:	83 c4 08             	add    $0x8,%esp
 10065f5:	5d                   	pop    %ebp
 10065f6:	c3                   	ret    
 10065f7:	89 f6                	mov    %esi,%esi
 10065f9:	8d bc 27 00 00 00 00 	lea    0x0(%edi,%eiz,1),%edi

01006600 <COM_ready>:
 1006600:	55                   	push   %ebp
 1006601:	89 e5                	mov    %esp,%ebp
 1006603:	50                   	push   %eax
 1006604:	c7 04 24 fd 03 00 00 	movl   $0x3fd,(%esp)
 100660b:	e8 30 9a ff ff       	call   1000040 <inb>
 1006610:	24 20                	and    $0x20,%al
 1006612:	0f b6 c0             	movzbl %al,%eax
 1006615:	83 c4 04             	add    $0x4,%esp
 1006618:	5d                   	pop    %ebp
 1006619:	c3                   	ret    
 100661a:	8d b6 00 00 00 00    	lea    0x0(%esi),%esi

01006620 <COM_WriteStr>:
 1006620:	55                   	push   %ebp
 1006621:	89 e5                	mov    %esp,%ebp
 1006623:	57                   	push   %edi
 1006624:	56                   	push   %esi
 1006625:	81 ec 10 04 00 00    	sub    $0x410,%esp
 100662b:	8b 45 08             	mov    0x8(%ebp),%eax
 100662e:	8d b5 f8 fb ff ff    	lea    -0x408(%ebp),%esi
 1006634:	8d 4d 0c             	lea    0xc(%ebp),%ecx
 1006637:	89 8d f4 fb ff ff    	mov    %ecx,-0x40c(%ebp)
 100663d:	89 4c 24 08          	mov    %ecx,0x8(%esp)
 1006641:	89 44 24 04          	mov    %eax,0x4(%esp)
 1006645:	89 34 24             	mov    %esi,(%esp)
 1006648:	e8 13 9f ff ff       	call   1000560 <vsnprintf>
 100664d:	80 bd f8 fb ff ff 00 	cmpb   $0x0,-0x408(%ebp)
 1006654:	74 41                	je     1006697 <COM_WriteStr+0x77>
 1006656:	31 ff                	xor    %edi,%edi
 1006658:	90                   	nop
 1006659:	8d b4 26 00 00 00 00 	lea    0x0(%esi,%eiz,1),%esi
 1006660:	c7 04 24 fd 03 00 00 	movl   $0x3fd,(%esp)
 1006667:	e8 d4 99 ff ff       	call   1000040 <inb>
 100666c:	a8 20                	test   $0x20,%al
 100666e:	74 f0                	je     1006660 <COM_WriteStr+0x40>
 1006670:	0f b6 06             	movzbl (%esi),%eax
 1006673:	89 44 24 04          	mov    %eax,0x4(%esp)
 1006677:	c7 04 24 f8 03 00 00 	movl   $0x3f8,(%esp)
 100667e:	e8 ad 99 ff ff       	call   1000030 <outb>
 1006683:	8d b4 3d f9 fb ff ff 	lea    -0x407(%ebp,%edi,1),%esi
 100668a:	80 bc 3d f9 fb ff ff 	cmpb   $0x0,-0x407(%ebp,%edi,1)
 1006691:	00 
 1006692:	8d 7f 01             	lea    0x1(%edi),%edi
 1006695:	75 c9                	jne    1006660 <COM_WriteStr+0x40>
 1006697:	81 c4 10 04 00 00    	add    $0x410,%esp
 100669d:	5e                   	pop    %esi
 100669e:	5f                   	pop    %edi
 100669f:	5d                   	pop    %ebp
 10066a0:	c3                   	ret    
 10066a1:	66 90                	xchg   %ax,%ax
 10066a3:	66 90                	xchg   %ax,%ax
 10066a5:	66 90                	xchg   %ax,%ax
 10066a7:	66 90                	xchg   %ax,%ax
 10066a9:	66 90                	xchg   %ax,%ax
 10066ab:	66 90                	xchg   %ax,%ax
 10066ad:	66 90                	xchg   %ax,%ax
 10066af:	90                   	nop

010066b0 <kmalloc_init>:
 10066b0:	55                   	push   %ebp
 10066b1:	89 e5                	mov    %esp,%ebp
 10066b3:	57                   	push   %edi
 10066b4:	56                   	push   %esi
 10066b5:	83 ec 1c             	sub    $0x1c,%esp
 10066b8:	c7 44 24 04 00 00 00 	movl   $0x0,0x4(%esp)
 10066bf:	00 
 10066c0:	c7 04 24 00 00 00 08 	movl   $0x8000000,(%esp)
 10066c7:	31 ff                	xor    %edi,%edi
 10066c9:	e8 d2 d2 ff ff       	call   10039a0 <virtMemMan_FindEmptyAddress>
 10066ce:	89 c6                	mov    %eax,%esi
 10066d0:	e8 2b bc ff ff       	call   1002300 <physMemMan_Alloc>
 10066d5:	8d 0c 3e             	lea    (%esi,%edi,1),%ecx
 10066d8:	89 54 24 08          	mov    %edx,0x8(%esp)
 10066dc:	89 44 24 04          	mov    %eax,0x4(%esp)
 10066e0:	89 0c 24             	mov    %ecx,(%esp)
 10066e3:	c7 44 24 18 00 00 00 	movl   $0x0,0x18(%esp)
 10066ea:	00 
 10066eb:	c7 44 24 14 03 00 00 	movl   $0x3,0x14(%esp)
 10066f2:	00 
 10066f3:	c7 44 24 10 03 00 00 	movl   $0x3,0x10(%esp)
 10066fa:	00 
 10066fb:	c7 44 24 0c 00 10 00 	movl   $0x1000,0xc(%esp)
 1006702:	00 
 1006703:	e8 38 cc ff ff       	call   1003340 <virtMemMan_Map>
 1006708:	81 c7 00 10 00 00    	add    $0x1000,%edi
 100670e:	81 ff 00 00 00 08    	cmp    $0x8000000,%edi
 1006714:	75 ba                	jne    10066d0 <kmalloc_init+0x20>
 1006716:	8d 86 00 f0 ff ff    	lea    -0x1000(%esi),%eax
 100671c:	a3 f8 4c 27 05       	mov    %eax,0x5274cf8
 1006721:	a3 fc 4c 27 05       	mov    %eax,0x5274cfc
 1006726:	81 c6 00 f0 0f 00    	add    $0xff000,%esi
 100672c:	89 35 2c 10 27 05    	mov    %esi,0x527102c
 1006732:	c7 05 f0 4c 27 05 55 	movl   $0x15555,0x5274cf0
 1006739:	55 01 00 
 100673c:	c7 05 f4 4c 27 05 00 	movl   $0x7f00000,0x5274cf4
 1006743:	00 f0 07 
 1006746:	89 04 24             	mov    %eax,(%esp)
 1006749:	c7 44 24 08 00 00 10 	movl   $0x100000,0x8(%esp)
 1006750:	00 
 1006751:	c7 44 24 04 00 00 00 	movl   $0x0,0x4(%esp)
 1006758:	00 
 1006759:	e8 a2 99 ff ff       	call   1000100 <memset>
 100675e:	a1 2c 10 27 05       	mov    0x527102c,%eax
 1006763:	8b 0d f8 4c 27 05    	mov    0x5274cf8,%ecx
 1006769:	89 01                	mov    %eax,(%ecx)
 100676b:	8b 15 f4 4c 27 05    	mov    0x5274cf4,%edx
 1006771:	89 51 04             	mov    %edx,0x4(%ecx)
 1006774:	83 e0 fe             	and    $0xfffffffe,%eax
 1006777:	89 01                	mov    %eax,(%ecx)
 1006779:	83 05 fc 4c 27 05 0c 	addl   $0xc,0x5274cfc
 1006780:	83 c4 1c             	add    $0x1c,%esp
 1006783:	5e                   	pop    %esi
 1006784:	5f                   	pop    %edi
 1006785:	5d                   	pop    %ebp
 1006786:	c3                   	ret    
 1006787:	89 f6                	mov    %esi,%esi
 1006789:	8d bc 27 00 00 00 00 	lea    0x0(%edi,%eiz,1),%edi

01006790 <kcompact>:
 1006790:	55                   	push   %ebp
 1006791:	89 e5                	mov    %esp,%ebp
 1006793:	e8 18 99 ff ff       	call   10000b0 <interrupts_lock>
 1006798:	8b 0d f8 4c 27 05    	mov    0x5274cf8,%ecx
 100679e:	83 79 08 00          	cmpl   $0x0,0x8(%ecx)
 10067a2:	74 30                	je     10067d4 <kcompact+0x44>
 10067a4:	8d b6 00 00 00 00    	lea    0x0(%esi),%esi
 10067aa:	8d bf 00 00 00 00    	lea    0x0(%edi),%edi
 10067b0:	89 c8                	mov    %ecx,%eax
 10067b2:	8b 48 08             	mov    0x8(%eax),%ecx
 10067b5:	85 c9                	test   %ecx,%ecx
 10067b7:	74 13                	je     10067cc <kcompact+0x3c>
 10067b9:	f6 00 01             	testb  $0x1,(%eax)
 10067bc:	75 f2                	jne    10067b0 <kcompact+0x20>
 10067be:	8b 51 04             	mov    0x4(%ecx),%edx
 10067c1:	01 50 04             	add    %edx,0x4(%eax)
 10067c4:	8b 49 08             	mov    0x8(%ecx),%ecx
 10067c7:	89 48 08             	mov    %ecx,0x8(%eax)
 10067ca:	89 c8                	mov    %ecx,%eax
 10067cc:	83 78 08 00          	cmpl   $0x0,0x8(%eax)
 10067d0:	89 c1                	mov    %eax,%ecx
 10067d2:	75 dc                	jne    10067b0 <kcompact+0x20>
 10067d4:	5d                   	pop    %ebp
 10067d5:	e9 e6 98 ff ff       	jmp    10000c0 <interrupts_unlock>
 10067da:	8d b6 00 00 00 00    	lea    0x0(%esi),%esi

010067e0 <kmalloc>:
 10067e0:	55                   	push   %ebp
 10067e1:	89 e5                	mov    %esp,%ebp
 10067e3:	53                   	push   %ebx
 10067e4:	57                   	push   %edi
 10067e5:	56                   	push   %esi
 10067e6:	83 ec 10             	sub    $0x10,%esp
 10067e9:	be f8 4c 27 05       	mov    $0x5274cf8,%esi
 10067ee:	8b 7d 08             	mov    0x8(%ebp),%edi
 10067f1:	eb 17                	jmp    100680a <kmalloc+0x2a>
 10067f3:	8d b6 00 00 00 00    	lea    0x0(%esi),%esi
 10067f9:	8d bc 27 00 00 00 00 	lea    0x0(%edi,%eiz,1),%edi
 1006800:	e8 bb 98 ff ff       	call   10000c0 <interrupts_unlock>
 1006805:	be f8 4c 27 05       	mov    $0x5274cf8,%esi
 100680a:	8b 06                	mov    (%esi),%eax
 100680c:	8b 10                	mov    (%eax),%edx
 100680e:	8b 48 08             	mov    0x8(%eax),%ecx
 1006811:	85 c9                	test   %ecx,%ecx
 1006813:	74 1b                	je     1006830 <kmalloc+0x50>
 1006815:	8d 70 08             	lea    0x8(%eax),%esi
 1006818:	f6 c2 01             	test   $0x1,%dl
 100681b:	75 ed                	jne    100680a <kmalloc+0x2a>
 100681d:	8b 58 04             	mov    0x4(%eax),%ebx
 1006820:	39 fb                	cmp    %edi,%ebx
 1006822:	72 e6                	jb     100680a <kmalloc+0x2a>
 1006824:	eb 0d                	jmp    1006833 <kmalloc+0x53>
 1006826:	8d 76 00             	lea    0x0(%esi),%esi
 1006829:	8d bc 27 00 00 00 00 	lea    0x0(%edi,%eiz,1),%edi
 1006830:	8b 58 04             	mov    0x4(%eax),%ebx
 1006833:	89 d6                	mov    %edx,%esi
 1006835:	83 e6 01             	and    $0x1,%esi
 1006838:	39 fb                	cmp    %edi,%ebx
 100683a:	19 ff                	sbb    %edi,%edi
 100683c:	83 e7 01             	and    $0x1,%edi
 100683f:	09 f7                	or     %esi,%edi
 1006841:	74 52                	je     1006895 <kmalloc+0xb5>
 1006843:	31 f6                	xor    %esi,%esi
 1006845:	80 3d 00 4d 27 05 00 	cmpb   $0x0,0x5274d00
 100684c:	0f 85 9e 00 00 00    	jne    10068f0 <kmalloc+0x110>
 1006852:	c6 05 00 4d 27 05 01 	movb   $0x1,0x5274d00
 1006859:	e8 52 98 ff ff       	call   10000b0 <interrupts_lock>
 100685e:	8b 0d f8 4c 27 05    	mov    0x5274cf8,%ecx
 1006864:	8b 41 08             	mov    0x8(%ecx),%eax
 1006867:	85 c0                	test   %eax,%eax
 1006869:	8b 7d 08             	mov    0x8(%ebp),%edi
 100686c:	75 07                	jne    1006875 <kmalloc+0x95>
 100686e:	eb 90                	jmp    1006800 <kmalloc+0x20>
 1006870:	89 c1                	mov    %eax,%ecx
 1006872:	8b 41 08             	mov    0x8(%ecx),%eax
 1006875:	85 c0                	test   %eax,%eax
 1006877:	74 87                	je     1006800 <kmalloc+0x20>
 1006879:	f6 01 01             	testb  $0x1,(%ecx)
 100687c:	75 f2                	jne    1006870 <kmalloc+0x90>
 100687e:	8b 50 04             	mov    0x4(%eax),%edx
 1006881:	01 51 04             	add    %edx,0x4(%ecx)
 1006884:	8b 40 08             	mov    0x8(%eax),%eax
 1006887:	89 41 08             	mov    %eax,0x8(%ecx)
 100688a:	83 78 08 00          	cmpl   $0x0,0x8(%eax)
 100688e:	75 e0                	jne    1006870 <kmalloc+0x90>
 1006890:	e9 6b ff ff ff       	jmp    1006800 <kmalloc+0x20>
 1006895:	89 d6                	mov    %edx,%esi
 1006897:	83 e6 fe             	and    $0xfffffffe,%esi
 100689a:	8b 7d 08             	mov    0x8(%ebp),%edi
 100689d:	29 fb                	sub    %edi,%ebx
 100689f:	74 2c                	je     10068cd <kmalloc+0xed>
 10068a1:	8d 14 3e             	lea    (%esi,%edi,1),%edx
 10068a4:	8b 3d fc 4c 27 05    	mov    0x5274cfc,%edi
 10068aa:	89 17                	mov    %edx,(%edi)
 10068ac:	89 5f 04             	mov    %ebx,0x4(%edi)
 10068af:	89 4f 08             	mov    %ecx,0x8(%edi)
 10068b2:	8b 7d 08             	mov    0x8(%ebp),%edi
 10068b5:	8b 0d fc 4c 27 05    	mov    0x5274cfc,%ecx
 10068bb:	83 21 fe             	andl   $0xfffffffe,(%ecx)
 10068be:	89 48 08             	mov    %ecx,0x8(%eax)
 10068c1:	83 05 fc 4c 27 05 0c 	addl   $0xc,0x5274cfc
 10068c8:	8b 10                	mov    (%eax),%edx
 10068ca:	8b 48 08             	mov    0x8(%eax),%ecx
 10068cd:	83 ca 01             	or     $0x1,%edx
 10068d0:	89 10                	mov    %edx,(%eax)
 10068d2:	89 78 04             	mov    %edi,0x4(%eax)
 10068d5:	8b 41 04             	mov    0x4(%ecx),%eax
 10068d8:	89 7c 24 0c          	mov    %edi,0xc(%esp)
 10068dc:	89 7c 24 08          	mov    %edi,0x8(%esp)
 10068e0:	89 44 24 04          	mov    %eax,0x4(%esp)
 10068e4:	c7 04 24 76 17 04 01 	movl   $0x1041776,(%esp)
 10068eb:	e8 30 fd ff ff       	call   1006620 <COM_WriteStr>
 10068f0:	89 f0                	mov    %esi,%eax
 10068f2:	83 c4 10             	add    $0x10,%esp
 10068f5:	5e                   	pop    %esi
 10068f6:	5f                   	pop    %edi
 10068f7:	5b                   	pop    %ebx
 10068f8:	5d                   	pop    %ebp
 10068f9:	c3                   	ret    
 10068fa:	8d b6 00 00 00 00    	lea    0x0(%esi),%esi

01006900 <kfree>:
 1006900:	55                   	push   %ebp
 1006901:	89 e5                	mov    %esp,%ebp
 1006903:	56                   	push   %esi
 1006904:	8b 4d 08             	mov    0x8(%ebp),%ecx
 1006907:	8b 35 f8 4c 27 05    	mov    0x5274cf8,%esi
 100690d:	8d 76 00             	lea    0x0(%esi),%esi
 1006910:	89 f0                	mov    %esi,%eax
 1006912:	8b 10                	mov    (%eax),%edx
 1006914:	8b 70 08             	mov    0x8(%eax),%esi
 1006917:	85 f6                	test   %esi,%esi
 1006919:	74 0b                	je     1006926 <kfree+0x26>
 100691b:	f6 c2 01             	test   $0x1,%dl
 100691e:	74 f0                	je     1006910 <kfree+0x10>
 1006920:	39 ca                	cmp    %ecx,%edx
 1006922:	75 ec                	jne    1006910 <kfree+0x10>
 1006924:	89 ca                	mov    %ecx,%edx
 1006926:	83 e2 fe             	and    $0xfffffffe,%edx
 1006929:	89 10                	mov    %edx,(%eax)
 100692b:	5e                   	pop    %esi
 100692c:	5d                   	pop    %ebp
 100692d:	c3                   	ret    
 100692e:	66 90                	xchg   %ax,%ax

01006930 <timerHandler>:
 1006930:	55                   	push   %ebp
 1006931:	89 e5                	mov    %esp,%ebp
 1006933:	56                   	push   %esi
 1006934:	83 e4 f8             	and    $0xfffffff8,%esp
 1006937:	83 ec 28             	sub    $0x28,%esp
 100693a:	ff 05 08 4d 27 05    	incl   0x5274d08
 1006940:	e8 bb a3 ff ff       	call   1000d00 <graphics_Clear>
 1006945:	c7 05 20 4d 27 05 00 	movl   $0x0,0x5274d20
 100694c:	00 00 00 
 100694f:	c7 05 40 10 27 05 00 	movl   $0x0,0x5271040
 1006956:	00 00 00 
 1006959:	8b 15 14 10 03 02    	mov    0x2031014,%edx
 100695f:	83 7a 68 00          	cmpl   $0x0,0x68(%edx)
 1006963:	74 7b                	je     10069e0 <timerHandler+0xb0>
 1006965:	31 c0                	xor    %eax,%eax
 1006967:	31 c9                	xor    %ecx,%ecx
 1006969:	8d b4 26 00 00 00 00 	lea    0x0(%esi,%eiz,1),%esi
 1006970:	c7 05 34 10 27 05 00 	movl   $0x0,0x5271034
 1006977:	00 00 00 
 100697a:	31 f6                	xor    %esi,%esi
 100697c:	83 7a 64 00          	cmpl   $0x0,0x64(%edx)
 1006980:	74 52                	je     10069d4 <timerHandler+0xa4>
 1006982:	8d b4 26 00 00 00 00 	lea    0x0(%esi,%eiz,1),%esi
 1006989:	8d bc 27 00 00 00 00 	lea    0x0(%edi,%eiz,1),%edi
 1006990:	8b 15 30 10 27 05    	mov    0x5271030,%edx
 1006996:	8b 04 02             	mov    (%edx,%eax,1),%eax
 1006999:	89 44 24 08          	mov    %eax,0x8(%esp)
 100699d:	89 4c 24 04          	mov    %ecx,0x4(%esp)
 10069a1:	89 34 24             	mov    %esi,(%esp)
 10069a4:	e8 67 a9 ff ff       	call   1001310 <graphics_SetPixel>
 10069a9:	a1 20 4d 27 05       	mov    0x5274d20,%eax
 10069ae:	83 c0 04             	add    $0x4,%eax
 10069b1:	a3 20 4d 27 05       	mov    %eax,0x5274d20
 10069b6:	8b 35 34 10 27 05    	mov    0x5271034,%esi
 10069bc:	46                   	inc    %esi
 10069bd:	89 35 34 10 27 05    	mov    %esi,0x5271034
 10069c3:	8b 15 14 10 03 02    	mov    0x2031014,%edx
 10069c9:	3b 72 64             	cmp    0x64(%edx),%esi
 10069cc:	8b 0d 40 10 27 05    	mov    0x5271040,%ecx
 10069d2:	72 bc                	jb     1006990 <timerHandler+0x60>
 10069d4:	41                   	inc    %ecx
 10069d5:	89 0d 40 10 27 05    	mov    %ecx,0x5271040
 10069db:	3b 4a 68             	cmp    0x68(%edx),%ecx
 10069de:	72 90                	jb     1006970 <timerHandler+0x40>
 10069e0:	8d 44 24 18          	lea    0x18(%esp),%eax
 10069e4:	89 04 24             	mov    %eax,(%esp)
 10069e7:	e8 04 e4 ff ff       	call   1004df0 <CMOS_GetRTCTime>
 10069ec:	a1 08 4d 27 05       	mov    0x5274d08,%eax
 10069f1:	89 c1                	mov    %eax,%ecx
 10069f3:	c1 f9 1f             	sar    $0x1f,%ecx
 10069f6:	89 4c 24 04          	mov    %ecx,0x4(%esp)
 10069fa:	89 04 24             	mov    %eax,(%esp)
 10069fd:	c7 44 24 10 10 00 00 	movl   $0x10,0x10(%esp)
 1006a04:	00 
 1006a05:	c7 44 24 0c 00 00 00 	movl   $0x0,0xc(%esp)
 1006a0c:	00 
 1006a0d:	c7 44 24 08 02 00 00 	movl   $0x2,0x8(%esp)
 1006a14:	00 
 1006a15:	e8 16 a5 ff ff       	call   1000f30 <graphics_WriteUInt64>
 1006a1a:	a1 0c 4d 27 05       	mov    0x5274d0c,%eax
 1006a1f:	89 04 24             	mov    %eax,(%esp)
 1006a22:	c7 44 24 0c 20 00 00 	movl   $0x20,0xc(%esp)
 1006a29:	00 
 1006a2a:	c7 44 24 08 00 00 00 	movl   $0x0,0x8(%esp)
 1006a31:	00 
 1006a32:	c7 44 24 04 10 00 00 	movl   $0x10,0x4(%esp)
 1006a39:	00 
 1006a3a:	e8 a1 a3 ff ff       	call   1000de0 <graphics_WriteUInt32>
 1006a3f:	0f b6 44 24 18       	movzbl 0x18(%esp),%eax
 1006a44:	89 04 24             	mov    %eax,(%esp)
 1006a47:	c7 44 24 0c 30 00 00 	movl   $0x30,0xc(%esp)
 1006a4e:	00 
 1006a4f:	c7 44 24 08 00 00 00 	movl   $0x0,0x8(%esp)
 1006a56:	00 
 1006a57:	c7 44 24 04 0a 00 00 	movl   $0xa,0x4(%esp)
 1006a5e:	00 
 1006a5f:	e8 7c a3 ff ff       	call   1000de0 <graphics_WriteUInt32>
 1006a64:	c7 44 24 0c 40 00 00 	movl   $0x40,0xc(%esp)
 1006a6b:	00 
 1006a6c:	c7 44 24 08 00 00 00 	movl   $0x0,0x8(%esp)
 1006a73:	00 
 1006a74:	c7 44 24 04 0a 00 00 	movl   $0xa,0x4(%esp)
 1006a7b:	00 
 1006a7c:	c7 04 24 58 02 00 00 	movl   $0x258,(%esp)
 1006a83:	e8 58 a3 ff ff       	call   1000de0 <graphics_WriteUInt32>
 1006a88:	e8 43 a2 ff ff       	call   1000cd0 <graphics_SwapBuffer>
 1006a8d:	8d 65 fc             	lea    -0x4(%ebp),%esp
 1006a90:	5e                   	pop    %esi
 1006a91:	5d                   	pop    %ebp
 1006a92:	c3                   	ret    
 1006a93:	8d b6 00 00 00 00    	lea    0x0(%esi),%esi
 1006a99:	8d bc 27 00 00 00 00 	lea    0x0(%edi,%eiz,1),%edi

01006aa0 <setup_kernel_core>:
 1006aa0:	55                   	push   %ebp
 1006aa1:	89 e5                	mov    %esp,%ebp
 1006aa3:	53                   	push   %ebx
 1006aa4:	57                   	push   %edi
 1006aa5:	56                   	push   %esi
 1006aa6:	83 ec 10             	sub    $0x10,%esp
 1006aa9:	8b 75 08             	mov    0x8(%ebp),%esi
 1006aac:	e8 5f 02 00 00       	call   1006d10 <GDT_Initialize>
 1006ab1:	e8 4a 04 00 00       	call   1006f00 <IDT_Initialize>
 1006ab6:	e8 a5 fa ff ff       	call   1006560 <COM_Initialize>
 1006abb:	e8 40 d4 ff ff       	call   1003f00 <ACPITables_Initialize>
 1006ac0:	e8 fb aa ff ff       	call   10015c0 <bootstrap_setup>
 1006ac5:	c7 04 24 14 00 00 00 	movl   $0x14,(%esp)
 1006acc:	e8 af ab ff ff       	call   1001680 <bootstrap_malloc>
 1006ad1:	a3 28 10 03 02       	mov    %eax,0x2031028
 1006ad6:	8b 4e 48             	mov    0x48(%esi),%ecx
 1006ad9:	89 4c 24 04          	mov    %ecx,0x4(%esp)
 1006add:	89 04 24             	mov    %eax,(%esp)
 1006ae0:	c7 44 24 08 14 00 00 	movl   $0x14,0x8(%esp)
 1006ae7:	00 
 1006ae8:	e8 e3 95 ff ff       	call   10000d0 <memcpy>
 1006aed:	c7 04 24 32 00 00 00 	movl   $0x32,(%esp)
 1006af4:	e8 87 ab ff ff       	call   1001680 <bootstrap_malloc>
 1006af9:	a3 00 80 84 01       	mov    %eax,0x1848000
 1006afe:	8b 4e 4c             	mov    0x4c(%esi),%ecx
 1006b01:	89 4c 24 04          	mov    %ecx,0x4(%esp)
 1006b05:	89 04 24             	mov    %eax,(%esp)
 1006b08:	c7 44 24 08 32 00 00 	movl   $0x32,0x8(%esp)
 1006b0f:	00 
 1006b10:	e8 bb 95 ff ff       	call   10000d0 <memcpy>
 1006b15:	c7 04 24 78 00 00 00 	movl   $0x78,(%esp)
 1006b1c:	e8 5f ab ff ff       	call   1001680 <bootstrap_malloc>
 1006b21:	a3 14 10 03 02       	mov    %eax,0x2031014
 1006b26:	89 74 24 04          	mov    %esi,0x4(%esp)
 1006b2a:	89 04 24             	mov    %eax,(%esp)
 1006b2d:	c7 44 24 08 78 00 00 	movl   $0x78,0x8(%esp)
 1006b34:	00 
 1006b35:	e8 96 95 ff ff       	call   10000d0 <memcpy>
 1006b3a:	8b 46 2c             	mov    0x2c(%esi),%eax
 1006b3d:	a3 10 10 03 02       	mov    %eax,0x2031010
 1006b42:	89 04 24             	mov    %eax,(%esp)
 1006b45:	e8 36 ab ff ff       	call   1001680 <bootstrap_malloc>
 1006b4a:	a3 04 80 84 01       	mov    %eax,0x1848004
 1006b4f:	8b 4e 30             	mov    0x30(%esi),%ecx
 1006b52:	8b 15 10 10 03 02    	mov    0x2031010,%edx
 1006b58:	89 54 24 08          	mov    %edx,0x8(%esp)
 1006b5c:	89 4c 24 04          	mov    %ecx,0x4(%esp)
 1006b60:	89 04 24             	mov    %eax,(%esp)
 1006b63:	e8 68 95 ff ff       	call   10000d0 <memcpy>
 1006b68:	e8 c3 ae ff ff       	call   1001a30 <Interrupts_Setup>
 1006b6d:	e8 6e e1 ff ff       	call   1004ce0 <CMOS_Initialize>
 1006b72:	e8 c9 e6 ff ff       	call   1005240 <FPU_Initialize>
 1006b77:	e8 d4 e9 ff ff       	call   1005550 <pci_Initialize>
 1006b7c:	e8 5f b2 ff ff       	call   1001de0 <physMemMan_Setup>
 1006b81:	e8 9a c5 ff ff       	call   1003120 <virtMemMan_Setup>
 1006b86:	e8 d5 af ff ff       	call   1001b60 <Interrupts_Virtualize>
 1006b8b:	e8 20 a0 ff ff       	call   1000bb0 <graphics_Initialize>
 1006b90:	c7 44 24 08 00 00 00 	movl   $0x0,0x8(%esp)
 1006b97:	00 
 1006b98:	c7 44 24 04 00 00 00 	movl   $0x0,0x4(%esp)
 1006b9f:	00 
 1006ba0:	c7 04 24 a3 17 04 01 	movl   $0x10417a3,(%esp)
 1006ba7:	e8 84 a1 ff ff       	call   1000d30 <graphics_WriteStr>
 1006bac:	e8 1f a1 ff ff       	call   1000cd0 <graphics_SwapBuffer>
 1006bb1:	e8 fa fa ff ff       	call   10066b0 <kmalloc_init>
 1006bb6:	c7 04 24 b3 17 04 01 	movl   $0x10417b3,(%esp)
 1006bbd:	e8 5e fa ff ff       	call   1006620 <COM_WriteStr>
 1006bc2:	e8 09 c3 ff ff       	call   1002ed0 <Timers_Setup>
 1006bc7:	c7 04 24 b3 17 04 01 	movl   $0x10417b3,(%esp)
 1006bce:	e8 4d fa ff ff       	call   1006620 <COM_WriteStr>
 1006bd3:	c7 04 24 00 90 7e 00 	movl   $0x7e9000,(%esp)
 1006bda:	e8 a1 aa ff ff       	call   1001680 <bootstrap_malloc>
 1006bdf:	a3 30 10 27 05       	mov    %eax,0x5271030
 1006be4:	c7 04 24 b3 17 04 01 	movl   $0x10417b3,(%esp)
 1006beb:	e8 30 fa ff ff       	call   1006620 <COM_WriteStr>
 1006bf0:	c7 05 40 10 27 05 00 	movl   $0x0,0x5271040
 1006bf7:	00 00 00 
 1006bfa:	8b 35 20 4d 27 05    	mov    0x5274d20,%esi
 1006c00:	c7 05 34 10 27 05 00 	movl   $0x0,0x5271034
 1006c07:	00 00 00 
 1006c0a:	8d b6 00 00 00 00    	lea    0x0(%esi),%esi
 1006c10:	8b 15 c0 70 84 01    	mov    0x18470c0,%edx
 1006c16:	0f b6 02             	movzbl (%edx),%eax
 1006c19:	8d 04 85 7c 00 00 00 	lea    0x7c(,%eax,4),%eax
 1006c20:	0f be 7a 01          	movsbl 0x1(%edx),%edi
 1006c24:	83 c7 df             	add    $0xffffffdf,%edi
 1006c27:	89 f9                	mov    %edi,%ecx
 1006c29:	c1 e9 04             	shr    $0x4,%ecx
 1006c2c:	09 c1                	or     %eax,%ecx
 1006c2e:	89 4d f0             	mov    %ecx,-0x10(%ebp)
 1006c31:	c1 e7 04             	shl    $0x4,%edi
 1006c34:	0f be 5a 02          	movsbl 0x2(%edx),%ebx
 1006c38:	83 c3 df             	add    $0xffffffdf,%ebx
 1006c3b:	89 d9                	mov    %ebx,%ecx
 1006c3d:	c1 e9 02             	shr    $0x2,%ecx
 1006c40:	09 f9                	or     %edi,%ecx
 1006c42:	c1 e3 06             	shl    $0x6,%ebx
 1006c45:	0f b6 42 03          	movzbl 0x3(%edx),%eax
 1006c49:	05 df 00 00 00       	add    $0xdf,%eax
 1006c4e:	09 d8                	or     %ebx,%eax
 1006c50:	83 c2 04             	add    $0x4,%edx
 1006c53:	89 15 c0 70 84 01    	mov    %edx,0x18470c0
 1006c59:	8b 15 30 10 27 05    	mov    0x5271030,%edx
 1006c5f:	88 04 32             	mov    %al,(%edx,%esi,1)
 1006c62:	a1 20 4d 27 05       	mov    0x5274d20,%eax
 1006c67:	8b 15 30 10 27 05    	mov    0x5271030,%edx
 1006c6d:	88 4c 10 01          	mov    %cl,0x1(%eax,%edx,1)
 1006c71:	a1 20 4d 27 05       	mov    0x5274d20,%eax
 1006c76:	8b 0d 30 10 27 05    	mov    0x5271030,%ecx
 1006c7c:	8b 55 f0             	mov    -0x10(%ebp),%edx
 1006c7f:	88 54 08 02          	mov    %dl,0x2(%eax,%ecx,1)
 1006c83:	8b 35 20 4d 27 05    	mov    0x5274d20,%esi
 1006c89:	83 c6 04             	add    $0x4,%esi
 1006c8c:	89 35 20 4d 27 05    	mov    %esi,0x5274d20
 1006c92:	a1 34 10 27 05       	mov    0x5271034,%eax
 1006c97:	40                   	inc    %eax
 1006c98:	a3 34 10 27 05       	mov    %eax,0x5271034
 1006c9d:	3d 80 07 00 00       	cmp    $0x780,%eax
 1006ca2:	0f 82 68 ff ff ff    	jb     1006c10 <setup_kernel_core+0x170>
 1006ca8:	a1 40 10 27 05       	mov    0x5271040,%eax
 1006cad:	40                   	inc    %eax
 1006cae:	a3 40 10 27 05       	mov    %eax,0x5271040
 1006cb3:	3d 38 04 00 00       	cmp    $0x438,%eax
 1006cb8:	0f 82 42 ff ff ff    	jb     1006c00 <setup_kernel_core+0x160>
 1006cbe:	e8 6d aa ff ff       	call   1001730 <Keyboard_Setup>
 1006cc3:	fb                   	sti    
 1006cc4:	c7 44 24 08 30 69 00 	movl   $0x1006930,0x8(%esp)
 1006ccb:	01 
 1006ccc:	c7 44 24 04 01 00 00 	movl   $0x1,0x4(%esp)
 1006cd3:	00 
 1006cd4:	c7 04 24 05 00 00 00 	movl   $0x5,(%esp)
 1006cdb:	e8 70 c3 ff ff       	call   1003050 <Timers_CreateNew>
 1006ce0:	89 54 24 04          	mov    %edx,0x4(%esp)
 1006ce4:	89 04 24             	mov    %eax,(%esp)
 1006ce7:	e8 04 c4 ff ff       	call   10030f0 <Timers_StartTimer>
 1006cec:	8d 74 26 00          	lea    0x0(%esi,%eiz,1),%esi
 1006cf0:	f4                   	hlt    
 1006cf1:	eb fd                	jmp    1006cf0 <setup_kernel_core+0x250>
 1006cf3:	8d b6 00 00 00 00    	lea    0x0(%esi),%esi
 1006cf9:	8d bc 27 00 00 00 00 	lea    0x0(%edi,%eiz,1),%edi

01006d00 <kernel_main>:
 1006d00:	55                   	push   %ebp
 1006d01:	89 e5                	mov    %esp,%ebp
 1006d03:	5d                   	pop    %ebp
 1006d04:	c3                   	ret    
 1006d05:	66 90                	xchg   %ax,%ax
 1006d07:	66 90                	xchg   %ax,%ax
 1006d09:	66 90                	xchg   %ax,%ax
 1006d0b:	66 90                	xchg   %ax,%ax
 1006d0d:	66 90                	xchg   %ax,%ax
 1006d0f:	90                   	nop

01006d10 <GDT_Initialize>:
 1006d10:	55                   	push   %ebp
 1006d11:	89 e5                	mov    %esp,%ebp
 1006d13:	83 ec 14             	sub    $0x14,%esp
 1006d16:	fa                   	cli    
 1006d17:	b8 00 00 00 00       	mov    $0x0,%eax
 1006d1c:	8d 05 4a 10 27 05    	lea    0x527104a,%eax
 1006d22:	66 c7 05 44 10 27 05 	movw   $0x27,0x5271044
 1006d29:	27 00 
 1006d2b:	a3 46 10 27 05       	mov    %eax,0x5271046
 1006d30:	c7 04 24 00 00 00 00 	movl   $0x0,(%esp)
 1006d37:	c7 44 24 04 00 00 00 	movl   $0x0,0x4(%esp)
 1006d3e:	00 
 1006d3f:	c7 44 24 08 00 00 00 	movl   $0x0,0x8(%esp)
 1006d46:	00 
 1006d47:	c7 44 24 0c 00 00 00 	movl   $0x0,0xc(%esp)
 1006d4e:	00 
 1006d4f:	c7 44 24 10 00 00 00 	movl   $0x0,0x10(%esp)
 1006d56:	00 
 1006d57:	e8 44 01 00 00       	call   1006ea0 <GDT_SetEntry>
 1006d5c:	b8 01 00 00 00       	mov    $0x1,%eax
 1006d61:	b8 00 00 00 00       	mov    $0x0,%eax
 1006d66:	b8 ff ff ff ff       	mov    $0xffffffff,%eax
 1006d6b:	b8 9a 00 00 00       	mov    $0x9a,%eax
 1006d70:	b8 cf 00 00 00       	mov    $0xcf,%eax
 1006d75:	c7 04 24 01 00 00 00 	movl   $0x1,(%esp)
 1006d7c:	c7 44 24 04 00 00 00 	movl   $0x0,0x4(%esp)
 1006d83:	00 
 1006d84:	c7 44 24 08 ff ff ff 	movl   $0xffffffff,0x8(%esp)
 1006d8b:	ff 
 1006d8c:	c7 44 24 0c 9a 00 00 	movl   $0x9a,0xc(%esp)
 1006d93:	00 
 1006d94:	c7 44 24 10 cf 00 00 	movl   $0xcf,0x10(%esp)
 1006d9b:	00 
 1006d9c:	e8 ff 00 00 00       	call   1006ea0 <GDT_SetEntry>
 1006da1:	b8 02 00 00 00       	mov    $0x2,%eax
 1006da6:	b8 00 00 00 00       	mov    $0x0,%eax
 1006dab:	b8 ff ff ff ff       	mov    $0xffffffff,%eax
 1006db0:	b8 92 00 00 00       	mov    $0x92,%eax
 1006db5:	b8 cf 00 00 00       	mov    $0xcf,%eax
 1006dba:	c7 04 24 02 00 00 00 	movl   $0x2,(%esp)
 1006dc1:	c7 44 24 04 00 00 00 	movl   $0x0,0x4(%esp)
 1006dc8:	00 
 1006dc9:	c7 44 24 08 ff ff ff 	movl   $0xffffffff,0x8(%esp)
 1006dd0:	ff 
 1006dd1:	c7 44 24 0c 92 00 00 	movl   $0x92,0xc(%esp)
 1006dd8:	00 
 1006dd9:	c7 44 24 10 cf 00 00 	movl   $0xcf,0x10(%esp)
 1006de0:	00 
 1006de1:	e8 ba 00 00 00       	call   1006ea0 <GDT_SetEntry>
 1006de6:	b8 03 00 00 00       	mov    $0x3,%eax
 1006deb:	b8 00 00 00 00       	mov    $0x0,%eax
 1006df0:	b8 ff ff ff ff       	mov    $0xffffffff,%eax
 1006df5:	b8 fa 00 00 00       	mov    $0xfa,%eax
 1006dfa:	b8 cf 00 00 00       	mov    $0xcf,%eax
 1006dff:	c7 04 24 03 00 00 00 	movl   $0x3,(%esp)
 1006e06:	c7 44 24 04 00 00 00 	movl   $0x0,0x4(%esp)
 1006e0d:	00 
 1006e0e:	c7 44 24 08 ff ff ff 	movl   $0xffffffff,0x8(%esp)
 1006e15:	ff 
 1006e16:	c7 44 24 0c fa 00 00 	movl   $0xfa,0xc(%esp)
 1006e1d:	00 
 1006e1e:	c7 44 24 10 cf 00 00 	movl   $0xcf,0x10(%esp)
 1006e25:	00 
 1006e26:	e8 75 00 00 00       	call   1006ea0 <GDT_SetEntry>
 1006e2b:	b8 04 00 00 00       	mov    $0x4,%eax
 1006e30:	b8 00 00 00 00       	mov    $0x0,%eax
 1006e35:	b8 ff ff ff ff       	mov    $0xffffffff,%eax
 1006e3a:	b8 f2 00 00 00       	mov    $0xf2,%eax
 1006e3f:	b8 cf 00 00 00       	mov    $0xcf,%eax
 1006e44:	c7 04 24 04 00 00 00 	movl   $0x4,(%esp)
 1006e4b:	c7 44 24 04 00 00 00 	movl   $0x0,0x4(%esp)
 1006e52:	00 
 1006e53:	c7 44 24 08 ff ff ff 	movl   $0xffffffff,0x8(%esp)
 1006e5a:	ff 
 1006e5b:	c7 44 24 0c f2 00 00 	movl   $0xf2,0xc(%esp)
 1006e62:	00 
 1006e63:	c7 44 24 10 cf 00 00 	movl   $0xcf,0x10(%esp)
 1006e6a:	00 
 1006e6b:	e8 30 00 00 00       	call   1006ea0 <GDT_SetEntry>
 1006e70:	b8 44 10 27 05       	mov    $0x5271044,%eax
 1006e75:	0f 01 10             	lgdtl  (%eax)
 1006e78:	ea 7f 6e 00 01 08 00 	ljmp   $0x8,$0x1006e7f

01006e7f <flush>:
 1006e7f:	66 b8 10 00          	mov    $0x10,%ax
 1006e83:	8e d8                	mov    %eax,%ds
 1006e85:	8e c0                	mov    %eax,%es
 1006e87:	8e e0                	mov    %eax,%fs
 1006e89:	8e e8                	mov    %eax,%gs
 1006e8b:	8e d0                	mov    %eax,%ss
 1006e8d:	83 c4 14             	add    $0x14,%esp
 1006e90:	5d                   	pop    %ebp
 1006e91:	c3                   	ret    
 1006e92:	8d b4 26 00 00 00 00 	lea    0x0(%esi,%eiz,1),%esi
 1006e99:	8d bc 27 00 00 00 00 	lea    0x0(%edi,%eiz,1),%edi

01006ea0 <GDT_SetEntry>:
 1006ea0:	55                   	push   %ebp
 1006ea1:	89 e5                	mov    %esp,%ebp
 1006ea3:	53                   	push   %ebx
 1006ea4:	56                   	push   %esi
 1006ea5:	8a 4d 14             	mov    0x14(%ebp),%cl
 1006ea8:	8b 55 10             	mov    0x10(%ebp),%edx
 1006eab:	8b 75 08             	mov    0x8(%ebp),%esi
 1006eae:	8b 45 0c             	mov    0xc(%ebp),%eax
 1006eb1:	66 89 04 f5 4c 10 27 	mov    %ax,0x527104c(,%esi,8)
 1006eb8:	05 
 1006eb9:	89 c3                	mov    %eax,%ebx
 1006ebb:	c1 eb 10             	shr    $0x10,%ebx
 1006ebe:	88 1c f5 4e 10 27 05 	mov    %bl,0x527104e(,%esi,8)
 1006ec5:	c1 e8 18             	shr    $0x18,%eax
 1006ec8:	88 04 f5 51 10 27 05 	mov    %al,0x5271051(,%esi,8)
 1006ecf:	66 89 14 f5 4a 10 27 	mov    %dx,0x527104a(,%esi,8)
 1006ed6:	05 
 1006ed7:	c1 ea 10             	shr    $0x10,%edx
 1006eda:	83 e2 0f             	and    $0xf,%edx
 1006edd:	0f b6 45 18          	movzbl 0x18(%ebp),%eax
 1006ee1:	25 f0 00 00 00       	and    $0xf0,%eax
 1006ee6:	09 d0                	or     %edx,%eax
 1006ee8:	88 04 f5 50 10 27 05 	mov    %al,0x5271050(,%esi,8)
 1006eef:	88 0c f5 4f 10 27 05 	mov    %cl,0x527104f(,%esi,8)
 1006ef6:	5e                   	pop    %esi
 1006ef7:	5b                   	pop    %ebx
 1006ef8:	5d                   	pop    %ebp
 1006ef9:	c3                   	ret    
 1006efa:	66 90                	xchg   %ax,%ax
 1006efc:	66 90                	xchg   %ax,%ax
 1006efe:	66 90                	xchg   %ax,%ax

01006f00 <IDT_Initialize>:
 1006f00:	55                   	push   %ebp
 1006f01:	89 e5                	mov    %esp,%ebp
 1006f03:	53                   	push   %ebx
 1006f04:	57                   	push   %edi
 1006f05:	56                   	push   %esi
 1006f06:	83 ec 08             	sub    $0x8,%esp
 1006f09:	66 c7 05 74 4c 27 05 	movw   $0x7ff,0x5274c74
 1006f10:	ff 07 
 1006f12:	b8 74 4c 27 05       	mov    $0x5274c74,%eax
 1006f17:	c7 05 76 4c 27 05 74 	movl   $0x5274474,0x5274c76
 1006f1e:	44 27 05 
 1006f21:	fa                   	cli    
 1006f22:	0f 01 18             	lidtl  (%eax)
 1006f25:	be 00 fc ff ff       	mov    $0xfffffc00,%esi
 1006f2a:	8d b6 00 00 00 00    	lea    0x0(%esi),%esi
 1006f30:	66 c7 05 74 44 27 05 	movw   $0x0,0x5274474
 1006f37:	00 00 
 1006f39:	66 c7 05 7a 44 27 05 	movw   $0x0,0x527447a
 1006f40:	00 00 
 1006f42:	c6 05 79 44 27 05 00 	movb   $0x0,0x5274479
 1006f49:	c6 05 78 44 27 05 00 	movb   $0x0,0x5274478
 1006f50:	66 c7 05 76 44 27 05 	movw   $0x0,0x5274476
 1006f57:	00 00 
 1006f59:	c7 86 74 44 27 05 00 	movl   $0x0,0x5274474(%esi)
 1006f60:	00 00 00 
 1006f63:	c7 04 24 be a7 82 01 	movl   $0x182a7be,(%esp)
 1006f6a:	e8 b1 f6 ff ff       	call   1006620 <COM_WriteStr>
 1006f6f:	83 c6 04             	add    $0x4,%esi
 1006f72:	75 bc                	jne    1006f30 <IDT_Initialize+0x30>
 1006f74:	31 c0                	xor    %eax,%eax
 1006f76:	b9 f8 ff ff ff       	mov    $0xfffffff8,%ecx
 1006f7b:	31 d2                	xor    %edx,%edx
 1006f7d:	8d 76 00             	lea    0x0(%esi),%esi
 1006f80:	3d 80 01 00 00       	cmp    $0x180,%eax
 1006f85:	0f 94 c3             	sete   %bl
 1006f88:	8d 72 f6             	lea    -0xa(%edx),%esi
 1006f8b:	83 fe 05             	cmp    $0x5,%esi
 1006f8e:	0f 92 c7             	setb   %bh
 1006f91:	8d b8 74 10 27 05    	lea    0x5271074(%eax),%edi
 1006f97:	8d 72 f8             	lea    -0x8(%edx),%esi
 1006f9a:	83 fe 07             	cmp    $0x7,%esi
 1006f9d:	73 12                	jae    1006fb1 <IDT_Initialize+0xb1>
 1006f9f:	31 f6                	xor    %esi,%esi
 1006fa1:	89 55 f0             	mov    %edx,-0x10(%ebp)
 1006fa4:	ba 7d 00 00 00       	mov    $0x7d,%edx
 1006fa9:	0f a3 ca             	bt     %ecx,%edx
 1006fac:	8b 55 f0             	mov    -0x10(%ebp),%edx
 1006faf:	72 2c                	jb     1006fdd <IDT_Initialize+0xdd>
 1006fb1:	08 fb                	or     %bh,%bl
 1006fb3:	80 f3 01             	xor    $0x1,%bl
 1006fb6:	c6 80 74 10 27 05 68 	movb   $0x68,0x5271074(%eax)
 1006fbd:	88 98 75 10 27 05    	mov    %bl,0x5271075(%eax)
 1006fc3:	c6 80 76 10 27 05 00 	movb   $0x0,0x5271076(%eax)
 1006fca:	c6 80 77 10 27 05 00 	movb   $0x0,0x5271077(%eax)
 1006fd1:	c6 80 78 10 27 05 00 	movb   $0x0,0x5271078(%eax)
 1006fd8:	be 05 00 00 00       	mov    $0x5,%esi
 1006fdd:	89 55 f0             	mov    %edx,-0x10(%ebp)
 1006fe0:	c6 84 06 74 10 27 05 	movb   $0x68,0x5271074(%esi,%eax,1)
 1006fe7:	68 
 1006fe8:	89 f3                	mov    %esi,%ebx
 1006fea:	83 cb 02             	or     $0x2,%ebx
 1006fed:	88 94 06 75 10 27 05 	mov    %dl,0x5271075(%esi,%eax,1)
 1006ff4:	c6 84 03 74 10 27 05 	movb   $0x0,0x5271074(%ebx,%eax,1)
 1006ffb:	00 
 1006ffc:	c6 84 03 75 10 27 05 	movb   $0x0,0x5271075(%ebx,%eax,1)
 1007003:	00 
 1007004:	c6 84 03 76 10 27 05 	movb   $0x0,0x5271076(%ebx,%eax,1)
 100700b:	00 
 100700c:	c6 84 03 77 10 27 05 	movb   $0x68,0x5271077(%ebx,%eax,1)
 1007013:	68 
 1007014:	ba 60 71 00 01       	mov    $0x1007160,%edx
 1007019:	88 94 03 78 10 27 05 	mov    %dl,0x5271078(%ebx,%eax,1)
 1007020:	88 b4 03 79 10 27 05 	mov    %dh,0x5271079(%ebx,%eax,1)
 1007027:	ba 60 71 00 01       	mov    $0x1007160,%edx
 100702c:	c1 ea 10             	shr    $0x10,%edx
 100702f:	88 94 03 7a 10 27 05 	mov    %dl,0x527107a(%ebx,%eax,1)
 1007036:	ba 60 71 00 01       	mov    $0x1007160,%edx
 100703b:	c1 ea 18             	shr    $0x18,%edx
 100703e:	88 94 03 7b 10 27 05 	mov    %dl,0x527107b(%ebx,%eax,1)
 1007045:	8b 55 f0             	mov    -0x10(%ebp),%edx
 1007048:	83 ce 0a             	or     $0xa,%esi
 100704b:	c6 84 06 74 10 27 05 	movb   $0xc3,0x5271074(%esi,%eax,1)
 1007052:	c3 
 1007053:	66 89 3c cd b4 44 27 	mov    %di,0x52744b4(,%ecx,8)
 100705a:	05 
 100705b:	c1 ef 10             	shr    $0x10,%edi
 100705e:	66 89 3c cd ba 44 27 	mov    %di,0x52744ba(,%ecx,8)
 1007065:	05 
 1007066:	c6 04 cd b9 44 27 05 	movb   $0x8e,0x52744b9(,%ecx,8)
 100706d:	8e 
 100706e:	c6 04 cd b8 44 27 05 	movb   $0x0,0x52744b8(,%ecx,8)
 1007075:	00 
 1007076:	66 c7 04 cd b6 44 27 	movw   $0x8,0x52744b6(,%ecx,8)
 100707d:	05 08 00 
 1007080:	42                   	inc    %edx
 1007081:	41                   	inc    %ecx
 1007082:	83 c0 30             	add    $0x30,%eax
 1007085:	81 fa 00 01 00 00    	cmp    $0x100,%edx
 100708b:	0f 85 ef fe ff ff    	jne    1006f80 <IDT_Initialize+0x80>
 1007091:	83 c4 08             	add    $0x8,%esp
 1007094:	5e                   	pop    %esi
 1007095:	5f                   	pop    %edi
 1007096:	5b                   	pop    %ebx
 1007097:	5d                   	pop    %ebp
 1007098:	c3                   	ret    
 1007099:	8d b4 26 00 00 00 00 	lea    0x0(%esi,%eiz,1),%esi

010070a0 <IDT_SetEntry>:
 10070a0:	55                   	push   %ebp
 10070a1:	89 e5                	mov    %esp,%ebp
 10070a3:	56                   	push   %esi
 10070a4:	66 8b 45 10          	mov    0x10(%ebp),%ax
 10070a8:	8a 4d 14             	mov    0x14(%ebp),%cl
 10070ab:	8b 55 0c             	mov    0xc(%ebp),%edx
 10070ae:	0f b6 75 08          	movzbl 0x8(%ebp),%esi
 10070b2:	66 89 14 f5 74 44 27 	mov    %dx,0x5274474(,%esi,8)
 10070b9:	05 
 10070ba:	c1 ea 10             	shr    $0x10,%edx
 10070bd:	66 89 14 f5 7a 44 27 	mov    %dx,0x527447a(,%esi,8)
 10070c4:	05 
 10070c5:	88 0c f5 79 44 27 05 	mov    %cl,0x5274479(,%esi,8)
 10070cc:	c6 04 f5 78 44 27 05 	movb   $0x0,0x5274478(,%esi,8)
 10070d3:	00 
 10070d4:	66 89 04 f5 76 44 27 	mov    %ax,0x5274476(,%esi,8)
 10070db:	05 
 10070dc:	5e                   	pop    %esi
 10070dd:	5d                   	pop    %ebp
 10070de:	c3                   	ret    
 10070df:	90                   	nop

010070e0 <IDT_FillSWInterruptHandler>:
 10070e0:	55                   	push   %ebp
 10070e1:	89 e5                	mov    %esp,%ebp
 10070e3:	53                   	push   %ebx
 10070e4:	56                   	push   %esi
 10070e5:	8a 75 10             	mov    0x10(%ebp),%dh
 10070e8:	8a 55 0c             	mov    0xc(%ebp),%dl
 10070eb:	8b 45 08             	mov    0x8(%ebp),%eax
 10070ee:	31 c9                	xor    %ecx,%ecx
 10070f0:	84 f6                	test   %dh,%dh
 10070f2:	74 17                	je     100710b <IDT_FillSWInterruptHandler+0x2b>
 10070f4:	c6 00 68             	movb   $0x68,(%eax)
 10070f7:	88 70 01             	mov    %dh,0x1(%eax)
 10070fa:	c6 40 02 00          	movb   $0x0,0x2(%eax)
 10070fe:	c6 40 03 00          	movb   $0x0,0x3(%eax)
 1007102:	c6 40 04 00          	movb   $0x0,0x4(%eax)
 1007106:	b9 05 00 00 00       	mov    $0x5,%ecx
 100710b:	c6 04 08 68          	movb   $0x68,(%eax,%ecx,1)
 100710f:	89 ce                	mov    %ecx,%esi
 1007111:	83 ce 02             	or     $0x2,%esi
 1007114:	88 54 08 01          	mov    %dl,0x1(%eax,%ecx,1)
 1007118:	c6 04 30 00          	movb   $0x0,(%eax,%esi,1)
 100711c:	c6 44 30 01 00       	movb   $0x0,0x1(%eax,%esi,1)
 1007121:	c6 44 30 02 00       	movb   $0x0,0x2(%eax,%esi,1)
 1007126:	c6 44 30 03 68       	movb   $0x68,0x3(%eax,%esi,1)
 100712b:	ba 60 71 00 01       	mov    $0x1007160,%edx
 1007130:	88 54 30 04          	mov    %dl,0x4(%eax,%esi,1)
 1007134:	88 74 30 05          	mov    %dh,0x5(%eax,%esi,1)
 1007138:	bb 60 71 00 01       	mov    $0x1007160,%ebx
 100713d:	c1 eb 10             	shr    $0x10,%ebx
 1007140:	88 5c 30 06          	mov    %bl,0x6(%eax,%esi,1)
 1007144:	83 c9 0a             	or     $0xa,%ecx
 1007147:	c1 ea 18             	shr    $0x18,%edx
 100714a:	88 54 30 07          	mov    %dl,0x7(%eax,%esi,1)
 100714e:	c6 04 08 c3          	movb   $0xc3,(%eax,%ecx,1)
 1007152:	5e                   	pop    %esi
 1007153:	5b                   	pop    %ebx
 1007154:	5d                   	pop    %ebp
 1007155:	c3                   	ret    
 1007156:	8d 76 00             	lea    0x0(%esi),%esi
 1007159:	8d bc 27 00 00 00 00 	lea    0x0(%edi,%eiz,1),%edi

01007160 <IDT_DefaultHandler>:
 1007160:	60                   	pusha  
 1007161:	66 8c d8             	mov    %ds,%ax
 1007164:	50                   	push   %eax
 1007165:	66 b8 10 00          	mov    $0x10,%ax
 1007169:	8e d8                	mov    %eax,%ds
 100716b:	8e c0                	mov    %eax,%es
 100716d:	8e e0                	mov    %eax,%fs
 100716f:	8e e8                	mov    %eax,%gs
 1007171:	54                   	push   %esp
 1007172:	e8 19 00 00 00       	call   1007190 <IDT_MainHandler>
 1007177:	58                   	pop    %eax
 1007178:	58                   	pop    %eax
 1007179:	8e d8                	mov    %eax,%ds
 100717b:	8e c0                	mov    %eax,%es
 100717d:	8e e0                	mov    %eax,%fs
 100717f:	8e e8                	mov    %eax,%gs
 1007181:	61                   	popa   
 1007182:	83 c4 08             	add    $0x8,%esp
 1007185:	cf                   	iret   
 1007186:	c3                   	ret    
 1007187:	89 f6                	mov    %esi,%esi
 1007189:	8d bc 27 00 00 00 00 	lea    0x0(%edi,%eiz,1),%edi

01007190 <IDT_MainHandler>:
 1007190:	55                   	push   %ebp
 1007191:	89 e5                	mov    %esp,%ebp
 1007193:	8b 45 08             	mov    0x8(%ebp),%eax
 1007196:	8b 40 24             	mov    0x24(%eax),%eax
 1007199:	8b 04 85 74 40 27 05 	mov    0x5274074(,%eax,4),%eax
 10071a0:	85 c0                	test   %eax,%eax
 10071a2:	74 03                	je     10071a7 <IDT_MainHandler+0x17>
 10071a4:	5d                   	pop    %ebp
 10071a5:	ff e0                	jmp    *%eax
 10071a7:	5d                   	pop    %ebp
 10071a8:	c3                   	ret    
 10071a9:	8d b4 26 00 00 00 00 	lea    0x0(%esi,%eiz,1),%esi

010071b0 <IDT_RegisterHandler>:
 10071b0:	55                   	push   %ebp
 10071b1:	89 e5                	mov    %esp,%ebp
 10071b3:	8b 45 0c             	mov    0xc(%ebp),%eax
 10071b6:	0f b6 4d 08          	movzbl 0x8(%ebp),%ecx
 10071ba:	89 04 8d 74 40 27 05 	mov    %eax,0x5274074(,%ecx,4)
 10071c1:	5d                   	pop    %ebp
 10071c2:	c3                   	ret    
 10071c3:	66 90                	xchg   %ax,%ax
 10071c5:	66 90                	xchg   %ax,%ax
 10071c7:	66 90                	xchg   %ax,%ax
 10071c9:	66 90                	xchg   %ax,%ax
 10071cb:	66 90                	xchg   %ax,%ax
 10071cd:	66 90                	xchg   %ax,%ax
 10071cf:	90                   	nop

010071d0 <CPUID_FeatureIsAvailable>:
 10071d0:	55                   	push   %ebp
 10071d1:	89 e5                	mov    %esp,%ebp
 10071d3:	53                   	push   %ebx
 10071d4:	56                   	push   %esi
 10071d5:	8a 5d 08             	mov    0x8(%ebp),%bl
 10071d8:	8b 0d 24 4d 27 05    	mov    0x5274d24,%ecx
 10071de:	85 c9                	test   %ecx,%ecx
 10071e0:	0f 94 c0             	sete   %al
 10071e3:	8b 15 28 4d 27 05    	mov    0x5274d28,%edx
 10071e9:	85 d2                	test   %edx,%edx
 10071eb:	0f 94 c4             	sete   %ah
 10071ee:	08 c4                	or     %al,%ah
 10071f0:	74 16                	je     1007208 <CPUID_FeatureIsAvailable+0x38>
 10071f2:	b8 01 00 00 00       	mov    $0x1,%eax
 10071f7:	0f a2                	cpuid  
 10071f9:	8a 5d 08             	mov    0x8(%ebp),%bl
 10071fc:	89 0d 24 4d 27 05    	mov    %ecx,0x5274d24
 1007202:	89 15 28 4d 27 05    	mov    %edx,0x5274d28
 1007208:	8b 45 0c             	mov    0xc(%ebp),%eax
 100720b:	0f b6 f3             	movzbl %bl,%esi
 100720e:	83 fe 01             	cmp    $0x1,%esi
 1007211:	75 06                	jne    1007219 <CPUID_FeatureIsAvailable+0x49>
 1007213:	21 c2                	and    %eax,%edx
 1007215:	39 c2                	cmp    %eax,%edx
 1007217:	eb 0a                	jmp    1007223 <CPUID_FeatureIsAvailable+0x53>
 1007219:	b2 ff                	mov    $0xff,%dl
 100721b:	84 db                	test   %bl,%bl
 100721d:	75 07                	jne    1007226 <CPUID_FeatureIsAvailable+0x56>
 100721f:	21 c1                	and    %eax,%ecx
 1007221:	39 c1                	cmp    %eax,%ecx
 1007223:	0f 94 c2             	sete   %dl
 1007226:	0f b6 c2             	movzbl %dl,%eax
 1007229:	5e                   	pop    %esi
 100722a:	5b                   	pop    %ebx
 100722b:	5d                   	pop    %ebp
 100722c:	c3                   	ret    

0100722d <_start>:
 100722d:	bc 2c 8d 27 05       	mov    $0x5278d2c,%esp
 1007232:	50                   	push   %eax
 1007233:	53                   	push   %ebx
 1007234:	e8 67 f8 ff ff       	call   1006aa0 <setup_kernel_core>
 1007239:	fa                   	cli    
 100723a:	f4                   	hlt    
 100723b:	eb fe                	jmp    100723b <_start+0xe>
 100723d:	66 90                	xchg   %ax,%ax
 100723f:	90                   	nop

01007240 <__divdi3>:
 1007240:	55                   	push   %ebp
 1007241:	57                   	push   %edi
 1007242:	56                   	push   %esi
 1007243:	83 ec 20             	sub    $0x20,%esp
 1007246:	8b 44 24 34          	mov    0x34(%esp),%eax
 100724a:	8b 6c 24 30          	mov    0x30(%esp),%ebp
 100724e:	8b 4c 24 3c          	mov    0x3c(%esp),%ecx
 1007252:	8b 7c 24 38          	mov    0x38(%esp),%edi
 1007256:	89 6c 24 08          	mov    %ebp,0x8(%esp)
 100725a:	31 ed                	xor    %ebp,%ebp
 100725c:	85 c0                	test   %eax,%eax
 100725e:	89 ce                	mov    %ecx,%esi
 1007260:	89 44 24 0c          	mov    %eax,0xc(%esp)
 1007264:	0f 88 06 01 00 00    	js     1007370 <__divdi3+0x130>
 100726a:	85 f6                	test   %esi,%esi
 100726c:	89 f8                	mov    %edi,%eax
 100726e:	89 ca                	mov    %ecx,%edx
 1007270:	0f 88 ea 00 00 00    	js     1007360 <__divdi3+0x120>
 1007276:	8b 74 24 08          	mov    0x8(%esp),%esi
 100727a:	8b 7c 24 0c          	mov    0xc(%esp),%edi
 100727e:	85 d2                	test   %edx,%edx
 1007280:	89 44 24 18          	mov    %eax,0x18(%esp)
 1007284:	8b 4c 24 08          	mov    0x8(%esp),%ecx
 1007288:	89 74 24 1c          	mov    %esi,0x1c(%esp)
 100728c:	89 fe                	mov    %edi,%esi
 100728e:	89 c7                	mov    %eax,%edi
 1007290:	75 1e                	jne    10072b0 <__divdi3+0x70>
 1007292:	39 f0                	cmp    %esi,%eax
 1007294:	0f 86 96 00 00 00    	jbe    1007330 <__divdi3+0xf0>
 100729a:	8b 4c 24 1c          	mov    0x1c(%esp),%ecx
 100729e:	89 f2                	mov    %esi,%edx
 10072a0:	c7 44 24 14 00 00 00 	movl   $0x0,0x14(%esp)
 10072a7:	00 
 10072a8:	89 c8                	mov    %ecx,%eax
 10072aa:	f7 f7                	div    %edi
 10072ac:	89 c1                	mov    %eax,%ecx
 10072ae:	eb 0e                	jmp    10072be <__divdi3+0x7e>
 10072b0:	39 f2                	cmp    %esi,%edx
 10072b2:	76 4c                	jbe    1007300 <__divdi3+0xc0>
 10072b4:	c7 44 24 14 00 00 00 	movl   $0x0,0x14(%esp)
 10072bb:	00 
 10072bc:	31 c9                	xor    %ecx,%ecx
 10072be:	31 c0                	xor    %eax,%eax
 10072c0:	85 ed                	test   %ebp,%ebp
 10072c2:	0f 95 c0             	setne  %al
 10072c5:	31 d2                	xor    %edx,%edx
 10072c7:	89 c7                	mov    %eax,%edi
 10072c9:	89 d5                	mov    %edx,%ebp
 10072cb:	f7 df                	neg    %edi
 10072cd:	83 d5 00             	adc    $0x0,%ebp
 10072d0:	89 7c 24 08          	mov    %edi,0x8(%esp)
 10072d4:	33 4c 24 08          	xor    0x8(%esp),%ecx
 10072d8:	f7 dd                	neg    %ebp
 10072da:	89 6c 24 0c          	mov    %ebp,0xc(%esp)
 10072de:	89 ce                	mov    %ecx,%esi
 10072e0:	8b 4c 24 0c          	mov    0xc(%esp),%ecx
 10072e4:	33 4c 24 14          	xor    0x14(%esp),%ecx
 10072e8:	01 f0                	add    %esi,%eax
 10072ea:	11 ca                	adc    %ecx,%edx
 10072ec:	83 c4 20             	add    $0x20,%esp
 10072ef:	5e                   	pop    %esi
 10072f0:	5f                   	pop    %edi
 10072f1:	5d                   	pop    %ebp
 10072f2:	c3                   	ret    
 10072f3:	8d b6 00 00 00 00    	lea    0x0(%esi),%esi
 10072f9:	8d bc 27 00 00 00 00 	lea    0x0(%edi,%eiz,1),%edi
 1007300:	0f bd c2             	bsr    %edx,%eax
 1007303:	83 f0 1f             	xor    $0x1f,%eax
 1007306:	89 44 24 14          	mov    %eax,0x14(%esp)
 100730a:	0f 85 80 00 00 00    	jne    1007390 <__divdi3+0x150>
 1007310:	8b 7c 24 1c          	mov    0x1c(%esp),%edi
 1007314:	39 7c 24 18          	cmp    %edi,0x18(%esp)
 1007318:	76 06                	jbe    1007320 <__divdi3+0xe0>
 100731a:	31 c9                	xor    %ecx,%ecx
 100731c:	39 f2                	cmp    %esi,%edx
 100731e:	73 9e                	jae    10072be <__divdi3+0x7e>
 1007320:	b9 01 00 00 00       	mov    $0x1,%ecx
 1007325:	eb 97                	jmp    10072be <__divdi3+0x7e>
 1007327:	89 f6                	mov    %esi,%esi
 1007329:	8d bc 27 00 00 00 00 	lea    0x0(%edi,%eiz,1),%edi
 1007330:	85 c0                	test   %eax,%eax
 1007332:	75 0b                	jne    100733f <__divdi3+0xff>
 1007334:	b8 01 00 00 00       	mov    $0x1,%eax
 1007339:	31 d2                	xor    %edx,%edx
 100733b:	f7 f7                	div    %edi
 100733d:	89 c7                	mov    %eax,%edi
 100733f:	89 f0                	mov    %esi,%eax
 1007341:	31 d2                	xor    %edx,%edx
 1007343:	f7 f7                	div    %edi
 1007345:	89 c6                	mov    %eax,%esi
 1007347:	89 c8                	mov    %ecx,%eax
 1007349:	89 74 24 14          	mov    %esi,0x14(%esp)
 100734d:	f7 f7                	div    %edi
 100734f:	89 c1                	mov    %eax,%ecx
 1007351:	e9 68 ff ff ff       	jmp    10072be <__divdi3+0x7e>
 1007356:	8d 76 00             	lea    0x0(%esi),%esi
 1007359:	8d bc 27 00 00 00 00 	lea    0x0(%edi,%eiz,1),%edi
 1007360:	f7 d8                	neg    %eax
 1007362:	f7 d5                	not    %ebp
 1007364:	83 d2 00             	adc    $0x0,%edx
 1007367:	f7 da                	neg    %edx
 1007369:	e9 08 ff ff ff       	jmp    1007276 <__divdi3+0x36>
 100736e:	66 90                	xchg   %ax,%ax
 1007370:	f7 5c 24 08          	negl   0x8(%esp)
 1007374:	bd ff ff ff ff       	mov    $0xffffffff,%ebp
 1007379:	83 54 24 0c 00       	adcl   $0x0,0xc(%esp)
 100737e:	f7 5c 24 0c          	negl   0xc(%esp)
 1007382:	e9 e3 fe ff ff       	jmp    100726a <__divdi3+0x2a>
 1007387:	89 f6                	mov    %esi,%esi
 1007389:	8d bc 27 00 00 00 00 	lea    0x0(%edi,%eiz,1),%edi
 1007390:	89 d7                	mov    %edx,%edi
 1007392:	8b 54 24 14          	mov    0x14(%esp),%edx
 1007396:	b8 20 00 00 00       	mov    $0x20,%eax
 100739b:	29 d0                	sub    %edx,%eax
 100739d:	89 d1                	mov    %edx,%ecx
 100739f:	8b 54 24 18          	mov    0x18(%esp),%edx
 10073a3:	d3 e7                	shl    %cl,%edi
 10073a5:	89 c1                	mov    %eax,%ecx
 10073a7:	d3 ea                	shr    %cl,%edx
 10073a9:	89 d1                	mov    %edx,%ecx
 10073ab:	8b 54 24 18          	mov    0x18(%esp),%edx
 10073af:	09 f9                	or     %edi,%ecx
 10073b1:	8b 7c 24 14          	mov    0x14(%esp),%edi
 10073b5:	89 4c 24 08          	mov    %ecx,0x8(%esp)
 10073b9:	89 f9                	mov    %edi,%ecx
 10073bb:	d3 e2                	shl    %cl,%edx
 10073bd:	89 c1                	mov    %eax,%ecx
 10073bf:	89 54 24 18          	mov    %edx,0x18(%esp)
 10073c3:	89 f2                	mov    %esi,%edx
 10073c5:	d3 ea                	shr    %cl,%edx
 10073c7:	89 f9                	mov    %edi,%ecx
 10073c9:	8b 7c 24 1c          	mov    0x1c(%esp),%edi
 10073cd:	d3 e6                	shl    %cl,%esi
 10073cf:	89 c1                	mov    %eax,%ecx
 10073d1:	d3 ef                	shr    %cl,%edi
 10073d3:	09 fe                	or     %edi,%esi
 10073d5:	89 f0                	mov    %esi,%eax
 10073d7:	f7 74 24 08          	divl   0x8(%esp)
 10073db:	89 d6                	mov    %edx,%esi
 10073dd:	89 c7                	mov    %eax,%edi
 10073df:	f7 64 24 18          	mull   0x18(%esp)
 10073e3:	39 d6                	cmp    %edx,%esi
 10073e5:	89 54 24 08          	mov    %edx,0x8(%esp)
 10073e9:	72 25                	jb     1007410 <__divdi3+0x1d0>
 10073eb:	0f b6 4c 24 14       	movzbl 0x14(%esp),%ecx
 10073f0:	8b 54 24 1c          	mov    0x1c(%esp),%edx
 10073f4:	d3 e2                	shl    %cl,%edx
 10073f6:	39 c2                	cmp    %eax,%edx
 10073f8:	73 06                	jae    1007400 <__divdi3+0x1c0>
 10073fa:	3b 74 24 08          	cmp    0x8(%esp),%esi
 10073fe:	74 10                	je     1007410 <__divdi3+0x1d0>
 1007400:	89 f9                	mov    %edi,%ecx
 1007402:	c7 44 24 14 00 00 00 	movl   $0x0,0x14(%esp)
 1007409:	00 
 100740a:	e9 af fe ff ff       	jmp    10072be <__divdi3+0x7e>
 100740f:	90                   	nop
 1007410:	8d 4f ff             	lea    -0x1(%edi),%ecx
 1007413:	c7 44 24 14 00 00 00 	movl   $0x0,0x14(%esp)
 100741a:	00 
 100741b:	e9 9e fe ff ff       	jmp    10072be <__divdi3+0x7e>

01007420 <__moddi3>:
 1007420:	55                   	push   %ebp
 1007421:	57                   	push   %edi
 1007422:	56                   	push   %esi
 1007423:	83 ec 30             	sub    $0x30,%esp
 1007426:	8b 54 24 44          	mov    0x44(%esp),%edx
 100742a:	8b 44 24 40          	mov    0x40(%esp),%eax
 100742e:	8b 6c 24 48          	mov    0x48(%esp),%ebp
 1007432:	8b 4c 24 4c          	mov    0x4c(%esp),%ecx
 1007436:	85 d2                	test   %edx,%edx
 1007438:	0f 88 12 01 00 00    	js     1007550 <__moddi3+0x130>
 100743e:	89 44 24 08          	mov    %eax,0x8(%esp)
 1007442:	89 54 24 0c          	mov    %edx,0xc(%esp)
 1007446:	c7 44 24 18 00 00 00 	movl   $0x0,0x18(%esp)
 100744d:	00 
 100744e:	c7 44 24 1c 00 00 00 	movl   $0x0,0x1c(%esp)
 1007455:	00 
 1007456:	c7 44 24 20 00 00 00 	movl   $0x0,0x20(%esp)
 100745d:	00 
 100745e:	c7 44 24 24 00 00 00 	movl   $0x0,0x24(%esp)
 1007465:	00 
 1007466:	89 c8                	mov    %ecx,%eax
 1007468:	c7 44 24 04 00 00 00 	movl   $0x0,0x4(%esp)
 100746f:	00 
 1007470:	99                   	cltd   
 1007471:	89 d0                	mov    %edx,%eax
 1007473:	8b 54 24 0c          	mov    0xc(%esp),%edx
 1007477:	c1 e8 1f             	shr    $0x1f,%eax
 100747a:	89 04 24             	mov    %eax,(%esp)
 100747d:	8b 44 24 08          	mov    0x8(%esp),%eax
 1007481:	89 54 24 14          	mov    %edx,0x14(%esp)
 1007485:	8b 54 24 04          	mov    0x4(%esp),%edx
 1007489:	89 44 24 28          	mov    %eax,0x28(%esp)
 100748d:	8b 04 24             	mov    (%esp),%eax
 1007490:	f7 d8                	neg    %eax
 1007492:	83 d2 00             	adc    $0x0,%edx
 1007495:	31 c5                	xor    %eax,%ebp
 1007497:	f7 da                	neg    %edx
 1007499:	89 e8                	mov    %ebp,%eax
 100749b:	89 d5                	mov    %edx,%ebp
 100749d:	31 cd                	xor    %ecx,%ebp
 100749f:	03 04 24             	add    (%esp),%eax
 10074a2:	89 ea                	mov    %ebp,%edx
 10074a4:	13 54 24 04          	adc    0x4(%esp),%edx
 10074a8:	89 04 24             	mov    %eax,(%esp)
 10074ab:	89 c5                	mov    %eax,%ebp
 10074ad:	89 c7                	mov    %eax,%edi
 10074af:	89 d1                	mov    %edx,%ecx
 10074b1:	89 c2                	mov    %eax,%edx
 10074b3:	8b 44 24 14          	mov    0x14(%esp),%eax
 10074b7:	89 ce                	mov    %ecx,%esi
 10074b9:	89 4c 24 04          	mov    %ecx,0x4(%esp)
 10074bd:	8b 4c 24 08          	mov    0x8(%esp),%ecx
 10074c1:	85 f6                	test   %esi,%esi
 10074c3:	75 1b                	jne    10074e0 <__moddi3+0xc0>
 10074c5:	39 c2                	cmp    %eax,%edx
 10074c7:	76 67                	jbe    1007530 <__moddi3+0x110>
 10074c9:	8b 44 24 28          	mov    0x28(%esp),%eax
 10074cd:	8b 54 24 14          	mov    0x14(%esp),%edx
 10074d1:	f7 34 24             	divl   (%esp)
 10074d4:	31 c0                	xor    %eax,%eax
 10074d6:	eb 16                	jmp    10074ee <__moddi3+0xce>
 10074d8:	90                   	nop
 10074d9:	8d b4 26 00 00 00 00 	lea    0x0(%esi,%eiz,1),%esi
 10074e0:	3b 74 24 14          	cmp    0x14(%esp),%esi
 10074e4:	76 2a                	jbe    1007510 <__moddi3+0xf0>
 10074e6:	8b 54 24 08          	mov    0x8(%esp),%edx
 10074ea:	8b 44 24 14          	mov    0x14(%esp),%eax
 10074ee:	8b 4c 24 20          	mov    0x20(%esp),%ecx
 10074f2:	31 d1                	xor    %edx,%ecx
 10074f4:	8b 54 24 1c          	mov    0x1c(%esp),%edx
 10074f8:	89 ce                	mov    %ecx,%esi
 10074fa:	8b 4c 24 24          	mov    0x24(%esp),%ecx
 10074fe:	31 c1                	xor    %eax,%ecx
 1007500:	8b 44 24 18          	mov    0x18(%esp),%eax
 1007504:	01 f0                	add    %esi,%eax
 1007506:	11 ca                	adc    %ecx,%edx
 1007508:	83 c4 30             	add    $0x30,%esp
 100750b:	5e                   	pop    %esi
 100750c:	5f                   	pop    %edi
 100750d:	5d                   	pop    %ebp
 100750e:	c3                   	ret    
 100750f:	90                   	nop
 1007510:	0f bd fe             	bsr    %esi,%edi
 1007513:	83 f7 1f             	xor    $0x1f,%edi
 1007516:	75 78                	jne    1007590 <__moddi3+0x170>
 1007518:	39 ca                	cmp    %ecx,%edx
 100751a:	0f 86 10 01 00 00    	jbe    1007630 <__moddi3+0x210>
 1007520:	3b 74 24 14          	cmp    0x14(%esp),%esi
 1007524:	0f 82 06 01 00 00    	jb     1007630 <__moddi3+0x210>
 100752a:	89 ca                	mov    %ecx,%edx
 100752c:	eb c0                	jmp    10074ee <__moddi3+0xce>
 100752e:	66 90                	xchg   %ax,%ax
 1007530:	85 d2                	test   %edx,%edx
 1007532:	75 0b                	jne    100753f <__moddi3+0x11f>
 1007534:	b8 01 00 00 00       	mov    $0x1,%eax
 1007539:	31 d2                	xor    %edx,%edx
 100753b:	f7 f5                	div    %ebp
 100753d:	89 c7                	mov    %eax,%edi
 100753f:	8b 44 24 14          	mov    0x14(%esp),%eax
 1007543:	31 d2                	xor    %edx,%edx
 1007545:	f7 f7                	div    %edi
 1007547:	89 c8                	mov    %ecx,%eax
 1007549:	f7 f7                	div    %edi
 100754b:	31 c0                	xor    %eax,%eax
 100754d:	eb 9f                	jmp    10074ee <__moddi3+0xce>
 100754f:	90                   	nop
 1007550:	f7 d8                	neg    %eax
 1007552:	c7 44 24 18 01 00 00 	movl   $0x1,0x18(%esp)
 1007559:	00 
 100755a:	c7 44 24 1c 00 00 00 	movl   $0x0,0x1c(%esp)
 1007561:	00 
 1007562:	83 d2 00             	adc    $0x0,%edx
 1007565:	89 44 24 08          	mov    %eax,0x8(%esp)
 1007569:	c7 44 24 20 ff ff ff 	movl   $0xffffffff,0x20(%esp)
 1007570:	ff 
 1007571:	f7 da                	neg    %edx
 1007573:	c7 44 24 24 ff ff ff 	movl   $0xffffffff,0x24(%esp)
 100757a:	ff 
 100757b:	89 54 24 0c          	mov    %edx,0xc(%esp)
 100757f:	e9 e2 fe ff ff       	jmp    1007466 <__moddi3+0x46>
 1007584:	8d b6 00 00 00 00    	lea    0x0(%esi),%esi
 100758a:	8d bf 00 00 00 00    	lea    0x0(%edi),%edi
 1007590:	b8 20 00 00 00       	mov    $0x20,%eax
 1007595:	89 f9                	mov    %edi,%ecx
 1007597:	29 f8                	sub    %edi,%eax
 1007599:	d3 e6                	shl    %cl,%esi
 100759b:	89 c2                	mov    %eax,%edx
 100759d:	89 44 24 2c          	mov    %eax,0x2c(%esp)
 10075a1:	89 e8                	mov    %ebp,%eax
 10075a3:	89 d1                	mov    %edx,%ecx
 10075a5:	d3 e8                	shr    %cl,%eax
 10075a7:	89 f9                	mov    %edi,%ecx
 10075a9:	09 f0                	or     %esi,%eax
 10075ab:	d3 e5                	shl    %cl,%ebp
 10075ad:	89 d1                	mov    %edx,%ecx
 10075af:	89 04 24             	mov    %eax,(%esp)
 10075b2:	8b 44 24 14          	mov    0x14(%esp),%eax
 10075b6:	89 6c 24 08          	mov    %ebp,0x8(%esp)
 10075ba:	89 d5                	mov    %edx,%ebp
 10075bc:	89 c6                	mov    %eax,%esi
 10075be:	89 c2                	mov    %eax,%edx
 10075c0:	8b 44 24 28          	mov    0x28(%esp),%eax
 10075c4:	d3 ee                	shr    %cl,%esi
 10075c6:	89 f9                	mov    %edi,%ecx
 10075c8:	d3 e2                	shl    %cl,%edx
 10075ca:	89 e9                	mov    %ebp,%ecx
 10075cc:	d3 e8                	shr    %cl,%eax
 10075ce:	89 f9                	mov    %edi,%ecx
 10075d0:	09 d0                	or     %edx,%eax
 10075d2:	8b 54 24 28          	mov    0x28(%esp),%edx
 10075d6:	d3 e2                	shl    %cl,%edx
 10075d8:	89 54 24 14          	mov    %edx,0x14(%esp)
 10075dc:	89 f2                	mov    %esi,%edx
 10075de:	f7 34 24             	divl   (%esp)
 10075e1:	89 d1                	mov    %edx,%ecx
 10075e3:	f7 64 24 08          	mull   0x8(%esp)
 10075e7:	39 d1                	cmp    %edx,%ecx
 10075e9:	89 c5                	mov    %eax,%ebp
 10075eb:	89 d6                	mov    %edx,%esi
 10075ed:	72 0a                	jb     10075f9 <__moddi3+0x1d9>
 10075ef:	39 44 24 14          	cmp    %eax,0x14(%esp)
 10075f3:	73 0f                	jae    1007604 <__moddi3+0x1e4>
 10075f5:	39 d1                	cmp    %edx,%ecx
 10075f7:	75 0b                	jne    1007604 <__moddi3+0x1e4>
 10075f9:	89 d6                	mov    %edx,%esi
 10075fb:	89 c5                	mov    %eax,%ebp
 10075fd:	2b 6c 24 08          	sub    0x8(%esp),%ebp
 1007601:	1b 34 24             	sbb    (%esp),%esi
 1007604:	89 c8                	mov    %ecx,%eax
 1007606:	89 f9                	mov    %edi,%ecx
 1007608:	8b 54 24 14          	mov    0x14(%esp),%edx
 100760c:	29 ea                	sub    %ebp,%edx
 100760e:	19 f0                	sbb    %esi,%eax
 1007610:	d3 ea                	shr    %cl,%edx
 1007612:	0f b6 4c 24 2c       	movzbl 0x2c(%esp),%ecx
 1007617:	89 c6                	mov    %eax,%esi
 1007619:	d3 e6                	shl    %cl,%esi
 100761b:	89 f9                	mov    %edi,%ecx
 100761d:	09 f2                	or     %esi,%edx
 100761f:	d3 e8                	shr    %cl,%eax
 1007621:	e9 c8 fe ff ff       	jmp    10074ee <__moddi3+0xce>
 1007626:	8d 76 00             	lea    0x0(%esi),%esi
 1007629:	8d bc 27 00 00 00 00 	lea    0x0(%edi,%eiz,1),%edi
 1007630:	8b 44 24 14          	mov    0x14(%esp),%eax
 1007634:	2b 0c 24             	sub    (%esp),%ecx
 1007637:	1b 44 24 04          	sbb    0x4(%esp),%eax
 100763b:	89 ca                	mov    %ecx,%edx
 100763d:	e9 ac fe ff ff       	jmp    10074ee <__moddi3+0xce>
 1007642:	66 90                	xchg   %ax,%ax
 1007644:	66 90                	xchg   %ax,%ax
 1007646:	66 90                	xchg   %ax,%ax
 1007648:	66 90                	xchg   %ax,%ax
 100764a:	66 90                	xchg   %ax,%ax
 100764c:	66 90                	xchg   %ax,%ax
 100764e:	66 90                	xchg   %ax,%ax

01007650 <__udivdi3>:
 1007650:	55                   	push   %ebp
 1007651:	57                   	push   %edi
 1007652:	56                   	push   %esi
 1007653:	83 ec 10             	sub    $0x10,%esp
 1007656:	8b 54 24 2c          	mov    0x2c(%esp),%edx
 100765a:	8b 7c 24 20          	mov    0x20(%esp),%edi
 100765e:	8b 74 24 24          	mov    0x24(%esp),%esi
 1007662:	8b 4c 24 28          	mov    0x28(%esp),%ecx
 1007666:	85 d2                	test   %edx,%edx
 1007668:	89 7c 24 04          	mov    %edi,0x4(%esp)
 100766c:	89 34 24             	mov    %esi,(%esp)
 100766f:	89 c8                	mov    %ecx,%eax
 1007671:	75 3d                	jne    10076b0 <__udivdi3+0x60>
 1007673:	39 f1                	cmp    %esi,%ecx
 1007675:	0f 87 c5 00 00 00    	ja     1007740 <__udivdi3+0xf0>
 100767b:	85 c9                	test   %ecx,%ecx
 100767d:	89 cd                	mov    %ecx,%ebp
 100767f:	75 0b                	jne    100768c <__udivdi3+0x3c>
 1007681:	b8 01 00 00 00       	mov    $0x1,%eax
 1007686:	31 d2                	xor    %edx,%edx
 1007688:	f7 f1                	div    %ecx
 100768a:	89 c5                	mov    %eax,%ebp
 100768c:	89 f0                	mov    %esi,%eax
 100768e:	31 d2                	xor    %edx,%edx
 1007690:	f7 f5                	div    %ebp
 1007692:	89 c6                	mov    %eax,%esi
 1007694:	89 f8                	mov    %edi,%eax
 1007696:	f7 f5                	div    %ebp
 1007698:	89 f2                	mov    %esi,%edx
 100769a:	83 c4 10             	add    $0x10,%esp
 100769d:	5e                   	pop    %esi
 100769e:	5f                   	pop    %edi
 100769f:	5d                   	pop    %ebp
 10076a0:	c3                   	ret    
 10076a1:	eb 0d                	jmp    10076b0 <__udivdi3+0x60>
 10076a3:	90                   	nop
 10076a4:	90                   	nop
 10076a5:	90                   	nop
 10076a6:	90                   	nop
 10076a7:	90                   	nop
 10076a8:	90                   	nop
 10076a9:	90                   	nop
 10076aa:	90                   	nop
 10076ab:	90                   	nop
 10076ac:	90                   	nop
 10076ad:	90                   	nop
 10076ae:	90                   	nop
 10076af:	90                   	nop
 10076b0:	3b 14 24             	cmp    (%esp),%edx
 10076b3:	77 7b                	ja     1007730 <__udivdi3+0xe0>
 10076b5:	0f bd f2             	bsr    %edx,%esi
 10076b8:	83 f6 1f             	xor    $0x1f,%esi
 10076bb:	0f 84 9f 00 00 00    	je     1007760 <__udivdi3+0x110>
 10076c1:	bd 20 00 00 00       	mov    $0x20,%ebp
 10076c6:	89 d7                	mov    %edx,%edi
 10076c8:	89 f1                	mov    %esi,%ecx
 10076ca:	29 f5                	sub    %esi,%ebp
 10076cc:	d3 e7                	shl    %cl,%edi
 10076ce:	89 c2                	mov    %eax,%edx
 10076d0:	89 e9                	mov    %ebp,%ecx
 10076d2:	d3 ea                	shr    %cl,%edx
 10076d4:	89 f1                	mov    %esi,%ecx
 10076d6:	09 fa                	or     %edi,%edx
 10076d8:	8b 3c 24             	mov    (%esp),%edi
 10076db:	d3 e0                	shl    %cl,%eax
 10076dd:	89 54 24 08          	mov    %edx,0x8(%esp)
 10076e1:	89 e9                	mov    %ebp,%ecx
 10076e3:	89 44 24 0c          	mov    %eax,0xc(%esp)
 10076e7:	8b 44 24 04          	mov    0x4(%esp),%eax
 10076eb:	89 fa                	mov    %edi,%edx
 10076ed:	d3 ea                	shr    %cl,%edx
 10076ef:	89 f1                	mov    %esi,%ecx
 10076f1:	d3 e7                	shl    %cl,%edi
 10076f3:	89 e9                	mov    %ebp,%ecx
 10076f5:	d3 e8                	shr    %cl,%eax
 10076f7:	09 c7                	or     %eax,%edi
 10076f9:	89 f8                	mov    %edi,%eax
 10076fb:	f7 74 24 08          	divl   0x8(%esp)
 10076ff:	89 d5                	mov    %edx,%ebp
 1007701:	89 c7                	mov    %eax,%edi
 1007703:	f7 64 24 0c          	mull   0xc(%esp)
 1007707:	39 d5                	cmp    %edx,%ebp
 1007709:	89 14 24             	mov    %edx,(%esp)
 100770c:	72 11                	jb     100771f <__udivdi3+0xcf>
 100770e:	8b 54 24 04          	mov    0x4(%esp),%edx
 1007712:	89 f1                	mov    %esi,%ecx
 1007714:	d3 e2                	shl    %cl,%edx
 1007716:	39 c2                	cmp    %eax,%edx
 1007718:	73 66                	jae    1007780 <__udivdi3+0x130>
 100771a:	3b 2c 24             	cmp    (%esp),%ebp
 100771d:	75 61                	jne    1007780 <__udivdi3+0x130>
 100771f:	8d 47 ff             	lea    -0x1(%edi),%eax
 1007722:	31 f6                	xor    %esi,%esi
 1007724:	89 f2                	mov    %esi,%edx
 1007726:	83 c4 10             	add    $0x10,%esp
 1007729:	5e                   	pop    %esi
 100772a:	5f                   	pop    %edi
 100772b:	5d                   	pop    %ebp
 100772c:	c3                   	ret    
 100772d:	8d 76 00             	lea    0x0(%esi),%esi
 1007730:	31 f6                	xor    %esi,%esi
 1007732:	31 c0                	xor    %eax,%eax
 1007734:	89 f2                	mov    %esi,%edx
 1007736:	83 c4 10             	add    $0x10,%esp
 1007739:	5e                   	pop    %esi
 100773a:	5f                   	pop    %edi
 100773b:	5d                   	pop    %ebp
 100773c:	c3                   	ret    
 100773d:	8d 76 00             	lea    0x0(%esi),%esi
 1007740:	89 f2                	mov    %esi,%edx
 1007742:	31 f6                	xor    %esi,%esi
 1007744:	89 f8                	mov    %edi,%eax
 1007746:	f7 f1                	div    %ecx
 1007748:	89 f2                	mov    %esi,%edx
 100774a:	83 c4 10             	add    $0x10,%esp
 100774d:	5e                   	pop    %esi
 100774e:	5f                   	pop    %edi
 100774f:	5d                   	pop    %ebp
 1007750:	c3                   	ret    
 1007751:	eb 0d                	jmp    1007760 <__udivdi3+0x110>
 1007753:	90                   	nop
 1007754:	90                   	nop
 1007755:	90                   	nop
 1007756:	90                   	nop
 1007757:	90                   	nop
 1007758:	90                   	nop
 1007759:	90                   	nop
 100775a:	90                   	nop
 100775b:	90                   	nop
 100775c:	90                   	nop
 100775d:	90                   	nop
 100775e:	90                   	nop
 100775f:	90                   	nop
 1007760:	3b 4c 24 04          	cmp    0x4(%esp),%ecx
 1007764:	76 0b                	jbe    1007771 <__udivdi3+0x121>
 1007766:	31 c0                	xor    %eax,%eax
 1007768:	3b 14 24             	cmp    (%esp),%edx
 100776b:	0f 83 27 ff ff ff    	jae    1007698 <__udivdi3+0x48>
 1007771:	b8 01 00 00 00       	mov    $0x1,%eax
 1007776:	e9 1d ff ff ff       	jmp    1007698 <__udivdi3+0x48>
 100777b:	90                   	nop
 100777c:	8d 74 26 00          	lea    0x0(%esi,%eiz,1),%esi
 1007780:	89 f8                	mov    %edi,%eax
 1007782:	31 f6                	xor    %esi,%esi
 1007784:	e9 0f ff ff ff       	jmp    1007698 <__udivdi3+0x48>
 1007789:	66 90                	xchg   %ax,%ax
 100778b:	66 90                	xchg   %ax,%ax
 100778d:	66 90                	xchg   %ax,%ax
 100778f:	90                   	nop

01007790 <__umoddi3>:
 1007790:	55                   	push   %ebp
 1007791:	57                   	push   %edi
 1007792:	56                   	push   %esi
 1007793:	83 ec 20             	sub    $0x20,%esp
 1007796:	8b 44 24 34          	mov    0x34(%esp),%eax
 100779a:	8b 4c 24 30          	mov    0x30(%esp),%ecx
 100779e:	8b 7c 24 38          	mov    0x38(%esp),%edi
 10077a2:	89 c6                	mov    %eax,%esi
 10077a4:	89 44 24 10          	mov    %eax,0x10(%esp)
 10077a8:	8b 44 24 3c          	mov    0x3c(%esp),%eax
 10077ac:	89 4c 24 1c          	mov    %ecx,0x1c(%esp)
 10077b0:	89 7c 24 0c          	mov    %edi,0xc(%esp)
 10077b4:	89 4c 24 14          	mov    %ecx,0x14(%esp)
 10077b8:	89 74 24 18          	mov    %esi,0x18(%esp)
 10077bc:	85 c0                	test   %eax,%eax
 10077be:	89 c2                	mov    %eax,%edx
 10077c0:	75 1e                	jne    10077e0 <__umoddi3+0x50>
 10077c2:	39 f7                	cmp    %esi,%edi
 10077c4:	76 5a                	jbe    1007820 <__umoddi3+0x90>
 10077c6:	89 c8                	mov    %ecx,%eax
 10077c8:	89 f2                	mov    %esi,%edx
 10077ca:	f7 f7                	div    %edi
 10077cc:	89 d0                	mov    %edx,%eax
 10077ce:	31 d2                	xor    %edx,%edx
 10077d0:	83 c4 20             	add    $0x20,%esp
 10077d3:	5e                   	pop    %esi
 10077d4:	5f                   	pop    %edi
 10077d5:	5d                   	pop    %ebp
 10077d6:	c3                   	ret    
 10077d7:	89 f6                	mov    %esi,%esi
 10077d9:	8d bc 27 00 00 00 00 	lea    0x0(%edi,%eiz,1),%edi
 10077e0:	39 f0                	cmp    %esi,%eax
 10077e2:	77 5c                	ja     1007840 <__umoddi3+0xb0>
 10077e4:	0f bd e8             	bsr    %eax,%ebp
 10077e7:	83 f5 1f             	xor    $0x1f,%ebp
 10077ea:	75 64                	jne    1007850 <__umoddi3+0xc0>
 10077ec:	8b 6c 24 14          	mov    0x14(%esp),%ebp
 10077f0:	39 6c 24 0c          	cmp    %ebp,0xc(%esp)
 10077f4:	0f 86 f6 00 00 00    	jbe    10078f0 <__umoddi3+0x160>
 10077fa:	3b 44 24 18          	cmp    0x18(%esp),%eax
 10077fe:	0f 82 ec 00 00 00    	jb     10078f0 <__umoddi3+0x160>
 1007804:	8b 44 24 14          	mov    0x14(%esp),%eax
 1007808:	8b 54 24 18          	mov    0x18(%esp),%edx
 100780c:	83 c4 20             	add    $0x20,%esp
 100780f:	5e                   	pop    %esi
 1007810:	5f                   	pop    %edi
 1007811:	5d                   	pop    %ebp
 1007812:	c3                   	ret    
 1007813:	8d b6 00 00 00 00    	lea    0x0(%esi),%esi
 1007819:	8d bc 27 00 00 00 00 	lea    0x0(%edi,%eiz,1),%edi
 1007820:	85 ff                	test   %edi,%edi
 1007822:	89 fd                	mov    %edi,%ebp
 1007824:	75 0b                	jne    1007831 <__umoddi3+0xa1>
 1007826:	b8 01 00 00 00       	mov    $0x1,%eax
 100782b:	31 d2                	xor    %edx,%edx
 100782d:	f7 f7                	div    %edi
 100782f:	89 c5                	mov    %eax,%ebp
 1007831:	8b 44 24 10          	mov    0x10(%esp),%eax
 1007835:	31 d2                	xor    %edx,%edx
 1007837:	f7 f5                	div    %ebp
 1007839:	89 c8                	mov    %ecx,%eax
 100783b:	f7 f5                	div    %ebp
 100783d:	eb 8d                	jmp    10077cc <__umoddi3+0x3c>
 100783f:	90                   	nop
 1007840:	89 c8                	mov    %ecx,%eax
 1007842:	89 f2                	mov    %esi,%edx
 1007844:	83 c4 20             	add    $0x20,%esp
 1007847:	5e                   	pop    %esi
 1007848:	5f                   	pop    %edi
 1007849:	5d                   	pop    %ebp
 100784a:	c3                   	ret    
 100784b:	90                   	nop
 100784c:	8d 74 26 00          	lea    0x0(%esi,%eiz,1),%esi
 1007850:	b8 20 00 00 00       	mov    $0x20,%eax
 1007855:	89 e9                	mov    %ebp,%ecx
 1007857:	29 e8                	sub    %ebp,%eax
 1007859:	d3 e2                	shl    %cl,%edx
 100785b:	89 c7                	mov    %eax,%edi
 100785d:	89 44 24 18          	mov    %eax,0x18(%esp)
 1007861:	8b 44 24 0c          	mov    0xc(%esp),%eax
 1007865:	89 f9                	mov    %edi,%ecx
 1007867:	d3 e8                	shr    %cl,%eax
 1007869:	89 c1                	mov    %eax,%ecx
 100786b:	8b 44 24 0c          	mov    0xc(%esp),%eax
 100786f:	09 d1                	or     %edx,%ecx
 1007871:	89 fa                	mov    %edi,%edx
 1007873:	89 4c 24 10          	mov    %ecx,0x10(%esp)
 1007877:	89 e9                	mov    %ebp,%ecx
 1007879:	d3 e0                	shl    %cl,%eax
 100787b:	89 f9                	mov    %edi,%ecx
 100787d:	89 44 24 0c          	mov    %eax,0xc(%esp)
 1007881:	89 f0                	mov    %esi,%eax
 1007883:	d3 e8                	shr    %cl,%eax
 1007885:	89 e9                	mov    %ebp,%ecx
 1007887:	89 c7                	mov    %eax,%edi
 1007889:	8b 44 24 1c          	mov    0x1c(%esp),%eax
 100788d:	d3 e6                	shl    %cl,%esi
 100788f:	89 d1                	mov    %edx,%ecx
 1007891:	89 fa                	mov    %edi,%edx
 1007893:	d3 e8                	shr    %cl,%eax
 1007895:	89 e9                	mov    %ebp,%ecx
 1007897:	09 f0                	or     %esi,%eax
 1007899:	8b 74 24 1c          	mov    0x1c(%esp),%esi
 100789d:	f7 74 24 10          	divl   0x10(%esp)
 10078a1:	d3 e6                	shl    %cl,%esi
 10078a3:	89 d1                	mov    %edx,%ecx
 10078a5:	f7 64 24 0c          	mull   0xc(%esp)
 10078a9:	39 d1                	cmp    %edx,%ecx
 10078ab:	89 74 24 14          	mov    %esi,0x14(%esp)
 10078af:	89 d7                	mov    %edx,%edi
 10078b1:	89 c6                	mov    %eax,%esi
 10078b3:	72 0a                	jb     10078bf <__umoddi3+0x12f>
 10078b5:	39 44 24 14          	cmp    %eax,0x14(%esp)
 10078b9:	73 10                	jae    10078cb <__umoddi3+0x13b>
 10078bb:	39 d1                	cmp    %edx,%ecx
 10078bd:	75 0c                	jne    10078cb <__umoddi3+0x13b>
 10078bf:	89 d7                	mov    %edx,%edi
 10078c1:	89 c6                	mov    %eax,%esi
 10078c3:	2b 74 24 0c          	sub    0xc(%esp),%esi
 10078c7:	1b 7c 24 10          	sbb    0x10(%esp),%edi
 10078cb:	89 ca                	mov    %ecx,%edx
 10078cd:	89 e9                	mov    %ebp,%ecx
 10078cf:	8b 44 24 14          	mov    0x14(%esp),%eax
 10078d3:	29 f0                	sub    %esi,%eax
 10078d5:	19 fa                	sbb    %edi,%edx
 10078d7:	d3 e8                	shr    %cl,%eax
 10078d9:	0f b6 4c 24 18       	movzbl 0x18(%esp),%ecx
 10078de:	89 d7                	mov    %edx,%edi
 10078e0:	d3 e7                	shl    %cl,%edi
 10078e2:	89 e9                	mov    %ebp,%ecx
 10078e4:	09 f8                	or     %edi,%eax
 10078e6:	d3 ea                	shr    %cl,%edx
 10078e8:	83 c4 20             	add    $0x20,%esp
 10078eb:	5e                   	pop    %esi
 10078ec:	5f                   	pop    %edi
 10078ed:	5d                   	pop    %ebp
 10078ee:	c3                   	ret    
 10078ef:	90                   	nop
 10078f0:	8b 74 24 10          	mov    0x10(%esp),%esi
 10078f4:	29 f9                	sub    %edi,%ecx
 10078f6:	19 c6                	sbb    %eax,%esi
 10078f8:	89 4c 24 14          	mov    %ecx,0x14(%esp)
 10078fc:	89 74 24 18          	mov    %esi,0x18(%esp)
 1007900:	e9 ff fe ff ff       	jmp    1007804 <__umoddi3+0x74>
